
main.elf:     file format elf32-littleriscv


Disassembly of section .text:

00000000 <_isr_handler>:
       0:	0080006f          	j	8 <_isr_routine>
       4:	1440006f          	j	148 <_start>

00000008 <_isr_routine>:
       8:	f8010113          	addi	sp,sp,-128
       c:	00112023          	sw	ra,0(sp)
      10:	00312423          	sw	gp,8(sp)
      14:	00412623          	sw	tp,12(sp)
      18:	00512823          	sw	t0,16(sp)
      1c:	00612a23          	sw	t1,20(sp)
      20:	00712c23          	sw	t2,24(sp)
      24:	00812e23          	sw	s0,28(sp)
      28:	02912023          	sw	s1,32(sp)
      2c:	02a12223          	sw	a0,36(sp)
      30:	02b12423          	sw	a1,40(sp)
      34:	02c12623          	sw	a2,44(sp)
      38:	02d12823          	sw	a3,48(sp)
      3c:	02e12a23          	sw	a4,52(sp)
      40:	02f12c23          	sw	a5,56(sp)
      44:	03012e23          	sw	a6,60(sp)
      48:	05112023          	sw	a7,64(sp)
      4c:	05212223          	sw	s2,68(sp)
      50:	05312423          	sw	s3,72(sp)
      54:	05412623          	sw	s4,76(sp)
      58:	05512823          	sw	s5,80(sp)
      5c:	05612a23          	sw	s6,84(sp)
      60:	05712c23          	sw	s7,88(sp)
      64:	05812e23          	sw	s8,92(sp)
      68:	07912023          	sw	s9,96(sp)
      6c:	07a12223          	sw	s10,100(sp)
      70:	07b12423          	sw	s11,104(sp)
      74:	07c12623          	sw	t3,108(sp)
      78:	07d12823          	sw	t4,112(sp)
      7c:	07e12a23          	sw	t5,116(sp)
      80:	07f12c23          	sw	t6,120(sp)
      84:	342022f3          	csrr	t0,mcause
      88:	80000337          	lui	t1,0x80000
      8c:	02536463          	bltu	t1,t0,b4 <external_irq>
      90:	00028833          	add	a6,t0,zero
      94:	00b00313          	li	t1,11
      98:	00628463          	beq	t0,t1,a0 <skip_init_args>
      9c:	34102573          	csrr	a0,mepc

000000a0 <skip_init_args>:
      a0:	258000ef          	jal	2f8 <handle_exception>
      a4:	341022f3          	csrr	t0,mepc
      a8:	00428293          	addi	t0,t0,4
      ac:	34129073          	csrw	mepc,t0
      b0:	0180006f          	j	c8 <restore>

000000b4 <external_irq>:
      b4:	800002b7          	lui	t0,0x80000
      b8:	fff28293          	addi	t0,t0,-1 # 7fffffff <_stack_end+0x7fefae93>
      bc:	34202373          	csrr	t1,mcause
      c0:	0062f533          	and	a0,t0,t1
      c4:	44c040ef          	jal	4510 <handle_interrupt>

000000c8 <restore>:
      c8:	00012083          	lw	ra,0(sp)
      cc:	00812183          	lw	gp,8(sp)
      d0:	00c12203          	lw	tp,12(sp)
      d4:	01012283          	lw	t0,16(sp)
      d8:	01412303          	lw	t1,20(sp)
      dc:	01812383          	lw	t2,24(sp)
      e0:	01c12403          	lw	s0,28(sp)
      e4:	02012483          	lw	s1,32(sp)
      e8:	02412503          	lw	a0,36(sp)
      ec:	02812583          	lw	a1,40(sp)
      f0:	02c12603          	lw	a2,44(sp)
      f4:	03012683          	lw	a3,48(sp)
      f8:	03412703          	lw	a4,52(sp)
      fc:	03812783          	lw	a5,56(sp)
     100:	03c12803          	lw	a6,60(sp)
     104:	04012883          	lw	a7,64(sp)
     108:	04412903          	lw	s2,68(sp)
     10c:	04812983          	lw	s3,72(sp)
     110:	04c12a03          	lw	s4,76(sp)
     114:	05012a83          	lw	s5,80(sp)
     118:	05412b03          	lw	s6,84(sp)
     11c:	05812b83          	lw	s7,88(sp)
     120:	05c12c03          	lw	s8,92(sp)
     124:	06012c83          	lw	s9,96(sp)
     128:	06412d03          	lw	s10,100(sp)
     12c:	06812d83          	lw	s11,104(sp)
     130:	06c12e03          	lw	t3,108(sp)
     134:	07012e83          	lw	t4,112(sp)
     138:	07412f03          	lw	t5,116(sp)
     13c:	07812f83          	lw	t6,120(sp)
     140:	08010113          	addi	sp,sp,128
     144:	30200073          	mret

00000148 <_start>:
     148:	30401073          	csrw	mie,zero
     14c:	00105117          	auipc	sp,0x105
     150:	02010113          	addi	sp,sp,32 # 10516c <_stack_end>
     154:	00005197          	auipc	gp,0x5
     158:	25018193          	addi	gp,gp,592 # 53a4 <__global_pointer>
     15c:	00004517          	auipc	a0,0x4
     160:	78450513          	addi	a0,a0,1924 # 48e0 <welcome_msg>
     164:	00400893          	li	a7,4
     168:	00000073          	ecall
     16c:	564040ef          	jal	46d0 <main>

00000170 <loop>:
     170:	0000006f          	j	170 <loop>

00000174 <enable_interrupt>:
     174:	30486073          	csrsi	mie,16
     178:	30496073          	csrsi	mie,18
     17c:	3001e073          	csrsi	mstatus,3
     180:	00008067          	ret

00000184 <printc>:
     184:	04000737          	lui	a4,0x4000
     188:	04470713          	addi	a4,a4,68 # 4000044 <_stack_end+0x3efaed8>
     18c:	000106b7          	lui	a3,0x10
     190:	00072783          	lw	a5,0(a4)
     194:	fed7eee3          	bltu	a5,a3,190 <printc+0xc>
     198:	040007b7          	lui	a5,0x4000
     19c:	04a7a023          	sw	a0,64(a5) # 4000040 <_stack_end+0x3efaed4>
     1a0:	00008067          	ret

000001a4 <print>:
     1a4:	00054603          	lbu	a2,0(a0)
     1a8:	02060863          	beqz	a2,1d8 <print+0x34>
     1ac:	04000737          	lui	a4,0x4000
     1b0:	040005b7          	lui	a1,0x4000
     1b4:	04470713          	addi	a4,a4,68 # 4000044 <_stack_end+0x3efaed8>
     1b8:	04058593          	addi	a1,a1,64 # 4000040 <_stack_end+0x3efaed4>
     1bc:	000106b7          	lui	a3,0x10
     1c0:	00072783          	lw	a5,0(a4)
     1c4:	fed7eee3          	bltu	a5,a3,1c0 <print+0x1c>
     1c8:	00c5a023          	sw	a2,0(a1)
     1cc:	00154603          	lbu	a2,1(a0)
     1d0:	00150513          	addi	a0,a0,1
     1d4:	fe0616e3          	bnez	a2,1c0 <print+0x1c>
     1d8:	00008067          	ret

000001dc <print_dec>:
     1dc:	3b9ad737          	lui	a4,0x3b9ad
     1e0:	040006b7          	lui	a3,0x4000
     1e4:	04000337          	lui	t1,0x4000
     1e8:	ccccd8b7          	lui	a7,0xccccd
     1ec:	a0070713          	addi	a4,a4,-1536 # 3b9aca00 <_stack_end+0x3b8a7894>
     1f0:	04468693          	addi	a3,a3,68 # 4000044 <_stack_end+0x3efaed8>
     1f4:	04030313          	addi	t1,t1,64 # 4000040 <_stack_end+0x3efaed4>
     1f8:	ccd88893          	addi	a7,a7,-819 # cccccccd <_stack_end+0xccbc7b61>
     1fc:	00a00593          	li	a1,10
     200:	00000793          	li	a5,0
     204:	00010637          	lui	a2,0x10
     208:	04e57663          	bgeu	a0,a4,254 <print_dec+0x78>
     20c:	00078813          	mv	a6,a5
     210:	00000793          	li	a5,0
     214:	04081063          	bnez	a6,254 <print_dec+0x78>
     218:	03173833          	mulhu	a6,a4,a7
     21c:	fff58593          	addi	a1,a1,-1
     220:	02e57533          	remu	a0,a0,a4
     224:	00385713          	srli	a4,a6,0x3
     228:	fe0590e3          	bnez	a1,208 <print_dec+0x2c>
     22c:	02079263          	bnez	a5,250 <print_dec+0x74>
     230:	04000737          	lui	a4,0x4000
     234:	04470713          	addi	a4,a4,68 # 4000044 <_stack_end+0x3efaed8>
     238:	000106b7          	lui	a3,0x10
     23c:	00072783          	lw	a5,0(a4)
     240:	fed7eee3          	bltu	a5,a3,23c <print_dec+0x60>
     244:	040007b7          	lui	a5,0x4000
     248:	03000713          	li	a4,48
     24c:	04e7a023          	sw	a4,64(a5) # 4000040 <_stack_end+0x3efaed4>
     250:	00008067          	ret
     254:	02e55833          	divu	a6,a0,a4
     258:	03080813          	addi	a6,a6,48
     25c:	0ff87813          	zext.b	a6,a6
     260:	0006a783          	lw	a5,0(a3) # 10000 <__global_pointer+0xac5c>
     264:	fec7eee3          	bltu	a5,a2,260 <print_dec+0x84>
     268:	01032023          	sw	a6,0(t1)
     26c:	00100793          	li	a5,1
     270:	fa9ff06f          	j	218 <print_dec+0x3c>

00000274 <print_hex32>:
     274:	04000737          	lui	a4,0x4000
     278:	04470713          	addi	a4,a4,68 # 4000044 <_stack_end+0x3efaed8>
     27c:	000106b7          	lui	a3,0x10
     280:	00072783          	lw	a5,0(a4)
     284:	fed7eee3          	bltu	a5,a3,280 <print_hex32+0xc>
     288:	040007b7          	lui	a5,0x4000
     28c:	03000693          	li	a3,48
     290:	04d7a023          	sw	a3,64(a5) # 4000040 <_stack_end+0x3efaed4>
     294:	04478713          	addi	a4,a5,68
     298:	000106b7          	lui	a3,0x10
     29c:	00072783          	lw	a5,0(a4)
     2a0:	fed7eee3          	bltu	a5,a3,29c <print_hex32+0x28>
     2a4:	04000837          	lui	a6,0x4000
     2a8:	04080813          	addi	a6,a6,64 # 4000040 <_stack_end+0x3efaed4>
     2ac:	07800793          	li	a5,120
     2b0:	04000737          	lui	a4,0x4000
     2b4:	00f82023          	sw	a5,0(a6)
     2b8:	04470713          	addi	a4,a4,68 # 4000044 <_stack_end+0x3efaed8>
     2bc:	01c00613          	li	a2,28
     2c0:	00900313          	li	t1,9
     2c4:	000106b7          	lui	a3,0x10
     2c8:	ffc00893          	li	a7,-4
     2cc:	00c557b3          	srl	a5,a0,a2
     2d0:	00f7f793          	andi	a5,a5,15
     2d4:	03778593          	addi	a1,a5,55
     2d8:	00f36463          	bltu	t1,a5,2e0 <print_hex32+0x6c>
     2dc:	03078593          	addi	a1,a5,48
     2e0:	00072783          	lw	a5,0(a4)
     2e4:	fed7eee3          	bltu	a5,a3,2e0 <print_hex32+0x6c>
     2e8:	00b82023          	sw	a1,0(a6)
     2ec:	ffc60613          	addi	a2,a2,-4 # fffc <__global_pointer+0xac58>
     2f0:	fd161ee3          	bne	a2,a7,2cc <print_hex32+0x58>
     2f4:	00008067          	ret

000002f8 <handle_exception>:
     2f8:	00200793          	li	a5,2
     2fc:	1af80463          	beq	a6,a5,4a4 <handle_exception+0x1ac>
     300:	00b00793          	li	a5,11
     304:	12f80663          	beq	a6,a5,430 <handle_exception+0x138>
     308:	14081c63          	bnez	a6,460 <handle_exception+0x168>
     30c:	00005637          	lui	a2,0x5
     310:	000058b7          	lui	a7,0x5
     314:	04000737          	lui	a4,0x4000
     318:	04000837          	lui	a6,0x4000
     31c:	0c860613          	addi	a2,a2,200 # 50c8 <font5x7+0xb4>
     320:	0f788893          	addi	a7,a7,247 # 50f7 <font5x7+0xe3>
     324:	04470713          	addi	a4,a4,68 # 4000044 <_stack_end+0x3efaed8>
     328:	04080813          	addi	a6,a6,64 # 4000040 <_stack_end+0x3efaed4>
     32c:	00a00593          	li	a1,10
     330:	000106b7          	lui	a3,0x10
     334:	00072783          	lw	a5,0(a4)
     338:	fed7eee3          	bltu	a5,a3,334 <handle_exception+0x3c>
     33c:	00b82023          	sw	a1,0(a6)
     340:	00160613          	addi	a2,a2,1
     344:	00064583          	lbu	a1,0(a2)
     348:	ff1616e3          	bne	a2,a7,334 <handle_exception+0x3c>
     34c:	00005637          	lui	a2,0x5
     350:	000058b7          	lui	a7,0x5
     354:	04000737          	lui	a4,0x4000
     358:	04000837          	lui	a6,0x4000
     35c:	13c60613          	addi	a2,a2,316 # 513c <font5x7+0x128>
     360:	14f88893          	addi	a7,a7,335 # 514f <font5x7+0x13b>
     364:	04470713          	addi	a4,a4,68 # 4000044 <_stack_end+0x3efaed8>
     368:	04080813          	addi	a6,a6,64 # 4000040 <_stack_end+0x3efaed4>
     36c:	04500593          	li	a1,69
     370:	000106b7          	lui	a3,0x10
     374:	00072783          	lw	a5,0(a4)
     378:	fed7eee3          	bltu	a5,a3,374 <handle_exception+0x7c>
     37c:	00b82023          	sw	a1,0(a6)
     380:	00160613          	addi	a2,a2,1
     384:	00064583          	lbu	a1,0(a2)
     388:	ff1616e3          	bne	a2,a7,374 <handle_exception+0x7c>
     38c:	04000737          	lui	a4,0x4000
     390:	04470713          	addi	a4,a4,68 # 4000044 <_stack_end+0x3efaed8>
     394:	000106b7          	lui	a3,0x10
     398:	00072783          	lw	a5,0(a4)
     39c:	fed7eee3          	bltu	a5,a3,398 <handle_exception+0xa0>
     3a0:	040007b7          	lui	a5,0x4000
     3a4:	03000693          	li	a3,48
     3a8:	04d7a023          	sw	a3,64(a5) # 4000040 <_stack_end+0x3efaed4>
     3ac:	04478713          	addi	a4,a5,68
     3b0:	000106b7          	lui	a3,0x10
     3b4:	00072783          	lw	a5,0(a4)
     3b8:	fed7eee3          	bltu	a5,a3,3b4 <handle_exception+0xbc>
     3bc:	04000837          	lui	a6,0x4000
     3c0:	04080813          	addi	a6,a6,64 # 4000040 <_stack_end+0x3efaed4>
     3c4:	07800793          	li	a5,120
     3c8:	04000737          	lui	a4,0x4000
     3cc:	00f82023          	sw	a5,0(a6)
     3d0:	04470713          	addi	a4,a4,68 # 4000044 <_stack_end+0x3efaed8>
     3d4:	01c00613          	li	a2,28
     3d8:	00900313          	li	t1,9
     3dc:	000106b7          	lui	a3,0x10
     3e0:	ffc00893          	li	a7,-4
     3e4:	00c557b3          	srl	a5,a0,a2
     3e8:	00f7f793          	andi	a5,a5,15
     3ec:	03778593          	addi	a1,a5,55
     3f0:	00f36463          	bltu	t1,a5,3f8 <handle_exception+0x100>
     3f4:	03078593          	addi	a1,a5,48
     3f8:	00072783          	lw	a5,0(a4)
     3fc:	fed7eee3          	bltu	a5,a3,3f8 <handle_exception+0x100>
     400:	00b82023          	sw	a1,0(a6)
     404:	ffc60613          	addi	a2,a2,-4
     408:	fd161ee3          	bne	a2,a7,3e4 <handle_exception+0xec>
     40c:	04000737          	lui	a4,0x4000
     410:	04470713          	addi	a4,a4,68 # 4000044 <_stack_end+0x3efaed8>
     414:	000106b7          	lui	a3,0x10
     418:	00072783          	lw	a5,0(a4)
     41c:	fed7eee3          	bltu	a5,a3,418 <handle_exception+0x120>
     420:	040007b7          	lui	a5,0x4000
     424:	00a00713          	li	a4,10
     428:	04e7a023          	sw	a4,64(a5) # 4000040 <_stack_end+0x3efaed4>
     42c:	0000006f          	j	42c <handle_exception+0x134>
     430:	00400793          	li	a5,4
     434:	0af88a63          	beq	a7,a5,4e8 <handle_exception+0x1f0>
     438:	0f089463          	bne	a7,a6,520 <handle_exception+0x228>
     43c:	04000737          	lui	a4,0x4000
     440:	04470713          	addi	a4,a4,68 # 4000044 <_stack_end+0x3efaed8>
     444:	000106b7          	lui	a3,0x10
     448:	00072783          	lw	a5,0(a4)
     44c:	fed7eee3          	bltu	a5,a3,448 <handle_exception+0x150>
     450:	040007b7          	lui	a5,0x4000
     454:	0ff57513          	zext.b	a0,a0
     458:	04a7a023          	sw	a0,64(a5) # 4000040 <_stack_end+0x3efaed4>
     45c:	00008067          	ret
     460:	00005637          	lui	a2,0x5
     464:	000058b7          	lui	a7,0x5
     468:	04000737          	lui	a4,0x4000
     46c:	04000837          	lui	a6,0x4000
     470:	11c60613          	addi	a2,a2,284 # 511c <font5x7+0x108>
     474:	13888893          	addi	a7,a7,312 # 5138 <font5x7+0x124>
     478:	04470713          	addi	a4,a4,68 # 4000044 <_stack_end+0x3efaed8>
     47c:	04080813          	addi	a6,a6,64 # 4000040 <_stack_end+0x3efaed4>
     480:	00a00593          	li	a1,10
     484:	000106b7          	lui	a3,0x10
     488:	00072783          	lw	a5,0(a4)
     48c:	fed7eee3          	bltu	a5,a3,488 <handle_exception+0x190>
     490:	00b82023          	sw	a1,0(a6)
     494:	00160613          	addi	a2,a2,1
     498:	00064583          	lbu	a1,0(a2)
     49c:	ff1616e3          	bne	a2,a7,488 <handle_exception+0x190>
     4a0:	eadff06f          	j	34c <handle_exception+0x54>
     4a4:	00005637          	lui	a2,0x5
     4a8:	000058b7          	lui	a7,0x5
     4ac:	04000737          	lui	a4,0x4000
     4b0:	04000837          	lui	a6,0x4000
     4b4:	0f860613          	addi	a2,a2,248 # 50f8 <font5x7+0xe4>
     4b8:	11a88893          	addi	a7,a7,282 # 511a <font5x7+0x106>
     4bc:	04470713          	addi	a4,a4,68 # 4000044 <_stack_end+0x3efaed8>
     4c0:	04080813          	addi	a6,a6,64 # 4000040 <_stack_end+0x3efaed4>
     4c4:	00a00593          	li	a1,10
     4c8:	000106b7          	lui	a3,0x10
     4cc:	00072783          	lw	a5,0(a4)
     4d0:	fed7eee3          	bltu	a5,a3,4cc <handle_exception+0x1d4>
     4d4:	00b82023          	sw	a1,0(a6)
     4d8:	00160613          	addi	a2,a2,1
     4dc:	00064583          	lbu	a1,0(a2)
     4e0:	ff1616e3          	bne	a2,a7,4cc <handle_exception+0x1d4>
     4e4:	e69ff06f          	j	34c <handle_exception+0x54>
     4e8:	00054603          	lbu	a2,0(a0)
     4ec:	02060a63          	beqz	a2,520 <handle_exception+0x228>
     4f0:	04000737          	lui	a4,0x4000
     4f4:	040005b7          	lui	a1,0x4000
     4f8:	04470713          	addi	a4,a4,68 # 4000044 <_stack_end+0x3efaed8>
     4fc:	04058593          	addi	a1,a1,64 # 4000040 <_stack_end+0x3efaed4>
     500:	000106b7          	lui	a3,0x10
     504:	00072783          	lw	a5,0(a4)
     508:	fed7eee3          	bltu	a5,a3,504 <handle_exception+0x20c>
     50c:	00c5a023          	sw	a2,0(a1)
     510:	00154603          	lbu	a2,1(a0)
     514:	00150513          	addi	a0,a0,1
     518:	fe0616e3          	bnez	a2,504 <handle_exception+0x20c>
     51c:	00008067          	ret
     520:	00008067          	ret

00000524 <nextprime>:
     524:	00200793          	li	a5,2
     528:	02a7c063          	blt	a5,a0,548 <nextprime+0x24>
     52c:	00100693          	li	a3,1
     530:	00a05863          	blez	a0,540 <nextprime+0x1c>
     534:	fff50793          	addi	a5,a0,-1
     538:	00f037b3          	snez	a5,a5
     53c:	00278693          	addi	a3,a5,2
     540:	00068513          	mv	a0,a3
     544:	00008067          	ret
     548:	00150513          	addi	a0,a0,1
     54c:	00156693          	ori	a3,a0,1
     550:	00300793          	li	a5,3
     554:	02f6e733          	rem	a4,a3,a5
     558:	4016d613          	srai	a2,a3,0x1
     55c:	00260613          	addi	a2,a2,2
     560:	00178793          	addi	a5,a5,1
     564:	00070a63          	beqz	a4,578 <nextprime+0x54>
     568:	fcf60ce3          	beq	a2,a5,540 <nextprime+0x1c>
     56c:	02f6e733          	rem	a4,a3,a5
     570:	00178793          	addi	a5,a5,1
     574:	fe071ae3          	bnez	a4,568 <nextprime+0x44>
     578:	00268693          	addi	a3,a3,2 # 10002 <__global_pointer+0xac5e>
     57c:	fd5ff06f          	j	550 <nextprime+0x2c>

00000580 <set_rand_seed>:
     580:	000057b7          	lui	a5,0x5
     584:	d0a7a823          	sw	a0,-752(a5) # 4d10 <seed>
     588:	00008067          	ret

0000058c <rand>:
     58c:	00005737          	lui	a4,0x5
     590:	d1072683          	lw	a3,-752(a4) # 4d10 <seed>
     594:	00269793          	slli	a5,a3,0x2
     598:	00d787b3          	add	a5,a5,a3
     59c:	00479513          	slli	a0,a5,0x4
     5a0:	40f50533          	sub	a0,a0,a5
     5a4:	0b350513          	addi	a0,a0,179
     5a8:	03f57513          	andi	a0,a0,63
     5ac:	d0a72823          	sw	a0,-752(a4)
     5b0:	00008067          	ret

000005b4 <delay>:
     5b4:	00008067          	ret

000005b8 <joystick_init>:
     5b8:	040007b7          	lui	a5,0x4000
     5bc:	0e07a223          	sw	zero,228(a5) # 40000e4 <_stack_end+0x3efaf78>
     5c0:	00008067          	ret

000005c4 <get_joystick_data>:
     5c4:	040007b7          	lui	a5,0x4000
     5c8:	0e07a503          	lw	a0,224(a5) # 40000e0 <_stack_end+0x3efaf74>
     5cc:	00008067          	ret

000005d0 <joystick_left>:
     5d0:	040007b7          	lui	a5,0x4000
     5d4:	0e07a503          	lw	a0,224(a5) # 40000e0 <_stack_end+0x3efaf74>
     5d8:	00157513          	andi	a0,a0,1
     5dc:	00008067          	ret

000005e0 <joystick_right>:
     5e0:	040007b7          	lui	a5,0x4000
     5e4:	0e07a503          	lw	a0,224(a5) # 40000e0 <_stack_end+0x3efaf74>
     5e8:	00155513          	srli	a0,a0,0x1
     5ec:	00157513          	andi	a0,a0,1
     5f0:	00008067          	ret

000005f4 <spawn_piece>:
     5f4:	00005737          	lui	a4,0x5
     5f8:	ba870713          	addi	a4,a4,-1112 # 4ba8 <current_piece>
     5fc:	05050693          	addi	a3,a0,80
     600:	00070793          	mv	a5,a4
     604:	00852603          	lw	a2,8(a0)
     608:	00052803          	lw	a6,0(a0)
     60c:	00452583          	lw	a1,4(a0)
     610:	00c7a423          	sw	a2,8(a5)
     614:	0107a023          	sw	a6,0(a5)
     618:	00b7a223          	sw	a1,4(a5)
     61c:	00c52603          	lw	a2,12(a0)
     620:	01050513          	addi	a0,a0,16
     624:	01078793          	addi	a5,a5,16
     628:	fec7ae23          	sw	a2,-4(a5)
     62c:	fcd51ce3          	bne	a0,a3,604 <spawn_piece+0x10>
     630:	00300793          	li	a5,3
     634:	00072423          	sw	zero,8(a4)
     638:	00f72223          	sw	a5,4(a4)
     63c:	00008067          	ret

00000640 <is_filled>:
     640:	01052703          	lw	a4,16(a0)
     644:	00050793          	mv	a5,a0
     648:	00070e63          	beqz	a4,664 <is_filled+0x24>
     64c:	00452703          	lw	a4,4(a0)
     650:	00852683          	lw	a3,8(a0)
     654:	00a73613          	sltiu	a2,a4,10
     658:	00060663          	beqz	a2,664 <is_filled+0x24>
     65c:	0146b613          	sltiu	a2,a3,20
     660:	24061663          	bnez	a2,8ac <__heap_size+0xac>
     664:	0147a703          	lw	a4,20(a5)
     668:	02070063          	beqz	a4,688 <is_filled+0x48>
     66c:	0047a683          	lw	a3,4(a5)
     670:	0087a603          	lw	a2,8(a5)
     674:	00168713          	addi	a4,a3,1
     678:	00a73713          	sltiu	a4,a4,10
     67c:	00070663          	beqz	a4,688 <is_filled+0x48>
     680:	01463713          	sltiu	a4,a2,20
     684:	24071a63          	bnez	a4,8d8 <__heap_size+0xd8>
     688:	0187a703          	lw	a4,24(a5)
     68c:	02070063          	beqz	a4,6ac <is_filled+0x6c>
     690:	0047a683          	lw	a3,4(a5)
     694:	0087a603          	lw	a2,8(a5)
     698:	00268713          	addi	a4,a3,2
     69c:	00a73713          	sltiu	a4,a4,10
     6a0:	00070663          	beqz	a4,6ac <is_filled+0x6c>
     6a4:	01463713          	sltiu	a4,a2,20
     6a8:	28071863          	bnez	a4,938 <__heap_size+0x138>
     6ac:	01c7a703          	lw	a4,28(a5)
     6b0:	02070063          	beqz	a4,6d0 <is_filled+0x90>
     6b4:	0047a683          	lw	a3,4(a5)
     6b8:	0087a603          	lw	a2,8(a5)
     6bc:	00368713          	addi	a4,a3,3
     6c0:	00a73713          	sltiu	a4,a4,10
     6c4:	00070663          	beqz	a4,6d0 <is_filled+0x90>
     6c8:	01463713          	sltiu	a4,a2,20
     6cc:	22071e63          	bnez	a4,908 <__heap_size+0x108>
     6d0:	0207a703          	lw	a4,32(a5)
     6d4:	02070063          	beqz	a4,6f4 <is_filled+0xb4>
     6d8:	0087a703          	lw	a4,8(a5)
     6dc:	0047a603          	lw	a2,4(a5)
     6e0:	00170713          	addi	a4,a4,1
     6e4:	01473693          	sltiu	a3,a4,20
     6e8:	00068663          	beqz	a3,6f4 <is_filled+0xb4>
     6ec:	00a63693          	sltiu	a3,a2,10
     6f0:	26069c63          	bnez	a3,968 <__heap_size+0x168>
     6f4:	0247a703          	lw	a4,36(a5)
     6f8:	02070263          	beqz	a4,71c <is_filled+0xdc>
     6fc:	0047a603          	lw	a2,4(a5)
     700:	0087a703          	lw	a4,8(a5)
     704:	00160693          	addi	a3,a2,1
     708:	00a6b693          	sltiu	a3,a3,10
     70c:	00170713          	addi	a4,a4,1
     710:	00068663          	beqz	a3,71c <is_filled+0xdc>
     714:	01473693          	sltiu	a3,a4,20
     718:	28069063          	bnez	a3,998 <__heap_size+0x198>
     71c:	0287a703          	lw	a4,40(a5)
     720:	02070263          	beqz	a4,744 <is_filled+0x104>
     724:	0047a603          	lw	a2,4(a5)
     728:	0087a703          	lw	a4,8(a5)
     72c:	00260693          	addi	a3,a2,2
     730:	00a6b693          	sltiu	a3,a3,10
     734:	00170713          	addi	a4,a4,1
     738:	00068663          	beqz	a3,744 <is_filled+0x104>
     73c:	01473693          	sltiu	a3,a4,20
     740:	28069463          	bnez	a3,9c8 <__heap_size+0x1c8>
     744:	02c7a703          	lw	a4,44(a5)
     748:	02070263          	beqz	a4,76c <is_filled+0x12c>
     74c:	0047a603          	lw	a2,4(a5)
     750:	0087a703          	lw	a4,8(a5)
     754:	00360693          	addi	a3,a2,3
     758:	00a6b693          	sltiu	a3,a3,10
     75c:	00170713          	addi	a4,a4,1
     760:	00068663          	beqz	a3,76c <is_filled+0x12c>
     764:	01473693          	sltiu	a3,a4,20
     768:	28069863          	bnez	a3,9f8 <__heap_size+0x1f8>
     76c:	0307a703          	lw	a4,48(a5)
     770:	02070063          	beqz	a4,790 <is_filled+0x150>
     774:	0087a703          	lw	a4,8(a5)
     778:	0047a603          	lw	a2,4(a5)
     77c:	00270713          	addi	a4,a4,2
     780:	01473693          	sltiu	a3,a4,20
     784:	00068663          	beqz	a3,790 <is_filled+0x150>
     788:	00a63693          	sltiu	a3,a2,10
     78c:	28069e63          	bnez	a3,a28 <__heap_size+0x228>
     790:	0347a703          	lw	a4,52(a5)
     794:	02070263          	beqz	a4,7b8 <is_filled+0x178>
     798:	0047a603          	lw	a2,4(a5)
     79c:	0087a703          	lw	a4,8(a5)
     7a0:	00160693          	addi	a3,a2,1
     7a4:	00a6b693          	sltiu	a3,a3,10
     7a8:	00270713          	addi	a4,a4,2
     7ac:	00068663          	beqz	a3,7b8 <is_filled+0x178>
     7b0:	01473693          	sltiu	a3,a4,20
     7b4:	2a069263          	bnez	a3,a58 <__heap_size+0x258>
     7b8:	0387a703          	lw	a4,56(a5)
     7bc:	02070263          	beqz	a4,7e0 <is_filled+0x1a0>
     7c0:	0047a603          	lw	a2,4(a5)
     7c4:	0087a703          	lw	a4,8(a5)
     7c8:	00260693          	addi	a3,a2,2
     7cc:	00a6b693          	sltiu	a3,a3,10
     7d0:	00270713          	addi	a4,a4,2
     7d4:	00068663          	beqz	a3,7e0 <is_filled+0x1a0>
     7d8:	01473693          	sltiu	a3,a4,20
     7dc:	2a069663          	bnez	a3,a88 <__heap_size+0x288>
     7e0:	03c7a703          	lw	a4,60(a5)
     7e4:	02070263          	beqz	a4,808 <__heap_size+0x8>
     7e8:	0047a603          	lw	a2,4(a5)
     7ec:	0087a703          	lw	a4,8(a5)
     7f0:	00360693          	addi	a3,a2,3
     7f4:	00a6b693          	sltiu	a3,a3,10
     7f8:	00270713          	addi	a4,a4,2
     7fc:	00068663          	beqz	a3,808 <__heap_size+0x8>
     800:	01473693          	sltiu	a3,a4,20
     804:	2e069263          	bnez	a3,ae8 <__heap_size+0x2e8>
     808:	0407a703          	lw	a4,64(a5)
     80c:	02070063          	beqz	a4,82c <__heap_size+0x2c>
     810:	0047a683          	lw	a3,4(a5)
     814:	0087a703          	lw	a4,8(a5)
     818:	00a6b613          	sltiu	a2,a3,10
     81c:	00370713          	addi	a4,a4,3
     820:	00060663          	beqz	a2,82c <__heap_size+0x2c>
     824:	01473613          	sltiu	a2,a4,20
     828:	28061863          	bnez	a2,ab8 <__heap_size+0x2b8>
     82c:	0447a703          	lw	a4,68(a5)
     830:	02070263          	beqz	a4,854 <__heap_size+0x54>
     834:	0047a603          	lw	a2,4(a5)
     838:	0087a703          	lw	a4,8(a5)
     83c:	00160693          	addi	a3,a2,1
     840:	00a6b693          	sltiu	a3,a3,10
     844:	00370713          	addi	a4,a4,3
     848:	00068663          	beqz	a3,854 <__heap_size+0x54>
     84c:	01473693          	sltiu	a3,a4,20
     850:	2e069c63          	bnez	a3,b48 <__heap_size+0x348>
     854:	0487a703          	lw	a4,72(a5)
     858:	02070263          	beqz	a4,87c <__heap_size+0x7c>
     85c:	0047a603          	lw	a2,4(a5)
     860:	0087a703          	lw	a4,8(a5)
     864:	00260693          	addi	a3,a2,2
     868:	00a6b693          	sltiu	a3,a3,10
     86c:	00370713          	addi	a4,a4,3
     870:	00068663          	beqz	a3,87c <__heap_size+0x7c>
     874:	01473693          	sltiu	a3,a4,20
     878:	2a069063          	bnez	a3,b18 <__heap_size+0x318>
     87c:	04c7a503          	lw	a0,76(a5)
     880:	02050463          	beqz	a0,8a8 <__heap_size+0xa8>
     884:	0047a683          	lw	a3,4(a5)
     888:	0087a783          	lw	a5,8(a5)
     88c:	00368713          	addi	a4,a3,3
     890:	00a73713          	sltiu	a4,a4,10
     894:	00378793          	addi	a5,a5,3
     898:	00070663          	beqz	a4,8a4 <__heap_size+0xa4>
     89c:	0147b713          	sltiu	a4,a5,20
     8a0:	2c071c63          	bnez	a4,b78 <__heap_size+0x378>
     8a4:	00000513          	li	a0,0
     8a8:	00008067          	ret
     8ac:	00269613          	slli	a2,a3,0x2
     8b0:	00d60633          	add	a2,a2,a3
     8b4:	000056b7          	lui	a3,0x5
     8b8:	00161613          	slli	a2,a2,0x1
     8bc:	ba868693          	addi	a3,a3,-1112 # 4ba8 <current_piece>
     8c0:	00c686b3          	add	a3,a3,a2
     8c4:	00e68733          	add	a4,a3,a4
     8c8:	05074703          	lbu	a4,80(a4)
     8cc:	d8070ce3          	beqz	a4,664 <is_filled+0x24>
     8d0:	00100513          	li	a0,1
     8d4:	00008067          	ret
     8d8:	00261713          	slli	a4,a2,0x2
     8dc:	00c70633          	add	a2,a4,a2
     8e0:	00005737          	lui	a4,0x5
     8e4:	00161613          	slli	a2,a2,0x1
     8e8:	ba870713          	addi	a4,a4,-1112 # 4ba8 <current_piece>
     8ec:	00c70733          	add	a4,a4,a2
     8f0:	00d70733          	add	a4,a4,a3
     8f4:	05174703          	lbu	a4,81(a4)
     8f8:	fc071ce3          	bnez	a4,8d0 <__heap_size+0xd0>
     8fc:	0187a703          	lw	a4,24(a5)
     900:	da0706e3          	beqz	a4,6ac <is_filled+0x6c>
     904:	d8dff06f          	j	690 <is_filled+0x50>
     908:	00261713          	slli	a4,a2,0x2
     90c:	00c70633          	add	a2,a4,a2
     910:	00005737          	lui	a4,0x5
     914:	00161613          	slli	a2,a2,0x1
     918:	ba870713          	addi	a4,a4,-1112 # 4ba8 <current_piece>
     91c:	00c70733          	add	a4,a4,a2
     920:	00d70733          	add	a4,a4,a3
     924:	05374703          	lbu	a4,83(a4)
     928:	fa0714e3          	bnez	a4,8d0 <__heap_size+0xd0>
     92c:	0207a703          	lw	a4,32(a5)
     930:	dc0702e3          	beqz	a4,6f4 <is_filled+0xb4>
     934:	da5ff06f          	j	6d8 <is_filled+0x98>
     938:	00261713          	slli	a4,a2,0x2
     93c:	00c70633          	add	a2,a4,a2
     940:	00005737          	lui	a4,0x5
     944:	00161613          	slli	a2,a2,0x1
     948:	ba870713          	addi	a4,a4,-1112 # 4ba8 <current_piece>
     94c:	00c70733          	add	a4,a4,a2
     950:	00d70733          	add	a4,a4,a3
     954:	05274703          	lbu	a4,82(a4)
     958:	f6071ce3          	bnez	a4,8d0 <__heap_size+0xd0>
     95c:	01c7a703          	lw	a4,28(a5)
     960:	d60708e3          	beqz	a4,6d0 <is_filled+0x90>
     964:	d51ff06f          	j	6b4 <is_filled+0x74>
     968:	00271693          	slli	a3,a4,0x2
     96c:	00e686b3          	add	a3,a3,a4
     970:	00005737          	lui	a4,0x5
     974:	00169693          	slli	a3,a3,0x1
     978:	ba870713          	addi	a4,a4,-1112 # 4ba8 <current_piece>
     97c:	00d70733          	add	a4,a4,a3
     980:	00c70733          	add	a4,a4,a2
     984:	05074703          	lbu	a4,80(a4)
     988:	f40714e3          	bnez	a4,8d0 <__heap_size+0xd0>
     98c:	0247a703          	lw	a4,36(a5)
     990:	d80706e3          	beqz	a4,71c <is_filled+0xdc>
     994:	d69ff06f          	j	6fc <is_filled+0xbc>
     998:	00271693          	slli	a3,a4,0x2
     99c:	00e686b3          	add	a3,a3,a4
     9a0:	00005737          	lui	a4,0x5
     9a4:	00169693          	slli	a3,a3,0x1
     9a8:	ba870713          	addi	a4,a4,-1112 # 4ba8 <current_piece>
     9ac:	00d70733          	add	a4,a4,a3
     9b0:	00c70733          	add	a4,a4,a2
     9b4:	05174703          	lbu	a4,81(a4)
     9b8:	f0071ce3          	bnez	a4,8d0 <__heap_size+0xd0>
     9bc:	0287a703          	lw	a4,40(a5)
     9c0:	d80702e3          	beqz	a4,744 <is_filled+0x104>
     9c4:	d61ff06f          	j	724 <is_filled+0xe4>
     9c8:	00271693          	slli	a3,a4,0x2
     9cc:	00e686b3          	add	a3,a3,a4
     9d0:	00005737          	lui	a4,0x5
     9d4:	00169693          	slli	a3,a3,0x1
     9d8:	ba870713          	addi	a4,a4,-1112 # 4ba8 <current_piece>
     9dc:	00d70733          	add	a4,a4,a3
     9e0:	00c70733          	add	a4,a4,a2
     9e4:	05274703          	lbu	a4,82(a4)
     9e8:	ee0714e3          	bnez	a4,8d0 <__heap_size+0xd0>
     9ec:	02c7a703          	lw	a4,44(a5)
     9f0:	d6070ee3          	beqz	a4,76c <is_filled+0x12c>
     9f4:	d59ff06f          	j	74c <is_filled+0x10c>
     9f8:	00271693          	slli	a3,a4,0x2
     9fc:	00e686b3          	add	a3,a3,a4
     a00:	00005737          	lui	a4,0x5
     a04:	00169693          	slli	a3,a3,0x1
     a08:	ba870713          	addi	a4,a4,-1112 # 4ba8 <current_piece>
     a0c:	00d70733          	add	a4,a4,a3
     a10:	00c70733          	add	a4,a4,a2
     a14:	05374703          	lbu	a4,83(a4)
     a18:	ea071ce3          	bnez	a4,8d0 <__heap_size+0xd0>
     a1c:	0307a703          	lw	a4,48(a5)
     a20:	d60708e3          	beqz	a4,790 <is_filled+0x150>
     a24:	d51ff06f          	j	774 <is_filled+0x134>
     a28:	00271693          	slli	a3,a4,0x2
     a2c:	00e686b3          	add	a3,a3,a4
     a30:	00005737          	lui	a4,0x5
     a34:	00169693          	slli	a3,a3,0x1
     a38:	ba870713          	addi	a4,a4,-1112 # 4ba8 <current_piece>
     a3c:	00d70733          	add	a4,a4,a3
     a40:	00c70733          	add	a4,a4,a2
     a44:	05074703          	lbu	a4,80(a4)
     a48:	e80714e3          	bnez	a4,8d0 <__heap_size+0xd0>
     a4c:	0347a703          	lw	a4,52(a5)
     a50:	d60704e3          	beqz	a4,7b8 <is_filled+0x178>
     a54:	d45ff06f          	j	798 <is_filled+0x158>
     a58:	00271693          	slli	a3,a4,0x2
     a5c:	00e686b3          	add	a3,a3,a4
     a60:	00005737          	lui	a4,0x5
     a64:	00169693          	slli	a3,a3,0x1
     a68:	ba870713          	addi	a4,a4,-1112 # 4ba8 <current_piece>
     a6c:	00d70733          	add	a4,a4,a3
     a70:	00c70733          	add	a4,a4,a2
     a74:	05174703          	lbu	a4,81(a4)
     a78:	e4071ce3          	bnez	a4,8d0 <__heap_size+0xd0>
     a7c:	0387a703          	lw	a4,56(a5)
     a80:	d60700e3          	beqz	a4,7e0 <is_filled+0x1a0>
     a84:	d3dff06f          	j	7c0 <is_filled+0x180>
     a88:	00271693          	slli	a3,a4,0x2
     a8c:	00e686b3          	add	a3,a3,a4
     a90:	00005737          	lui	a4,0x5
     a94:	00169693          	slli	a3,a3,0x1
     a98:	ba870713          	addi	a4,a4,-1112 # 4ba8 <current_piece>
     a9c:	00d70733          	add	a4,a4,a3
     aa0:	00c70733          	add	a4,a4,a2
     aa4:	05274703          	lbu	a4,82(a4)
     aa8:	e20714e3          	bnez	a4,8d0 <__heap_size+0xd0>
     aac:	03c7a703          	lw	a4,60(a5)
     ab0:	d4070ce3          	beqz	a4,808 <__heap_size+0x8>
     ab4:	d35ff06f          	j	7e8 <is_filled+0x1a8>
     ab8:	00271613          	slli	a2,a4,0x2
     abc:	00e60633          	add	a2,a2,a4
     ac0:	00005737          	lui	a4,0x5
     ac4:	00161613          	slli	a2,a2,0x1
     ac8:	ba870713          	addi	a4,a4,-1112 # 4ba8 <current_piece>
     acc:	00c70733          	add	a4,a4,a2
     ad0:	00d70733          	add	a4,a4,a3
     ad4:	05074703          	lbu	a4,80(a4)
     ad8:	de071ce3          	bnez	a4,8d0 <__heap_size+0xd0>
     adc:	0447a703          	lw	a4,68(a5)
     ae0:	d6070ae3          	beqz	a4,854 <__heap_size+0x54>
     ae4:	d51ff06f          	j	834 <__heap_size+0x34>
     ae8:	00271693          	slli	a3,a4,0x2
     aec:	00e686b3          	add	a3,a3,a4
     af0:	00005737          	lui	a4,0x5
     af4:	00169693          	slli	a3,a3,0x1
     af8:	ba870713          	addi	a4,a4,-1112 # 4ba8 <current_piece>
     afc:	00d70733          	add	a4,a4,a3
     b00:	00c70733          	add	a4,a4,a2
     b04:	05374703          	lbu	a4,83(a4)
     b08:	dc0714e3          	bnez	a4,8d0 <__heap_size+0xd0>
     b0c:	0407a703          	lw	a4,64(a5)
     b10:	d0070ee3          	beqz	a4,82c <__heap_size+0x2c>
     b14:	cfdff06f          	j	810 <__heap_size+0x10>
     b18:	00271693          	slli	a3,a4,0x2
     b1c:	00e686b3          	add	a3,a3,a4
     b20:	00005737          	lui	a4,0x5
     b24:	00169693          	slli	a3,a3,0x1
     b28:	ba870713          	addi	a4,a4,-1112 # 4ba8 <current_piece>
     b2c:	00d70733          	add	a4,a4,a3
     b30:	00c70733          	add	a4,a4,a2
     b34:	05274703          	lbu	a4,82(a4)
     b38:	d8071ce3          	bnez	a4,8d0 <__heap_size+0xd0>
     b3c:	04c7a503          	lw	a0,76(a5)
     b40:	d60504e3          	beqz	a0,8a8 <__heap_size+0xa8>
     b44:	d41ff06f          	j	884 <__heap_size+0x84>
     b48:	00271693          	slli	a3,a4,0x2
     b4c:	00e686b3          	add	a3,a3,a4
     b50:	00005737          	lui	a4,0x5
     b54:	00169693          	slli	a3,a3,0x1
     b58:	ba870713          	addi	a4,a4,-1112 # 4ba8 <current_piece>
     b5c:	00d70733          	add	a4,a4,a3
     b60:	00c70733          	add	a4,a4,a2
     b64:	05174703          	lbu	a4,81(a4)
     b68:	d60714e3          	bnez	a4,8d0 <__heap_size+0xd0>
     b6c:	0487a703          	lw	a4,72(a5)
     b70:	d00706e3          	beqz	a4,87c <__heap_size+0x7c>
     b74:	ce9ff06f          	j	85c <__heap_size+0x5c>
     b78:	00279713          	slli	a4,a5,0x2
     b7c:	00f70733          	add	a4,a4,a5
     b80:	000057b7          	lui	a5,0x5
     b84:	00171713          	slli	a4,a4,0x1
     b88:	ba878793          	addi	a5,a5,-1112 # 4ba8 <current_piece>
     b8c:	00e787b3          	add	a5,a5,a4
     b90:	00d787b3          	add	a5,a5,a3
     b94:	0537c503          	lbu	a0,83(a5)
     b98:	00a03533          	snez	a0,a0
     b9c:	00008067          	ret

00000ba0 <draw_char>:
     ba0:	fd060793          	addi	a5,a2,-48
     ba4:	0ff7f813          	zext.b	a6,a5
     ba8:	00900713          	li	a4,9
     bac:	0d076863          	bltu	a4,a6,c7c <draw_char+0xdc>
     bb0:	00005837          	lui	a6,0x5
     bb4:	00279713          	slli	a4,a5,0x2
     bb8:	01480813          	addi	a6,a6,20 # 5014 <font5x7>
     bbc:	00f707b3          	add	a5,a4,a5
     bc0:	00f80833          	add	a6,a6,a5
     bc4:	00259793          	slli	a5,a1,0x2
     bc8:	00b787b3          	add	a5,a5,a1
     bcc:	00679793          	slli	a5,a5,0x6
     bd0:	00a78533          	add	a0,a5,a0
     bd4:	00580593          	addi	a1,a6,5
     bd8:	00005737          	lui	a4,0x5
     bdc:	00084783          	lbu	a5,0(a6)
     be0:	0017f613          	andi	a2,a5,1
     be4:	00060863          	beqz	a2,bf4 <draw_char+0x54>
     be8:	ba472603          	lw	a2,-1116(a4) # 4ba4 <VGA>
     bec:	00a60633          	add	a2,a2,a0
     bf0:	00d60023          	sb	a3,0(a2)
     bf4:	0027f613          	andi	a2,a5,2
     bf8:	00060863          	beqz	a2,c08 <draw_char+0x68>
     bfc:	ba472603          	lw	a2,-1116(a4)
     c00:	00a60633          	add	a2,a2,a0
     c04:	14d60023          	sb	a3,320(a2)
     c08:	0047f613          	andi	a2,a5,4
     c0c:	00060863          	beqz	a2,c1c <draw_char+0x7c>
     c10:	ba472603          	lw	a2,-1116(a4)
     c14:	00a60633          	add	a2,a2,a0
     c18:	28d60023          	sb	a3,640(a2)
     c1c:	0087f613          	andi	a2,a5,8
     c20:	00060863          	beqz	a2,c30 <draw_char+0x90>
     c24:	ba472603          	lw	a2,-1116(a4)
     c28:	00a60633          	add	a2,a2,a0
     c2c:	3cd60023          	sb	a3,960(a2)
     c30:	0107f613          	andi	a2,a5,16
     c34:	00060863          	beqz	a2,c44 <draw_char+0xa4>
     c38:	ba472603          	lw	a2,-1116(a4)
     c3c:	00a60633          	add	a2,a2,a0
     c40:	50d60023          	sb	a3,1280(a2)
     c44:	0207f613          	andi	a2,a5,32
     c48:	00060863          	beqz	a2,c58 <draw_char+0xb8>
     c4c:	ba472603          	lw	a2,-1116(a4)
     c50:	00a60633          	add	a2,a2,a0
     c54:	64d60023          	sb	a3,1600(a2)
     c58:	0407f793          	andi	a5,a5,64
     c5c:	00078863          	beqz	a5,c6c <draw_char+0xcc>
     c60:	ba472783          	lw	a5,-1116(a4)
     c64:	00a787b3          	add	a5,a5,a0
     c68:	78d78023          	sb	a3,1920(a5)
     c6c:	00180813          	addi	a6,a6,1
     c70:	00150513          	addi	a0,a0,1
     c74:	f70594e3          	bne	a1,a6,bdc <draw_char+0x3c>
     c78:	00008067          	ret
     c7c:	fbf60793          	addi	a5,a2,-65
     c80:	0ff7f793          	zext.b	a5,a5
     c84:	01900713          	li	a4,25
     c88:	fef768e3          	bltu	a4,a5,c78 <draw_char+0xd8>
     c8c:	fc960613          	addi	a2,a2,-55
     c90:	00261793          	slli	a5,a2,0x2
     c94:	00005837          	lui	a6,0x5
     c98:	00c787b3          	add	a5,a5,a2
     c9c:	01480813          	addi	a6,a6,20 # 5014 <font5x7>
     ca0:	00f80833          	add	a6,a6,a5
     ca4:	f21ff06f          	j	bc4 <draw_char+0x24>

00000ca8 <game_over>:
     ca8:	fd010113          	addi	sp,sp,-48
     cac:	00013637          	lui	a2,0x13
     cb0:	02812623          	sw	s0,44(sp)
     cb4:	02912423          	sw	s1,40(sp)
     cb8:	c0060613          	addi	a2,a2,-1024 # 12c00 <__global_pointer+0xd85c>
     cbc:	00000793          	li	a5,0
     cc0:	000056b7          	lui	a3,0x5
     cc4:	ba46a703          	lw	a4,-1116(a3) # 4ba4 <VGA>
     cc8:	00f70733          	add	a4,a4,a5
     ccc:	00070023          	sb	zero,0(a4)
     cd0:	00178793          	addi	a5,a5,1
     cd4:	fec798e3          	bne	a5,a2,cc4 <game_over+0x1c>
     cd8:	00005e37          	lui	t3,0x5
     cdc:	00005837          	lui	a6,0x5
     ce0:	00009eb7          	lui	t4,0x9
     ce4:	150e0e13          	addi	t3,t3,336 # 5150 <font5x7+0x13c>
     ce8:	01480813          	addi	a6,a6,20 # 5014 <font5x7>
     cec:	240e8e93          	addi	t4,t4,576 # 9240 <__global_pointer+0x3e9c>
     cf0:	07c00313          	li	t1,124
     cf4:	00900f93          	li	t6,9
     cf8:	fe000593          	li	a1,-32
     cfc:	01900293          	li	t0,25
     d00:	0c400f13          	li	t5,196
     d04:	000e4783          	lbu	a5,0(t3)
     d08:	fd078713          	addi	a4,a5,-48
     d0c:	0ff77613          	zext.b	a2,a4
     d10:	40cfe463          	bltu	t6,a2,1118 <game_over+0x470>
     d14:	00271613          	slli	a2,a4,0x2
     d18:	00e60633          	add	a2,a2,a4
     d1c:	00c80633          	add	a2,a6,a2
     d20:	00560893          	addi	a7,a2,5
     d24:	01d30733          	add	a4,t1,t4
     d28:	00064783          	lbu	a5,0(a2)
     d2c:	0017f513          	andi	a0,a5,1
     d30:	00050863          	beqz	a0,d40 <game_over+0x98>
     d34:	ba46a503          	lw	a0,-1116(a3)
     d38:	00e50533          	add	a0,a0,a4
     d3c:	88b50023          	sb	a1,-1920(a0)
     d40:	0027f513          	andi	a0,a5,2
     d44:	00050863          	beqz	a0,d54 <game_over+0xac>
     d48:	ba46a503          	lw	a0,-1116(a3)
     d4c:	00e50533          	add	a0,a0,a4
     d50:	9cb50023          	sb	a1,-1600(a0)
     d54:	0047f513          	andi	a0,a5,4
     d58:	00050863          	beqz	a0,d68 <game_over+0xc0>
     d5c:	ba46a503          	lw	a0,-1116(a3)
     d60:	00e50533          	add	a0,a0,a4
     d64:	b0b50023          	sb	a1,-1280(a0)
     d68:	0087f513          	andi	a0,a5,8
     d6c:	00050863          	beqz	a0,d7c <game_over+0xd4>
     d70:	ba46a503          	lw	a0,-1116(a3)
     d74:	00e50533          	add	a0,a0,a4
     d78:	c4b50023          	sb	a1,-960(a0)
     d7c:	0107f513          	andi	a0,a5,16
     d80:	00050863          	beqz	a0,d90 <game_over+0xe8>
     d84:	ba46a503          	lw	a0,-1116(a3)
     d88:	00e50533          	add	a0,a0,a4
     d8c:	d8b50023          	sb	a1,-640(a0)
     d90:	0207f513          	andi	a0,a5,32
     d94:	00050863          	beqz	a0,da4 <game_over+0xfc>
     d98:	ba46a503          	lw	a0,-1116(a3)
     d9c:	00e50533          	add	a0,a0,a4
     da0:	ecb50023          	sb	a1,-320(a0)
     da4:	0407f793          	andi	a5,a5,64
     da8:	00078863          	beqz	a5,db8 <game_over+0x110>
     dac:	ba46a783          	lw	a5,-1116(a3)
     db0:	00e787b3          	add	a5,a5,a4
     db4:	00b78023          	sb	a1,0(a5)
     db8:	00160613          	addi	a2,a2,1
     dbc:	00170713          	addi	a4,a4,1
     dc0:	f6c894e3          	bne	a7,a2,d28 <game_over+0x80>
     dc4:	00830313          	addi	t1,t1,8
     dc8:	001e0e13          	addi	t3,t3,1
     dcc:	f3e31ce3          	bne	t1,t5,d04 <game_over+0x5c>
     dd0:	00005e37          	lui	t3,0x5
     dd4:	0000aeb7          	lui	t4,0xa
     dd8:	15ce0e13          	addi	t3,t3,348 # 515c <font5x7+0x148>
     ddc:	d80e8e93          	addi	t4,t4,-640 # 9d80 <__global_pointer+0x49dc>
     de0:	08c00313          	li	t1,140
     de4:	00900f93          	li	t6,9
     de8:	fe000593          	li	a1,-32
     dec:	01900293          	li	t0,25
     df0:	0b400f13          	li	t5,180
     df4:	000e4783          	lbu	a5,0(t3)
     df8:	fd078713          	addi	a4,a5,-48
     dfc:	0ff77613          	zext.b	a2,a4
     e00:	32cfec63          	bltu	t6,a2,1138 <game_over+0x490>
     e04:	00271613          	slli	a2,a4,0x2
     e08:	00e60633          	add	a2,a2,a4
     e0c:	00c80633          	add	a2,a6,a2
     e10:	00560893          	addi	a7,a2,5
     e14:	01d30733          	add	a4,t1,t4
     e18:	00064783          	lbu	a5,0(a2)
     e1c:	0017f513          	andi	a0,a5,1
     e20:	00050863          	beqz	a0,e30 <game_over+0x188>
     e24:	ba46a503          	lw	a0,-1116(a3)
     e28:	00e50533          	add	a0,a0,a4
     e2c:	88b50023          	sb	a1,-1920(a0)
     e30:	0027f513          	andi	a0,a5,2
     e34:	00050863          	beqz	a0,e44 <game_over+0x19c>
     e38:	ba46a503          	lw	a0,-1116(a3)
     e3c:	00e50533          	add	a0,a0,a4
     e40:	9cb50023          	sb	a1,-1600(a0)
     e44:	0047f513          	andi	a0,a5,4
     e48:	00050863          	beqz	a0,e58 <game_over+0x1b0>
     e4c:	ba46a503          	lw	a0,-1116(a3)
     e50:	00e50533          	add	a0,a0,a4
     e54:	b0b50023          	sb	a1,-1280(a0)
     e58:	0087f513          	andi	a0,a5,8
     e5c:	00050863          	beqz	a0,e6c <game_over+0x1c4>
     e60:	ba46a503          	lw	a0,-1116(a3)
     e64:	00e50533          	add	a0,a0,a4
     e68:	c4b50023          	sb	a1,-960(a0)
     e6c:	0107f513          	andi	a0,a5,16
     e70:	00050863          	beqz	a0,e80 <game_over+0x1d8>
     e74:	ba46a503          	lw	a0,-1116(a3)
     e78:	00e50533          	add	a0,a0,a4
     e7c:	d8b50023          	sb	a1,-640(a0)
     e80:	0207f513          	andi	a0,a5,32
     e84:	00050863          	beqz	a0,e94 <game_over+0x1ec>
     e88:	ba46a503          	lw	a0,-1116(a3)
     e8c:	00e50533          	add	a0,a0,a4
     e90:	ecb50023          	sb	a1,-320(a0)
     e94:	0407f793          	andi	a5,a5,64
     e98:	00078863          	beqz	a5,ea8 <game_over+0x200>
     e9c:	ba46a783          	lw	a5,-1116(a3)
     ea0:	00e787b3          	add	a5,a5,a4
     ea4:	00b78023          	sb	a1,0(a5)
     ea8:	00160613          	addi	a2,a2,1
     eac:	00170713          	addi	a4,a4,1
     eb0:	f71614e3          	bne	a2,a7,e18 <game_over+0x170>
     eb4:	00830313          	addi	t1,t1,8
     eb8:	001e0e13          	addi	t3,t3,1
     ebc:	f3e31ce3          	bne	t1,t5,df4 <game_over+0x14c>
     ec0:	000057b7          	lui	a5,0x5
     ec4:	d147a883          	lw	a7,-748(a5) # 4d14 <score>
     ec8:	14f8b537          	lui	a0,0x14f8b
     ecc:	58950513          	addi	a0,a0,1417 # 14f8b589 <_stack_end+0x14e8641d>
     ed0:	02a89533          	mulh	a0,a7,a0
     ed4:	41f8df93          	srai	t6,a7,0x1f
     ed8:	666667b7          	lui	a5,0x66666
     edc:	66778793          	addi	a5,a5,1639 # 66666667 <_stack_end+0x665614fb>
     ee0:	68db95b7          	lui	a1,0x68db9
     ee4:	bad58593          	addi	a1,a1,-1107 # 68db8bad <_stack_end+0x68cb3a41>
     ee8:	10625637          	lui	a2,0x10625
     eec:	dd360613          	addi	a2,a2,-557 # 10624dd3 <_stack_end+0x1051fc67>
     ef0:	51eb8737          	lui	a4,0x51eb8
     ef4:	51f70713          	addi	a4,a4,1311 # 51eb851f <_stack_end+0x51db33b3>
     ef8:	40d55513          	srai	a0,a0,0xd
     efc:	41f50533          	sub	a0,a0,t6
     f00:	02f51f33          	mulh	t5,a0,a5
     f04:	41f55493          	srai	s1,a0,0x1f
     f08:	00810313          	addi	t1,sp,8
     f0c:	00000e13          	li	t3,0
     f10:	09100e93          	li	t4,145
     f14:	02b895b3          	mulh	a1,a7,a1
     f18:	402f5f13          	srai	t5,t5,0x2
     f1c:	409f0f33          	sub	t5,t5,s1
     f20:	002f1493          	slli	s1,t5,0x2
     f24:	01e48f33          	add	t5,s1,t5
     f28:	001f1f13          	slli	t5,t5,0x1
     f2c:	41e50533          	sub	a0,a0,t5
     f30:	00a12423          	sw	a0,8(sp)
     f34:	40c5d593          	srai	a1,a1,0xc
     f38:	41f585b3          	sub	a1,a1,t6
     f3c:	02f59533          	mulh	a0,a1,a5
     f40:	41f5d413          	srai	s0,a1,0x1f
     f44:	40255513          	srai	a0,a0,0x2
     f48:	40850533          	sub	a0,a0,s0
     f4c:	00251f13          	slli	t5,a0,0x2
     f50:	02c89633          	mulh	a2,a7,a2
     f54:	00af0533          	add	a0,t5,a0
     f58:	00151513          	slli	a0,a0,0x1
     f5c:	40a585b3          	sub	a1,a1,a0
     f60:	00b12623          	sw	a1,12(sp)
     f64:	02f89533          	mulh	a0,a7,a5
     f68:	40665613          	srai	a2,a2,0x6
     f6c:	41f60633          	sub	a2,a2,t6
     f70:	41f65393          	srai	t2,a2,0x1f
     f74:	02e89733          	mulh	a4,a7,a4
     f78:	40255513          	srai	a0,a0,0x2
     f7c:	41f50533          	sub	a0,a0,t6
     f80:	00251593          	slli	a1,a0,0x2
     f84:	00a585b3          	add	a1,a1,a0
     f88:	00159593          	slli	a1,a1,0x1
     f8c:	40b885b3          	sub	a1,a7,a1
     f90:	00b12e23          	sw	a1,28(sp)
     f94:	02f61f33          	mulh	t5,a2,a5
     f98:	40575713          	srai	a4,a4,0x5
     f9c:	41f70733          	sub	a4,a4,t6
     fa0:	41f75293          	srai	t0,a4,0x1f
     fa4:	41f55f93          	srai	t6,a0,0x1f
     fa8:	02f715b3          	mulh	a1,a4,a5
     fac:	402f5893          	srai	a7,t5,0x2
     fb0:	407888b3          	sub	a7,a7,t2
     fb4:	00289f13          	slli	t5,a7,0x2
     fb8:	011f08b3          	add	a7,t5,a7
     fbc:	00189893          	slli	a7,a7,0x1
     fc0:	41160633          	sub	a2,a2,a7
     fc4:	00c12823          	sw	a2,16(sp)
     fc8:	02f517b3          	mulh	a5,a0,a5
     fcc:	4025d613          	srai	a2,a1,0x2
     fd0:	40560633          	sub	a2,a2,t0
     fd4:	00261593          	slli	a1,a2,0x2
     fd8:	00c58633          	add	a2,a1,a2
     fdc:	00161613          	slli	a2,a2,0x1
     fe0:	40c70733          	sub	a4,a4,a2
     fe4:	00e12a23          	sw	a4,20(sp)
     fe8:	4027d793          	srai	a5,a5,0x2
     fec:	41f787b3          	sub	a5,a5,t6
     ff0:	00279713          	slli	a4,a5,0x2
     ff4:	00f707b3          	add	a5,a4,a5
     ff8:	00179793          	slli	a5,a5,0x1
     ffc:	40f507b3          	sub	a5,a0,a5
    1000:	00f12c23          	sw	a5,24(sp)
    1004:	00032783          	lw	a5,0(t1)
    1008:	ffbe0713          	addi	a4,t3,-5
    100c:	02079063          	bnez	a5,102c <game_over+0x384>
    1010:	00070e63          	beqz	a4,102c <game_over+0x384>
    1014:	00432783          	lw	a5,4(t1)
    1018:	001e0e13          	addi	t3,t3,1
    101c:	00430313          	addi	t1,t1,4
    1020:	008e8e93          	addi	t4,t4,8
    1024:	ffbe0713          	addi	a4,t3,-5
    1028:	fe0784e3          	beqz	a5,1010 <game_over+0x368>
    102c:	0000bf37          	lui	t5,0xb
    1030:	a00f0f13          	addi	t5,t5,-1536 # aa00 <__global_pointer+0x565c>
    1034:	00900293          	li	t0,9
    1038:	fe000593          	li	a1,-32
    103c:	00600f93          	li	t6,6
    1040:	00034703          	lbu	a4,0(t1)
    1044:	03070793          	addi	a5,a4,48
    1048:	0ff7f793          	zext.b	a5,a5
    104c:	10e2e663          	bltu	t0,a4,1158 <game_over+0x4b0>
    1050:	fd078793          	addi	a5,a5,-48
    1054:	00279613          	slli	a2,a5,0x2
    1058:	00f60633          	add	a2,a2,a5
    105c:	00c80633          	add	a2,a6,a2
    1060:	00560893          	addi	a7,a2,5
    1064:	01ee8733          	add	a4,t4,t5
    1068:	00064783          	lbu	a5,0(a2)
    106c:	0017f513          	andi	a0,a5,1
    1070:	00050863          	beqz	a0,1080 <game_over+0x3d8>
    1074:	ba46a503          	lw	a0,-1116(a3)
    1078:	00e50533          	add	a0,a0,a4
    107c:	88b50023          	sb	a1,-1920(a0)
    1080:	0027f513          	andi	a0,a5,2
    1084:	00050863          	beqz	a0,1094 <game_over+0x3ec>
    1088:	ba46a503          	lw	a0,-1116(a3)
    108c:	00e50533          	add	a0,a0,a4
    1090:	9cb50023          	sb	a1,-1600(a0)
    1094:	0047f513          	andi	a0,a5,4
    1098:	00050863          	beqz	a0,10a8 <game_over+0x400>
    109c:	ba46a503          	lw	a0,-1116(a3)
    10a0:	00e50533          	add	a0,a0,a4
    10a4:	b0b50023          	sb	a1,-1280(a0)
    10a8:	0087f513          	andi	a0,a5,8
    10ac:	00050863          	beqz	a0,10bc <game_over+0x414>
    10b0:	ba46a503          	lw	a0,-1116(a3)
    10b4:	00e50533          	add	a0,a0,a4
    10b8:	c4b50023          	sb	a1,-960(a0)
    10bc:	0107f513          	andi	a0,a5,16
    10c0:	00050863          	beqz	a0,10d0 <game_over+0x428>
    10c4:	ba46a503          	lw	a0,-1116(a3)
    10c8:	00e50533          	add	a0,a0,a4
    10cc:	d8b50023          	sb	a1,-640(a0)
    10d0:	0207f513          	andi	a0,a5,32
    10d4:	00050863          	beqz	a0,10e4 <game_over+0x43c>
    10d8:	ba46a503          	lw	a0,-1116(a3)
    10dc:	00e50533          	add	a0,a0,a4
    10e0:	ecb50023          	sb	a1,-320(a0)
    10e4:	0407f793          	andi	a5,a5,64
    10e8:	00078863          	beqz	a5,10f8 <game_over+0x450>
    10ec:	ba46a783          	lw	a5,-1116(a3)
    10f0:	00e787b3          	add	a5,a5,a4
    10f4:	00b78023          	sb	a1,0(a5)
    10f8:	00160613          	addi	a2,a2,1
    10fc:	00170713          	addi	a4,a4,1
    1100:	f71614e3          	bne	a2,a7,1068 <game_over+0x3c0>
    1104:	001e0e13          	addi	t3,t3,1
    1108:	00430313          	addi	t1,t1,4
    110c:	008e8e93          	addi	t4,t4,8
    1110:	f3fe18e3          	bne	t3,t6,1040 <game_over+0x398>
    1114:	0000006f          	j	1114 <game_over+0x46c>
    1118:	fbf78713          	addi	a4,a5,-65
    111c:	0ff77713          	zext.b	a4,a4
    1120:	cae2e2e3          	bltu	t0,a4,dc4 <game_over+0x11c>
    1124:	fc978793          	addi	a5,a5,-55
    1128:	00279613          	slli	a2,a5,0x2
    112c:	00f60633          	add	a2,a2,a5
    1130:	00c80633          	add	a2,a6,a2
    1134:	bedff06f          	j	d20 <game_over+0x78>
    1138:	fbf78713          	addi	a4,a5,-65
    113c:	0ff77713          	zext.b	a4,a4
    1140:	d6e2eae3          	bltu	t0,a4,eb4 <game_over+0x20c>
    1144:	fc978793          	addi	a5,a5,-55
    1148:	00279613          	slli	a2,a5,0x2
    114c:	00f60633          	add	a2,a2,a5
    1150:	00c80633          	add	a2,a6,a2
    1154:	cbdff06f          	j	e10 <game_over+0x168>
    1158:	fef70713          	addi	a4,a4,-17
    115c:	0ff77713          	zext.b	a4,a4
    1160:	01900613          	li	a2,25
    1164:	fae660e3          	bltu	a2,a4,1104 <game_over+0x45c>
    1168:	fc978793          	addi	a5,a5,-55
    116c:	00279613          	slli	a2,a5,0x2
    1170:	00f60633          	add	a2,a2,a5
    1174:	00c80633          	add	a2,a6,a2
    1178:	ee9ff06f          	j	1060 <game_over+0x3b8>

0000117c <spawn_next>:
    117c:	000057b7          	lui	a5,0x5
    1180:	ba878793          	addi	a5,a5,-1112 # 4ba8 <current_piece>
    1184:	11878713          	addi	a4,a5,280
    1188:	00078693          	mv	a3,a5
    118c:	16878613          	addi	a2,a5,360
    1190:	00872583          	lw	a1,8(a4)
    1194:	00072803          	lw	a6,0(a4)
    1198:	00472503          	lw	a0,4(a4)
    119c:	00b6a423          	sw	a1,8(a3)
    11a0:	0106a023          	sw	a6,0(a3)
    11a4:	00a6a223          	sw	a0,4(a3)
    11a8:	00c72583          	lw	a1,12(a4)
    11ac:	01070713          	addi	a4,a4,16
    11b0:	01068693          	addi	a3,a3,16
    11b4:	feb6ae23          	sw	a1,-4(a3)
    11b8:	fcc71ce3          	bne	a4,a2,1190 <spawn_next+0x14>
    11bc:	00005537          	lui	a0,0x5
    11c0:	d1052603          	lw	a2,-752(a0) # 4d10 <seed>
    11c4:	249256b7          	lui	a3,0x24925
    11c8:	92568693          	addi	a3,a3,-1755 # 24924925 <_stack_end+0x2481f7b9>
    11cc:	00261713          	slli	a4,a2,0x2
    11d0:	00c70733          	add	a4,a4,a2
    11d4:	00471593          	slli	a1,a4,0x4
    11d8:	40e585b3          	sub	a1,a1,a4
    11dc:	0b358593          	addi	a1,a1,179
    11e0:	03f5f593          	andi	a1,a1,63
    11e4:	0ff5f613          	zext.b	a2,a1
    11e8:	02d636b3          	mulhu	a3,a2,a3
    11ec:	d0b52823          	sw	a1,-752(a0)
    11f0:	00005737          	lui	a4,0x5
    11f4:	97470713          	addi	a4,a4,-1676 # 4974 <pieces>
    11f8:	00300813          	li	a6,3
    11fc:	0007a423          	sw	zero,8(a5)
    1200:	0107a223          	sw	a6,4(a5)
    1204:	11878593          	addi	a1,a5,280
    1208:	40d60533          	sub	a0,a2,a3
    120c:	00155513          	srli	a0,a0,0x1
    1210:	00a686b3          	add	a3,a3,a0
    1214:	0026d693          	srli	a3,a3,0x2
    1218:	00369513          	slli	a0,a3,0x3
    121c:	40d506b3          	sub	a3,a0,a3
    1220:	40d60633          	sub	a2,a2,a3
    1224:	0ff67613          	zext.b	a2,a2
    1228:	00261693          	slli	a3,a2,0x2
    122c:	00c686b3          	add	a3,a3,a2
    1230:	00469693          	slli	a3,a3,0x4
    1234:	00d70733          	add	a4,a4,a3
    1238:	05070693          	addi	a3,a4,80
    123c:	00872603          	lw	a2,8(a4)
    1240:	00072803          	lw	a6,0(a4)
    1244:	00472503          	lw	a0,4(a4)
    1248:	00c5a423          	sw	a2,8(a1)
    124c:	0105a023          	sw	a6,0(a1)
    1250:	00a5a223          	sw	a0,4(a1)
    1254:	00c72603          	lw	a2,12(a4)
    1258:	01070713          	addi	a4,a4,16
    125c:	01058593          	addi	a1,a1,16
    1260:	fec5ae23          	sw	a2,-4(a1)
    1264:	fcd71ce3          	bne	a4,a3,123c <spawn_next+0xc0>
    1268:	0107a703          	lw	a4,16(a5)
    126c:	00070663          	beqz	a4,1278 <spawn_next+0xfc>
    1270:	0537c703          	lbu	a4,83(a5)
    1274:	0e071c63          	bnez	a4,136c <spawn_next+0x1f0>
    1278:	0147a703          	lw	a4,20(a5)
    127c:	00070663          	beqz	a4,1288 <spawn_next+0x10c>
    1280:	0547c703          	lbu	a4,84(a5)
    1284:	0e071463          	bnez	a4,136c <spawn_next+0x1f0>
    1288:	0187a703          	lw	a4,24(a5)
    128c:	00070663          	beqz	a4,1298 <spawn_next+0x11c>
    1290:	0557c703          	lbu	a4,85(a5)
    1294:	0c071c63          	bnez	a4,136c <spawn_next+0x1f0>
    1298:	01c7a703          	lw	a4,28(a5)
    129c:	00070663          	beqz	a4,12a8 <spawn_next+0x12c>
    12a0:	0567c703          	lbu	a4,86(a5)
    12a4:	0c071463          	bnez	a4,136c <spawn_next+0x1f0>
    12a8:	0207a703          	lw	a4,32(a5)
    12ac:	00070663          	beqz	a4,12b8 <spawn_next+0x13c>
    12b0:	05d7c703          	lbu	a4,93(a5)
    12b4:	0a071c63          	bnez	a4,136c <spawn_next+0x1f0>
    12b8:	0247a703          	lw	a4,36(a5)
    12bc:	00070663          	beqz	a4,12c8 <spawn_next+0x14c>
    12c0:	05e7c703          	lbu	a4,94(a5)
    12c4:	0a071463          	bnez	a4,136c <spawn_next+0x1f0>
    12c8:	0287a703          	lw	a4,40(a5)
    12cc:	00070663          	beqz	a4,12d8 <spawn_next+0x15c>
    12d0:	05f7c703          	lbu	a4,95(a5)
    12d4:	08071c63          	bnez	a4,136c <spawn_next+0x1f0>
    12d8:	02c7a703          	lw	a4,44(a5)
    12dc:	00070663          	beqz	a4,12e8 <spawn_next+0x16c>
    12e0:	0607c703          	lbu	a4,96(a5)
    12e4:	08071463          	bnez	a4,136c <spawn_next+0x1f0>
    12e8:	0307a703          	lw	a4,48(a5)
    12ec:	00070663          	beqz	a4,12f8 <spawn_next+0x17c>
    12f0:	0677c703          	lbu	a4,103(a5)
    12f4:	06071c63          	bnez	a4,136c <spawn_next+0x1f0>
    12f8:	0347a703          	lw	a4,52(a5)
    12fc:	00070663          	beqz	a4,1308 <spawn_next+0x18c>
    1300:	0687c703          	lbu	a4,104(a5)
    1304:	06071463          	bnez	a4,136c <spawn_next+0x1f0>
    1308:	0387a703          	lw	a4,56(a5)
    130c:	00070663          	beqz	a4,1318 <spawn_next+0x19c>
    1310:	0697c703          	lbu	a4,105(a5)
    1314:	04071c63          	bnez	a4,136c <spawn_next+0x1f0>
    1318:	03c7a703          	lw	a4,60(a5)
    131c:	00070663          	beqz	a4,1328 <spawn_next+0x1ac>
    1320:	06a7c703          	lbu	a4,106(a5)
    1324:	04071463          	bnez	a4,136c <spawn_next+0x1f0>
    1328:	0407a703          	lw	a4,64(a5)
    132c:	00070663          	beqz	a4,1338 <spawn_next+0x1bc>
    1330:	0717c703          	lbu	a4,113(a5)
    1334:	02071c63          	bnez	a4,136c <spawn_next+0x1f0>
    1338:	0447a703          	lw	a4,68(a5)
    133c:	00070663          	beqz	a4,1348 <spawn_next+0x1cc>
    1340:	0727c703          	lbu	a4,114(a5)
    1344:	02071463          	bnez	a4,136c <spawn_next+0x1f0>
    1348:	0487a703          	lw	a4,72(a5)
    134c:	00070663          	beqz	a4,1358 <spawn_next+0x1dc>
    1350:	0737c703          	lbu	a4,115(a5)
    1354:	00071c63          	bnez	a4,136c <spawn_next+0x1f0>
    1358:	04c7a703          	lw	a4,76(a5)
    135c:	00070663          	beqz	a4,1368 <spawn_next+0x1ec>
    1360:	0747c783          	lbu	a5,116(a5)
    1364:	00079463          	bnez	a5,136c <spawn_next+0x1f0>
    1368:	00008067          	ret
    136c:	ff010113          	addi	sp,sp,-16
    1370:	00112623          	sw	ra,12(sp)
    1374:	935ff0ef          	jal	ca8 <game_over>

00001378 <labinit>:
    1378:	ffffc6b7          	lui	a3,0xffffc
    137c:	040007b7          	lui	a5,0x4000
    1380:	6bf68693          	addi	a3,a3,1727 # ffffc6bf <_stack_end+0xffef7553>
    1384:	02d79423          	sh	a3,40(a5) # 4000028 <_stack_end+0x3efaebc>
    1388:	02d00693          	li	a3,45
    138c:	02d79623          	sh	a3,44(a5)
    1390:	00700693          	li	a3,7
    1394:	02d79223          	sh	a3,36(a5)
    1398:	00100693          	li	a3,1
    139c:	0cd7ac23          	sw	a3,216(a5)
    13a0:	0cd7ae23          	sw	a3,220(a5)
    13a4:	dd1fe06f          	j	174 <enable_interrupt>

000013a8 <get_btn>:
    13a8:	040007b7          	lui	a5,0x4000
    13ac:	0d07a503          	lw	a0,208(a5) # 40000d0 <_stack_end+0x3efaf64>
    13b0:	00157513          	andi	a0,a0,1
    13b4:	00008067          	ret

000013b8 <get_sw>:
    13b8:	040007b7          	lui	a5,0x4000
    13bc:	0107a503          	lw	a0,16(a5) # 4000010 <_stack_end+0x3efaea4>
    13c0:	3ff57513          	andi	a0,a0,1023
    13c4:	00008067          	ret

000013c8 <draw_grid>:
    13c8:	fe010113          	addi	sp,sp,-32
    13cc:	00002737          	lui	a4,0x2
    13d0:	000117b7          	lui	a5,0x11
    13d4:	3da78793          	addi	a5,a5,986 # 113da <__global_pointer+0xc036>
    13d8:	01312823          	sw	s3,16(sp)
    13dc:	9da70713          	addi	a4,a4,-1574 # 19da <update_shape.constprop.1+0xc2>
    13e0:	000059b7          	lui	s3,0x5
    13e4:	00812e23          	sw	s0,28(sp)
    13e8:	00912c23          	sw	s1,24(sp)
    13ec:	01212a23          	sw	s2,20(sp)
    13f0:	01412623          	sw	s4,12(sp)
    13f4:	00e50933          	add	s2,a0,a4
    13f8:	00f50a33          	add	s4,a0,a5
    13fc:	bf898993          	addi	s3,s3,-1032 # 4bf8 <grid>
    1400:	01200793          	li	a5,18
    1404:	20100493          	li	s1,513
    1408:	00a00413          	li	s0,10
    140c:	f9c90293          	addi	t0,s2,-100
    1410:	00098f93          	mv	t6,s3
    1414:	000fc383          	lbu	t2,0(t6)
    1418:	00039463          	bnez	t2,1420 <draw_grid+0x58>
    141c:	01200393          	li	t2,18
    1420:	ff828613          	addi	a2,t0,-8
    1424:	fff28f13          	addi	t5,t0,-1
    1428:	ffe28e93          	addi	t4,t0,-2
    142c:	ffd28e13          	addi	t3,t0,-3
    1430:	ffc28313          	addi	t1,t0,-4
    1434:	ffb28893          	addi	a7,t0,-5
    1438:	ffa28813          	addi	a6,t0,-6
    143c:	ff928513          	addi	a0,t0,-7
    1440:	00028593          	mv	a1,t0
    1444:	20100693          	li	a3,513
    1448:	00000713          	li	a4,0
    144c:	0980006f          	j	14e4 <draw_grid+0x11c>
    1450:	000fc683          	lbu	a3,0(t6)
    1454:	12069c63          	bnez	a3,158c <draw_grid+0x1c4>
    1458:	00050023          	sb	zero,0(a0)
    145c:	000fc683          	lbu	a3,0(t6)
    1460:	12069263          	bnez	a3,1584 <draw_grid+0x1bc>
    1464:	00080023          	sb	zero,0(a6)
    1468:	000fc683          	lbu	a3,0(t6)
    146c:	10069863          	bnez	a3,157c <draw_grid+0x1b4>
    1470:	00088023          	sb	zero,0(a7)
    1474:	000fc683          	lbu	a3,0(t6)
    1478:	0e069e63          	bnez	a3,1574 <draw_grid+0x1ac>
    147c:	00030023          	sb	zero,0(t1)
    1480:	000fc683          	lbu	a3,0(t6)
    1484:	0e069463          	bnez	a3,156c <draw_grid+0x1a4>
    1488:	000e0023          	sb	zero,0(t3)
    148c:	000fc683          	lbu	a3,0(t6)
    1490:	0c069a63          	bnez	a3,1564 <draw_grid+0x19c>
    1494:	000e8023          	sb	zero,0(t4)
    1498:	000fc683          	lbu	a3,0(t6)
    149c:	0c069063          	bnez	a3,155c <draw_grid+0x194>
    14a0:	000f0023          	sb	zero,0(t5)
    14a4:	000fc683          	lbu	a3,0(t6)
    14a8:	0a069663          	bnez	a3,1554 <draw_grid+0x18c>
    14ac:	00058023          	sb	zero,0(a1)
    14b0:	00f604a3          	sb	a5,9(a2)
    14b4:	00170713          	addi	a4,a4,1
    14b8:	06870263          	beq	a4,s0,151c <draw_grid+0x154>
    14bc:	14060613          	addi	a2,a2,320
    14c0:	14058593          	addi	a1,a1,320
    14c4:	140f0f13          	addi	t5,t5,320
    14c8:	140e8e93          	addi	t4,t4,320
    14cc:	140e0e13          	addi	t3,t3,320
    14d0:	14030313          	addi	t1,t1,320
    14d4:	14088893          	addi	a7,a7,320
    14d8:	14080813          	addi	a6,a6,320
    14dc:	14050513          	addi	a0,a0,320
    14e0:	00e4d6b3          	srl	a3,s1,a4
    14e4:	00f60023          	sb	a5,0(a2)
    14e8:	0016f693          	andi	a3,a3,1
    14ec:	f60682e3          	beqz	a3,1450 <draw_grid+0x88>
    14f0:	00f50023          	sb	a5,0(a0)
    14f4:	00f80023          	sb	a5,0(a6)
    14f8:	00f88023          	sb	a5,0(a7)
    14fc:	00f30023          	sb	a5,0(t1)
    1500:	00fe0023          	sb	a5,0(t3)
    1504:	00fe8023          	sb	a5,0(t4)
    1508:	00ff0023          	sb	a5,0(t5)
    150c:	00f58023          	sb	a5,0(a1)
    1510:	00f604a3          	sb	a5,9(a2)
    1514:	00170713          	addi	a4,a4,1
    1518:	fa8712e3          	bne	a4,s0,14bc <draw_grid+0xf4>
    151c:	00a28293          	addi	t0,t0,10
    1520:	001f8f93          	addi	t6,t6,1
    1524:	ef2298e3          	bne	t0,s2,1414 <draw_grid+0x4c>
    1528:	7ff28913          	addi	s2,t0,2047
    152c:	48190913          	addi	s2,s2,1153
    1530:	00a98993          	addi	s3,s3,10
    1534:	ed491ce3          	bne	s2,s4,140c <draw_grid+0x44>
    1538:	01c12403          	lw	s0,28(sp)
    153c:	01812483          	lw	s1,24(sp)
    1540:	01412903          	lw	s2,20(sp)
    1544:	01012983          	lw	s3,16(sp)
    1548:	00c12a03          	lw	s4,12(sp)
    154c:	02010113          	addi	sp,sp,32
    1550:	00008067          	ret
    1554:	00758023          	sb	t2,0(a1)
    1558:	f59ff06f          	j	14b0 <draw_grid+0xe8>
    155c:	007f0023          	sb	t2,0(t5)
    1560:	f45ff06f          	j	14a4 <draw_grid+0xdc>
    1564:	007e8023          	sb	t2,0(t4)
    1568:	f31ff06f          	j	1498 <draw_grid+0xd0>
    156c:	007e0023          	sb	t2,0(t3)
    1570:	f1dff06f          	j	148c <draw_grid+0xc4>
    1574:	00730023          	sb	t2,0(t1)
    1578:	f09ff06f          	j	1480 <draw_grid+0xb8>
    157c:	00788023          	sb	t2,0(a7)
    1580:	ef5ff06f          	j	1474 <draw_grid+0xac>
    1584:	00780023          	sb	t2,0(a6)
    1588:	ee1ff06f          	j	1468 <draw_grid+0xa0>
    158c:	00750023          	sb	t2,0(a0)
    1590:	ecdff06f          	j	145c <draw_grid+0x94>

00001594 <draw_shape>:
    1594:	7ff50313          	addi	t1,a0,2047
    1598:	48130313          	addi	t1,t1,1153
    159c:	00000893          	li	a7,0
    15a0:	00400e13          	li	t3,4
    15a4:	00489813          	slli	a6,a7,0x4
    15a8:	01058833          	add	a6,a1,a6
    15ac:	00000613          	li	a2,0
    15b0:	01082783          	lw	a5,16(a6)
    15b4:	00079e63          	bnez	a5,15d0 <draw_shape+0x3c>
    15b8:	00160613          	addi	a2,a2,1
    15bc:	00480813          	addi	a6,a6,4
    15c0:	ffc618e3          	bne	a2,t3,15b0 <draw_shape+0x1c>
    15c4:	00188893          	addi	a7,a7,1
    15c8:	fcc89ee3          	bne	a7,a2,15a4 <draw_shape+0x10>
    15cc:	00008067          	ret
    15d0:	0085a703          	lw	a4,8(a1)
    15d4:	0045ae83          	lw	t4,4(a1)
    15d8:	00e88733          	add	a4,a7,a4
    15dc:	00271793          	slli	a5,a4,0x2
    15e0:	00e787b3          	add	a5,a5,a4
    15e4:	01d60eb3          	add	t4,a2,t4
    15e8:	00179793          	slli	a5,a5,0x1
    15ec:	01478793          	addi	a5,a5,20
    15f0:	002e9713          	slli	a4,t4,0x2
    15f4:	00279693          	slli	a3,a5,0x2
    15f8:	01d70733          	add	a4,a4,t4
    15fc:	00f686b3          	add	a3,a3,a5
    1600:	00171793          	slli	a5,a4,0x1
    1604:	06e78793          	addi	a5,a5,110
    1608:	00669693          	slli	a3,a3,0x6
    160c:	00f686b3          	add	a3,a3,a5
    1610:	00d507b3          	add	a5,a0,a3
    1614:	00d306b3          	add	a3,t1,a3
    1618:	00c5c703          	lbu	a4,12(a1)
    161c:	14078793          	addi	a5,a5,320
    1620:	ece78023          	sb	a4,-320(a5)
    1624:	ece780a3          	sb	a4,-319(a5)
    1628:	00c5c703          	lbu	a4,12(a1)
    162c:	ece78123          	sb	a4,-318(a5)
    1630:	ece781a3          	sb	a4,-317(a5)
    1634:	00c5c703          	lbu	a4,12(a1)
    1638:	ece78223          	sb	a4,-316(a5)
    163c:	ece782a3          	sb	a4,-315(a5)
    1640:	00c5c703          	lbu	a4,12(a1)
    1644:	ece78323          	sb	a4,-314(a5)
    1648:	ece783a3          	sb	a4,-313(a5)
    164c:	00c5c703          	lbu	a4,12(a1)
    1650:	ece78423          	sb	a4,-312(a5)
    1654:	ece784a3          	sb	a4,-311(a5)
    1658:	fcf690e3          	bne	a3,a5,1618 <draw_shape+0x84>
    165c:	f5dff06f          	j	15b8 <draw_shape+0x24>

00001660 <draw_next_piece>:
    1660:	000047b7          	lui	a5,0x4
    1664:	f8478793          	addi	a5,a5,-124 # 3f84 <tick+0x1f0>
    1668:	00f50833          	add	a6,a0,a5
    166c:	05058893          	addi	a7,a1,80
    1670:	01058513          	addi	a0,a1,16
    1674:	ff050613          	addi	a2,a0,-16
    1678:	00080693          	mv	a3,a6
    167c:	01062783          	lw	a5,16(a2)
    1680:	02079263          	bnez	a5,16a4 <draw_next_piece+0x44>
    1684:	00460613          	addi	a2,a2,4
    1688:	00a68693          	addi	a3,a3,10
    168c:	fec518e3          	bne	a0,a2,167c <draw_next_piece+0x1c>
    1690:	7ff80813          	addi	a6,a6,2047
    1694:	01050513          	addi	a0,a0,16
    1698:	48180813          	addi	a6,a6,1153
    169c:	fca89ce3          	bne	a7,a0,1674 <draw_next_piece+0x14>
    16a0:	00008067          	ret
    16a4:	80068793          	addi	a5,a3,-2048
    16a8:	b8078793          	addi	a5,a5,-1152
    16ac:	00c5c703          	lbu	a4,12(a1)
    16b0:	14078793          	addi	a5,a5,320
    16b4:	ece78023          	sb	a4,-320(a5)
    16b8:	ece780a3          	sb	a4,-319(a5)
    16bc:	00c5c703          	lbu	a4,12(a1)
    16c0:	ece78123          	sb	a4,-318(a5)
    16c4:	ece781a3          	sb	a4,-317(a5)
    16c8:	00c5c703          	lbu	a4,12(a1)
    16cc:	ece78223          	sb	a4,-316(a5)
    16d0:	ece782a3          	sb	a4,-315(a5)
    16d4:	00c5c703          	lbu	a4,12(a1)
    16d8:	ece78323          	sb	a4,-314(a5)
    16dc:	ece783a3          	sb	a4,-313(a5)
    16e0:	00c5c703          	lbu	a4,12(a1)
    16e4:	ece78423          	sb	a4,-312(a5)
    16e8:	ece784a3          	sb	a4,-311(a5)
    16ec:	fcf690e3          	bne	a3,a5,16ac <draw_next_piece+0x4c>
    16f0:	f95ff06f          	j	1684 <draw_next_piece+0x24>

000016f4 <clear_next_shape>:
    16f4:	000047b7          	lui	a5,0x4
    16f8:	f8478793          	addi	a5,a5,-124 # 3f84 <tick+0x1f0>
    16fc:	01058613          	addi	a2,a1,16
    1700:	00f50533          	add	a0,a0,a5
    1704:	05058593          	addi	a1,a1,80
    1708:	ff060693          	addi	a3,a2,-16
    170c:	00050713          	mv	a4,a0
    1710:	0106a783          	lw	a5,16(a3)
    1714:	02079263          	bnez	a5,1738 <clear_next_shape+0x44>
    1718:	00468693          	addi	a3,a3,4
    171c:	00a70713          	addi	a4,a4,10
    1720:	fed618e3          	bne	a2,a3,1710 <clear_next_shape+0x1c>
    1724:	7ff50513          	addi	a0,a0,2047
    1728:	01060613          	addi	a2,a2,16
    172c:	48150513          	addi	a0,a0,1153
    1730:	fcc59ce3          	bne	a1,a2,1708 <clear_next_shape+0x14>
    1734:	00008067          	ret
    1738:	80070793          	addi	a5,a4,-2048
    173c:	b8078793          	addi	a5,a5,-1152
    1740:	00078023          	sb	zero,0(a5)
    1744:	000780a3          	sb	zero,1(a5)
    1748:	00078123          	sb	zero,2(a5)
    174c:	000781a3          	sb	zero,3(a5)
    1750:	00078223          	sb	zero,4(a5)
    1754:	000782a3          	sb	zero,5(a5)
    1758:	00078323          	sb	zero,6(a5)
    175c:	000783a3          	sb	zero,7(a5)
    1760:	00078423          	sb	zero,8(a5)
    1764:	000784a3          	sb	zero,9(a5)
    1768:	14078793          	addi	a5,a5,320
    176c:	fcf71ae3          	bne	a4,a5,1740 <clear_next_shape+0x4c>
    1770:	fa9ff06f          	j	1718 <clear_next_shape+0x24>

00001774 <update_cell>:
    1774:	00251793          	slli	a5,a0,0x2
    1778:	00a787b3          	add	a5,a5,a0
    177c:	00179793          	slli	a5,a5,0x1
    1780:	01478793          	addi	a5,a5,20
    1784:	00279813          	slli	a6,a5,0x2
    1788:	00259713          	slli	a4,a1,0x2
    178c:	00f80833          	add	a6,a6,a5
    1790:	00b70733          	add	a4,a4,a1
    1794:	000057b7          	lui	a5,0x5
    1798:	ba47a683          	lw	a3,-1116(a5) # 4ba4 <VGA>
    179c:	00171713          	slli	a4,a4,0x1
    17a0:	06e70713          	addi	a4,a4,110
    17a4:	00681813          	slli	a6,a6,0x6
    17a8:	00e80833          	add	a6,a6,a4
    17ac:	ff010113          	addi	sp,sp,-16
    17b0:	00812623          	sw	s0,12(sp)
    17b4:	010686b3          	add	a3,a3,a6
    17b8:	01200713          	li	a4,18
    17bc:	00e68023          	sb	a4,0(a3)
    17c0:	ba47a683          	lw	a3,-1116(a5)
    17c4:	00180393          	addi	t2,a6,1
    17c8:	00080893          	mv	a7,a6
    17cc:	007686b3          	add	a3,a3,t2
    17d0:	00e68023          	sb	a4,0(a3)
    17d4:	00280293          	addi	t0,a6,2
    17d8:	00880693          	addi	a3,a6,8
    17dc:	00380f93          	addi	t6,a6,3
    17e0:	00480f13          	addi	t5,a6,4
    17e4:	00580e93          	addi	t4,a6,5
    17e8:	00680e13          	addi	t3,a6,6
    17ec:	00780313          	addi	t1,a6,7
    17f0:	00000513          	li	a0,0
    17f4:	00900413          	li	s0,9
    17f8:	ba47a583          	lw	a1,-1116(a5)
    17fc:	005585b3          	add	a1,a1,t0
    1800:	00e58023          	sb	a4,0(a1)
    1804:	ba47a583          	lw	a1,-1116(a5)
    1808:	01f585b3          	add	a1,a1,t6
    180c:	00e58023          	sb	a4,0(a1)
    1810:	ba47a583          	lw	a1,-1116(a5)
    1814:	01e585b3          	add	a1,a1,t5
    1818:	00e58023          	sb	a4,0(a1)
    181c:	ba47a583          	lw	a1,-1116(a5)
    1820:	01d585b3          	add	a1,a1,t4
    1824:	00e58023          	sb	a4,0(a1)
    1828:	ba47a583          	lw	a1,-1116(a5)
    182c:	01c585b3          	add	a1,a1,t3
    1830:	00e58023          	sb	a4,0(a1)
    1834:	ba47a583          	lw	a1,-1116(a5)
    1838:	006585b3          	add	a1,a1,t1
    183c:	00e58023          	sb	a4,0(a1)
    1840:	ba47a583          	lw	a1,-1116(a5)
    1844:	00d585b3          	add	a1,a1,a3
    1848:	00e58023          	sb	a4,0(a1)
    184c:	06050a63          	beqz	a0,18c0 <update_cell+0x14c>
    1850:	ba47a783          	lw	a5,-1116(a5)
    1854:	010787b3          	add	a5,a5,a6
    1858:	00e784a3          	sb	a4,9(a5)
    185c:	00c12403          	lw	s0,12(sp)
    1860:	01010113          	addi	sp,sp,16
    1864:	00008067          	ret
    1868:	00c58023          	sb	a2,0(a1)
    186c:	ba47a583          	lw	a1,-1116(a5)
    1870:	005585b3          	add	a1,a1,t0
    1874:	00c58023          	sb	a2,0(a1)
    1878:	ba47a583          	lw	a1,-1116(a5)
    187c:	01f585b3          	add	a1,a1,t6
    1880:	00c58023          	sb	a2,0(a1)
    1884:	ba47a583          	lw	a1,-1116(a5)
    1888:	01e585b3          	add	a1,a1,t5
    188c:	00c58023          	sb	a2,0(a1)
    1890:	ba47a583          	lw	a1,-1116(a5)
    1894:	01d585b3          	add	a1,a1,t4
    1898:	00c58023          	sb	a2,0(a1)
    189c:	ba47a583          	lw	a1,-1116(a5)
    18a0:	01c585b3          	add	a1,a1,t3
    18a4:	00c58023          	sb	a2,0(a1)
    18a8:	ba47a583          	lw	a1,-1116(a5)
    18ac:	006585b3          	add	a1,a1,t1
    18b0:	00c58023          	sb	a2,0(a1)
    18b4:	ba47a583          	lw	a1,-1116(a5)
    18b8:	00d585b3          	add	a1,a1,a3
    18bc:	00c58023          	sb	a2,0(a1)
    18c0:	ba47a583          	lw	a1,-1116(a5)
    18c4:	14088893          	addi	a7,a7,320
    18c8:	14038393          	addi	t2,t2,320
    18cc:	00d585b3          	add	a1,a1,a3
    18d0:	00e580a3          	sb	a4,1(a1)
    18d4:	ba47a583          	lw	a1,-1116(a5)
    18d8:	00150513          	addi	a0,a0,1
    18dc:	14028293          	addi	t0,t0,320
    18e0:	011585b3          	add	a1,a1,a7
    18e4:	00e58023          	sb	a4,0(a1)
    18e8:	ba47a583          	lw	a1,-1116(a5)
    18ec:	140f8f93          	addi	t6,t6,320
    18f0:	140f0f13          	addi	t5,t5,320
    18f4:	140e8e93          	addi	t4,t4,320
    18f8:	140e0e13          	addi	t3,t3,320
    18fc:	14030313          	addi	t1,t1,320
    1900:	14068693          	addi	a3,a3,320
    1904:	007585b3          	add	a1,a1,t2
    1908:	f68510e3          	bne	a0,s0,1868 <update_cell+0xf4>
    190c:	00e58023          	sb	a4,0(a1)
    1910:	00088813          	mv	a6,a7
    1914:	ee5ff06f          	j	17f8 <update_cell+0x84>

00001918 <update_shape.constprop.1>:
    1918:	fe010113          	addi	sp,sp,-32
    191c:	01312623          	sw	s3,12(sp)
    1920:	000059b7          	lui	s3,0x5
    1924:	00812c23          	sw	s0,24(sp)
    1928:	00912a23          	sw	s1,20(sp)
    192c:	01212823          	sw	s2,16(sp)
    1930:	01412423          	sw	s4,8(sp)
    1934:	00112e23          	sw	ra,28(sp)
    1938:	00050913          	mv	s2,a0
    193c:	01050413          	addi	s0,a0,16
    1940:	ba898993          	addi	s3,s3,-1112 # 4ba8 <current_piece>
    1944:	00000493          	li	s1,0
    1948:	00400a13          	li	s4,4
    194c:	00042783          	lw	a5,0(s0)
    1950:	02078e63          	beqz	a5,198c <update_shape.constprop.1+0x74>
    1954:	00892503          	lw	a0,8(s2)
    1958:	00492583          	lw	a1,4(s2)
    195c:	00a48533          	add	a0,s1,a0
    1960:	01453793          	sltiu	a5,a0,20
    1964:	02078463          	beqz	a5,198c <update_shape.constprop.1+0x74>
    1968:	00a5b793          	sltiu	a5,a1,10
    196c:	02078063          	beqz	a5,198c <update_shape.constprop.1+0x74>
    1970:	00251793          	slli	a5,a0,0x2
    1974:	00a787b3          	add	a5,a5,a0
    1978:	00179793          	slli	a5,a5,0x1
    197c:	00f987b3          	add	a5,s3,a5
    1980:	00b787b3          	add	a5,a5,a1
    1984:	0507c603          	lbu	a2,80(a5)
    1988:	dedff0ef          	jal	1774 <update_cell>
    198c:	00442783          	lw	a5,4(s0)
    1990:	04078063          	beqz	a5,19d0 <update_shape.constprop.1+0xb8>
    1994:	00892503          	lw	a0,8(s2)
    1998:	00492583          	lw	a1,4(s2)
    199c:	00a48533          	add	a0,s1,a0
    19a0:	01453793          	sltiu	a5,a0,20
    19a4:	00158593          	addi	a1,a1,1
    19a8:	02078463          	beqz	a5,19d0 <update_shape.constprop.1+0xb8>
    19ac:	00a5b793          	sltiu	a5,a1,10
    19b0:	02078063          	beqz	a5,19d0 <update_shape.constprop.1+0xb8>
    19b4:	00251793          	slli	a5,a0,0x2
    19b8:	00a787b3          	add	a5,a5,a0
    19bc:	00179793          	slli	a5,a5,0x1
    19c0:	00f987b3          	add	a5,s3,a5
    19c4:	00b787b3          	add	a5,a5,a1
    19c8:	0507c603          	lbu	a2,80(a5)
    19cc:	da9ff0ef          	jal	1774 <update_cell>
    19d0:	00842783          	lw	a5,8(s0)
    19d4:	04078063          	beqz	a5,1a14 <update_shape.constprop.1+0xfc>
    19d8:	00892503          	lw	a0,8(s2)
    19dc:	00492583          	lw	a1,4(s2)
    19e0:	00a48533          	add	a0,s1,a0
    19e4:	01453793          	sltiu	a5,a0,20
    19e8:	00258593          	addi	a1,a1,2
    19ec:	02078463          	beqz	a5,1a14 <update_shape.constprop.1+0xfc>
    19f0:	00a5b793          	sltiu	a5,a1,10
    19f4:	02078063          	beqz	a5,1a14 <update_shape.constprop.1+0xfc>
    19f8:	00251793          	slli	a5,a0,0x2
    19fc:	00a787b3          	add	a5,a5,a0
    1a00:	00179793          	slli	a5,a5,0x1
    1a04:	00f987b3          	add	a5,s3,a5
    1a08:	00b787b3          	add	a5,a5,a1
    1a0c:	0507c603          	lbu	a2,80(a5)
    1a10:	d65ff0ef          	jal	1774 <update_cell>
    1a14:	00c42783          	lw	a5,12(s0)
    1a18:	04078063          	beqz	a5,1a58 <update_shape.constprop.1+0x140>
    1a1c:	00892503          	lw	a0,8(s2)
    1a20:	00492583          	lw	a1,4(s2)
    1a24:	00a48533          	add	a0,s1,a0
    1a28:	01453793          	sltiu	a5,a0,20
    1a2c:	00358593          	addi	a1,a1,3
    1a30:	02078463          	beqz	a5,1a58 <update_shape.constprop.1+0x140>
    1a34:	00a5b793          	sltiu	a5,a1,10
    1a38:	02078063          	beqz	a5,1a58 <update_shape.constprop.1+0x140>
    1a3c:	00251793          	slli	a5,a0,0x2
    1a40:	00a787b3          	add	a5,a5,a0
    1a44:	00179793          	slli	a5,a5,0x1
    1a48:	00f987b3          	add	a5,s3,a5
    1a4c:	00b787b3          	add	a5,a5,a1
    1a50:	0507c603          	lbu	a2,80(a5)
    1a54:	d21ff0ef          	jal	1774 <update_cell>
    1a58:	00148493          	addi	s1,s1,1
    1a5c:	01040413          	addi	s0,s0,16
    1a60:	ef4496e3          	bne	s1,s4,194c <update_shape.constprop.1+0x34>
    1a64:	01c12083          	lw	ra,28(sp)
    1a68:	01812403          	lw	s0,24(sp)
    1a6c:	01412483          	lw	s1,20(sp)
    1a70:	01012903          	lw	s2,16(sp)
    1a74:	00c12983          	lw	s3,12(sp)
    1a78:	00812a03          	lw	s4,8(sp)
    1a7c:	02010113          	addi	sp,sp,32
    1a80:	00008067          	ret

00001a84 <set_displays>:
    1a84:	004007b7          	lui	a5,0x400
    1a88:	00578793          	addi	a5,a5,5 # 400005 <_stack_end+0x2fae99>
    1a8c:	00f50533          	add	a0,a0,a5
    1a90:	00900793          	li	a5,9
    1a94:	00451513          	slli	a0,a0,0x4
    1a98:	02b7e263          	bltu	a5,a1,1abc <set_displays+0x38>
    1a9c:	000057b7          	lui	a5,0x5
    1aa0:	d1c78793          	addi	a5,a5,-740 # 4d1c <timeoutcount+0x4>
    1aa4:	00259593          	slli	a1,a1,0x2
    1aa8:	00f585b3          	add	a1,a1,a5
    1aac:	0005a783          	lw	a5,0(a1)
    1ab0:	00078067          	jr	a5
    1ab4:	09000793          	li	a5,144
    1ab8:	00f52023          	sw	a5,0(a0)
    1abc:	00008067          	ret
    1ac0:	08000793          	li	a5,128
    1ac4:	00f52023          	sw	a5,0(a0)
    1ac8:	00008067          	ret
    1acc:	0c000793          	li	a5,192
    1ad0:	00f52023          	sw	a5,0(a0)
    1ad4:	00008067          	ret
    1ad8:	0f900793          	li	a5,249
    1adc:	00f52023          	sw	a5,0(a0)
    1ae0:	00008067          	ret
    1ae4:	0a400793          	li	a5,164
    1ae8:	00f52023          	sw	a5,0(a0)
    1aec:	00008067          	ret
    1af0:	0b000793          	li	a5,176
    1af4:	00f52023          	sw	a5,0(a0)
    1af8:	00008067          	ret
    1afc:	09900793          	li	a5,153
    1b00:	00f52023          	sw	a5,0(a0)
    1b04:	00008067          	ret
    1b08:	09200793          	li	a5,146
    1b0c:	00f52023          	sw	a5,0(a0)
    1b10:	00008067          	ret
    1b14:	08200793          	li	a5,130
    1b18:	00f52023          	sw	a5,0(a0)
    1b1c:	00008067          	ret
    1b20:	0f800793          	li	a5,248
    1b24:	00f52023          	sw	a5,0(a0)
    1b28:	00008067          	ret

00001b2c <show_score>:
    1b2c:	666667b7          	lui	a5,0x66666
    1b30:	66778793          	addi	a5,a5,1639 # 66666667 <_stack_end+0x665614fb>
    1b34:	02f51e33          	mulh	t3,a0,a5
    1b38:	14f8b6b7          	lui	a3,0x14f8b
    1b3c:	58968693          	addi	a3,a3,1417 # 14f8b589 <_stack_end+0x14e8641d>
    1b40:	41f55713          	srai	a4,a0,0x1f
    1b44:	68db95b7          	lui	a1,0x68db9
    1b48:	10625337          	lui	t1,0x10625
    1b4c:	51eb8837          	lui	a6,0x51eb8
    1b50:	51f80813          	addi	a6,a6,1311 # 51eb851f <_stack_end+0x51db33b3>
    1b54:	bad58593          	addi	a1,a1,-1107 # 68db8bad <_stack_end+0x68cb3a41>
    1b58:	dd330313          	addi	t1,t1,-557 # 10624dd3 <_stack_end+0x1051fc67>
    1b5c:	02d516b3          	mulh	a3,a0,a3
    1b60:	402e5e13          	srai	t3,t3,0x2
    1b64:	40ee0e33          	sub	t3,t3,a4
    1b68:	002e1893          	slli	a7,t3,0x2
    1b6c:	01c888b3          	add	a7,a7,t3
    1b70:	00189893          	slli	a7,a7,0x1
    1b74:	411508b3          	sub	a7,a0,a7
    1b78:	41fe5293          	srai	t0,t3,0x1f
    1b7c:	00900e93          	li	t4,9
    1b80:	40d6d693          	srai	a3,a3,0xd
    1b84:	40e686b3          	sub	a3,a3,a4
    1b88:	02b515b3          	mulh	a1,a0,a1
    1b8c:	41f6d613          	srai	a2,a3,0x1f
    1b90:	02651333          	mulh	t1,a0,t1
    1b94:	40c5d593          	srai	a1,a1,0xc
    1b98:	40e585b3          	sub	a1,a1,a4
    1b9c:	41f5d393          	srai	t2,a1,0x1f
    1ba0:	03051533          	mulh	a0,a0,a6
    1ba4:	40635313          	srai	t1,t1,0x6
    1ba8:	40e30333          	sub	t1,t1,a4
    1bac:	41f35f93          	srai	t6,t1,0x1f
    1bb0:	02f69833          	mulh	a6,a3,a5
    1bb4:	40555513          	srai	a0,a0,0x5
    1bb8:	40e50533          	sub	a0,a0,a4
    1bbc:	41f55f13          	srai	t5,a0,0x1f
    1bc0:	40285813          	srai	a6,a6,0x2
    1bc4:	40c80833          	sub	a6,a6,a2
    1bc8:	02fe1633          	mulh	a2,t3,a5
    1bcc:	00281713          	slli	a4,a6,0x2
    1bd0:	01070733          	add	a4,a4,a6
    1bd4:	00171713          	slli	a4,a4,0x1
    1bd8:	40e68833          	sub	a6,a3,a4
    1bdc:	40265613          	srai	a2,a2,0x2
    1be0:	40560633          	sub	a2,a2,t0
    1be4:	02f59733          	mulh	a4,a1,a5
    1be8:	00261693          	slli	a3,a2,0x2
    1bec:	00c686b3          	add	a3,a3,a2
    1bf0:	00169693          	slli	a3,a3,0x1
    1bf4:	40de0633          	sub	a2,t3,a3
    1bf8:	02f316b3          	mulh	a3,t1,a5
    1bfc:	40275713          	srai	a4,a4,0x2
    1c00:	40770733          	sub	a4,a4,t2
    1c04:	00271e13          	slli	t3,a4,0x2
    1c08:	00ee0733          	add	a4,t3,a4
    1c0c:	00171713          	slli	a4,a4,0x1
    1c10:	40e58733          	sub	a4,a1,a4
    1c14:	02f517b3          	mulh	a5,a0,a5
    1c18:	4026d693          	srai	a3,a3,0x2
    1c1c:	41f686b3          	sub	a3,a3,t6
    1c20:	00269593          	slli	a1,a3,0x2
    1c24:	00d586b3          	add	a3,a1,a3
    1c28:	00169693          	slli	a3,a3,0x1
    1c2c:	40d306b3          	sub	a3,t1,a3
    1c30:	4027d793          	srai	a5,a5,0x2
    1c34:	41e787b3          	sub	a5,a5,t5
    1c38:	00279593          	slli	a1,a5,0x2
    1c3c:	00f587b3          	add	a5,a1,a5
    1c40:	00179793          	slli	a5,a5,0x1
    1c44:	40f507b3          	sub	a5,a0,a5
    1c48:	031ee463          	bltu	t4,a7,1c70 <show_score+0x144>
    1c4c:	000055b7          	lui	a1,0x5
    1c50:	d4458593          	addi	a1,a1,-700 # 4d44 <timeoutcount+0x2c>
    1c54:	00289893          	slli	a7,a7,0x2
    1c58:	00b888b3          	add	a7,a7,a1
    1c5c:	0008a583          	lw	a1,0(a7)
    1c60:	00058067          	jr	a1
    1c64:	040005b7          	lui	a1,0x4000
    1c68:	09000513          	li	a0,144
    1c6c:	04a5a823          	sw	a0,80(a1) # 4000050 <_stack_end+0x3efaee4>
    1c70:	00900593          	li	a1,9
    1c74:	02c5e463          	bltu	a1,a2,1c9c <show_score+0x170>
    1c78:	000055b7          	lui	a1,0x5
    1c7c:	00261613          	slli	a2,a2,0x2
    1c80:	d6c58593          	addi	a1,a1,-660 # 4d6c <timeoutcount+0x54>
    1c84:	00b60633          	add	a2,a2,a1
    1c88:	00062603          	lw	a2,0(a2)
    1c8c:	00060067          	jr	a2
    1c90:	04000637          	lui	a2,0x4000
    1c94:	09000593          	li	a1,144
    1c98:	06b62023          	sw	a1,96(a2) # 4000060 <_stack_end+0x3efaef4>
    1c9c:	00900613          	li	a2,9
    1ca0:	02f66463          	bltu	a2,a5,1cc8 <show_score+0x19c>
    1ca4:	000055b7          	lui	a1,0x5
    1ca8:	00279613          	slli	a2,a5,0x2
    1cac:	d9458793          	addi	a5,a1,-620 # 4d94 <timeoutcount+0x7c>
    1cb0:	00f60633          	add	a2,a2,a5
    1cb4:	00062783          	lw	a5,0(a2)
    1cb8:	00078067          	jr	a5
    1cbc:	040007b7          	lui	a5,0x4000
    1cc0:	09000613          	li	a2,144
    1cc4:	06c7a823          	sw	a2,112(a5) # 4000070 <_stack_end+0x3efaf04>
    1cc8:	00900793          	li	a5,9
    1ccc:	02d7e463          	bltu	a5,a3,1cf4 <show_score+0x1c8>
    1cd0:	000057b7          	lui	a5,0x5
    1cd4:	dbc78793          	addi	a5,a5,-580 # 4dbc <timeoutcount+0xa4>
    1cd8:	00269693          	slli	a3,a3,0x2
    1cdc:	00f686b3          	add	a3,a3,a5
    1ce0:	0006a783          	lw	a5,0(a3)
    1ce4:	00078067          	jr	a5
    1ce8:	040007b7          	lui	a5,0x4000
    1cec:	09000693          	li	a3,144
    1cf0:	08d7a023          	sw	a3,128(a5) # 4000080 <_stack_end+0x3efaf14>
    1cf4:	00900793          	li	a5,9
    1cf8:	02e7e463          	bltu	a5,a4,1d20 <show_score+0x1f4>
    1cfc:	000057b7          	lui	a5,0x5
    1d00:	de478793          	addi	a5,a5,-540 # 4de4 <timeoutcount+0xcc>
    1d04:	00271713          	slli	a4,a4,0x2
    1d08:	00f70733          	add	a4,a4,a5
    1d0c:	00072783          	lw	a5,0(a4)
    1d10:	00078067          	jr	a5
    1d14:	040007b7          	lui	a5,0x4000
    1d18:	09000713          	li	a4,144
    1d1c:	08e7a823          	sw	a4,144(a5) # 4000090 <_stack_end+0x3efaf24>
    1d20:	00900793          	li	a5,9
    1d24:	0307e463          	bltu	a5,a6,1d4c <show_score+0x220>
    1d28:	00005737          	lui	a4,0x5
    1d2c:	00281793          	slli	a5,a6,0x2
    1d30:	e0c70713          	addi	a4,a4,-500 # 4e0c <timeoutcount+0xf4>
    1d34:	00e787b3          	add	a5,a5,a4
    1d38:	0007a783          	lw	a5,0(a5)
    1d3c:	00078067          	jr	a5
    1d40:	040007b7          	lui	a5,0x4000
    1d44:	09000713          	li	a4,144
    1d48:	0ae7a023          	sw	a4,160(a5) # 40000a0 <_stack_end+0x3efaf34>
    1d4c:	00008067          	ret
    1d50:	040007b7          	lui	a5,0x4000
    1d54:	08000713          	li	a4,128
    1d58:	0ae7a023          	sw	a4,160(a5) # 40000a0 <_stack_end+0x3efaf34>
    1d5c:	00008067          	ret
    1d60:	040005b7          	lui	a1,0x4000
    1d64:	0c000513          	li	a0,192
    1d68:	04a5a823          	sw	a0,80(a1) # 4000050 <_stack_end+0x3efaee4>
    1d6c:	f05ff06f          	j	1c70 <show_score+0x144>
    1d70:	040005b7          	lui	a1,0x4000
    1d74:	0f900513          	li	a0,249
    1d78:	04a5a823          	sw	a0,80(a1) # 4000050 <_stack_end+0x3efaee4>
    1d7c:	ef5ff06f          	j	1c70 <show_score+0x144>
    1d80:	040005b7          	lui	a1,0x4000
    1d84:	0a400513          	li	a0,164
    1d88:	04a5a823          	sw	a0,80(a1) # 4000050 <_stack_end+0x3efaee4>
    1d8c:	ee5ff06f          	j	1c70 <show_score+0x144>
    1d90:	040005b7          	lui	a1,0x4000
    1d94:	0b000513          	li	a0,176
    1d98:	04a5a823          	sw	a0,80(a1) # 4000050 <_stack_end+0x3efaee4>
    1d9c:	ed5ff06f          	j	1c70 <show_score+0x144>
    1da0:	040005b7          	lui	a1,0x4000
    1da4:	09900513          	li	a0,153
    1da8:	04a5a823          	sw	a0,80(a1) # 4000050 <_stack_end+0x3efaee4>
    1dac:	ec5ff06f          	j	1c70 <show_score+0x144>
    1db0:	040005b7          	lui	a1,0x4000
    1db4:	09200513          	li	a0,146
    1db8:	04a5a823          	sw	a0,80(a1) # 4000050 <_stack_end+0x3efaee4>
    1dbc:	eb5ff06f          	j	1c70 <show_score+0x144>
    1dc0:	040005b7          	lui	a1,0x4000
    1dc4:	08200513          	li	a0,130
    1dc8:	04a5a823          	sw	a0,80(a1) # 4000050 <_stack_end+0x3efaee4>
    1dcc:	ea5ff06f          	j	1c70 <show_score+0x144>
    1dd0:	040005b7          	lui	a1,0x4000
    1dd4:	0f800513          	li	a0,248
    1dd8:	04a5a823          	sw	a0,80(a1) # 4000050 <_stack_end+0x3efaee4>
    1ddc:	e95ff06f          	j	1c70 <show_score+0x144>
    1de0:	040005b7          	lui	a1,0x4000
    1de4:	08000513          	li	a0,128
    1de8:	04a5a823          	sw	a0,80(a1) # 4000050 <_stack_end+0x3efaee4>
    1dec:	e85ff06f          	j	1c70 <show_score+0x144>
    1df0:	04000637          	lui	a2,0x4000
    1df4:	0c000593          	li	a1,192
    1df8:	06b62023          	sw	a1,96(a2) # 4000060 <_stack_end+0x3efaef4>
    1dfc:	ea1ff06f          	j	1c9c <show_score+0x170>
    1e00:	04000637          	lui	a2,0x4000
    1e04:	0f900593          	li	a1,249
    1e08:	06b62023          	sw	a1,96(a2) # 4000060 <_stack_end+0x3efaef4>
    1e0c:	e91ff06f          	j	1c9c <show_score+0x170>
    1e10:	04000637          	lui	a2,0x4000
    1e14:	0a400593          	li	a1,164
    1e18:	06b62023          	sw	a1,96(a2) # 4000060 <_stack_end+0x3efaef4>
    1e1c:	e81ff06f          	j	1c9c <show_score+0x170>
    1e20:	04000637          	lui	a2,0x4000
    1e24:	0b000593          	li	a1,176
    1e28:	06b62023          	sw	a1,96(a2) # 4000060 <_stack_end+0x3efaef4>
    1e2c:	e71ff06f          	j	1c9c <show_score+0x170>
    1e30:	04000637          	lui	a2,0x4000
    1e34:	09900593          	li	a1,153
    1e38:	06b62023          	sw	a1,96(a2) # 4000060 <_stack_end+0x3efaef4>
    1e3c:	e61ff06f          	j	1c9c <show_score+0x170>
    1e40:	04000637          	lui	a2,0x4000
    1e44:	09200593          	li	a1,146
    1e48:	06b62023          	sw	a1,96(a2) # 4000060 <_stack_end+0x3efaef4>
    1e4c:	e51ff06f          	j	1c9c <show_score+0x170>
    1e50:	04000637          	lui	a2,0x4000
    1e54:	08200593          	li	a1,130
    1e58:	06b62023          	sw	a1,96(a2) # 4000060 <_stack_end+0x3efaef4>
    1e5c:	e41ff06f          	j	1c9c <show_score+0x170>
    1e60:	04000637          	lui	a2,0x4000
    1e64:	0f800593          	li	a1,248
    1e68:	06b62023          	sw	a1,96(a2) # 4000060 <_stack_end+0x3efaef4>
    1e6c:	e31ff06f          	j	1c9c <show_score+0x170>
    1e70:	04000637          	lui	a2,0x4000
    1e74:	08000593          	li	a1,128
    1e78:	06b62023          	sw	a1,96(a2) # 4000060 <_stack_end+0x3efaef4>
    1e7c:	e21ff06f          	j	1c9c <show_score+0x170>
    1e80:	040007b7          	lui	a5,0x4000
    1e84:	0c000613          	li	a2,192
    1e88:	06c7a823          	sw	a2,112(a5) # 4000070 <_stack_end+0x3efaf04>
    1e8c:	e3dff06f          	j	1cc8 <show_score+0x19c>
    1e90:	040007b7          	lui	a5,0x4000
    1e94:	0f900613          	li	a2,249
    1e98:	06c7a823          	sw	a2,112(a5) # 4000070 <_stack_end+0x3efaf04>
    1e9c:	e2dff06f          	j	1cc8 <show_score+0x19c>
    1ea0:	040007b7          	lui	a5,0x4000
    1ea4:	0a400613          	li	a2,164
    1ea8:	06c7a823          	sw	a2,112(a5) # 4000070 <_stack_end+0x3efaf04>
    1eac:	e1dff06f          	j	1cc8 <show_score+0x19c>
    1eb0:	040007b7          	lui	a5,0x4000
    1eb4:	0b000613          	li	a2,176
    1eb8:	06c7a823          	sw	a2,112(a5) # 4000070 <_stack_end+0x3efaf04>
    1ebc:	e0dff06f          	j	1cc8 <show_score+0x19c>
    1ec0:	040007b7          	lui	a5,0x4000
    1ec4:	09900613          	li	a2,153
    1ec8:	06c7a823          	sw	a2,112(a5) # 4000070 <_stack_end+0x3efaf04>
    1ecc:	dfdff06f          	j	1cc8 <show_score+0x19c>
    1ed0:	040007b7          	lui	a5,0x4000
    1ed4:	09200613          	li	a2,146
    1ed8:	06c7a823          	sw	a2,112(a5) # 4000070 <_stack_end+0x3efaf04>
    1edc:	dedff06f          	j	1cc8 <show_score+0x19c>
    1ee0:	040007b7          	lui	a5,0x4000
    1ee4:	08200613          	li	a2,130
    1ee8:	06c7a823          	sw	a2,112(a5) # 4000070 <_stack_end+0x3efaf04>
    1eec:	dddff06f          	j	1cc8 <show_score+0x19c>
    1ef0:	040007b7          	lui	a5,0x4000
    1ef4:	0f800613          	li	a2,248
    1ef8:	06c7a823          	sw	a2,112(a5) # 4000070 <_stack_end+0x3efaf04>
    1efc:	dcdff06f          	j	1cc8 <show_score+0x19c>
    1f00:	040007b7          	lui	a5,0x4000
    1f04:	08000613          	li	a2,128
    1f08:	06c7a823          	sw	a2,112(a5) # 4000070 <_stack_end+0x3efaf04>
    1f0c:	dbdff06f          	j	1cc8 <show_score+0x19c>
    1f10:	040007b7          	lui	a5,0x4000
    1f14:	0c000693          	li	a3,192
    1f18:	08d7a023          	sw	a3,128(a5) # 4000080 <_stack_end+0x3efaf14>
    1f1c:	dd9ff06f          	j	1cf4 <show_score+0x1c8>
    1f20:	040007b7          	lui	a5,0x4000
    1f24:	0f900693          	li	a3,249
    1f28:	08d7a023          	sw	a3,128(a5) # 4000080 <_stack_end+0x3efaf14>
    1f2c:	dc9ff06f          	j	1cf4 <show_score+0x1c8>
    1f30:	040007b7          	lui	a5,0x4000
    1f34:	0a400693          	li	a3,164
    1f38:	08d7a023          	sw	a3,128(a5) # 4000080 <_stack_end+0x3efaf14>
    1f3c:	db9ff06f          	j	1cf4 <show_score+0x1c8>
    1f40:	040007b7          	lui	a5,0x4000
    1f44:	0b000693          	li	a3,176
    1f48:	08d7a023          	sw	a3,128(a5) # 4000080 <_stack_end+0x3efaf14>
    1f4c:	da9ff06f          	j	1cf4 <show_score+0x1c8>
    1f50:	040007b7          	lui	a5,0x4000
    1f54:	09900693          	li	a3,153
    1f58:	08d7a023          	sw	a3,128(a5) # 4000080 <_stack_end+0x3efaf14>
    1f5c:	d99ff06f          	j	1cf4 <show_score+0x1c8>
    1f60:	040007b7          	lui	a5,0x4000
    1f64:	09200693          	li	a3,146
    1f68:	08d7a023          	sw	a3,128(a5) # 4000080 <_stack_end+0x3efaf14>
    1f6c:	d89ff06f          	j	1cf4 <show_score+0x1c8>
    1f70:	040007b7          	lui	a5,0x4000
    1f74:	08200693          	li	a3,130
    1f78:	08d7a023          	sw	a3,128(a5) # 4000080 <_stack_end+0x3efaf14>
    1f7c:	d79ff06f          	j	1cf4 <show_score+0x1c8>
    1f80:	040007b7          	lui	a5,0x4000
    1f84:	0f800693          	li	a3,248
    1f88:	08d7a023          	sw	a3,128(a5) # 4000080 <_stack_end+0x3efaf14>
    1f8c:	d69ff06f          	j	1cf4 <show_score+0x1c8>
    1f90:	040007b7          	lui	a5,0x4000
    1f94:	08000693          	li	a3,128
    1f98:	08d7a023          	sw	a3,128(a5) # 4000080 <_stack_end+0x3efaf14>
    1f9c:	d59ff06f          	j	1cf4 <show_score+0x1c8>
    1fa0:	040007b7          	lui	a5,0x4000
    1fa4:	0c000713          	li	a4,192
    1fa8:	08e7a823          	sw	a4,144(a5) # 4000090 <_stack_end+0x3efaf24>
    1fac:	d75ff06f          	j	1d20 <show_score+0x1f4>
    1fb0:	040007b7          	lui	a5,0x4000
    1fb4:	0f900713          	li	a4,249
    1fb8:	08e7a823          	sw	a4,144(a5) # 4000090 <_stack_end+0x3efaf24>
    1fbc:	d65ff06f          	j	1d20 <show_score+0x1f4>
    1fc0:	040007b7          	lui	a5,0x4000
    1fc4:	0a400713          	li	a4,164
    1fc8:	08e7a823          	sw	a4,144(a5) # 4000090 <_stack_end+0x3efaf24>
    1fcc:	d55ff06f          	j	1d20 <show_score+0x1f4>
    1fd0:	040007b7          	lui	a5,0x4000
    1fd4:	0b000713          	li	a4,176
    1fd8:	08e7a823          	sw	a4,144(a5) # 4000090 <_stack_end+0x3efaf24>
    1fdc:	d45ff06f          	j	1d20 <show_score+0x1f4>
    1fe0:	040007b7          	lui	a5,0x4000
    1fe4:	09900713          	li	a4,153
    1fe8:	08e7a823          	sw	a4,144(a5) # 4000090 <_stack_end+0x3efaf24>
    1fec:	d35ff06f          	j	1d20 <show_score+0x1f4>
    1ff0:	040007b7          	lui	a5,0x4000
    1ff4:	09200713          	li	a4,146
    1ff8:	08e7a823          	sw	a4,144(a5) # 4000090 <_stack_end+0x3efaf24>
    1ffc:	d25ff06f          	j	1d20 <show_score+0x1f4>
    2000:	040007b7          	lui	a5,0x4000
    2004:	08200713          	li	a4,130
    2008:	08e7a823          	sw	a4,144(a5) # 4000090 <_stack_end+0x3efaf24>
    200c:	d15ff06f          	j	1d20 <show_score+0x1f4>
    2010:	040007b7          	lui	a5,0x4000
    2014:	0f800713          	li	a4,248
    2018:	08e7a823          	sw	a4,144(a5) # 4000090 <_stack_end+0x3efaf24>
    201c:	d05ff06f          	j	1d20 <show_score+0x1f4>
    2020:	040007b7          	lui	a5,0x4000
    2024:	08000713          	li	a4,128
    2028:	08e7a823          	sw	a4,144(a5) # 4000090 <_stack_end+0x3efaf24>
    202c:	cf5ff06f          	j	1d20 <show_score+0x1f4>
    2030:	040007b7          	lui	a5,0x4000
    2034:	0c000713          	li	a4,192
    2038:	0ae7a023          	sw	a4,160(a5) # 40000a0 <_stack_end+0x3efaf34>
    203c:	00008067          	ret
    2040:	040007b7          	lui	a5,0x4000
    2044:	0f900713          	li	a4,249
    2048:	0ae7a023          	sw	a4,160(a5) # 40000a0 <_stack_end+0x3efaf34>
    204c:	00008067          	ret
    2050:	040007b7          	lui	a5,0x4000
    2054:	0a400713          	li	a4,164
    2058:	0ae7a023          	sw	a4,160(a5) # 40000a0 <_stack_end+0x3efaf34>
    205c:	00008067          	ret
    2060:	040007b7          	lui	a5,0x4000
    2064:	0b000713          	li	a4,176
    2068:	0ae7a023          	sw	a4,160(a5) # 40000a0 <_stack_end+0x3efaf34>
    206c:	00008067          	ret
    2070:	040007b7          	lui	a5,0x4000
    2074:	09900713          	li	a4,153
    2078:	0ae7a023          	sw	a4,160(a5) # 40000a0 <_stack_end+0x3efaf34>
    207c:	00008067          	ret
    2080:	040007b7          	lui	a5,0x4000
    2084:	09200713          	li	a4,146
    2088:	0ae7a023          	sw	a4,160(a5) # 40000a0 <_stack_end+0x3efaf34>
    208c:	00008067          	ret
    2090:	040007b7          	lui	a5,0x4000
    2094:	08200713          	li	a4,130
    2098:	0ae7a023          	sw	a4,160(a5) # 40000a0 <_stack_end+0x3efaf34>
    209c:	00008067          	ret
    20a0:	040007b7          	lui	a5,0x4000
    20a4:	0f800713          	li	a4,248
    20a8:	0ae7a023          	sw	a4,160(a5) # 40000a0 <_stack_end+0x3efaf34>
    20ac:	00008067          	ret

000020b0 <update_shape>:
    20b0:	fe010113          	addi	sp,sp,-32
    20b4:	00812c23          	sw	s0,24(sp)
    20b8:	00112e23          	sw	ra,28(sp)
    20bc:	00050413          	mv	s0,a0
    20c0:	0e058463          	beqz	a1,21a8 <update_shape+0xf8>
    20c4:	00100793          	li	a5,1
    20c8:	00058693          	mv	a3,a1
    20cc:	3cf58e63          	beq	a1,a5,24a8 <update_shape+0x3f8>
    20d0:	01050793          	addi	a5,a0,16
    20d4:	00000713          	li	a4,0
    20d8:	00200813          	li	a6,2
    20dc:	00400893          	li	a7,4
    20e0:	0007a603          	lw	a2,0(a5)
    20e4:	02060263          	beqz	a2,2108 <update_shape+0x58>
    20e8:	00842503          	lw	a0,8(s0)
    20ec:	00442583          	lw	a1,4(s0)
    20f0:	00a70533          	add	a0,a4,a0
    20f4:	01453613          	sltiu	a2,a0,20
    20f8:	00060863          	beqz	a2,2108 <update_shape+0x58>
    20fc:	00a5b613          	sltiu	a2,a1,10
    2100:	00060463          	beqz	a2,2108 <update_shape+0x58>
    2104:	2d068063          	beq	a3,a6,23c4 <update_shape+0x314>
    2108:	0047a603          	lw	a2,4(a5)
    210c:	02060463          	beqz	a2,2134 <update_shape+0x84>
    2110:	00442583          	lw	a1,4(s0)
    2114:	00842503          	lw	a0,8(s0)
    2118:	00158593          	addi	a1,a1,1
    211c:	00a5b613          	sltiu	a2,a1,10
    2120:	00a70533          	add	a0,a4,a0
    2124:	00060863          	beqz	a2,2134 <update_shape+0x84>
    2128:	01453613          	sltiu	a2,a0,20
    212c:	00060463          	beqz	a2,2134 <update_shape+0x84>
    2130:	2f068063          	beq	a3,a6,2410 <update_shape+0x360>
    2134:	0087a603          	lw	a2,8(a5)
    2138:	02060463          	beqz	a2,2160 <update_shape+0xb0>
    213c:	00442583          	lw	a1,4(s0)
    2140:	00842503          	lw	a0,8(s0)
    2144:	00258593          	addi	a1,a1,2
    2148:	00a5b613          	sltiu	a2,a1,10
    214c:	00a70533          	add	a0,a4,a0
    2150:	00060863          	beqz	a2,2160 <update_shape+0xb0>
    2154:	01453613          	sltiu	a2,a0,20
    2158:	00060463          	beqz	a2,2160 <update_shape+0xb0>
    215c:	31068063          	beq	a3,a6,245c <update_shape+0x3ac>
    2160:	00c7a603          	lw	a2,12(a5)
    2164:	02060463          	beqz	a2,218c <update_shape+0xdc>
    2168:	00442583          	lw	a1,4(s0)
    216c:	00842503          	lw	a0,8(s0)
    2170:	00358593          	addi	a1,a1,3
    2174:	00a5b613          	sltiu	a2,a1,10
    2178:	00a70533          	add	a0,a4,a0
    217c:	00060863          	beqz	a2,218c <update_shape+0xdc>
    2180:	01453613          	sltiu	a2,a0,20
    2184:	00060463          	beqz	a2,218c <update_shape+0xdc>
    2188:	1f068263          	beq	a3,a6,236c <update_shape+0x2bc>
    218c:	00170713          	addi	a4,a4,1
    2190:	01078793          	addi	a5,a5,16
    2194:	f51716e3          	bne	a4,a7,20e0 <update_shape+0x30>
    2198:	01c12083          	lw	ra,28(sp)
    219c:	01812403          	lw	s0,24(sp)
    21a0:	02010113          	addi	sp,sp,32
    21a4:	00008067          	ret
    21a8:	00005837          	lui	a6,0x5
    21ac:	ba880813          	addi	a6,a6,-1112 # 4ba8 <current_piece>
    21b0:	01050793          	addi	a5,a0,16
    21b4:	00000713          	li	a4,0
    21b8:	00400893          	li	a7,4
    21bc:	0007a683          	lw	a3,0(a5)
    21c0:	06068263          	beqz	a3,2224 <update_shape+0x174>
    21c4:	00442583          	lw	a1,4(s0)
    21c8:	00842503          	lw	a0,8(s0)
    21cc:	00a5b693          	sltiu	a3,a1,10
    21d0:	00a70533          	add	a0,a4,a0
    21d4:	04068863          	beqz	a3,2224 <update_shape+0x174>
    21d8:	01453693          	sltiu	a3,a0,20
    21dc:	04068463          	beqz	a3,2224 <update_shape+0x174>
    21e0:	00251613          	slli	a2,a0,0x2
    21e4:	00a60633          	add	a2,a2,a0
    21e8:	000056b7          	lui	a3,0x5
    21ec:	00161613          	slli	a2,a2,0x1
    21f0:	ba868693          	addi	a3,a3,-1112 # 4ba8 <current_piece>
    21f4:	00c686b3          	add	a3,a3,a2
    21f8:	00b686b3          	add	a3,a3,a1
    21fc:	0506c603          	lbu	a2,80(a3)
    2200:	00f12423          	sw	a5,8(sp)
    2204:	00e12223          	sw	a4,4(sp)
    2208:	40061c63          	bnez	a2,2620 <update_shape+0x570>
    220c:	d68ff0ef          	jal	1774 <update_cell>
    2210:	000057b7          	lui	a5,0x5
    2214:	ba878813          	addi	a6,a5,-1112 # 4ba8 <current_piece>
    2218:	00412703          	lw	a4,4(sp)
    221c:	00812783          	lw	a5,8(sp)
    2220:	00400893          	li	a7,4
    2224:	0047a683          	lw	a3,4(a5)
    2228:	06068063          	beqz	a3,2288 <update_shape+0x1d8>
    222c:	00442583          	lw	a1,4(s0)
    2230:	00842503          	lw	a0,8(s0)
    2234:	00158593          	addi	a1,a1,1
    2238:	00a5b693          	sltiu	a3,a1,10
    223c:	00a70533          	add	a0,a4,a0
    2240:	04068463          	beqz	a3,2288 <update_shape+0x1d8>
    2244:	01453693          	sltiu	a3,a0,20
    2248:	04068063          	beqz	a3,2288 <update_shape+0x1d8>
    224c:	00251693          	slli	a3,a0,0x2
    2250:	00a686b3          	add	a3,a3,a0
    2254:	00169693          	slli	a3,a3,0x1
    2258:	00d806b3          	add	a3,a6,a3
    225c:	00b686b3          	add	a3,a3,a1
    2260:	0506c603          	lbu	a2,80(a3)
    2264:	00f12423          	sw	a5,8(sp)
    2268:	00e12223          	sw	a4,4(sp)
    226c:	36061e63          	bnez	a2,25e8 <update_shape+0x538>
    2270:	d04ff0ef          	jal	1774 <update_cell>
    2274:	000057b7          	lui	a5,0x5
    2278:	ba878813          	addi	a6,a5,-1112 # 4ba8 <current_piece>
    227c:	00412703          	lw	a4,4(sp)
    2280:	00812783          	lw	a5,8(sp)
    2284:	00400893          	li	a7,4
    2288:	0087a683          	lw	a3,8(a5)
    228c:	06068063          	beqz	a3,22ec <update_shape+0x23c>
    2290:	00442583          	lw	a1,4(s0)
    2294:	00842503          	lw	a0,8(s0)
    2298:	00258593          	addi	a1,a1,2
    229c:	00a5b693          	sltiu	a3,a1,10
    22a0:	00a70533          	add	a0,a4,a0
    22a4:	04068463          	beqz	a3,22ec <update_shape+0x23c>
    22a8:	01453693          	sltiu	a3,a0,20
    22ac:	04068063          	beqz	a3,22ec <update_shape+0x23c>
    22b0:	00251693          	slli	a3,a0,0x2
    22b4:	00a686b3          	add	a3,a3,a0
    22b8:	00169693          	slli	a3,a3,0x1
    22bc:	00d806b3          	add	a3,a6,a3
    22c0:	00b686b3          	add	a3,a3,a1
    22c4:	0506c603          	lbu	a2,80(a3)
    22c8:	00f12423          	sw	a5,8(sp)
    22cc:	00e12223          	sw	a4,4(sp)
    22d0:	32061a63          	bnez	a2,2604 <update_shape+0x554>
    22d4:	ca0ff0ef          	jal	1774 <update_cell>
    22d8:	000057b7          	lui	a5,0x5
    22dc:	ba878813          	addi	a6,a5,-1112 # 4ba8 <current_piece>
    22e0:	00412703          	lw	a4,4(sp)
    22e4:	00812783          	lw	a5,8(sp)
    22e8:	00400893          	li	a7,4
    22ec:	00c7a683          	lw	a3,12(a5)
    22f0:	06068063          	beqz	a3,2350 <update_shape+0x2a0>
    22f4:	00442583          	lw	a1,4(s0)
    22f8:	00842503          	lw	a0,8(s0)
    22fc:	00358593          	addi	a1,a1,3
    2300:	00a5b693          	sltiu	a3,a1,10
    2304:	00a70533          	add	a0,a4,a0
    2308:	04068463          	beqz	a3,2350 <update_shape+0x2a0>
    230c:	01453693          	sltiu	a3,a0,20
    2310:	04068063          	beqz	a3,2350 <update_shape+0x2a0>
    2314:	00251693          	slli	a3,a0,0x2
    2318:	00a686b3          	add	a3,a3,a0
    231c:	00169693          	slli	a3,a3,0x1
    2320:	00d806b3          	add	a3,a6,a3
    2324:	00b686b3          	add	a3,a3,a1
    2328:	0506c603          	lbu	a2,80(a3)
    232c:	00f12423          	sw	a5,8(sp)
    2330:	00e12223          	sw	a4,4(sp)
    2334:	28061c63          	bnez	a2,25cc <update_shape+0x51c>
    2338:	c3cff0ef          	jal	1774 <update_cell>
    233c:	000057b7          	lui	a5,0x5
    2340:	ba878813          	addi	a6,a5,-1112 # 4ba8 <current_piece>
    2344:	00412703          	lw	a4,4(sp)
    2348:	00812783          	lw	a5,8(sp)
    234c:	00400893          	li	a7,4
    2350:	00170713          	addi	a4,a4,1
    2354:	01078793          	addi	a5,a5,16
    2358:	e71712e3          	bne	a4,a7,21bc <update_shape+0x10c>
    235c:	01c12083          	lw	ra,28(sp)
    2360:	01812403          	lw	s0,24(sp)
    2364:	02010113          	addi	sp,sp,32
    2368:	00008067          	ret
    236c:	00251e13          	slli	t3,a0,0x2
    2370:	00ae0e33          	add	t3,t3,a0
    2374:	00005337          	lui	t1,0x5
    2378:	00c44603          	lbu	a2,12(s0)
    237c:	001e1e13          	slli	t3,t3,0x1
    2380:	ba830313          	addi	t1,t1,-1112 # 4ba8 <current_piece>
    2384:	01c30333          	add	t1,t1,t3
    2388:	00b30333          	add	t1,t1,a1
    238c:	00d12623          	sw	a3,12(sp)
    2390:	00f12423          	sw	a5,8(sp)
    2394:	00e12223          	sw	a4,4(sp)
    2398:	04c30823          	sb	a2,80(t1)
    239c:	bd8ff0ef          	jal	1774 <update_cell>
    23a0:	00412703          	lw	a4,4(sp)
    23a4:	00812783          	lw	a5,8(sp)
    23a8:	00400893          	li	a7,4
    23ac:	00170713          	addi	a4,a4,1
    23b0:	00c12683          	lw	a3,12(sp)
    23b4:	00200813          	li	a6,2
    23b8:	01078793          	addi	a5,a5,16
    23bc:	d31712e3          	bne	a4,a7,20e0 <update_shape+0x30>
    23c0:	dd9ff06f          	j	2198 <update_shape+0xe8>
    23c4:	00251e13          	slli	t3,a0,0x2
    23c8:	00ae0e33          	add	t3,t3,a0
    23cc:	00005337          	lui	t1,0x5
    23d0:	00c44603          	lbu	a2,12(s0)
    23d4:	001e1e13          	slli	t3,t3,0x1
    23d8:	ba830313          	addi	t1,t1,-1112 # 4ba8 <current_piece>
    23dc:	01c30333          	add	t1,t1,t3
    23e0:	00b30333          	add	t1,t1,a1
    23e4:	00d12623          	sw	a3,12(sp)
    23e8:	00f12423          	sw	a5,8(sp)
    23ec:	00e12223          	sw	a4,4(sp)
    23f0:	04c30823          	sb	a2,80(t1)
    23f4:	b80ff0ef          	jal	1774 <update_cell>
    23f8:	00c12683          	lw	a3,12(sp)
    23fc:	00812783          	lw	a5,8(sp)
    2400:	00412703          	lw	a4,4(sp)
    2404:	00200813          	li	a6,2
    2408:	00400893          	li	a7,4
    240c:	cfdff06f          	j	2108 <update_shape+0x58>
    2410:	00251e13          	slli	t3,a0,0x2
    2414:	00ae0e33          	add	t3,t3,a0
    2418:	00005337          	lui	t1,0x5
    241c:	00c44603          	lbu	a2,12(s0)
    2420:	001e1e13          	slli	t3,t3,0x1
    2424:	ba830313          	addi	t1,t1,-1112 # 4ba8 <current_piece>
    2428:	01c30333          	add	t1,t1,t3
    242c:	00b30333          	add	t1,t1,a1
    2430:	00d12623          	sw	a3,12(sp)
    2434:	00f12423          	sw	a5,8(sp)
    2438:	00e12223          	sw	a4,4(sp)
    243c:	04c30823          	sb	a2,80(t1)
    2440:	b34ff0ef          	jal	1774 <update_cell>
    2444:	00c12683          	lw	a3,12(sp)
    2448:	00812783          	lw	a5,8(sp)
    244c:	00412703          	lw	a4,4(sp)
    2450:	00200813          	li	a6,2
    2454:	00400893          	li	a7,4
    2458:	cddff06f          	j	2134 <update_shape+0x84>
    245c:	00251e13          	slli	t3,a0,0x2
    2460:	00ae0e33          	add	t3,t3,a0
    2464:	00005337          	lui	t1,0x5
    2468:	00c44603          	lbu	a2,12(s0)
    246c:	001e1e13          	slli	t3,t3,0x1
    2470:	ba830313          	addi	t1,t1,-1112 # 4ba8 <current_piece>
    2474:	01c30333          	add	t1,t1,t3
    2478:	00b30333          	add	t1,t1,a1
    247c:	00d12623          	sw	a3,12(sp)
    2480:	00f12423          	sw	a5,8(sp)
    2484:	00e12223          	sw	a4,4(sp)
    2488:	04c30823          	sb	a2,80(t1)
    248c:	ae8ff0ef          	jal	1774 <update_cell>
    2490:	00c12683          	lw	a3,12(sp)
    2494:	00812783          	lw	a5,8(sp)
    2498:	00412703          	lw	a4,4(sp)
    249c:	00200813          	li	a6,2
    24a0:	00400893          	li	a7,4
    24a4:	cbdff06f          	j	2160 <update_shape+0xb0>
    24a8:	01050793          	addi	a5,a0,16
    24ac:	00000713          	li	a4,0
    24b0:	0007a683          	lw	a3,0(a5)
    24b4:	02068c63          	beqz	a3,24ec <update_shape+0x43c>
    24b8:	00442583          	lw	a1,4(s0)
    24bc:	00842503          	lw	a0,8(s0)
    24c0:	00a5b693          	sltiu	a3,a1,10
    24c4:	00a70533          	add	a0,a4,a0
    24c8:	02068263          	beqz	a3,24ec <update_shape+0x43c>
    24cc:	01453693          	sltiu	a3,a0,20
    24d0:	00068e63          	beqz	a3,24ec <update_shape+0x43c>
    24d4:	00c44603          	lbu	a2,12(s0)
    24d8:	00f12423          	sw	a5,8(sp)
    24dc:	00e12223          	sw	a4,4(sp)
    24e0:	a94ff0ef          	jal	1774 <update_cell>
    24e4:	00812783          	lw	a5,8(sp)
    24e8:	00412703          	lw	a4,4(sp)
    24ec:	0047a683          	lw	a3,4(a5)
    24f0:	02068e63          	beqz	a3,252c <update_shape+0x47c>
    24f4:	00442583          	lw	a1,4(s0)
    24f8:	00842503          	lw	a0,8(s0)
    24fc:	00158593          	addi	a1,a1,1
    2500:	00a5b693          	sltiu	a3,a1,10
    2504:	00a70533          	add	a0,a4,a0
    2508:	02068263          	beqz	a3,252c <update_shape+0x47c>
    250c:	01453693          	sltiu	a3,a0,20
    2510:	00068e63          	beqz	a3,252c <update_shape+0x47c>
    2514:	00c44603          	lbu	a2,12(s0)
    2518:	00f12423          	sw	a5,8(sp)
    251c:	00e12223          	sw	a4,4(sp)
    2520:	a54ff0ef          	jal	1774 <update_cell>
    2524:	00812783          	lw	a5,8(sp)
    2528:	00412703          	lw	a4,4(sp)
    252c:	0087a683          	lw	a3,8(a5)
    2530:	02068e63          	beqz	a3,256c <update_shape+0x4bc>
    2534:	00442583          	lw	a1,4(s0)
    2538:	00842503          	lw	a0,8(s0)
    253c:	00258593          	addi	a1,a1,2
    2540:	00a5b693          	sltiu	a3,a1,10
    2544:	00a70533          	add	a0,a4,a0
    2548:	02068263          	beqz	a3,256c <update_shape+0x4bc>
    254c:	01453693          	sltiu	a3,a0,20
    2550:	00068e63          	beqz	a3,256c <update_shape+0x4bc>
    2554:	00c44603          	lbu	a2,12(s0)
    2558:	00f12423          	sw	a5,8(sp)
    255c:	00e12223          	sw	a4,4(sp)
    2560:	a14ff0ef          	jal	1774 <update_cell>
    2564:	00812783          	lw	a5,8(sp)
    2568:	00412703          	lw	a4,4(sp)
    256c:	00c7a683          	lw	a3,12(a5)
    2570:	02068e63          	beqz	a3,25ac <update_shape+0x4fc>
    2574:	00442583          	lw	a1,4(s0)
    2578:	00842503          	lw	a0,8(s0)
    257c:	00358593          	addi	a1,a1,3
    2580:	00a5b693          	sltiu	a3,a1,10
    2584:	00a70533          	add	a0,a4,a0
    2588:	02068263          	beqz	a3,25ac <update_shape+0x4fc>
    258c:	01453693          	sltiu	a3,a0,20
    2590:	00068e63          	beqz	a3,25ac <update_shape+0x4fc>
    2594:	00c44603          	lbu	a2,12(s0)
    2598:	00f12423          	sw	a5,8(sp)
    259c:	00e12223          	sw	a4,4(sp)
    25a0:	9d4ff0ef          	jal	1774 <update_cell>
    25a4:	00812783          	lw	a5,8(sp)
    25a8:	00412703          	lw	a4,4(sp)
    25ac:	00170713          	addi	a4,a4,1
    25b0:	00400693          	li	a3,4
    25b4:	01078793          	addi	a5,a5,16
    25b8:	eed71ce3          	bne	a4,a3,24b0 <update_shape+0x400>
    25bc:	01c12083          	lw	ra,28(sp)
    25c0:	01812403          	lw	s0,24(sp)
    25c4:	02010113          	addi	sp,sp,32
    25c8:	00008067          	ret
    25cc:	9a8ff0ef          	jal	1774 <update_cell>
    25d0:	000056b7          	lui	a3,0x5
    25d4:	00412703          	lw	a4,4(sp)
    25d8:	00812783          	lw	a5,8(sp)
    25dc:	00400893          	li	a7,4
    25e0:	ba868813          	addi	a6,a3,-1112 # 4ba8 <current_piece>
    25e4:	d6dff06f          	j	2350 <update_shape+0x2a0>
    25e8:	98cff0ef          	jal	1774 <update_cell>
    25ec:	000056b7          	lui	a3,0x5
    25f0:	00412703          	lw	a4,4(sp)
    25f4:	00812783          	lw	a5,8(sp)
    25f8:	00400893          	li	a7,4
    25fc:	ba868813          	addi	a6,a3,-1112 # 4ba8 <current_piece>
    2600:	c89ff06f          	j	2288 <update_shape+0x1d8>
    2604:	970ff0ef          	jal	1774 <update_cell>
    2608:	000056b7          	lui	a3,0x5
    260c:	00412703          	lw	a4,4(sp)
    2610:	00812783          	lw	a5,8(sp)
    2614:	00400893          	li	a7,4
    2618:	ba868813          	addi	a6,a3,-1112 # 4ba8 <current_piece>
    261c:	cd1ff06f          	j	22ec <update_shape+0x23c>
    2620:	954ff0ef          	jal	1774 <update_cell>
    2624:	000056b7          	lui	a3,0x5
    2628:	00412703          	lw	a4,4(sp)
    262c:	00812783          	lw	a5,8(sp)
    2630:	00400893          	li	a7,4
    2634:	ba868813          	addi	a6,a3,-1112 # 4ba8 <current_piece>
    2638:	bedff06f          	j	2224 <update_shape+0x174>

0000263c <can_move>:
    263c:	00005837          	lui	a6,0x5
    2640:	ba880813          	addi	a6,a6,-1112 # 4ba8 <current_piece>
    2644:	00000793          	li	a5,0
    2648:	00400893          	li	a7,4
    264c:	0006a703          	lw	a4,0(a3)
    2650:	04070263          	beqz	a4,2694 <can_move+0x58>
    2654:	00452e03          	lw	t3,4(a0)
    2658:	00852303          	lw	t1,8(a0)
    265c:	01c58e33          	add	t3,a1,t3
    2660:	00678333          	add	t1,a5,t1
    2664:	00ae3713          	sltiu	a4,t3,10
    2668:	00c30333          	add	t1,t1,a2
    266c:	12070063          	beqz	a4,278c <can_move+0x150>
    2670:	01433713          	sltiu	a4,t1,20
    2674:	10070c63          	beqz	a4,278c <can_move+0x150>
    2678:	00231713          	slli	a4,t1,0x2
    267c:	00670733          	add	a4,a4,t1
    2680:	00171713          	slli	a4,a4,0x1
    2684:	00e80733          	add	a4,a6,a4
    2688:	01c70733          	add	a4,a4,t3
    268c:	05074703          	lbu	a4,80(a4)
    2690:	0e071e63          	bnez	a4,278c <can_move+0x150>
    2694:	0046a703          	lw	a4,4(a3)
    2698:	04070463          	beqz	a4,26e0 <can_move+0xa4>
    269c:	00452e03          	lw	t3,4(a0)
    26a0:	00852303          	lw	t1,8(a0)
    26a4:	001e0e13          	addi	t3,t3,1
    26a8:	00be0e33          	add	t3,t3,a1
    26ac:	00678333          	add	t1,a5,t1
    26b0:	00ae3713          	sltiu	a4,t3,10
    26b4:	00c30333          	add	t1,t1,a2
    26b8:	0c070a63          	beqz	a4,278c <can_move+0x150>
    26bc:	01433713          	sltiu	a4,t1,20
    26c0:	0c070663          	beqz	a4,278c <can_move+0x150>
    26c4:	00231713          	slli	a4,t1,0x2
    26c8:	00670733          	add	a4,a4,t1
    26cc:	00171713          	slli	a4,a4,0x1
    26d0:	00e80733          	add	a4,a6,a4
    26d4:	01c70733          	add	a4,a4,t3
    26d8:	05074703          	lbu	a4,80(a4)
    26dc:	0a071863          	bnez	a4,278c <can_move+0x150>
    26e0:	0086a703          	lw	a4,8(a3)
    26e4:	04070463          	beqz	a4,272c <can_move+0xf0>
    26e8:	00452e03          	lw	t3,4(a0)
    26ec:	00852303          	lw	t1,8(a0)
    26f0:	002e0e13          	addi	t3,t3,2
    26f4:	00be0e33          	add	t3,t3,a1
    26f8:	00678333          	add	t1,a5,t1
    26fc:	00ae3713          	sltiu	a4,t3,10
    2700:	00c30333          	add	t1,t1,a2
    2704:	08070463          	beqz	a4,278c <can_move+0x150>
    2708:	01433713          	sltiu	a4,t1,20
    270c:	08070063          	beqz	a4,278c <can_move+0x150>
    2710:	00231713          	slli	a4,t1,0x2
    2714:	00670733          	add	a4,a4,t1
    2718:	00171713          	slli	a4,a4,0x1
    271c:	00e80733          	add	a4,a6,a4
    2720:	01c70733          	add	a4,a4,t3
    2724:	05074703          	lbu	a4,80(a4)
    2728:	06071263          	bnez	a4,278c <can_move+0x150>
    272c:	00c6a703          	lw	a4,12(a3)
    2730:	04070463          	beqz	a4,2778 <can_move+0x13c>
    2734:	00452e03          	lw	t3,4(a0)
    2738:	00852303          	lw	t1,8(a0)
    273c:	003e0e13          	addi	t3,t3,3
    2740:	00be0e33          	add	t3,t3,a1
    2744:	00678333          	add	t1,a5,t1
    2748:	00ae3713          	sltiu	a4,t3,10
    274c:	00c30333          	add	t1,t1,a2
    2750:	02070e63          	beqz	a4,278c <can_move+0x150>
    2754:	01433713          	sltiu	a4,t1,20
    2758:	02070a63          	beqz	a4,278c <can_move+0x150>
    275c:	00231713          	slli	a4,t1,0x2
    2760:	00670733          	add	a4,a4,t1
    2764:	00171713          	slli	a4,a4,0x1
    2768:	00e80733          	add	a4,a6,a4
    276c:	01c70733          	add	a4,a4,t3
    2770:	05074703          	lbu	a4,80(a4)
    2774:	00071c63          	bnez	a4,278c <can_move+0x150>
    2778:	00178793          	addi	a5,a5,1
    277c:	01068693          	addi	a3,a3,16
    2780:	ed1796e3          	bne	a5,a7,264c <can_move+0x10>
    2784:	00100513          	li	a0,1
    2788:	00008067          	ret
    278c:	00000513          	li	a0,0
    2790:	00008067          	ret

00002794 <rotate_piece>:
    2794:	f9010113          	addi	sp,sp,-112
    2798:	01452383          	lw	t2,20(a0)
    279c:	01852e83          	lw	t4,24(a0)
    27a0:	01c52803          	lw	a6,28(a0)
    27a4:	06812623          	sw	s0,108(sp)
    27a8:	07312023          	sw	s3,96(sp)
    27ac:	02452403          	lw	s0,36(a0)
    27b0:	01052983          	lw	s3,16(a0)
    27b4:	05412e23          	sw	s4,92(sp)
    27b8:	02052a03          	lw	s4,32(a0)
    27bc:	02c52883          	lw	a7,44(a0)
    27c0:	03852f83          	lw	t6,56(a0)
    27c4:	03c52303          	lw	t1,60(a0)
    27c8:	04852283          	lw	t0,72(a0)
    27cc:	04c52e03          	lw	t3,76(a0)
    27d0:	06912423          	sw	s1,104(sp)
    27d4:	07212223          	sw	s2,100(sp)
    27d8:	03452483          	lw	s1,52(a0)
    27dc:	04452903          	lw	s2,68(a0)
    27e0:	05512c23          	sw	s5,88(sp)
    27e4:	05612a23          	sw	s6,84(sp)
    27e8:	03052a83          	lw	s5,48(a0)
    27ec:	04052b03          	lw	s6,64(a0)
    27f0:	02852f03          	lw	t5,40(a0)
    27f4:	05712823          	sw	s7,80(sp)
    27f8:	05812623          	sw	s8,76(sp)
    27fc:	00005637          	lui	a2,0x5
    2800:	01312623          	sw	s3,12(sp)
    2804:	00712e23          	sw	t2,28(sp)
    2808:	03d12623          	sw	t4,44(sp)
    280c:	03012e23          	sw	a6,60(sp)
    2810:	01412423          	sw	s4,8(sp)
    2814:	00812c23          	sw	s0,24(sp)
    2818:	03e12423          	sw	t5,40(sp)
    281c:	ba860613          	addi	a2,a2,-1112 # 4ba8 <current_piece>
    2820:	03112c23          	sw	a7,56(sp)
    2824:	01512223          	sw	s5,4(sp)
    2828:	00912a23          	sw	s1,20(sp)
    282c:	03f12223          	sw	t6,36(sp)
    2830:	02612a23          	sw	t1,52(sp)
    2834:	01612023          	sw	s6,0(sp)
    2838:	01212823          	sw	s2,16(sp)
    283c:	02512023          	sw	t0,32(sp)
    2840:	03c12823          	sw	t3,48(sp)
    2844:	00010793          	mv	a5,sp
    2848:	00000713          	li	a4,0
    284c:	00400593          	li	a1,4
    2850:	0007a683          	lw	a3,0(a5)
    2854:	02068e63          	beqz	a3,2890 <rotate_piece+0xfc>
    2858:	00452c03          	lw	s8,4(a0)
    285c:	00852b83          	lw	s7,8(a0)
    2860:	00ac3693          	sltiu	a3,s8,10
    2864:	01770bb3          	add	s7,a4,s7
    2868:	14068063          	beqz	a3,29a8 <rotate_piece+0x214>
    286c:	014bb693          	sltiu	a3,s7,20
    2870:	12068c63          	beqz	a3,29a8 <rotate_piece+0x214>
    2874:	002b9693          	slli	a3,s7,0x2
    2878:	017686b3          	add	a3,a3,s7
    287c:	00169693          	slli	a3,a3,0x1
    2880:	00d606b3          	add	a3,a2,a3
    2884:	018686b3          	add	a3,a3,s8
    2888:	0506c683          	lbu	a3,80(a3)
    288c:	10069e63          	bnez	a3,29a8 <rotate_piece+0x214>
    2890:	0047a683          	lw	a3,4(a5)
    2894:	04068063          	beqz	a3,28d4 <rotate_piece+0x140>
    2898:	00452c03          	lw	s8,4(a0)
    289c:	00852b83          	lw	s7,8(a0)
    28a0:	001c0693          	addi	a3,s8,1
    28a4:	00a6b693          	sltiu	a3,a3,10
    28a8:	01770bb3          	add	s7,a4,s7
    28ac:	0e068e63          	beqz	a3,29a8 <rotate_piece+0x214>
    28b0:	014bb693          	sltiu	a3,s7,20
    28b4:	0e068a63          	beqz	a3,29a8 <rotate_piece+0x214>
    28b8:	002b9693          	slli	a3,s7,0x2
    28bc:	017686b3          	add	a3,a3,s7
    28c0:	00169693          	slli	a3,a3,0x1
    28c4:	00d606b3          	add	a3,a2,a3
    28c8:	018686b3          	add	a3,a3,s8
    28cc:	0516c683          	lbu	a3,81(a3)
    28d0:	0c069c63          	bnez	a3,29a8 <rotate_piece+0x214>
    28d4:	0087a683          	lw	a3,8(a5)
    28d8:	04068063          	beqz	a3,2918 <rotate_piece+0x184>
    28dc:	00452c03          	lw	s8,4(a0)
    28e0:	00852b83          	lw	s7,8(a0)
    28e4:	002c0693          	addi	a3,s8,2
    28e8:	00a6b693          	sltiu	a3,a3,10
    28ec:	01770bb3          	add	s7,a4,s7
    28f0:	0a068c63          	beqz	a3,29a8 <rotate_piece+0x214>
    28f4:	014bb693          	sltiu	a3,s7,20
    28f8:	0a068863          	beqz	a3,29a8 <rotate_piece+0x214>
    28fc:	002b9693          	slli	a3,s7,0x2
    2900:	017686b3          	add	a3,a3,s7
    2904:	00169693          	slli	a3,a3,0x1
    2908:	00d606b3          	add	a3,a2,a3
    290c:	018686b3          	add	a3,a3,s8
    2910:	0526c683          	lbu	a3,82(a3)
    2914:	08069a63          	bnez	a3,29a8 <rotate_piece+0x214>
    2918:	00c7a683          	lw	a3,12(a5)
    291c:	04068063          	beqz	a3,295c <rotate_piece+0x1c8>
    2920:	00452c03          	lw	s8,4(a0)
    2924:	00852b83          	lw	s7,8(a0)
    2928:	003c0693          	addi	a3,s8,3
    292c:	00a6b693          	sltiu	a3,a3,10
    2930:	01770bb3          	add	s7,a4,s7
    2934:	06068a63          	beqz	a3,29a8 <rotate_piece+0x214>
    2938:	014bb693          	sltiu	a3,s7,20
    293c:	06068663          	beqz	a3,29a8 <rotate_piece+0x214>
    2940:	002b9693          	slli	a3,s7,0x2
    2944:	017686b3          	add	a3,a3,s7
    2948:	00169693          	slli	a3,a3,0x1
    294c:	00d606b3          	add	a3,a2,a3
    2950:	018686b3          	add	a3,a3,s8
    2954:	0536c683          	lbu	a3,83(a3)
    2958:	04069863          	bnez	a3,29a8 <rotate_piece+0x214>
    295c:	00170713          	addi	a4,a4,1
    2960:	01078793          	addi	a5,a5,16
    2964:	eeb716e3          	bne	a4,a1,2850 <rotate_piece+0xbc>
    2968:	01652823          	sw	s6,16(a0)
    296c:	01552a23          	sw	s5,20(a0)
    2970:	01452c23          	sw	s4,24(a0)
    2974:	01352e23          	sw	s3,28(a0)
    2978:	03252023          	sw	s2,32(a0)
    297c:	02952223          	sw	s1,36(a0)
    2980:	02852423          	sw	s0,40(a0)
    2984:	02752623          	sw	t2,44(a0)
    2988:	02552823          	sw	t0,48(a0)
    298c:	03f52a23          	sw	t6,52(a0)
    2990:	03e52c23          	sw	t5,56(a0)
    2994:	03d52e23          	sw	t4,60(a0)
    2998:	05c52023          	sw	t3,64(a0)
    299c:	04652223          	sw	t1,68(a0)
    29a0:	05152423          	sw	a7,72(a0)
    29a4:	05052623          	sw	a6,76(a0)
    29a8:	06c12403          	lw	s0,108(sp)
    29ac:	06812483          	lw	s1,104(sp)
    29b0:	06412903          	lw	s2,100(sp)
    29b4:	06012983          	lw	s3,96(sp)
    29b8:	05c12a03          	lw	s4,92(sp)
    29bc:	05812a83          	lw	s5,88(sp)
    29c0:	05412b03          	lw	s6,84(sp)
    29c4:	05012b83          	lw	s7,80(sp)
    29c8:	04c12c03          	lw	s8,76(sp)
    29cc:	07010113          	addi	sp,sp,112
    29d0:	00008067          	ret

000029d4 <move_piece>:
    29d4:	fe010113          	addi	sp,sp,-32
    29d8:	00812c23          	sw	s0,24(sp)
    29dc:	00112e23          	sw	ra,28(sp)
    29e0:	00050413          	mv	s0,a0
    29e4:	f35fe0ef          	jal	1918 <update_shape.constprop.1>
    29e8:	040007b7          	lui	a5,0x4000
    29ec:	0107a703          	lw	a4,16(a5) # 4000010 <_stack_end+0x3efaea4>
    29f0:	040007b7          	lui	a5,0x4000
    29f4:	0e078793          	addi	a5,a5,224 # 40000e0 <_stack_end+0x3efaf74>
    29f8:	3ff77713          	andi	a4,a4,1023
    29fc:	00e12623          	sw	a4,12(sp)
    2a00:	0007a783          	lw	a5,0(a5)
    2a04:	0017f793          	andi	a5,a5,1
    2a08:	12078e63          	beqz	a5,2b44 <move_piece+0x170>
    2a0c:	00442583          	lw	a1,4(s0)
    2a10:	00005637          	lui	a2,0x5
    2a14:	ba860613          	addi	a2,a2,-1112 # 4ba8 <current_piece>
    2a18:	fff58513          	addi	a0,a1,-1
    2a1c:	00158813          	addi	a6,a1,1
    2a20:	00258893          	addi	a7,a1,2
    2a24:	00a53513          	sltiu	a0,a0,10
    2a28:	00a83813          	sltiu	a6,a6,10
    2a2c:	00a8b893          	sltiu	a7,a7,10
    2a30:	00a5b313          	sltiu	t1,a1,10
    2a34:	00154513          	xori	a0,a0,1
    2a38:	00184813          	xori	a6,a6,1
    2a3c:	0018c893          	xori	a7,a7,1
    2a40:	00134313          	xori	t1,t1,1
    2a44:	01040793          	addi	a5,s0,16
    2a48:	00000693          	li	a3,0
    2a4c:	00400e13          	li	t3,4
    2a50:	0007a703          	lw	a4,0(a5)
    2a54:	02070a63          	beqz	a4,2a88 <move_piece+0xb4>
    2a58:	00842703          	lw	a4,8(s0)
    2a5c:	00e68eb3          	add	t4,a3,a4
    2a60:	0e051263          	bnez	a0,2b44 <move_piece+0x170>
    2a64:	014eb713          	sltiu	a4,t4,20
    2a68:	0c070e63          	beqz	a4,2b44 <move_piece+0x170>
    2a6c:	002e9713          	slli	a4,t4,0x2
    2a70:	01d70733          	add	a4,a4,t4
    2a74:	00171713          	slli	a4,a4,0x1
    2a78:	00e60733          	add	a4,a2,a4
    2a7c:	00b70733          	add	a4,a4,a1
    2a80:	04f74703          	lbu	a4,79(a4)
    2a84:	0c071063          	bnez	a4,2b44 <move_piece+0x170>
    2a88:	0047a703          	lw	a4,4(a5)
    2a8c:	02070a63          	beqz	a4,2ac0 <move_piece+0xec>
    2a90:	00842703          	lw	a4,8(s0)
    2a94:	00e68eb3          	add	t4,a3,a4
    2a98:	0a031663          	bnez	t1,2b44 <move_piece+0x170>
    2a9c:	014eb713          	sltiu	a4,t4,20
    2aa0:	0a070263          	beqz	a4,2b44 <move_piece+0x170>
    2aa4:	002e9713          	slli	a4,t4,0x2
    2aa8:	01d70733          	add	a4,a4,t4
    2aac:	00171713          	slli	a4,a4,0x1
    2ab0:	00e60733          	add	a4,a2,a4
    2ab4:	00b70733          	add	a4,a4,a1
    2ab8:	05074703          	lbu	a4,80(a4)
    2abc:	08071463          	bnez	a4,2b44 <move_piece+0x170>
    2ac0:	0087a703          	lw	a4,8(a5)
    2ac4:	02070a63          	beqz	a4,2af8 <move_piece+0x124>
    2ac8:	00842703          	lw	a4,8(s0)
    2acc:	00e68eb3          	add	t4,a3,a4
    2ad0:	06081a63          	bnez	a6,2b44 <move_piece+0x170>
    2ad4:	014eb713          	sltiu	a4,t4,20
    2ad8:	06070663          	beqz	a4,2b44 <move_piece+0x170>
    2adc:	002e9713          	slli	a4,t4,0x2
    2ae0:	01d70733          	add	a4,a4,t4
    2ae4:	00171713          	slli	a4,a4,0x1
    2ae8:	00e60733          	add	a4,a2,a4
    2aec:	00b70733          	add	a4,a4,a1
    2af0:	05174703          	lbu	a4,81(a4)
    2af4:	04071863          	bnez	a4,2b44 <move_piece+0x170>
    2af8:	00c7a703          	lw	a4,12(a5)
    2afc:	02070a63          	beqz	a4,2b30 <move_piece+0x15c>
    2b00:	00842703          	lw	a4,8(s0)
    2b04:	00e68eb3          	add	t4,a3,a4
    2b08:	02089e63          	bnez	a7,2b44 <move_piece+0x170>
    2b0c:	014eb713          	sltiu	a4,t4,20
    2b10:	02070a63          	beqz	a4,2b44 <move_piece+0x170>
    2b14:	002e9713          	slli	a4,t4,0x2
    2b18:	01d70733          	add	a4,a4,t4
    2b1c:	00171713          	slli	a4,a4,0x1
    2b20:	00e60733          	add	a4,a2,a4
    2b24:	00b70733          	add	a4,a4,a1
    2b28:	05274703          	lbu	a4,82(a4)
    2b2c:	00071c63          	bnez	a4,2b44 <move_piece+0x170>
    2b30:	00168693          	addi	a3,a3,1
    2b34:	01078793          	addi	a5,a5,16
    2b38:	f1c69ce3          	bne	a3,t3,2a50 <move_piece+0x7c>
    2b3c:	fff58593          	addi	a1,a1,-1
    2b40:	00b42223          	sw	a1,4(s0)
    2b44:	040007b7          	lui	a5,0x4000
    2b48:	0e078793          	addi	a5,a5,224 # 40000e0 <_stack_end+0x3efaf74>
    2b4c:	0007a783          	lw	a5,0(a5)
    2b50:	0027f793          	andi	a5,a5,2
    2b54:	14078063          	beqz	a5,2c94 <move_piece+0x2c0>
    2b58:	00442583          	lw	a1,4(s0)
    2b5c:	00005637          	lui	a2,0x5
    2b60:	ba860613          	addi	a2,a2,-1112 # 4ba8 <current_piece>
    2b64:	00158513          	addi	a0,a1,1
    2b68:	00258813          	addi	a6,a1,2
    2b6c:	00358893          	addi	a7,a1,3
    2b70:	00458313          	addi	t1,a1,4
    2b74:	00a53513          	sltiu	a0,a0,10
    2b78:	00a83813          	sltiu	a6,a6,10
    2b7c:	00a8b893          	sltiu	a7,a7,10
    2b80:	00a33313          	sltiu	t1,t1,10
    2b84:	00154513          	xori	a0,a0,1
    2b88:	00184813          	xori	a6,a6,1
    2b8c:	0018c893          	xori	a7,a7,1
    2b90:	00134313          	xori	t1,t1,1
    2b94:	01040793          	addi	a5,s0,16
    2b98:	00000693          	li	a3,0
    2b9c:	00400e13          	li	t3,4
    2ba0:	0007a703          	lw	a4,0(a5)
    2ba4:	02070a63          	beqz	a4,2bd8 <move_piece+0x204>
    2ba8:	00842703          	lw	a4,8(s0)
    2bac:	00e68eb3          	add	t4,a3,a4
    2bb0:	0e051263          	bnez	a0,2c94 <move_piece+0x2c0>
    2bb4:	014eb713          	sltiu	a4,t4,20
    2bb8:	0c070e63          	beqz	a4,2c94 <move_piece+0x2c0>
    2bbc:	002e9713          	slli	a4,t4,0x2
    2bc0:	01d70733          	add	a4,a4,t4
    2bc4:	00171713          	slli	a4,a4,0x1
    2bc8:	00e60733          	add	a4,a2,a4
    2bcc:	00b70733          	add	a4,a4,a1
    2bd0:	05174703          	lbu	a4,81(a4)
    2bd4:	0c071063          	bnez	a4,2c94 <move_piece+0x2c0>
    2bd8:	0047a703          	lw	a4,4(a5)
    2bdc:	02070a63          	beqz	a4,2c10 <move_piece+0x23c>
    2be0:	00842703          	lw	a4,8(s0)
    2be4:	00e68eb3          	add	t4,a3,a4
    2be8:	0a081663          	bnez	a6,2c94 <move_piece+0x2c0>
    2bec:	014eb713          	sltiu	a4,t4,20
    2bf0:	0a070263          	beqz	a4,2c94 <move_piece+0x2c0>
    2bf4:	002e9713          	slli	a4,t4,0x2
    2bf8:	01d70733          	add	a4,a4,t4
    2bfc:	00171713          	slli	a4,a4,0x1
    2c00:	00e60733          	add	a4,a2,a4
    2c04:	00b70733          	add	a4,a4,a1
    2c08:	05274703          	lbu	a4,82(a4)
    2c0c:	08071463          	bnez	a4,2c94 <move_piece+0x2c0>
    2c10:	0087a703          	lw	a4,8(a5)
    2c14:	02070a63          	beqz	a4,2c48 <move_piece+0x274>
    2c18:	00842703          	lw	a4,8(s0)
    2c1c:	00e68eb3          	add	t4,a3,a4
    2c20:	06089a63          	bnez	a7,2c94 <move_piece+0x2c0>
    2c24:	014eb713          	sltiu	a4,t4,20
    2c28:	06070663          	beqz	a4,2c94 <move_piece+0x2c0>
    2c2c:	002e9713          	slli	a4,t4,0x2
    2c30:	01d70733          	add	a4,a4,t4
    2c34:	00171713          	slli	a4,a4,0x1
    2c38:	00e60733          	add	a4,a2,a4
    2c3c:	00b70733          	add	a4,a4,a1
    2c40:	05374703          	lbu	a4,83(a4)
    2c44:	04071863          	bnez	a4,2c94 <move_piece+0x2c0>
    2c48:	00c7a703          	lw	a4,12(a5)
    2c4c:	02070a63          	beqz	a4,2c80 <move_piece+0x2ac>
    2c50:	00842703          	lw	a4,8(s0)
    2c54:	00e68eb3          	add	t4,a3,a4
    2c58:	02031e63          	bnez	t1,2c94 <move_piece+0x2c0>
    2c5c:	014eb713          	sltiu	a4,t4,20
    2c60:	02070a63          	beqz	a4,2c94 <move_piece+0x2c0>
    2c64:	002e9713          	slli	a4,t4,0x2
    2c68:	01d70733          	add	a4,a4,t4
    2c6c:	00171713          	slli	a4,a4,0x1
    2c70:	00e60733          	add	a4,a2,a4
    2c74:	00b70733          	add	a4,a4,a1
    2c78:	05474703          	lbu	a4,84(a4)
    2c7c:	00071c63          	bnez	a4,2c94 <move_piece+0x2c0>
    2c80:	00168693          	addi	a3,a3,1
    2c84:	01078793          	addi	a5,a5,16
    2c88:	f1c69ce3          	bne	a3,t3,2ba0 <move_piece+0x1cc>
    2c8c:	00158593          	addi	a1,a1,1
    2c90:	00b42223          	sw	a1,4(s0)
    2c94:	00c12783          	lw	a5,12(sp)
    2c98:	0027f793          	andi	a5,a5,2
    2c9c:	2a078063          	beqz	a5,2f3c <move_piece+0x568>
    2ca0:	00442583          	lw	a1,4(s0)
    2ca4:	00842703          	lw	a4,8(s0)
    2ca8:	00005537          	lui	a0,0x5
    2cac:	00158893          	addi	a7,a1,1
    2cb0:	00258313          	addi	t1,a1,2
    2cb4:	00358e13          	addi	t3,a1,3
    2cb8:	00a8b893          	sltiu	a7,a7,10
    2cbc:	00a33313          	sltiu	t1,t1,10
    2cc0:	00ae3e13          	sltiu	t3,t3,10
    2cc4:	00a5be93          	sltiu	t4,a1,10
    2cc8:	00912a23          	sw	s1,20(sp)
    2ccc:	ba850513          	addi	a0,a0,-1112 # 4ba8 <current_piece>
    2cd0:	0018c893          	xori	a7,a7,1
    2cd4:	00134313          	xori	t1,t1,1
    2cd8:	001e4e13          	xori	t3,t3,1
    2cdc:	001ece93          	xori	t4,t4,1
    2ce0:	01040793          	addi	a5,s0,16
    2ce4:	00000693          	li	a3,0
    2ce8:	00400813          	li	a6,4
    2cec:	0007a603          	lw	a2,0(a5)
    2cf0:	02060a63          	beqz	a2,2d24 <move_piece+0x350>
    2cf4:	00e68f33          	add	t5,a3,a4
    2cf8:	001f0f13          	addi	t5,t5,1
    2cfc:	0e0e9463          	bnez	t4,2de4 <move_piece+0x410>
    2d00:	014f3613          	sltiu	a2,t5,20
    2d04:	0e060063          	beqz	a2,2de4 <move_piece+0x410>
    2d08:	002f1613          	slli	a2,t5,0x2
    2d0c:	01e60633          	add	a2,a2,t5
    2d10:	00161613          	slli	a2,a2,0x1
    2d14:	00c50633          	add	a2,a0,a2
    2d18:	00b60633          	add	a2,a2,a1
    2d1c:	05064603          	lbu	a2,80(a2)
    2d20:	0c061263          	bnez	a2,2de4 <move_piece+0x410>
    2d24:	0047a603          	lw	a2,4(a5)
    2d28:	02060a63          	beqz	a2,2d5c <move_piece+0x388>
    2d2c:	00e68f33          	add	t5,a3,a4
    2d30:	001f0f13          	addi	t5,t5,1
    2d34:	0a089863          	bnez	a7,2de4 <move_piece+0x410>
    2d38:	014f3613          	sltiu	a2,t5,20
    2d3c:	0a060463          	beqz	a2,2de4 <move_piece+0x410>
    2d40:	002f1613          	slli	a2,t5,0x2
    2d44:	01e60633          	add	a2,a2,t5
    2d48:	00161613          	slli	a2,a2,0x1
    2d4c:	00c50633          	add	a2,a0,a2
    2d50:	00b60633          	add	a2,a2,a1
    2d54:	05164603          	lbu	a2,81(a2)
    2d58:	08061663          	bnez	a2,2de4 <move_piece+0x410>
    2d5c:	0087a603          	lw	a2,8(a5)
    2d60:	02060a63          	beqz	a2,2d94 <move_piece+0x3c0>
    2d64:	00e68f33          	add	t5,a3,a4
    2d68:	001f0f13          	addi	t5,t5,1
    2d6c:	06031c63          	bnez	t1,2de4 <move_piece+0x410>
    2d70:	014f3613          	sltiu	a2,t5,20
    2d74:	06060863          	beqz	a2,2de4 <move_piece+0x410>
    2d78:	002f1613          	slli	a2,t5,0x2
    2d7c:	01e60633          	add	a2,a2,t5
    2d80:	00161613          	slli	a2,a2,0x1
    2d84:	00c50633          	add	a2,a0,a2
    2d88:	00b60633          	add	a2,a2,a1
    2d8c:	05264603          	lbu	a2,82(a2)
    2d90:	04061a63          	bnez	a2,2de4 <move_piece+0x410>
    2d94:	00c7a603          	lw	a2,12(a5)
    2d98:	02060a63          	beqz	a2,2dcc <move_piece+0x3f8>
    2d9c:	00e68f33          	add	t5,a3,a4
    2da0:	001f0f13          	addi	t5,t5,1
    2da4:	040e1063          	bnez	t3,2de4 <move_piece+0x410>
    2da8:	014f3613          	sltiu	a2,t5,20
    2dac:	02060c63          	beqz	a2,2de4 <move_piece+0x410>
    2db0:	002f1613          	slli	a2,t5,0x2
    2db4:	01e60633          	add	a2,a2,t5
    2db8:	00161613          	slli	a2,a2,0x1
    2dbc:	00c50633          	add	a2,a0,a2
    2dc0:	00b60633          	add	a2,a2,a1
    2dc4:	05364603          	lbu	a2,83(a2)
    2dc8:	00061e63          	bnez	a2,2de4 <move_piece+0x410>
    2dcc:	00168693          	addi	a3,a3,1
    2dd0:	01078793          	addi	a5,a5,16
    2dd4:	f1069ce3          	bne	a3,a6,2cec <move_piece+0x318>
    2dd8:	00170713          	addi	a4,a4,1
    2ddc:	00e42423          	sw	a4,8(s0)
    2de0:	f01ff06f          	j	2ce0 <move_piece+0x30c>
    2de4:	00005837          	lui	a6,0x5
    2de8:	d1482503          	lw	a0,-748(a6) # 4d14 <score>
    2dec:	14f8b637          	lui	a2,0x14f8b
    2df0:	58960613          	addi	a2,a2,1417 # 14f8b589 <_stack_end+0x14e8641d>
    2df4:	03250513          	addi	a0,a0,50
    2df8:	666667b7          	lui	a5,0x66666
    2dfc:	68db95b7          	lui	a1,0x68db9
    2e00:	106256b7          	lui	a3,0x10625
    2e04:	51eb8737          	lui	a4,0x51eb8
    2e08:	66778793          	addi	a5,a5,1639 # 66666667 <_stack_end+0x665614fb>
    2e0c:	02c51633          	mulh	a2,a0,a2
    2e10:	bad58593          	addi	a1,a1,-1107 # 68db8bad <_stack_end+0x68cb3a41>
    2e14:	dd368693          	addi	a3,a3,-557 # 10624dd3 <_stack_end+0x1051fc67>
    2e18:	51f70713          	addi	a4,a4,1311 # 51eb851f <_stack_end+0x51db33b3>
    2e1c:	d0a82a23          	sw	a0,-748(a6)
    2e20:	41f55893          	srai	a7,a0,0x1f
    2e24:	00900313          	li	t1,9
    2e28:	02f51833          	mulh	a6,a0,a5
    2e2c:	40d65613          	srai	a2,a2,0xd
    2e30:	41160633          	sub	a2,a2,a7
    2e34:	41f65393          	srai	t2,a2,0x1f
    2e38:	02b515b3          	mulh	a1,a0,a1
    2e3c:	40285813          	srai	a6,a6,0x2
    2e40:	41180833          	sub	a6,a6,a7
    2e44:	00281e13          	slli	t3,a6,0x2
    2e48:	010e0e33          	add	t3,t3,a6
    2e4c:	001e1e13          	slli	t3,t3,0x1
    2e50:	41f85e93          	srai	t4,a6,0x1f
    2e54:	02d516b3          	mulh	a3,a0,a3
    2e58:	40c5d593          	srai	a1,a1,0xc
    2e5c:	411585b3          	sub	a1,a1,a7
    2e60:	41f5d293          	srai	t0,a1,0x1f
    2e64:	02e51733          	mulh	a4,a0,a4
    2e68:	4066d693          	srai	a3,a3,0x6
    2e6c:	411686b3          	sub	a3,a3,a7
    2e70:	41c50533          	sub	a0,a0,t3
    2e74:	41f6df93          	srai	t6,a3,0x1f
    2e78:	40575713          	srai	a4,a4,0x5
    2e7c:	41170733          	sub	a4,a4,a7
    2e80:	02f618b3          	mulh	a7,a2,a5
    2e84:	41f75f13          	srai	t5,a4,0x1f
    2e88:	02f594b3          	mulh	s1,a1,a5
    2e8c:	4028d893          	srai	a7,a7,0x2
    2e90:	407888b3          	sub	a7,a7,t2
    2e94:	00289e13          	slli	t3,a7,0x2
    2e98:	011e08b3          	add	a7,t3,a7
    2e9c:	00189893          	slli	a7,a7,0x1
    2ea0:	411608b3          	sub	a7,a2,a7
    2ea4:	02f693b3          	mulh	t2,a3,a5
    2ea8:	4024d613          	srai	a2,s1,0x2
    2eac:	40560633          	sub	a2,a2,t0
    2eb0:	00261e13          	slli	t3,a2,0x2
    2eb4:	00ce0633          	add	a2,t3,a2
    2eb8:	00161613          	slli	a2,a2,0x1
    2ebc:	40c58633          	sub	a2,a1,a2
    2ec0:	02f712b3          	mulh	t0,a4,a5
    2ec4:	4023de13          	srai	t3,t2,0x2
    2ec8:	41fe0e33          	sub	t3,t3,t6
    2ecc:	002e1593          	slli	a1,t3,0x2
    2ed0:	01c585b3          	add	a1,a1,t3
    2ed4:	00159593          	slli	a1,a1,0x1
    2ed8:	40b68e33          	sub	t3,a3,a1
    2edc:	02f817b3          	mulh	a5,a6,a5
    2ee0:	4022d593          	srai	a1,t0,0x2
    2ee4:	41e585b3          	sub	a1,a1,t5
    2ee8:	00259693          	slli	a3,a1,0x2
    2eec:	00b686b3          	add	a3,a3,a1
    2ef0:	00169693          	slli	a3,a3,0x1
    2ef4:	40d705b3          	sub	a1,a4,a3
    2ef8:	4027d793          	srai	a5,a5,0x2
    2efc:	41d787b3          	sub	a5,a5,t4
    2f00:	00279713          	slli	a4,a5,0x2
    2f04:	00f707b3          	add	a5,a4,a5
    2f08:	00179793          	slli	a5,a5,0x1
    2f0c:	40f807b3          	sub	a5,a6,a5
    2f10:	32a36a63          	bltu	t1,a0,3244 <move_piece+0x870>
    2f14:	00005737          	lui	a4,0x5
    2f18:	e3470713          	addi	a4,a4,-460 # 4e34 <timeoutcount+0x11c>
    2f1c:	00251513          	slli	a0,a0,0x2
    2f20:	00e50533          	add	a0,a0,a4
    2f24:	00052703          	lw	a4,0(a0)
    2f28:	00070067          	jr	a4
    2f2c:	01412483          	lw	s1,20(sp)
    2f30:	040007b7          	lui	a5,0x4000
    2f34:	0c000713          	li	a4,192
    2f38:	0ae7a023          	sw	a4,160(a5) # 40000a0 <_stack_end+0x3efaf34>
    2f3c:	01042783          	lw	a5,16(s0)
    2f40:	02078263          	beqz	a5,2f64 <move_piece+0x590>
    2f44:	00442583          	lw	a1,4(s0)
    2f48:	00842503          	lw	a0,8(s0)
    2f4c:	00a5b793          	sltiu	a5,a1,10
    2f50:	00078a63          	beqz	a5,2f64 <move_piece+0x590>
    2f54:	01453793          	sltiu	a5,a0,20
    2f58:	00078663          	beqz	a5,2f64 <move_piece+0x590>
    2f5c:	00c44603          	lbu	a2,12(s0)
    2f60:	815fe0ef          	jal	1774 <update_cell>
    2f64:	01442783          	lw	a5,20(s0)
    2f68:	02078463          	beqz	a5,2f90 <move_piece+0x5bc>
    2f6c:	00842503          	lw	a0,8(s0)
    2f70:	00442583          	lw	a1,4(s0)
    2f74:	01453793          	sltiu	a5,a0,20
    2f78:	00158593          	addi	a1,a1,1
    2f7c:	00078a63          	beqz	a5,2f90 <move_piece+0x5bc>
    2f80:	00a5b793          	sltiu	a5,a1,10
    2f84:	00078663          	beqz	a5,2f90 <move_piece+0x5bc>
    2f88:	00c44603          	lbu	a2,12(s0)
    2f8c:	fe8fe0ef          	jal	1774 <update_cell>
    2f90:	01842783          	lw	a5,24(s0)
    2f94:	02078463          	beqz	a5,2fbc <move_piece+0x5e8>
    2f98:	00842503          	lw	a0,8(s0)
    2f9c:	00442583          	lw	a1,4(s0)
    2fa0:	01453793          	sltiu	a5,a0,20
    2fa4:	00258593          	addi	a1,a1,2
    2fa8:	00078a63          	beqz	a5,2fbc <move_piece+0x5e8>
    2fac:	00a5b793          	sltiu	a5,a1,10
    2fb0:	00078663          	beqz	a5,2fbc <move_piece+0x5e8>
    2fb4:	00c44603          	lbu	a2,12(s0)
    2fb8:	fbcfe0ef          	jal	1774 <update_cell>
    2fbc:	01c42783          	lw	a5,28(s0)
    2fc0:	02078463          	beqz	a5,2fe8 <move_piece+0x614>
    2fc4:	00842503          	lw	a0,8(s0)
    2fc8:	00442583          	lw	a1,4(s0)
    2fcc:	01453793          	sltiu	a5,a0,20
    2fd0:	00358593          	addi	a1,a1,3
    2fd4:	00078a63          	beqz	a5,2fe8 <move_piece+0x614>
    2fd8:	00a5b793          	sltiu	a5,a1,10
    2fdc:	00078663          	beqz	a5,2fe8 <move_piece+0x614>
    2fe0:	00c44603          	lbu	a2,12(s0)
    2fe4:	f90fe0ef          	jal	1774 <update_cell>
    2fe8:	02042783          	lw	a5,32(s0)
    2fec:	02078463          	beqz	a5,3014 <move_piece+0x640>
    2ff0:	00842503          	lw	a0,8(s0)
    2ff4:	00442583          	lw	a1,4(s0)
    2ff8:	00150513          	addi	a0,a0,1
    2ffc:	01453793          	sltiu	a5,a0,20
    3000:	00078a63          	beqz	a5,3014 <move_piece+0x640>
    3004:	00a5b793          	sltiu	a5,a1,10
    3008:	00078663          	beqz	a5,3014 <move_piece+0x640>
    300c:	00c44603          	lbu	a2,12(s0)
    3010:	f64fe0ef          	jal	1774 <update_cell>
    3014:	02442783          	lw	a5,36(s0)
    3018:	02078663          	beqz	a5,3044 <move_piece+0x670>
    301c:	00842503          	lw	a0,8(s0)
    3020:	00442583          	lw	a1,4(s0)
    3024:	00150513          	addi	a0,a0,1
    3028:	01453793          	sltiu	a5,a0,20
    302c:	00158593          	addi	a1,a1,1
    3030:	00078a63          	beqz	a5,3044 <move_piece+0x670>
    3034:	00a5b793          	sltiu	a5,a1,10
    3038:	00078663          	beqz	a5,3044 <move_piece+0x670>
    303c:	00c44603          	lbu	a2,12(s0)
    3040:	f34fe0ef          	jal	1774 <update_cell>
    3044:	02842783          	lw	a5,40(s0)
    3048:	02078663          	beqz	a5,3074 <move_piece+0x6a0>
    304c:	00842503          	lw	a0,8(s0)
    3050:	00442583          	lw	a1,4(s0)
    3054:	00150513          	addi	a0,a0,1
    3058:	01453793          	sltiu	a5,a0,20
    305c:	00258593          	addi	a1,a1,2
    3060:	00078a63          	beqz	a5,3074 <move_piece+0x6a0>
    3064:	00a5b793          	sltiu	a5,a1,10
    3068:	00078663          	beqz	a5,3074 <move_piece+0x6a0>
    306c:	00c44603          	lbu	a2,12(s0)
    3070:	f04fe0ef          	jal	1774 <update_cell>
    3074:	02c42783          	lw	a5,44(s0)
    3078:	02078663          	beqz	a5,30a4 <move_piece+0x6d0>
    307c:	00842503          	lw	a0,8(s0)
    3080:	00442583          	lw	a1,4(s0)
    3084:	00150513          	addi	a0,a0,1
    3088:	01453793          	sltiu	a5,a0,20
    308c:	00358593          	addi	a1,a1,3
    3090:	00078a63          	beqz	a5,30a4 <move_piece+0x6d0>
    3094:	00a5b793          	sltiu	a5,a1,10
    3098:	00078663          	beqz	a5,30a4 <move_piece+0x6d0>
    309c:	00c44603          	lbu	a2,12(s0)
    30a0:	ed4fe0ef          	jal	1774 <update_cell>
    30a4:	03042783          	lw	a5,48(s0)
    30a8:	02078463          	beqz	a5,30d0 <move_piece+0x6fc>
    30ac:	00842503          	lw	a0,8(s0)
    30b0:	00442583          	lw	a1,4(s0)
    30b4:	00250513          	addi	a0,a0,2
    30b8:	01453793          	sltiu	a5,a0,20
    30bc:	00078a63          	beqz	a5,30d0 <move_piece+0x6fc>
    30c0:	00a5b793          	sltiu	a5,a1,10
    30c4:	00078663          	beqz	a5,30d0 <move_piece+0x6fc>
    30c8:	00c44603          	lbu	a2,12(s0)
    30cc:	ea8fe0ef          	jal	1774 <update_cell>
    30d0:	03442783          	lw	a5,52(s0)
    30d4:	02078663          	beqz	a5,3100 <move_piece+0x72c>
    30d8:	00842503          	lw	a0,8(s0)
    30dc:	00442583          	lw	a1,4(s0)
    30e0:	00250513          	addi	a0,a0,2
    30e4:	01453793          	sltiu	a5,a0,20
    30e8:	00158593          	addi	a1,a1,1
    30ec:	00078a63          	beqz	a5,3100 <move_piece+0x72c>
    30f0:	00a5b793          	sltiu	a5,a1,10
    30f4:	00078663          	beqz	a5,3100 <move_piece+0x72c>
    30f8:	00c44603          	lbu	a2,12(s0)
    30fc:	e78fe0ef          	jal	1774 <update_cell>
    3100:	03842783          	lw	a5,56(s0)
    3104:	02078663          	beqz	a5,3130 <move_piece+0x75c>
    3108:	00842503          	lw	a0,8(s0)
    310c:	00442583          	lw	a1,4(s0)
    3110:	00250513          	addi	a0,a0,2
    3114:	01453793          	sltiu	a5,a0,20
    3118:	00258593          	addi	a1,a1,2
    311c:	00078a63          	beqz	a5,3130 <move_piece+0x75c>
    3120:	00a5b793          	sltiu	a5,a1,10
    3124:	00078663          	beqz	a5,3130 <move_piece+0x75c>
    3128:	00c44603          	lbu	a2,12(s0)
    312c:	e48fe0ef          	jal	1774 <update_cell>
    3130:	03c42783          	lw	a5,60(s0)
    3134:	02078663          	beqz	a5,3160 <move_piece+0x78c>
    3138:	00842503          	lw	a0,8(s0)
    313c:	00442583          	lw	a1,4(s0)
    3140:	00250513          	addi	a0,a0,2
    3144:	01453793          	sltiu	a5,a0,20
    3148:	00358593          	addi	a1,a1,3
    314c:	00078a63          	beqz	a5,3160 <move_piece+0x78c>
    3150:	00a5b793          	sltiu	a5,a1,10
    3154:	00078663          	beqz	a5,3160 <move_piece+0x78c>
    3158:	00c44603          	lbu	a2,12(s0)
    315c:	e18fe0ef          	jal	1774 <update_cell>
    3160:	04042783          	lw	a5,64(s0)
    3164:	02078463          	beqz	a5,318c <move_piece+0x7b8>
    3168:	00442583          	lw	a1,4(s0)
    316c:	00842503          	lw	a0,8(s0)
    3170:	00a5b793          	sltiu	a5,a1,10
    3174:	00350513          	addi	a0,a0,3
    3178:	00078a63          	beqz	a5,318c <move_piece+0x7b8>
    317c:	01453793          	sltiu	a5,a0,20
    3180:	00078663          	beqz	a5,318c <move_piece+0x7b8>
    3184:	00c44603          	lbu	a2,12(s0)
    3188:	decfe0ef          	jal	1774 <update_cell>
    318c:	04442783          	lw	a5,68(s0)
    3190:	02078663          	beqz	a5,31bc <move_piece+0x7e8>
    3194:	00442583          	lw	a1,4(s0)
    3198:	00842503          	lw	a0,8(s0)
    319c:	00158593          	addi	a1,a1,1
    31a0:	00a5b793          	sltiu	a5,a1,10
    31a4:	00350513          	addi	a0,a0,3
    31a8:	00078a63          	beqz	a5,31bc <move_piece+0x7e8>
    31ac:	01453793          	sltiu	a5,a0,20
    31b0:	00078663          	beqz	a5,31bc <move_piece+0x7e8>
    31b4:	00c44603          	lbu	a2,12(s0)
    31b8:	dbcfe0ef          	jal	1774 <update_cell>
    31bc:	04842783          	lw	a5,72(s0)
    31c0:	02078663          	beqz	a5,31ec <move_piece+0x818>
    31c4:	00442583          	lw	a1,4(s0)
    31c8:	00842503          	lw	a0,8(s0)
    31cc:	00258593          	addi	a1,a1,2
    31d0:	00a5b793          	sltiu	a5,a1,10
    31d4:	00350513          	addi	a0,a0,3
    31d8:	00078a63          	beqz	a5,31ec <move_piece+0x818>
    31dc:	01453793          	sltiu	a5,a0,20
    31e0:	00078663          	beqz	a5,31ec <move_piece+0x818>
    31e4:	00c44603          	lbu	a2,12(s0)
    31e8:	d8cfe0ef          	jal	1774 <update_cell>
    31ec:	04c42783          	lw	a5,76(s0)
    31f0:	02078c63          	beqz	a5,3228 <move_piece+0x854>
    31f4:	00442583          	lw	a1,4(s0)
    31f8:	00842503          	lw	a0,8(s0)
    31fc:	00358593          	addi	a1,a1,3
    3200:	00a5b793          	sltiu	a5,a1,10
    3204:	00350513          	addi	a0,a0,3
    3208:	02078063          	beqz	a5,3228 <move_piece+0x854>
    320c:	01453793          	sltiu	a5,a0,20
    3210:	00078c63          	beqz	a5,3228 <move_piece+0x854>
    3214:	00c44603          	lbu	a2,12(s0)
    3218:	01812403          	lw	s0,24(sp)
    321c:	01c12083          	lw	ra,28(sp)
    3220:	02010113          	addi	sp,sp,32
    3224:	d50fe06f          	j	1774 <update_cell>
    3228:	01c12083          	lw	ra,28(sp)
    322c:	01812403          	lw	s0,24(sp)
    3230:	02010113          	addi	sp,sp,32
    3234:	00008067          	ret
    3238:	04000737          	lui	a4,0x4000
    323c:	09000693          	li	a3,144
    3240:	04d72823          	sw	a3,80(a4) # 4000050 <_stack_end+0x3efaee4>
    3244:	00900713          	li	a4,9
    3248:	02f76463          	bltu	a4,a5,3270 <move_piece+0x89c>
    324c:	00005737          	lui	a4,0x5
    3250:	00279793          	slli	a5,a5,0x2
    3254:	e5c70713          	addi	a4,a4,-420 # 4e5c <timeoutcount+0x144>
    3258:	00e786b3          	add	a3,a5,a4
    325c:	0006a783          	lw	a5,0(a3)
    3260:	00078067          	jr	a5
    3264:	040007b7          	lui	a5,0x4000
    3268:	09000713          	li	a4,144
    326c:	06e7a023          	sw	a4,96(a5) # 4000060 <_stack_end+0x3efaef4>
    3270:	00900793          	li	a5,9
    3274:	02b7e463          	bltu	a5,a1,329c <move_piece+0x8c8>
    3278:	000057b7          	lui	a5,0x5
    327c:	e8478793          	addi	a5,a5,-380 # 4e84 <timeoutcount+0x16c>
    3280:	00259713          	slli	a4,a1,0x2
    3284:	00f70733          	add	a4,a4,a5
    3288:	00072783          	lw	a5,0(a4)
    328c:	00078067          	jr	a5
    3290:	040007b7          	lui	a5,0x4000
    3294:	09000713          	li	a4,144
    3298:	06e7a823          	sw	a4,112(a5) # 4000070 <_stack_end+0x3efaf04>
    329c:	00900793          	li	a5,9
    32a0:	03c7e463          	bltu	a5,t3,32c8 <move_piece+0x8f4>
    32a4:	00005737          	lui	a4,0x5
    32a8:	002e1793          	slli	a5,t3,0x2
    32ac:	eac70713          	addi	a4,a4,-340 # 4eac <timeoutcount+0x194>
    32b0:	00e787b3          	add	a5,a5,a4
    32b4:	0007a783          	lw	a5,0(a5)
    32b8:	00078067          	jr	a5
    32bc:	040007b7          	lui	a5,0x4000
    32c0:	09000713          	li	a4,144
    32c4:	08e7a023          	sw	a4,128(a5) # 4000080 <_stack_end+0x3efaf14>
    32c8:	00900793          	li	a5,9
    32cc:	02c7e463          	bltu	a5,a2,32f4 <move_piece+0x920>
    32d0:	000057b7          	lui	a5,0x5
    32d4:	ed478793          	addi	a5,a5,-300 # 4ed4 <timeoutcount+0x1bc>
    32d8:	00261613          	slli	a2,a2,0x2
    32dc:	00f60633          	add	a2,a2,a5
    32e0:	00062783          	lw	a5,0(a2)
    32e4:	00078067          	jr	a5
    32e8:	040007b7          	lui	a5,0x4000
    32ec:	09000713          	li	a4,144
    32f0:	08e7a823          	sw	a4,144(a5) # 4000090 <_stack_end+0x3efaf24>
    32f4:	00900793          	li	a5,9
    32f8:	3b17e063          	bltu	a5,a7,3698 <move_piece+0xcc4>
    32fc:	000057b7          	lui	a5,0x5
    3300:	efc78793          	addi	a5,a5,-260 # 4efc <timeoutcount+0x1e4>
    3304:	00289893          	slli	a7,a7,0x2
    3308:	00f888b3          	add	a7,a7,a5
    330c:	0008a783          	lw	a5,0(a7)
    3310:	00078067          	jr	a5
    3314:	04000737          	lui	a4,0x4000
    3318:	09200693          	li	a3,146
    331c:	04d72823          	sw	a3,80(a4) # 4000050 <_stack_end+0x3efaee4>
    3320:	f25ff06f          	j	3244 <move_piece+0x870>
    3324:	04000737          	lui	a4,0x4000
    3328:	09900693          	li	a3,153
    332c:	04d72823          	sw	a3,80(a4) # 4000050 <_stack_end+0x3efaee4>
    3330:	f15ff06f          	j	3244 <move_piece+0x870>
    3334:	04000737          	lui	a4,0x4000
    3338:	0b000693          	li	a3,176
    333c:	04d72823          	sw	a3,80(a4) # 4000050 <_stack_end+0x3efaee4>
    3340:	f05ff06f          	j	3244 <move_piece+0x870>
    3344:	04000737          	lui	a4,0x4000
    3348:	0a400693          	li	a3,164
    334c:	04d72823          	sw	a3,80(a4) # 4000050 <_stack_end+0x3efaee4>
    3350:	ef5ff06f          	j	3244 <move_piece+0x870>
    3354:	04000737          	lui	a4,0x4000
    3358:	0f800693          	li	a3,248
    335c:	04d72823          	sw	a3,80(a4) # 4000050 <_stack_end+0x3efaee4>
    3360:	ee5ff06f          	j	3244 <move_piece+0x870>
    3364:	04000737          	lui	a4,0x4000
    3368:	08200693          	li	a3,130
    336c:	04d72823          	sw	a3,80(a4) # 4000050 <_stack_end+0x3efaee4>
    3370:	ed5ff06f          	j	3244 <move_piece+0x870>
    3374:	04000737          	lui	a4,0x4000
    3378:	08000693          	li	a3,128
    337c:	04d72823          	sw	a3,80(a4) # 4000050 <_stack_end+0x3efaee4>
    3380:	ec5ff06f          	j	3244 <move_piece+0x870>
    3384:	04000737          	lui	a4,0x4000
    3388:	0f900693          	li	a3,249
    338c:	04d72823          	sw	a3,80(a4) # 4000050 <_stack_end+0x3efaee4>
    3390:	eb5ff06f          	j	3244 <move_piece+0x870>
    3394:	04000737          	lui	a4,0x4000
    3398:	0c000693          	li	a3,192
    339c:	04d72823          	sw	a3,80(a4) # 4000050 <_stack_end+0x3efaee4>
    33a0:	ea5ff06f          	j	3244 <move_piece+0x870>
    33a4:	040007b7          	lui	a5,0x4000
    33a8:	08000713          	li	a4,128
    33ac:	01412483          	lw	s1,20(sp)
    33b0:	0ae7a023          	sw	a4,160(a5) # 40000a0 <_stack_end+0x3efaf34>
    33b4:	b89ff06f          	j	2f3c <move_piece+0x568>
    33b8:	040007b7          	lui	a5,0x4000
    33bc:	0f800713          	li	a4,248
    33c0:	01412483          	lw	s1,20(sp)
    33c4:	0ae7a023          	sw	a4,160(a5) # 40000a0 <_stack_end+0x3efaf34>
    33c8:	b75ff06f          	j	2f3c <move_piece+0x568>
    33cc:	040007b7          	lui	a5,0x4000
    33d0:	08200713          	li	a4,130
    33d4:	01412483          	lw	s1,20(sp)
    33d8:	0ae7a023          	sw	a4,160(a5) # 40000a0 <_stack_end+0x3efaf34>
    33dc:	b61ff06f          	j	2f3c <move_piece+0x568>
    33e0:	040007b7          	lui	a5,0x4000
    33e4:	0c000713          	li	a4,192
    33e8:	08e7a823          	sw	a4,144(a5) # 4000090 <_stack_end+0x3efaf24>
    33ec:	f09ff06f          	j	32f4 <move_piece+0x920>
    33f0:	040007b7          	lui	a5,0x4000
    33f4:	08000713          	li	a4,128
    33f8:	08e7a023          	sw	a4,128(a5) # 4000080 <_stack_end+0x3efaf14>
    33fc:	ecdff06f          	j	32c8 <move_piece+0x8f4>
    3400:	040007b7          	lui	a5,0x4000
    3404:	0f800713          	li	a4,248
    3408:	08e7a023          	sw	a4,128(a5) # 4000080 <_stack_end+0x3efaf14>
    340c:	ebdff06f          	j	32c8 <move_piece+0x8f4>
    3410:	040007b7          	lui	a5,0x4000
    3414:	08200713          	li	a4,130
    3418:	08e7a023          	sw	a4,128(a5) # 4000080 <_stack_end+0x3efaf14>
    341c:	eadff06f          	j	32c8 <move_piece+0x8f4>
    3420:	040007b7          	lui	a5,0x4000
    3424:	09200713          	li	a4,146
    3428:	01412483          	lw	s1,20(sp)
    342c:	0ae7a023          	sw	a4,160(a5) # 40000a0 <_stack_end+0x3efaf34>
    3430:	b0dff06f          	j	2f3c <move_piece+0x568>
    3434:	040007b7          	lui	a5,0x4000
    3438:	09900713          	li	a4,153
    343c:	01412483          	lw	s1,20(sp)
    3440:	0ae7a023          	sw	a4,160(a5) # 40000a0 <_stack_end+0x3efaf34>
    3444:	af9ff06f          	j	2f3c <move_piece+0x568>
    3448:	040007b7          	lui	a5,0x4000
    344c:	0b000713          	li	a4,176
    3450:	01412483          	lw	s1,20(sp)
    3454:	0ae7a023          	sw	a4,160(a5) # 40000a0 <_stack_end+0x3efaf34>
    3458:	ae5ff06f          	j	2f3c <move_piece+0x568>
    345c:	040007b7          	lui	a5,0x4000
    3460:	0a400713          	li	a4,164
    3464:	01412483          	lw	s1,20(sp)
    3468:	0ae7a023          	sw	a4,160(a5) # 40000a0 <_stack_end+0x3efaf34>
    346c:	ad1ff06f          	j	2f3c <move_piece+0x568>
    3470:	040007b7          	lui	a5,0x4000
    3474:	0f900713          	li	a4,249
    3478:	06e7a023          	sw	a4,96(a5) # 4000060 <_stack_end+0x3efaef4>
    347c:	df5ff06f          	j	3270 <move_piece+0x89c>
    3480:	040007b7          	lui	a5,0x4000
    3484:	0c000713          	li	a4,192
    3488:	06e7a023          	sw	a4,96(a5) # 4000060 <_stack_end+0x3efaef4>
    348c:	de5ff06f          	j	3270 <move_piece+0x89c>
    3490:	040007b7          	lui	a5,0x4000
    3494:	08000713          	li	a4,128
    3498:	06e7a023          	sw	a4,96(a5) # 4000060 <_stack_end+0x3efaef4>
    349c:	dd5ff06f          	j	3270 <move_piece+0x89c>
    34a0:	040007b7          	lui	a5,0x4000
    34a4:	0f800713          	li	a4,248
    34a8:	06e7a023          	sw	a4,96(a5) # 4000060 <_stack_end+0x3efaef4>
    34ac:	dc5ff06f          	j	3270 <move_piece+0x89c>
    34b0:	040007b7          	lui	a5,0x4000
    34b4:	08200713          	li	a4,130
    34b8:	06e7a023          	sw	a4,96(a5) # 4000060 <_stack_end+0x3efaef4>
    34bc:	db5ff06f          	j	3270 <move_piece+0x89c>
    34c0:	040007b7          	lui	a5,0x4000
    34c4:	08000713          	li	a4,128
    34c8:	08e7a823          	sw	a4,144(a5) # 4000090 <_stack_end+0x3efaf24>
    34cc:	e29ff06f          	j	32f4 <move_piece+0x920>
    34d0:	040007b7          	lui	a5,0x4000
    34d4:	0f800713          	li	a4,248
    34d8:	08e7a823          	sw	a4,144(a5) # 4000090 <_stack_end+0x3efaf24>
    34dc:	e19ff06f          	j	32f4 <move_piece+0x920>
    34e0:	040007b7          	lui	a5,0x4000
    34e4:	08200713          	li	a4,130
    34e8:	08e7a823          	sw	a4,144(a5) # 4000090 <_stack_end+0x3efaf24>
    34ec:	e09ff06f          	j	32f4 <move_piece+0x920>
    34f0:	040007b7          	lui	a5,0x4000
    34f4:	09200713          	li	a4,146
    34f8:	08e7a823          	sw	a4,144(a5) # 4000090 <_stack_end+0x3efaf24>
    34fc:	df9ff06f          	j	32f4 <move_piece+0x920>
    3500:	040007b7          	lui	a5,0x4000
    3504:	09900713          	li	a4,153
    3508:	08e7a823          	sw	a4,144(a5) # 4000090 <_stack_end+0x3efaf24>
    350c:	de9ff06f          	j	32f4 <move_piece+0x920>
    3510:	040007b7          	lui	a5,0x4000
    3514:	0b000713          	li	a4,176
    3518:	08e7a823          	sw	a4,144(a5) # 4000090 <_stack_end+0x3efaf24>
    351c:	dd9ff06f          	j	32f4 <move_piece+0x920>
    3520:	040007b7          	lui	a5,0x4000
    3524:	0a400713          	li	a4,164
    3528:	08e7a823          	sw	a4,144(a5) # 4000090 <_stack_end+0x3efaf24>
    352c:	dc9ff06f          	j	32f4 <move_piece+0x920>
    3530:	040007b7          	lui	a5,0x4000
    3534:	0f900713          	li	a4,249
    3538:	08e7a823          	sw	a4,144(a5) # 4000090 <_stack_end+0x3efaf24>
    353c:	db9ff06f          	j	32f4 <move_piece+0x920>
    3540:	040007b7          	lui	a5,0x4000
    3544:	0f900713          	li	a4,249
    3548:	01412483          	lw	s1,20(sp)
    354c:	0ae7a023          	sw	a4,160(a5) # 40000a0 <_stack_end+0x3efaf34>
    3550:	9edff06f          	j	2f3c <move_piece+0x568>
    3554:	040007b7          	lui	a5,0x4000
    3558:	09000713          	li	a4,144
    355c:	01412483          	lw	s1,20(sp)
    3560:	0ae7a023          	sw	a4,160(a5) # 40000a0 <_stack_end+0x3efaf34>
    3564:	9d9ff06f          	j	2f3c <move_piece+0x568>
    3568:	040007b7          	lui	a5,0x4000
    356c:	0b000713          	li	a4,176
    3570:	06e7a823          	sw	a4,112(a5) # 4000070 <_stack_end+0x3efaf04>
    3574:	d29ff06f          	j	329c <move_piece+0x8c8>
    3578:	040007b7          	lui	a5,0x4000
    357c:	0a400713          	li	a4,164
    3580:	06e7a823          	sw	a4,112(a5) # 4000070 <_stack_end+0x3efaf04>
    3584:	d19ff06f          	j	329c <move_piece+0x8c8>
    3588:	040007b7          	lui	a5,0x4000
    358c:	0f900713          	li	a4,249
    3590:	06e7a823          	sw	a4,112(a5) # 4000070 <_stack_end+0x3efaf04>
    3594:	d09ff06f          	j	329c <move_piece+0x8c8>
    3598:	040007b7          	lui	a5,0x4000
    359c:	0c000713          	li	a4,192
    35a0:	06e7a823          	sw	a4,112(a5) # 4000070 <_stack_end+0x3efaf04>
    35a4:	cf9ff06f          	j	329c <move_piece+0x8c8>
    35a8:	040007b7          	lui	a5,0x4000
    35ac:	09200713          	li	a4,146
    35b0:	06e7a023          	sw	a4,96(a5) # 4000060 <_stack_end+0x3efaef4>
    35b4:	cbdff06f          	j	3270 <move_piece+0x89c>
    35b8:	040007b7          	lui	a5,0x4000
    35bc:	09900713          	li	a4,153
    35c0:	06e7a023          	sw	a4,96(a5) # 4000060 <_stack_end+0x3efaef4>
    35c4:	cadff06f          	j	3270 <move_piece+0x89c>
    35c8:	040007b7          	lui	a5,0x4000
    35cc:	0b000713          	li	a4,176
    35d0:	06e7a023          	sw	a4,96(a5) # 4000060 <_stack_end+0x3efaef4>
    35d4:	c9dff06f          	j	3270 <move_piece+0x89c>
    35d8:	040007b7          	lui	a5,0x4000
    35dc:	0a400713          	li	a4,164
    35e0:	06e7a023          	sw	a4,96(a5) # 4000060 <_stack_end+0x3efaef4>
    35e4:	c8dff06f          	j	3270 <move_piece+0x89c>
    35e8:	040007b7          	lui	a5,0x4000
    35ec:	09200713          	li	a4,146
    35f0:	08e7a023          	sw	a4,128(a5) # 4000080 <_stack_end+0x3efaf14>
    35f4:	cd5ff06f          	j	32c8 <move_piece+0x8f4>
    35f8:	040007b7          	lui	a5,0x4000
    35fc:	09900713          	li	a4,153
    3600:	08e7a023          	sw	a4,128(a5) # 4000080 <_stack_end+0x3efaf14>
    3604:	cc5ff06f          	j	32c8 <move_piece+0x8f4>
    3608:	040007b7          	lui	a5,0x4000
    360c:	0b000713          	li	a4,176
    3610:	08e7a023          	sw	a4,128(a5) # 4000080 <_stack_end+0x3efaf14>
    3614:	cb5ff06f          	j	32c8 <move_piece+0x8f4>
    3618:	040007b7          	lui	a5,0x4000
    361c:	0a400713          	li	a4,164
    3620:	08e7a023          	sw	a4,128(a5) # 4000080 <_stack_end+0x3efaf14>
    3624:	ca5ff06f          	j	32c8 <move_piece+0x8f4>
    3628:	040007b7          	lui	a5,0x4000
    362c:	0f900713          	li	a4,249
    3630:	08e7a023          	sw	a4,128(a5) # 4000080 <_stack_end+0x3efaf14>
    3634:	c95ff06f          	j	32c8 <move_piece+0x8f4>
    3638:	040007b7          	lui	a5,0x4000
    363c:	0c000713          	li	a4,192
    3640:	08e7a023          	sw	a4,128(a5) # 4000080 <_stack_end+0x3efaf14>
    3644:	c85ff06f          	j	32c8 <move_piece+0x8f4>
    3648:	040007b7          	lui	a5,0x4000
    364c:	08000713          	li	a4,128
    3650:	06e7a823          	sw	a4,112(a5) # 4000070 <_stack_end+0x3efaf04>
    3654:	c49ff06f          	j	329c <move_piece+0x8c8>
    3658:	040007b7          	lui	a5,0x4000
    365c:	0f800713          	li	a4,248
    3660:	06e7a823          	sw	a4,112(a5) # 4000070 <_stack_end+0x3efaf04>
    3664:	c39ff06f          	j	329c <move_piece+0x8c8>
    3668:	040007b7          	lui	a5,0x4000
    366c:	08200713          	li	a4,130
    3670:	06e7a823          	sw	a4,112(a5) # 4000070 <_stack_end+0x3efaf04>
    3674:	c29ff06f          	j	329c <move_piece+0x8c8>
    3678:	040007b7          	lui	a5,0x4000
    367c:	09200713          	li	a4,146
    3680:	06e7a823          	sw	a4,112(a5) # 4000070 <_stack_end+0x3efaf04>
    3684:	c19ff06f          	j	329c <move_piece+0x8c8>
    3688:	040007b7          	lui	a5,0x4000
    368c:	09900713          	li	a4,153
    3690:	06e7a823          	sw	a4,112(a5) # 4000070 <_stack_end+0x3efaf04>
    3694:	c09ff06f          	j	329c <move_piece+0x8c8>
    3698:	01412483          	lw	s1,20(sp)
    369c:	8a1ff06f          	j	2f3c <move_piece+0x568>

000036a0 <clear_lines>:
    36a0:	fd010113          	addi	sp,sp,-48
    36a4:	00005eb7          	lui	t4,0x5
    36a8:	02912423          	sw	s1,40(sp)
    36ac:	03212223          	sw	s2,36(sp)
    36b0:	03312023          	sw	s3,32(sp)
    36b4:	01412e23          	sw	s4,28(sp)
    36b8:	01512c23          	sw	s5,24(sp)
    36bc:	01612a23          	sw	s6,20(sp)
    36c0:	01712823          	sw	s7,16(sp)
    36c4:	01812623          	sw	s8,12(sp)
    36c8:	01912423          	sw	s9,8(sp)
    36cc:	01a12223          	sw	s10,4(sp)
    36d0:	ba8e8e93          	addi	t4,t4,-1112 # 4ba8 <current_piece>
    36d4:	00005d37          	lui	s10,0x5
    36d8:	00005cb7          	lui	s9,0x5
    36dc:	00005c37          	lui	s8,0x5
    36e0:	00005bb7          	lui	s7,0x5
    36e4:	00005b37          	lui	s6,0x5
    36e8:	000054b7          	lui	s1,0x5
    36ec:	14f8bab7          	lui	s5,0x14f8b
    36f0:	66666fb7          	lui	t6,0x66666
    36f4:	68db9a37          	lui	s4,0x68db9
    36f8:	106259b7          	lui	s3,0x10625
    36fc:	51eb8937          	lui	s2,0x51eb8
    3700:	02812623          	sw	s0,44(sp)
    3704:	01b12023          	sw	s11,0(sp)
    3708:	050e8e13          	addi	t3,t4,80
    370c:	589a8a93          	addi	s5,s5,1417 # 14f8b589 <_stack_end+0x14e8641d>
    3710:	667f8f93          	addi	t6,t6,1639 # 66666667 <_stack_end+0x665614fb>
    3714:	bada0a13          	addi	s4,s4,-1107 # 68db8bad <_stack_end+0x68cb3a41>
    3718:	dd398993          	addi	s3,s3,-557 # 10624dd3 <_stack_end+0x1051fc67>
    371c:	51f90913          	addi	s2,s2,1311 # 51eb851f <_stack_end+0x51db33b3>
    3720:	fecd0d13          	addi	s10,s10,-20 # 4fec <timeoutcount+0x2d4>
    3724:	fc4c8c93          	addi	s9,s9,-60 # 4fc4 <timeoutcount+0x2ac>
    3728:	f9cc0c13          	addi	s8,s8,-100 # 4f9c <timeoutcount+0x284>
    372c:	f74b8b93          	addi	s7,s7,-140 # 4f74 <timeoutcount+0x25c>
    3730:	f4cb0b13          	addi	s6,s6,-180 # 4f4c <timeoutcount+0x234>
    3734:	f2448493          	addi	s1,s1,-220 # 4f24 <timeoutcount+0x20c>
    3738:	01300313          	li	t1,19
    373c:	04c00f13          	li	t5,76
    3740:	00005437          	lui	s0,0x5
    3744:	00900293          	li	t0,9
    3748:	fff00393          	li	t2,-1
    374c:	006f07b3          	add	a5,t5,t1
    3750:	00179793          	slli	a5,a5,0x1
    3754:	00fe87b3          	add	a5,t4,a5
    3758:	0507c703          	lbu	a4,80(a5)
    375c:	1c070863          	beqz	a4,392c <clear_lines+0x28c>
    3760:	0517c703          	lbu	a4,81(a5)
    3764:	1c070463          	beqz	a4,392c <clear_lines+0x28c>
    3768:	0527c703          	lbu	a4,82(a5)
    376c:	1c070063          	beqz	a4,392c <clear_lines+0x28c>
    3770:	0537c703          	lbu	a4,83(a5)
    3774:	1a070c63          	beqz	a4,392c <clear_lines+0x28c>
    3778:	0547c703          	lbu	a4,84(a5)
    377c:	1a070863          	beqz	a4,392c <clear_lines+0x28c>
    3780:	0557c703          	lbu	a4,85(a5)
    3784:	1a070463          	beqz	a4,392c <clear_lines+0x28c>
    3788:	0567c703          	lbu	a4,86(a5)
    378c:	1a070063          	beqz	a4,392c <clear_lines+0x28c>
    3790:	0577c703          	lbu	a4,87(a5)
    3794:	18070c63          	beqz	a4,392c <clear_lines+0x28c>
    3798:	0587c703          	lbu	a4,88(a5)
    379c:	18070863          	beqz	a4,392c <clear_lines+0x28c>
    37a0:	0597c783          	lbu	a5,89(a5)
    37a4:	18078463          	beqz	a5,392c <clear_lines+0x28c>
    37a8:	006f07b3          	add	a5,t5,t1
    37ac:	00179793          	slli	a5,a5,0x1
    37b0:	01c787b3          	add	a5,a5,t3
    37b4:	04030e63          	beqz	t1,3810 <clear_lines+0x170>
    37b8:	ff67c603          	lbu	a2,-10(a5)
    37bc:	ff77c683          	lbu	a3,-9(a5)
    37c0:	ff87c703          	lbu	a4,-8(a5)
    37c4:	ff97c883          	lbu	a7,-7(a5)
    37c8:	ffa7c803          	lbu	a6,-6(a5)
    37cc:	ffb7c503          	lbu	a0,-5(a5)
    37d0:	ffc7c583          	lbu	a1,-4(a5)
    37d4:	00c78023          	sb	a2,0(a5)
    37d8:	00d780a3          	sb	a3,1(a5)
    37dc:	ffd7c603          	lbu	a2,-3(a5)
    37e0:	ffe7c683          	lbu	a3,-2(a5)
    37e4:	00e78123          	sb	a4,2(a5)
    37e8:	fff7c703          	lbu	a4,-1(a5)
    37ec:	011781a3          	sb	a7,3(a5)
    37f0:	01078223          	sb	a6,4(a5)
    37f4:	00a782a3          	sb	a0,5(a5)
    37f8:	00b78323          	sb	a1,6(a5)
    37fc:	00c783a3          	sb	a2,7(a5)
    3800:	00d78423          	sb	a3,8(a5)
    3804:	00e784a3          	sb	a4,9(a5)
    3808:	ff678793          	addi	a5,a5,-10
    380c:	fafe16e3          	bne	t3,a5,37b8 <clear_lines+0x118>
    3810:	d1442603          	lw	a2,-748(s0) # 4d14 <score>
    3814:	040ea823          	sw	zero,80(t4)
    3818:	040eaa23          	sw	zero,84(t4)
    381c:	06460613          	addi	a2,a2,100
    3820:	03561733          	mulh	a4,a2,s5
    3824:	41f65813          	srai	a6,a2,0x1f
    3828:	d0c42a23          	sw	a2,-748(s0)
    382c:	040e9c23          	sh	zero,88(t4)
    3830:	40d75713          	srai	a4,a4,0xd
    3834:	41070733          	sub	a4,a4,a6
    3838:	03f717b3          	mulh	a5,a4,t6
    383c:	41f75893          	srai	a7,a4,0x1f
    3840:	034616b3          	mulh	a3,a2,s4
    3844:	4027d793          	srai	a5,a5,0x2
    3848:	411787b3          	sub	a5,a5,a7
    384c:	00279893          	slli	a7,a5,0x2
    3850:	00f887b3          	add	a5,a7,a5
    3854:	00179793          	slli	a5,a5,0x1
    3858:	40f707b3          	sub	a5,a4,a5
    385c:	40c6d693          	srai	a3,a3,0xc
    3860:	410686b3          	sub	a3,a3,a6
    3864:	03f69733          	mulh	a4,a3,t6
    3868:	41f6d593          	srai	a1,a3,0x1f
    386c:	03361533          	mulh	a0,a2,s3
    3870:	40275713          	srai	a4,a4,0x2
    3874:	40b70733          	sub	a4,a4,a1
    3878:	00271593          	slli	a1,a4,0x2
    387c:	00e58733          	add	a4,a1,a4
    3880:	00171713          	slli	a4,a4,0x1
    3884:	40e68733          	sub	a4,a3,a4
    3888:	40655513          	srai	a0,a0,0x6
    388c:	41050533          	sub	a0,a0,a6
    3890:	03f516b3          	mulh	a3,a0,t6
    3894:	41f55d93          	srai	s11,a0,0x1f
    3898:	4026d693          	srai	a3,a3,0x2
    389c:	41b686b3          	sub	a3,a3,s11
    38a0:	00269d93          	slli	s11,a3,0x2
    38a4:	00dd86b3          	add	a3,s11,a3
    38a8:	00169693          	slli	a3,a3,0x1
    38ac:	032615b3          	mulh	a1,a2,s2
    38b0:	40d506b3          	sub	a3,a0,a3
    38b4:	03f61533          	mulh	a0,a2,t6
    38b8:	4055d593          	srai	a1,a1,0x5
    38bc:	410585b3          	sub	a1,a1,a6
    38c0:	41f5d893          	srai	a7,a1,0x1f
    38c4:	40255513          	srai	a0,a0,0x2
    38c8:	41050833          	sub	a6,a0,a6
    38cc:	00281513          	slli	a0,a6,0x2
    38d0:	01050533          	add	a0,a0,a6
    38d4:	00151513          	slli	a0,a0,0x1
    38d8:	40a60533          	sub	a0,a2,a0
    38dc:	03f59633          	mulh	a2,a1,t6
    38e0:	41f85d93          	srai	s11,a6,0x1f
    38e4:	40265613          	srai	a2,a2,0x2
    38e8:	41160633          	sub	a2,a2,a7
    38ec:	00261893          	slli	a7,a2,0x2
    38f0:	00c88633          	add	a2,a7,a2
    38f4:	00161613          	slli	a2,a2,0x1
    38f8:	40c58633          	sub	a2,a1,a2
    38fc:	03f815b3          	mulh	a1,a6,t6
    3900:	4025d593          	srai	a1,a1,0x2
    3904:	41b585b3          	sub	a1,a1,s11
    3908:	00259893          	slli	a7,a1,0x2
    390c:	00b885b3          	add	a1,a7,a1
    3910:	00159593          	slli	a1,a1,0x1
    3914:	40b805b3          	sub	a1,a6,a1
    3918:	02a2e863          	bltu	t0,a0,3948 <clear_lines+0x2a8>
    391c:	00251513          	slli	a0,a0,0x2
    3920:	00950533          	add	a0,a0,s1
    3924:	00052503          	lw	a0,0(a0)
    3928:	00050067          	jr	a0
    392c:	fff30313          	addi	t1,t1,-1
    3930:	0a730e63          	beq	t1,t2,39ec <clear_lines+0x34c>
    3934:	00231f13          	slli	t5,t1,0x2
    3938:	e15ff06f          	j	374c <clear_lines+0xac>
    393c:	04000537          	lui	a0,0x4000
    3940:	09000813          	li	a6,144
    3944:	05052823          	sw	a6,80(a0) # 4000050 <_stack_end+0x3efaee4>
    3948:	02b2e263          	bltu	t0,a1,396c <clear_lines+0x2cc>
    394c:	00259593          	slli	a1,a1,0x2
    3950:	016585b3          	add	a1,a1,s6
    3954:	0005a583          	lw	a1,0(a1)
    3958:	00058067          	jr	a1
    395c:	040005b7          	lui	a1,0x4000
    3960:	06058593          	addi	a1,a1,96 # 4000060 <_stack_end+0x3efaef4>
    3964:	09000513          	li	a0,144
    3968:	00a5a023          	sw	a0,0(a1)
    396c:	02c2e263          	bltu	t0,a2,3990 <clear_lines+0x2f0>
    3970:	00261613          	slli	a2,a2,0x2
    3974:	01760633          	add	a2,a2,s7
    3978:	00062603          	lw	a2,0(a2)
    397c:	00060067          	jr	a2
    3980:	04000637          	lui	a2,0x4000
    3984:	07060613          	addi	a2,a2,112 # 4000070 <_stack_end+0x3efaf04>
    3988:	09000593          	li	a1,144
    398c:	00b62023          	sw	a1,0(a2)
    3990:	02d2e263          	bltu	t0,a3,39b4 <clear_lines+0x314>
    3994:	00269693          	slli	a3,a3,0x2
    3998:	018686b3          	add	a3,a3,s8
    399c:	0006a683          	lw	a3,0(a3)
    39a0:	00068067          	jr	a3
    39a4:	040006b7          	lui	a3,0x4000
    39a8:	08068693          	addi	a3,a3,128 # 4000080 <_stack_end+0x3efaf14>
    39ac:	09000613          	li	a2,144
    39b0:	00c6a023          	sw	a2,0(a3)
    39b4:	02e2e263          	bltu	t0,a4,39d8 <clear_lines+0x338>
    39b8:	00271713          	slli	a4,a4,0x2
    39bc:	01970733          	add	a4,a4,s9
    39c0:	00072703          	lw	a4,0(a4)
    39c4:	00070067          	jr	a4
    39c8:	04000737          	lui	a4,0x4000
    39cc:	09070713          	addi	a4,a4,144 # 4000090 <_stack_end+0x3efaf24>
    39d0:	09000693          	li	a3,144
    39d4:	00d72023          	sw	a3,0(a4)
    39d8:	d6f2eae3          	bltu	t0,a5,374c <clear_lines+0xac>
    39dc:	00279793          	slli	a5,a5,0x2
    39e0:	01a787b3          	add	a5,a5,s10
    39e4:	0007a783          	lw	a5,0(a5)
    39e8:	00078067          	jr	a5
    39ec:	02c12403          	lw	s0,44(sp)
    39f0:	02812483          	lw	s1,40(sp)
    39f4:	02412903          	lw	s2,36(sp)
    39f8:	02012983          	lw	s3,32(sp)
    39fc:	01c12a03          	lw	s4,28(sp)
    3a00:	01812a83          	lw	s5,24(sp)
    3a04:	01412b03          	lw	s6,20(sp)
    3a08:	01012b83          	lw	s7,16(sp)
    3a0c:	00c12c03          	lw	s8,12(sp)
    3a10:	00812c83          	lw	s9,8(sp)
    3a14:	00412d03          	lw	s10,4(sp)
    3a18:	00012d83          	lw	s11,0(sp)
    3a1c:	03010113          	addi	sp,sp,48
    3a20:	00008067          	ret
    3a24:	04000537          	lui	a0,0x4000
    3a28:	08000813          	li	a6,128
    3a2c:	05052823          	sw	a6,80(a0) # 4000050 <_stack_end+0x3efaee4>
    3a30:	f19ff06f          	j	3948 <clear_lines+0x2a8>
    3a34:	04000537          	lui	a0,0x4000
    3a38:	0c000813          	li	a6,192
    3a3c:	05052823          	sw	a6,80(a0) # 4000050 <_stack_end+0x3efaee4>
    3a40:	f09ff06f          	j	3948 <clear_lines+0x2a8>
    3a44:	04000537          	lui	a0,0x4000
    3a48:	0f900813          	li	a6,249
    3a4c:	05052823          	sw	a6,80(a0) # 4000050 <_stack_end+0x3efaee4>
    3a50:	ef9ff06f          	j	3948 <clear_lines+0x2a8>
    3a54:	04000537          	lui	a0,0x4000
    3a58:	0a400813          	li	a6,164
    3a5c:	05052823          	sw	a6,80(a0) # 4000050 <_stack_end+0x3efaee4>
    3a60:	ee9ff06f          	j	3948 <clear_lines+0x2a8>
    3a64:	04000537          	lui	a0,0x4000
    3a68:	0b000813          	li	a6,176
    3a6c:	05052823          	sw	a6,80(a0) # 4000050 <_stack_end+0x3efaee4>
    3a70:	ed9ff06f          	j	3948 <clear_lines+0x2a8>
    3a74:	04000537          	lui	a0,0x4000
    3a78:	09900813          	li	a6,153
    3a7c:	05052823          	sw	a6,80(a0) # 4000050 <_stack_end+0x3efaee4>
    3a80:	ec9ff06f          	j	3948 <clear_lines+0x2a8>
    3a84:	04000537          	lui	a0,0x4000
    3a88:	09200813          	li	a6,146
    3a8c:	05052823          	sw	a6,80(a0) # 4000050 <_stack_end+0x3efaee4>
    3a90:	eb9ff06f          	j	3948 <clear_lines+0x2a8>
    3a94:	04000537          	lui	a0,0x4000
    3a98:	08200813          	li	a6,130
    3a9c:	05052823          	sw	a6,80(a0) # 4000050 <_stack_end+0x3efaee4>
    3aa0:	ea9ff06f          	j	3948 <clear_lines+0x2a8>
    3aa4:	04000537          	lui	a0,0x4000
    3aa8:	0f800813          	li	a6,248
    3aac:	05052823          	sw	a6,80(a0) # 4000050 <_stack_end+0x3efaee4>
    3ab0:	e99ff06f          	j	3948 <clear_lines+0x2a8>
    3ab4:	040005b7          	lui	a1,0x4000
    3ab8:	0c000513          	li	a0,192
    3abc:	06a5a023          	sw	a0,96(a1) # 4000060 <_stack_end+0x3efaef4>
    3ac0:	eadff06f          	j	396c <clear_lines+0x2cc>
    3ac4:	040005b7          	lui	a1,0x4000
    3ac8:	0f900513          	li	a0,249
    3acc:	06a5a023          	sw	a0,96(a1) # 4000060 <_stack_end+0x3efaef4>
    3ad0:	e9dff06f          	j	396c <clear_lines+0x2cc>
    3ad4:	04000637          	lui	a2,0x4000
    3ad8:	0c000593          	li	a1,192
    3adc:	06b62823          	sw	a1,112(a2) # 4000070 <_stack_end+0x3efaf04>
    3ae0:	eb1ff06f          	j	3990 <clear_lines+0x2f0>
    3ae4:	04000637          	lui	a2,0x4000
    3ae8:	0f900593          	li	a1,249
    3aec:	06b62823          	sw	a1,112(a2) # 4000070 <_stack_end+0x3efaf04>
    3af0:	ea1ff06f          	j	3990 <clear_lines+0x2f0>
    3af4:	04000637          	lui	a2,0x4000
    3af8:	0a400593          	li	a1,164
    3afc:	06b62823          	sw	a1,112(a2) # 4000070 <_stack_end+0x3efaf04>
    3b00:	e91ff06f          	j	3990 <clear_lines+0x2f0>
    3b04:	04000637          	lui	a2,0x4000
    3b08:	0b000593          	li	a1,176
    3b0c:	06b62823          	sw	a1,112(a2) # 4000070 <_stack_end+0x3efaf04>
    3b10:	e81ff06f          	j	3990 <clear_lines+0x2f0>
    3b14:	04000637          	lui	a2,0x4000
    3b18:	09900593          	li	a1,153
    3b1c:	06b62823          	sw	a1,112(a2) # 4000070 <_stack_end+0x3efaf04>
    3b20:	e71ff06f          	j	3990 <clear_lines+0x2f0>
    3b24:	04000637          	lui	a2,0x4000
    3b28:	09200593          	li	a1,146
    3b2c:	06b62823          	sw	a1,112(a2) # 4000070 <_stack_end+0x3efaf04>
    3b30:	e61ff06f          	j	3990 <clear_lines+0x2f0>
    3b34:	04000637          	lui	a2,0x4000
    3b38:	08200593          	li	a1,130
    3b3c:	06b62823          	sw	a1,112(a2) # 4000070 <_stack_end+0x3efaf04>
    3b40:	e51ff06f          	j	3990 <clear_lines+0x2f0>
    3b44:	04000637          	lui	a2,0x4000
    3b48:	0f800593          	li	a1,248
    3b4c:	06b62823          	sw	a1,112(a2) # 4000070 <_stack_end+0x3efaf04>
    3b50:	e41ff06f          	j	3990 <clear_lines+0x2f0>
    3b54:	04000637          	lui	a2,0x4000
    3b58:	08000593          	li	a1,128
    3b5c:	06b62823          	sw	a1,112(a2) # 4000070 <_stack_end+0x3efaf04>
    3b60:	e31ff06f          	j	3990 <clear_lines+0x2f0>
    3b64:	040006b7          	lui	a3,0x4000
    3b68:	0c000613          	li	a2,192
    3b6c:	08c6a023          	sw	a2,128(a3) # 4000080 <_stack_end+0x3efaf14>
    3b70:	e45ff06f          	j	39b4 <clear_lines+0x314>
    3b74:	040006b7          	lui	a3,0x4000
    3b78:	0f900613          	li	a2,249
    3b7c:	08c6a023          	sw	a2,128(a3) # 4000080 <_stack_end+0x3efaf14>
    3b80:	e35ff06f          	j	39b4 <clear_lines+0x314>
    3b84:	040006b7          	lui	a3,0x4000
    3b88:	0a400613          	li	a2,164
    3b8c:	08c6a023          	sw	a2,128(a3) # 4000080 <_stack_end+0x3efaf14>
    3b90:	e25ff06f          	j	39b4 <clear_lines+0x314>
    3b94:	040006b7          	lui	a3,0x4000
    3b98:	0b000613          	li	a2,176
    3b9c:	08c6a023          	sw	a2,128(a3) # 4000080 <_stack_end+0x3efaf14>
    3ba0:	e15ff06f          	j	39b4 <clear_lines+0x314>
    3ba4:	040006b7          	lui	a3,0x4000
    3ba8:	09900613          	li	a2,153
    3bac:	08c6a023          	sw	a2,128(a3) # 4000080 <_stack_end+0x3efaf14>
    3bb0:	e05ff06f          	j	39b4 <clear_lines+0x314>
    3bb4:	040006b7          	lui	a3,0x4000
    3bb8:	09200613          	li	a2,146
    3bbc:	08c6a023          	sw	a2,128(a3) # 4000080 <_stack_end+0x3efaf14>
    3bc0:	df5ff06f          	j	39b4 <clear_lines+0x314>
    3bc4:	040005b7          	lui	a1,0x4000
    3bc8:	0a400513          	li	a0,164
    3bcc:	06a5a023          	sw	a0,96(a1) # 4000060 <_stack_end+0x3efaef4>
    3bd0:	d9dff06f          	j	396c <clear_lines+0x2cc>
    3bd4:	040005b7          	lui	a1,0x4000
    3bd8:	0b000513          	li	a0,176
    3bdc:	06a5a023          	sw	a0,96(a1) # 4000060 <_stack_end+0x3efaef4>
    3be0:	d8dff06f          	j	396c <clear_lines+0x2cc>
    3be4:	040005b7          	lui	a1,0x4000
    3be8:	09900513          	li	a0,153
    3bec:	06a5a023          	sw	a0,96(a1) # 4000060 <_stack_end+0x3efaef4>
    3bf0:	d7dff06f          	j	396c <clear_lines+0x2cc>
    3bf4:	040005b7          	lui	a1,0x4000
    3bf8:	09200513          	li	a0,146
    3bfc:	06a5a023          	sw	a0,96(a1) # 4000060 <_stack_end+0x3efaef4>
    3c00:	d6dff06f          	j	396c <clear_lines+0x2cc>
    3c04:	040005b7          	lui	a1,0x4000
    3c08:	08200513          	li	a0,130
    3c0c:	06a5a023          	sw	a0,96(a1) # 4000060 <_stack_end+0x3efaef4>
    3c10:	d5dff06f          	j	396c <clear_lines+0x2cc>
    3c14:	040005b7          	lui	a1,0x4000
    3c18:	0f800513          	li	a0,248
    3c1c:	06a5a023          	sw	a0,96(a1) # 4000060 <_stack_end+0x3efaef4>
    3c20:	d4dff06f          	j	396c <clear_lines+0x2cc>
    3c24:	040005b7          	lui	a1,0x4000
    3c28:	08000513          	li	a0,128
    3c2c:	06a5a023          	sw	a0,96(a1) # 4000060 <_stack_end+0x3efaef4>
    3c30:	d3dff06f          	j	396c <clear_lines+0x2cc>
    3c34:	040007b7          	lui	a5,0x4000
    3c38:	08000713          	li	a4,128
    3c3c:	0ae7a023          	sw	a4,160(a5) # 40000a0 <_stack_end+0x3efaf34>
    3c40:	b0dff06f          	j	374c <clear_lines+0xac>
    3c44:	040007b7          	lui	a5,0x4000
    3c48:	08200713          	li	a4,130
    3c4c:	0ae7a023          	sw	a4,160(a5) # 40000a0 <_stack_end+0x3efaf34>
    3c50:	afdff06f          	j	374c <clear_lines+0xac>
    3c54:	040007b7          	lui	a5,0x4000
    3c58:	0f800713          	li	a4,248
    3c5c:	0ae7a023          	sw	a4,160(a5) # 40000a0 <_stack_end+0x3efaf34>
    3c60:	aedff06f          	j	374c <clear_lines+0xac>
    3c64:	040007b7          	lui	a5,0x4000
    3c68:	0a400713          	li	a4,164
    3c6c:	0ae7a023          	sw	a4,160(a5) # 40000a0 <_stack_end+0x3efaf34>
    3c70:	addff06f          	j	374c <clear_lines+0xac>
    3c74:	040007b7          	lui	a5,0x4000
    3c78:	0b000713          	li	a4,176
    3c7c:	0ae7a023          	sw	a4,160(a5) # 40000a0 <_stack_end+0x3efaf34>
    3c80:	acdff06f          	j	374c <clear_lines+0xac>
    3c84:	040007b7          	lui	a5,0x4000
    3c88:	09900713          	li	a4,153
    3c8c:	0ae7a023          	sw	a4,160(a5) # 40000a0 <_stack_end+0x3efaf34>
    3c90:	abdff06f          	j	374c <clear_lines+0xac>
    3c94:	040007b7          	lui	a5,0x4000
    3c98:	09200713          	li	a4,146
    3c9c:	0ae7a023          	sw	a4,160(a5) # 40000a0 <_stack_end+0x3efaf34>
    3ca0:	aadff06f          	j	374c <clear_lines+0xac>
    3ca4:	040006b7          	lui	a3,0x4000
    3ca8:	08200613          	li	a2,130
    3cac:	08c6a023          	sw	a2,128(a3) # 4000080 <_stack_end+0x3efaf14>
    3cb0:	d05ff06f          	j	39b4 <clear_lines+0x314>
    3cb4:	040006b7          	lui	a3,0x4000
    3cb8:	0f800613          	li	a2,248
    3cbc:	08c6a023          	sw	a2,128(a3) # 4000080 <_stack_end+0x3efaf14>
    3cc0:	cf5ff06f          	j	39b4 <clear_lines+0x314>
    3cc4:	040006b7          	lui	a3,0x4000
    3cc8:	08000613          	li	a2,128
    3ccc:	08c6a023          	sw	a2,128(a3) # 4000080 <_stack_end+0x3efaf14>
    3cd0:	ce5ff06f          	j	39b4 <clear_lines+0x314>
    3cd4:	04000737          	lui	a4,0x4000
    3cd8:	0c000693          	li	a3,192
    3cdc:	08d72823          	sw	a3,144(a4) # 4000090 <_stack_end+0x3efaf24>
    3ce0:	cf9ff06f          	j	39d8 <clear_lines+0x338>
    3ce4:	04000737          	lui	a4,0x4000
    3ce8:	0f900693          	li	a3,249
    3cec:	08d72823          	sw	a3,144(a4) # 4000090 <_stack_end+0x3efaf24>
    3cf0:	ce9ff06f          	j	39d8 <clear_lines+0x338>
    3cf4:	04000737          	lui	a4,0x4000
    3cf8:	0a400693          	li	a3,164
    3cfc:	08d72823          	sw	a3,144(a4) # 4000090 <_stack_end+0x3efaf24>
    3d00:	cd9ff06f          	j	39d8 <clear_lines+0x338>
    3d04:	04000737          	lui	a4,0x4000
    3d08:	0b000693          	li	a3,176
    3d0c:	08d72823          	sw	a3,144(a4) # 4000090 <_stack_end+0x3efaf24>
    3d10:	cc9ff06f          	j	39d8 <clear_lines+0x338>
    3d14:	04000737          	lui	a4,0x4000
    3d18:	09900693          	li	a3,153
    3d1c:	08d72823          	sw	a3,144(a4) # 4000090 <_stack_end+0x3efaf24>
    3d20:	cb9ff06f          	j	39d8 <clear_lines+0x338>
    3d24:	04000737          	lui	a4,0x4000
    3d28:	09200693          	li	a3,146
    3d2c:	08d72823          	sw	a3,144(a4) # 4000090 <_stack_end+0x3efaf24>
    3d30:	ca9ff06f          	j	39d8 <clear_lines+0x338>
    3d34:	04000737          	lui	a4,0x4000
    3d38:	08200693          	li	a3,130
    3d3c:	08d72823          	sw	a3,144(a4) # 4000090 <_stack_end+0x3efaf24>
    3d40:	c99ff06f          	j	39d8 <clear_lines+0x338>
    3d44:	04000737          	lui	a4,0x4000
    3d48:	0f800693          	li	a3,248
    3d4c:	08d72823          	sw	a3,144(a4) # 4000090 <_stack_end+0x3efaf24>
    3d50:	c89ff06f          	j	39d8 <clear_lines+0x338>
    3d54:	04000737          	lui	a4,0x4000
    3d58:	08000693          	li	a3,128
    3d5c:	08d72823          	sw	a3,144(a4) # 4000090 <_stack_end+0x3efaf24>
    3d60:	c79ff06f          	j	39d8 <clear_lines+0x338>
    3d64:	040007b7          	lui	a5,0x4000
    3d68:	09000713          	li	a4,144
    3d6c:	0ae7a023          	sw	a4,160(a5) # 40000a0 <_stack_end+0x3efaf34>
    3d70:	9ddff06f          	j	374c <clear_lines+0xac>
    3d74:	040007b7          	lui	a5,0x4000
    3d78:	0c000713          	li	a4,192
    3d7c:	0ae7a023          	sw	a4,160(a5) # 40000a0 <_stack_end+0x3efaf34>
    3d80:	9cdff06f          	j	374c <clear_lines+0xac>
    3d84:	040007b7          	lui	a5,0x4000
    3d88:	0f900713          	li	a4,249
    3d8c:	0ae7a023          	sw	a4,160(a5) # 40000a0 <_stack_end+0x3efaf34>
    3d90:	9bdff06f          	j	374c <clear_lines+0xac>

00003d94 <tick>:
    3d94:	04000737          	lui	a4,0x4000
    3d98:	fd010113          	addi	sp,sp,-48
    3d9c:	01070793          	addi	a5,a4,16 # 4000010 <_stack_end+0x3efaea4>
    3da0:	03212023          	sw	s2,32(sp)
    3da4:	0e072903          	lw	s2,224(a4)
    3da8:	0007a783          	lw	a5,0(a5)
    3dac:	02812423          	sw	s0,40(sp)
    3db0:	02912223          	sw	s1,36(sp)
    3db4:	00005437          	lui	s0,0x5
    3db8:	02112623          	sw	ra,44(sp)
    3dbc:	0017f793          	andi	a5,a5,1
    3dc0:	00050493          	mv	s1,a0
    3dc4:	ba840413          	addi	s0,s0,-1112 # 4ba8 <current_piece>
    3dc8:	44079a63          	bnez	a5,421c <tick+0x488>
    3dcc:	00090593          	mv	a1,s2
    3dd0:	00040513          	mv	a0,s0
    3dd4:	c01fe0ef          	jal	29d4 <move_piece>
    3dd8:	00842f83          	lw	t6,8(s0)
    3ddc:	00442303          	lw	t1,4(s0)
    3de0:	05a40713          	addi	a4,s0,90
    3de4:	002f9793          	slli	a5,t6,0x2
    3de8:	01f787b3          	add	a5,a5,t6
    3dec:	00130e13          	addi	t3,t1,1
    3df0:	00230e93          	addi	t4,t1,2
    3df4:	00330f13          	addi	t5,t1,3
    3df8:	00179793          	slli	a5,a5,0x1
    3dfc:	001f8f93          	addi	t6,t6,1
    3e00:	00670733          	add	a4,a4,t1
    3e04:	00ae3513          	sltiu	a0,t3,10
    3e08:	00aeb813          	sltiu	a6,t4,10
    3e0c:	00af3893          	sltiu	a7,t5,10
    3e10:	00a33593          	sltiu	a1,t1,10
    3e14:	00f70733          	add	a4,a4,a5
    3e18:	00154513          	xori	a0,a0,1
    3e1c:	00184813          	xori	a6,a6,1
    3e20:	0018c893          	xori	a7,a7,1
    3e24:	000f8693          	mv	a3,t6
    3e28:	0015c593          	xori	a1,a1,1
    3e2c:	00040913          	mv	s2,s0
    3e30:	04040293          	addi	t0,s0,64
    3e34:	00040793          	mv	a5,s0
    3e38:	0107a603          	lw	a2,16(a5)
    3e3c:	00060c63          	beqz	a2,3e54 <tick+0xc0>
    3e40:	0146b613          	sltiu	a2,a3,20
    3e44:	16060c63          	beqz	a2,3fbc <tick+0x228>
    3e48:	16059a63          	bnez	a1,3fbc <tick+0x228>
    3e4c:	00074603          	lbu	a2,0(a4)
    3e50:	16061663          	bnez	a2,3fbc <tick+0x228>
    3e54:	0147a603          	lw	a2,20(a5)
    3e58:	02060063          	beqz	a2,3e78 <tick+0xe4>
    3e5c:	0146b613          	sltiu	a2,a3,20
    3e60:	14060e63          	beqz	a2,3fbc <tick+0x228>
    3e64:	14051c63          	bnez	a0,3fbc <tick+0x228>
    3e68:	00ee0633          	add	a2,t3,a4
    3e6c:	40660633          	sub	a2,a2,t1
    3e70:	00064603          	lbu	a2,0(a2)
    3e74:	14061463          	bnez	a2,3fbc <tick+0x228>
    3e78:	0187a603          	lw	a2,24(a5)
    3e7c:	02060063          	beqz	a2,3e9c <tick+0x108>
    3e80:	0146b613          	sltiu	a2,a3,20
    3e84:	12060c63          	beqz	a2,3fbc <tick+0x228>
    3e88:	12081a63          	bnez	a6,3fbc <tick+0x228>
    3e8c:	00ee8633          	add	a2,t4,a4
    3e90:	40660633          	sub	a2,a2,t1
    3e94:	00064603          	lbu	a2,0(a2)
    3e98:	12061263          	bnez	a2,3fbc <tick+0x228>
    3e9c:	01c7a603          	lw	a2,28(a5)
    3ea0:	02060063          	beqz	a2,3ec0 <tick+0x12c>
    3ea4:	0146b613          	sltiu	a2,a3,20
    3ea8:	10060a63          	beqz	a2,3fbc <tick+0x228>
    3eac:	10089863          	bnez	a7,3fbc <tick+0x228>
    3eb0:	00ef0633          	add	a2,t5,a4
    3eb4:	40660633          	sub	a2,a2,t1
    3eb8:	00064603          	lbu	a2,0(a2)
    3ebc:	10061063          	bnez	a2,3fbc <tick+0x228>
    3ec0:	01078793          	addi	a5,a5,16
    3ec4:	00a70713          	addi	a4,a4,10
    3ec8:	00168693          	addi	a3,a3,1
    3ecc:	f65796e3          	bne	a5,t0,3e38 <tick+0xa4>
    3ed0:	01f42423          	sw	t6,8(s0)
    3ed4:	00048513          	mv	a0,s1
    3ed8:	cf0fd0ef          	jal	13c8 <draw_grid>
    3edc:	7ff48893          	addi	a7,s1,2047
    3ee0:	48188893          	addi	a7,a7,1153
    3ee4:	00000513          	li	a0,0
    3ee8:	00400813          	li	a6,4
    3eec:	00090593          	mv	a1,s2
    3ef0:	00000613          	li	a2,0
    3ef4:	0105a783          	lw	a5,16(a1)
    3ef8:	02079a63          	bnez	a5,3f2c <tick+0x198>
    3efc:	00160613          	addi	a2,a2,1
    3f00:	00458593          	addi	a1,a1,4
    3f04:	ff0618e3          	bne	a2,a6,3ef4 <tick+0x160>
    3f08:	00150513          	addi	a0,a0,1
    3f0c:	01090913          	addi	s2,s2,16
    3f10:	fcc51ee3          	bne	a0,a2,3eec <tick+0x158>
    3f14:	02c12083          	lw	ra,44(sp)
    3f18:	02812403          	lw	s0,40(sp)
    3f1c:	02412483          	lw	s1,36(sp)
    3f20:	02012903          	lw	s2,32(sp)
    3f24:	03010113          	addi	sp,sp,48
    3f28:	00008067          	ret
    3f2c:	00842703          	lw	a4,8(s0)
    3f30:	00442303          	lw	t1,4(s0)
    3f34:	00e50733          	add	a4,a0,a4
    3f38:	00271793          	slli	a5,a4,0x2
    3f3c:	00e787b3          	add	a5,a5,a4
    3f40:	00660333          	add	t1,a2,t1
    3f44:	00179793          	slli	a5,a5,0x1
    3f48:	01478793          	addi	a5,a5,20
    3f4c:	00231713          	slli	a4,t1,0x2
    3f50:	00279693          	slli	a3,a5,0x2
    3f54:	00670733          	add	a4,a4,t1
    3f58:	00f686b3          	add	a3,a3,a5
    3f5c:	00171793          	slli	a5,a4,0x1
    3f60:	06e78793          	addi	a5,a5,110
    3f64:	00669693          	slli	a3,a3,0x6
    3f68:	00f686b3          	add	a3,a3,a5
    3f6c:	00d487b3          	add	a5,s1,a3
    3f70:	00d886b3          	add	a3,a7,a3
    3f74:	00c44703          	lbu	a4,12(s0)
    3f78:	14078793          	addi	a5,a5,320
    3f7c:	ece78023          	sb	a4,-320(a5)
    3f80:	ece780a3          	sb	a4,-319(a5)
    3f84:	00c44703          	lbu	a4,12(s0)
    3f88:	ece78123          	sb	a4,-318(a5)
    3f8c:	ece781a3          	sb	a4,-317(a5)
    3f90:	00c44703          	lbu	a4,12(s0)
    3f94:	ece78223          	sb	a4,-316(a5)
    3f98:	ece782a3          	sb	a4,-315(a5)
    3f9c:	00c44703          	lbu	a4,12(s0)
    3fa0:	ece78323          	sb	a4,-314(a5)
    3fa4:	ece783a3          	sb	a4,-313(a5)
    3fa8:	00c44703          	lbu	a4,12(s0)
    3fac:	ece78423          	sb	a4,-312(a5)
    3fb0:	ece784a3          	sb	a4,-311(a5)
    3fb4:	fcf690e3          	bne	a3,a5,3f74 <tick+0x1e0>
    3fb8:	f45ff06f          	j	3efc <tick+0x168>
    3fbc:	01312e23          	sw	s3,28(sp)
    3fc0:	01412c23          	sw	s4,24(sp)
    3fc4:	00040993          	mv	s3,s0
    3fc8:	00000a13          	li	s4,0
    3fcc:	0109a783          	lw	a5,16(s3)
    3fd0:	04078063          	beqz	a5,4010 <tick+0x27c>
    3fd4:	00442583          	lw	a1,4(s0)
    3fd8:	00842503          	lw	a0,8(s0)
    3fdc:	00a5b793          	sltiu	a5,a1,10
    3fe0:	00aa0533          	add	a0,s4,a0
    3fe4:	02078663          	beqz	a5,4010 <tick+0x27c>
    3fe8:	01453793          	sltiu	a5,a0,20
    3fec:	02078263          	beqz	a5,4010 <tick+0x27c>
    3ff0:	00251793          	slli	a5,a0,0x2
    3ff4:	00a787b3          	add	a5,a5,a0
    3ff8:	00c44603          	lbu	a2,12(s0)
    3ffc:	00179793          	slli	a5,a5,0x1
    4000:	00f407b3          	add	a5,s0,a5
    4004:	00b787b3          	add	a5,a5,a1
    4008:	04c78823          	sb	a2,80(a5)
    400c:	f68fd0ef          	jal	1774 <update_cell>
    4010:	0149a783          	lw	a5,20(s3)
    4014:	04078263          	beqz	a5,4058 <tick+0x2c4>
    4018:	00442583          	lw	a1,4(s0)
    401c:	00842503          	lw	a0,8(s0)
    4020:	00158593          	addi	a1,a1,1
    4024:	00a5b793          	sltiu	a5,a1,10
    4028:	00aa0533          	add	a0,s4,a0
    402c:	02078663          	beqz	a5,4058 <tick+0x2c4>
    4030:	01453793          	sltiu	a5,a0,20
    4034:	02078263          	beqz	a5,4058 <tick+0x2c4>
    4038:	00251793          	slli	a5,a0,0x2
    403c:	00a787b3          	add	a5,a5,a0
    4040:	00c44603          	lbu	a2,12(s0)
    4044:	00179793          	slli	a5,a5,0x1
    4048:	00f407b3          	add	a5,s0,a5
    404c:	00b787b3          	add	a5,a5,a1
    4050:	04c78823          	sb	a2,80(a5)
    4054:	f20fd0ef          	jal	1774 <update_cell>
    4058:	0189a783          	lw	a5,24(s3)
    405c:	04078263          	beqz	a5,40a0 <tick+0x30c>
    4060:	00442583          	lw	a1,4(s0)
    4064:	00842503          	lw	a0,8(s0)
    4068:	00258593          	addi	a1,a1,2
    406c:	00a5b793          	sltiu	a5,a1,10
    4070:	00aa0533          	add	a0,s4,a0
    4074:	02078663          	beqz	a5,40a0 <tick+0x30c>
    4078:	01453793          	sltiu	a5,a0,20
    407c:	02078263          	beqz	a5,40a0 <tick+0x30c>
    4080:	00251793          	slli	a5,a0,0x2
    4084:	00a787b3          	add	a5,a5,a0
    4088:	00c44603          	lbu	a2,12(s0)
    408c:	00179793          	slli	a5,a5,0x1
    4090:	00f407b3          	add	a5,s0,a5
    4094:	00b787b3          	add	a5,a5,a1
    4098:	04c78823          	sb	a2,80(a5)
    409c:	ed8fd0ef          	jal	1774 <update_cell>
    40a0:	01c9a783          	lw	a5,28(s3)
    40a4:	04078263          	beqz	a5,40e8 <tick+0x354>
    40a8:	00842503          	lw	a0,8(s0)
    40ac:	00442583          	lw	a1,4(s0)
    40b0:	00aa0533          	add	a0,s4,a0
    40b4:	01453793          	sltiu	a5,a0,20
    40b8:	00358593          	addi	a1,a1,3
    40bc:	02078663          	beqz	a5,40e8 <tick+0x354>
    40c0:	00a5b793          	sltiu	a5,a1,10
    40c4:	02078263          	beqz	a5,40e8 <tick+0x354>
    40c8:	00251793          	slli	a5,a0,0x2
    40cc:	00a787b3          	add	a5,a5,a0
    40d0:	00c44603          	lbu	a2,12(s0)
    40d4:	00179793          	slli	a5,a5,0x1
    40d8:	00f407b3          	add	a5,s0,a5
    40dc:	00b787b3          	add	a5,a5,a1
    40e0:	04c78823          	sb	a2,80(a5)
    40e4:	e90fd0ef          	jal	1774 <update_cell>
    40e8:	001a0a13          	addi	s4,s4,1
    40ec:	00400793          	li	a5,4
    40f0:	01098993          	addi	s3,s3,16
    40f4:	ecfa1ce3          	bne	s4,a5,3fcc <tick+0x238>
    40f8:	da8ff0ef          	jal	36a0 <clear_lines>
    40fc:	00004537          	lui	a0,0x4
    4100:	f8450513          	addi	a0,a0,-124 # 3f84 <tick+0x1f0>
    4104:	000078b7          	lui	a7,0x7
    4108:	00a489b3          	add	s3,s1,a0
    410c:	12840a13          	addi	s4,s0,296
    4110:	18488893          	addi	a7,a7,388 # 7184 <__global_pointer+0x1de0>
    4114:	00098813          	mv	a6,s3
    4118:	000a0613          	mv	a2,s4
    411c:	011488b3          	add	a7,s1,a7
    4120:	ff060693          	addi	a3,a2,-16
    4124:	00080713          	mv	a4,a6
    4128:	0106a783          	lw	a5,16(a3)
    412c:	0a079a63          	bnez	a5,41e0 <tick+0x44c>
    4130:	00468693          	addi	a3,a3,4
    4134:	00a70713          	addi	a4,a4,10
    4138:	fec698e3          	bne	a3,a2,4128 <tick+0x394>
    413c:	7ff80813          	addi	a6,a6,2047
    4140:	48180813          	addi	a6,a6,1153
    4144:	01068613          	addi	a2,a3,16
    4148:	fd181ce3          	bne	a6,a7,4120 <tick+0x38c>
    414c:	01112623          	sw	a7,12(sp)
    4150:	82cfd0ef          	jal	117c <spawn_next>
    4154:	00c12883          	lw	a7,12(sp)
    4158:	ff0a0613          	addi	a2,s4,-16
    415c:	00098693          	mv	a3,s3
    4160:	01062783          	lw	a5,16(a2)
    4164:	02079663          	bnez	a5,4190 <tick+0x3fc>
    4168:	00460613          	addi	a2,a2,4
    416c:	00a68693          	addi	a3,a3,10
    4170:	feca18e3          	bne	s4,a2,4160 <tick+0x3cc>
    4174:	7ff98993          	addi	s3,s3,2047
    4178:	48198993          	addi	s3,s3,1153
    417c:	010a0a13          	addi	s4,s4,16
    4180:	fd199ce3          	bne	s3,a7,4158 <tick+0x3c4>
    4184:	01c12983          	lw	s3,28(sp)
    4188:	01812a03          	lw	s4,24(sp)
    418c:	d49ff06f          	j	3ed4 <tick+0x140>
    4190:	80068793          	addi	a5,a3,-2048
    4194:	b8078793          	addi	a5,a5,-1152
    4198:	12444703          	lbu	a4,292(s0)
    419c:	14078793          	addi	a5,a5,320
    41a0:	ece78023          	sb	a4,-320(a5)
    41a4:	ece780a3          	sb	a4,-319(a5)
    41a8:	12444703          	lbu	a4,292(s0)
    41ac:	ece78123          	sb	a4,-318(a5)
    41b0:	ece781a3          	sb	a4,-317(a5)
    41b4:	12444703          	lbu	a4,292(s0)
    41b8:	ece78223          	sb	a4,-316(a5)
    41bc:	ece782a3          	sb	a4,-315(a5)
    41c0:	12444703          	lbu	a4,292(s0)
    41c4:	ece78323          	sb	a4,-314(a5)
    41c8:	ece783a3          	sb	a4,-313(a5)
    41cc:	12444703          	lbu	a4,292(s0)
    41d0:	ece78423          	sb	a4,-312(a5)
    41d4:	ece784a3          	sb	a4,-311(a5)
    41d8:	fcf690e3          	bne	a3,a5,4198 <tick+0x404>
    41dc:	f8dff06f          	j	4168 <tick+0x3d4>
    41e0:	80070793          	addi	a5,a4,-2048
    41e4:	b8078793          	addi	a5,a5,-1152
    41e8:	00078023          	sb	zero,0(a5)
    41ec:	000780a3          	sb	zero,1(a5)
    41f0:	00078123          	sb	zero,2(a5)
    41f4:	000781a3          	sb	zero,3(a5)
    41f8:	00078223          	sb	zero,4(a5)
    41fc:	000782a3          	sb	zero,5(a5)
    4200:	00078323          	sb	zero,6(a5)
    4204:	000783a3          	sb	zero,7(a5)
    4208:	00078423          	sb	zero,8(a5)
    420c:	000784a3          	sb	zero,9(a5)
    4210:	14078793          	addi	a5,a5,320
    4214:	fce79ae3          	bne	a5,a4,41e8 <tick+0x454>
    4218:	f19ff06f          	j	4130 <tick+0x39c>
    421c:	00040513          	mv	a0,s0
    4220:	ef8fd0ef          	jal	1918 <update_shape.constprop.1>
    4224:	00040513          	mv	a0,s0
    4228:	d6cfe0ef          	jal	2794 <rotate_piece>
    422c:	01042783          	lw	a5,16(s0)
    4230:	02078263          	beqz	a5,4254 <tick+0x4c0>
    4234:	00442583          	lw	a1,4(s0)
    4238:	00842503          	lw	a0,8(s0)
    423c:	00a5b793          	sltiu	a5,a1,10
    4240:	00078a63          	beqz	a5,4254 <tick+0x4c0>
    4244:	01453793          	sltiu	a5,a0,20
    4248:	00078663          	beqz	a5,4254 <tick+0x4c0>
    424c:	00c44603          	lbu	a2,12(s0)
    4250:	d24fd0ef          	jal	1774 <update_cell>
    4254:	01442783          	lw	a5,20(s0)
    4258:	02078463          	beqz	a5,4280 <tick+0x4ec>
    425c:	00442583          	lw	a1,4(s0)
    4260:	00842503          	lw	a0,8(s0)
    4264:	00158593          	addi	a1,a1,1
    4268:	00a5b793          	sltiu	a5,a1,10
    426c:	00078a63          	beqz	a5,4280 <tick+0x4ec>
    4270:	01453793          	sltiu	a5,a0,20
    4274:	00078663          	beqz	a5,4280 <tick+0x4ec>
    4278:	00c44603          	lbu	a2,12(s0)
    427c:	cf8fd0ef          	jal	1774 <update_cell>
    4280:	01842783          	lw	a5,24(s0)
    4284:	02078463          	beqz	a5,42ac <tick+0x518>
    4288:	00442583          	lw	a1,4(s0)
    428c:	00842503          	lw	a0,8(s0)
    4290:	00258593          	addi	a1,a1,2
    4294:	00a5b793          	sltiu	a5,a1,10
    4298:	00078a63          	beqz	a5,42ac <tick+0x518>
    429c:	01453793          	sltiu	a5,a0,20
    42a0:	00078663          	beqz	a5,42ac <tick+0x518>
    42a4:	00c44603          	lbu	a2,12(s0)
    42a8:	cccfd0ef          	jal	1774 <update_cell>
    42ac:	01c42783          	lw	a5,28(s0)
    42b0:	02078463          	beqz	a5,42d8 <tick+0x544>
    42b4:	00442583          	lw	a1,4(s0)
    42b8:	00842503          	lw	a0,8(s0)
    42bc:	00358593          	addi	a1,a1,3
    42c0:	00a5b793          	sltiu	a5,a1,10
    42c4:	00078a63          	beqz	a5,42d8 <tick+0x544>
    42c8:	01453793          	sltiu	a5,a0,20
    42cc:	00078663          	beqz	a5,42d8 <tick+0x544>
    42d0:	00c44603          	lbu	a2,12(s0)
    42d4:	ca0fd0ef          	jal	1774 <update_cell>
    42d8:	02042783          	lw	a5,32(s0)
    42dc:	02078463          	beqz	a5,4304 <tick+0x570>
    42e0:	00442583          	lw	a1,4(s0)
    42e4:	00842503          	lw	a0,8(s0)
    42e8:	00a5b793          	sltiu	a5,a1,10
    42ec:	00150513          	addi	a0,a0,1
    42f0:	00078a63          	beqz	a5,4304 <tick+0x570>
    42f4:	01453793          	sltiu	a5,a0,20
    42f8:	00078663          	beqz	a5,4304 <tick+0x570>
    42fc:	00c44603          	lbu	a2,12(s0)
    4300:	c74fd0ef          	jal	1774 <update_cell>
    4304:	02442783          	lw	a5,36(s0)
    4308:	02078663          	beqz	a5,4334 <tick+0x5a0>
    430c:	00442583          	lw	a1,4(s0)
    4310:	00842503          	lw	a0,8(s0)
    4314:	00158593          	addi	a1,a1,1
    4318:	00a5b793          	sltiu	a5,a1,10
    431c:	00150513          	addi	a0,a0,1
    4320:	00078a63          	beqz	a5,4334 <tick+0x5a0>
    4324:	01453793          	sltiu	a5,a0,20
    4328:	00078663          	beqz	a5,4334 <tick+0x5a0>
    432c:	00c44603          	lbu	a2,12(s0)
    4330:	c44fd0ef          	jal	1774 <update_cell>
    4334:	02842783          	lw	a5,40(s0)
    4338:	02078663          	beqz	a5,4364 <tick+0x5d0>
    433c:	00442583          	lw	a1,4(s0)
    4340:	00842503          	lw	a0,8(s0)
    4344:	00258593          	addi	a1,a1,2
    4348:	00a5b793          	sltiu	a5,a1,10
    434c:	00150513          	addi	a0,a0,1
    4350:	00078a63          	beqz	a5,4364 <tick+0x5d0>
    4354:	01453793          	sltiu	a5,a0,20
    4358:	00078663          	beqz	a5,4364 <tick+0x5d0>
    435c:	00c44603          	lbu	a2,12(s0)
    4360:	c14fd0ef          	jal	1774 <update_cell>
    4364:	02c42783          	lw	a5,44(s0)
    4368:	02078663          	beqz	a5,4394 <tick+0x600>
    436c:	00442583          	lw	a1,4(s0)
    4370:	00842503          	lw	a0,8(s0)
    4374:	00358593          	addi	a1,a1,3
    4378:	00a5b793          	sltiu	a5,a1,10
    437c:	00150513          	addi	a0,a0,1
    4380:	00078a63          	beqz	a5,4394 <tick+0x600>
    4384:	01453793          	sltiu	a5,a0,20
    4388:	00078663          	beqz	a5,4394 <tick+0x600>
    438c:	00c44603          	lbu	a2,12(s0)
    4390:	be4fd0ef          	jal	1774 <update_cell>
    4394:	03042783          	lw	a5,48(s0)
    4398:	02078463          	beqz	a5,43c0 <tick+0x62c>
    439c:	00442583          	lw	a1,4(s0)
    43a0:	00842503          	lw	a0,8(s0)
    43a4:	00a5b793          	sltiu	a5,a1,10
    43a8:	00250513          	addi	a0,a0,2
    43ac:	00078a63          	beqz	a5,43c0 <tick+0x62c>
    43b0:	01453793          	sltiu	a5,a0,20
    43b4:	00078663          	beqz	a5,43c0 <tick+0x62c>
    43b8:	00c44603          	lbu	a2,12(s0)
    43bc:	bb8fd0ef          	jal	1774 <update_cell>
    43c0:	03442783          	lw	a5,52(s0)
    43c4:	02078663          	beqz	a5,43f0 <tick+0x65c>
    43c8:	00442583          	lw	a1,4(s0)
    43cc:	00842503          	lw	a0,8(s0)
    43d0:	00158593          	addi	a1,a1,1
    43d4:	00a5b793          	sltiu	a5,a1,10
    43d8:	00250513          	addi	a0,a0,2
    43dc:	00078a63          	beqz	a5,43f0 <tick+0x65c>
    43e0:	01453793          	sltiu	a5,a0,20
    43e4:	00078663          	beqz	a5,43f0 <tick+0x65c>
    43e8:	00c44603          	lbu	a2,12(s0)
    43ec:	b88fd0ef          	jal	1774 <update_cell>
    43f0:	03842783          	lw	a5,56(s0)
    43f4:	02078663          	beqz	a5,4420 <tick+0x68c>
    43f8:	00442583          	lw	a1,4(s0)
    43fc:	00842503          	lw	a0,8(s0)
    4400:	00258593          	addi	a1,a1,2
    4404:	00a5b793          	sltiu	a5,a1,10
    4408:	00250513          	addi	a0,a0,2
    440c:	00078a63          	beqz	a5,4420 <tick+0x68c>
    4410:	01453793          	sltiu	a5,a0,20
    4414:	00078663          	beqz	a5,4420 <tick+0x68c>
    4418:	00c44603          	lbu	a2,12(s0)
    441c:	b58fd0ef          	jal	1774 <update_cell>
    4420:	03c42783          	lw	a5,60(s0)
    4424:	02078663          	beqz	a5,4450 <tick+0x6bc>
    4428:	00442583          	lw	a1,4(s0)
    442c:	00842503          	lw	a0,8(s0)
    4430:	00358593          	addi	a1,a1,3
    4434:	00a5b793          	sltiu	a5,a1,10
    4438:	00250513          	addi	a0,a0,2
    443c:	00078a63          	beqz	a5,4450 <tick+0x6bc>
    4440:	01453793          	sltiu	a5,a0,20
    4444:	00078663          	beqz	a5,4450 <tick+0x6bc>
    4448:	00c44603          	lbu	a2,12(s0)
    444c:	b28fd0ef          	jal	1774 <update_cell>
    4450:	04042783          	lw	a5,64(s0)
    4454:	02078463          	beqz	a5,447c <tick+0x6e8>
    4458:	00442583          	lw	a1,4(s0)
    445c:	00842503          	lw	a0,8(s0)
    4460:	00a5b793          	sltiu	a5,a1,10
    4464:	00350513          	addi	a0,a0,3
    4468:	00078a63          	beqz	a5,447c <tick+0x6e8>
    446c:	01453793          	sltiu	a5,a0,20
    4470:	00078663          	beqz	a5,447c <tick+0x6e8>
    4474:	00c44603          	lbu	a2,12(s0)
    4478:	afcfd0ef          	jal	1774 <update_cell>
    447c:	04442783          	lw	a5,68(s0)
    4480:	02078663          	beqz	a5,44ac <tick+0x718>
    4484:	00442583          	lw	a1,4(s0)
    4488:	00842503          	lw	a0,8(s0)
    448c:	00158593          	addi	a1,a1,1
    4490:	00a5b793          	sltiu	a5,a1,10
    4494:	00350513          	addi	a0,a0,3
    4498:	00078a63          	beqz	a5,44ac <tick+0x718>
    449c:	01453793          	sltiu	a5,a0,20
    44a0:	00078663          	beqz	a5,44ac <tick+0x718>
    44a4:	00c44603          	lbu	a2,12(s0)
    44a8:	accfd0ef          	jal	1774 <update_cell>
    44ac:	04842783          	lw	a5,72(s0)
    44b0:	02078663          	beqz	a5,44dc <tick+0x748>
    44b4:	00442583          	lw	a1,4(s0)
    44b8:	00842503          	lw	a0,8(s0)
    44bc:	00258593          	addi	a1,a1,2
    44c0:	00a5b793          	sltiu	a5,a1,10
    44c4:	00350513          	addi	a0,a0,3
    44c8:	00078a63          	beqz	a5,44dc <tick+0x748>
    44cc:	01453793          	sltiu	a5,a0,20
    44d0:	00078663          	beqz	a5,44dc <tick+0x748>
    44d4:	00c44603          	lbu	a2,12(s0)
    44d8:	a9cfd0ef          	jal	1774 <update_cell>
    44dc:	04c42783          	lw	a5,76(s0)
    44e0:	8e0786e3          	beqz	a5,3dcc <tick+0x38>
    44e4:	00842503          	lw	a0,8(s0)
    44e8:	00442583          	lw	a1,4(s0)
    44ec:	00350513          	addi	a0,a0,3
    44f0:	01453793          	sltiu	a5,a0,20
    44f4:	00358593          	addi	a1,a1,3
    44f8:	8c078ae3          	beqz	a5,3dcc <tick+0x38>
    44fc:	00a5b793          	sltiu	a5,a1,10
    4500:	8c0786e3          	beqz	a5,3dcc <tick+0x38>
    4504:	00c44603          	lbu	a2,12(s0)
    4508:	a6cfd0ef          	jal	1774 <update_cell>
    450c:	8c1ff06f          	j	3dcc <tick+0x38>

00004510 <handle_interrupt>:
    4510:	01000793          	li	a5,16
    4514:	00f50463          	beq	a0,a5,451c <handle_interrupt+0xc>
    4518:	00008067          	ret
    451c:	040007b7          	lui	a5,0x4000
    4520:	00005737          	lui	a4,0x5
    4524:	02079023          	sh	zero,32(a5) # 4000020 <_stack_end+0x3efaeb4>
    4528:	d1872783          	lw	a5,-744(a4) # 4d18 <timeoutcount>
    452c:	00800693          	li	a3,8
    4530:	00178793          	addi	a5,a5,1
    4534:	00d78663          	beq	a5,a3,4540 <handle_interrupt+0x30>
    4538:	d0f72c23          	sw	a5,-744(a4)
    453c:	00008067          	ret
    4540:	000057b7          	lui	a5,0x5
    4544:	ba47a503          	lw	a0,-1116(a5) # 4ba4 <VGA>
    4548:	d0072c23          	sw	zero,-744(a4)
    454c:	849ff06f          	j	3d94 <tick>

00004550 <start>:
    4550:	ff010113          	addi	sp,sp,-16
    4554:	00812623          	sw	s0,12(sp)
    4558:	00005fb7          	lui	t6,0x5
    455c:	00013437          	lui	s0,0x13
    4560:	00009f37          	lui	t5,0x9
    4564:	00912423          	sw	s1,8(sp)
    4568:	01212223          	sw	s2,4(sp)
    456c:	100f0f13          	addi	t5,t5,256 # 9100 <__global_pointer+0x3d5c>
    4570:	014f8f93          	addi	t6,t6,20 # 5014 <font5x7>
    4574:	c0040413          	addi	s0,s0,-1024 # 12c00 <__global_pointer+0xd85c>
    4578:	00000293          	li	t0,0
    457c:	00005637          	lui	a2,0x5
    4580:	000054b7          	lui	s1,0x5
    4584:	00900e93          	li	t4,9
    4588:	05b00593          	li	a1,91
    458c:	01900393          	li	t2,25
    4590:	0b800e13          	li	t3,184
    4594:	ba462783          	lw	a5,-1116(a2) # 4ba4 <VGA>
    4598:	16448313          	addi	t1,s1,356 # 5164 <font5x7+0x150>
    459c:	08800893          	li	a7,136
    45a0:	005787b3          	add	a5,a5,t0
    45a4:	00078023          	sb	zero,0(a5)
    45a8:	00034783          	lbu	a5,0(t1)
    45ac:	fd078713          	addi	a4,a5,-48
    45b0:	0ff77693          	zext.b	a3,a4
    45b4:	0edeee63          	bltu	t4,a3,46b0 <start+0x160>
    45b8:	00271693          	slli	a3,a4,0x2
    45bc:	00e686b3          	add	a3,a3,a4
    45c0:	00df86b3          	add	a3,t6,a3
    45c4:	00568813          	addi	a6,a3,5
    45c8:	01e88733          	add	a4,a7,t5
    45cc:	0006c783          	lbu	a5,0(a3)
    45d0:	0017f513          	andi	a0,a5,1
    45d4:	00050863          	beqz	a0,45e4 <start+0x94>
    45d8:	ba462503          	lw	a0,-1116(a2)
    45dc:	00e50533          	add	a0,a0,a4
    45e0:	88b50023          	sb	a1,-1920(a0)
    45e4:	0027f513          	andi	a0,a5,2
    45e8:	00050863          	beqz	a0,45f8 <start+0xa8>
    45ec:	ba462503          	lw	a0,-1116(a2)
    45f0:	00e50533          	add	a0,a0,a4
    45f4:	9cb50023          	sb	a1,-1600(a0)
    45f8:	0047f513          	andi	a0,a5,4
    45fc:	00050863          	beqz	a0,460c <start+0xbc>
    4600:	ba462503          	lw	a0,-1116(a2)
    4604:	00e50533          	add	a0,a0,a4
    4608:	b0b50023          	sb	a1,-1280(a0)
    460c:	0087f513          	andi	a0,a5,8
    4610:	00050863          	beqz	a0,4620 <start+0xd0>
    4614:	ba462503          	lw	a0,-1116(a2)
    4618:	00e50533          	add	a0,a0,a4
    461c:	c4b50023          	sb	a1,-960(a0)
    4620:	0107f513          	andi	a0,a5,16
    4624:	00050863          	beqz	a0,4634 <start+0xe4>
    4628:	ba462503          	lw	a0,-1116(a2)
    462c:	00e50533          	add	a0,a0,a4
    4630:	d8b50023          	sb	a1,-640(a0)
    4634:	0207f513          	andi	a0,a5,32
    4638:	00050863          	beqz	a0,4648 <start+0xf8>
    463c:	ba462503          	lw	a0,-1116(a2)
    4640:	00e50533          	add	a0,a0,a4
    4644:	ecb50023          	sb	a1,-320(a0)
    4648:	0407f793          	andi	a5,a5,64
    464c:	00078863          	beqz	a5,465c <start+0x10c>
    4650:	ba462783          	lw	a5,-1116(a2)
    4654:	00e787b3          	add	a5,a5,a4
    4658:	00b78023          	sb	a1,0(a5)
    465c:	00168693          	addi	a3,a3,1
    4660:	00170713          	addi	a4,a4,1
    4664:	f70694e3          	bne	a3,a6,45cc <start+0x7c>
    4668:	00888893          	addi	a7,a7,8
    466c:	00130313          	addi	t1,t1,1
    4670:	f3c89ce3          	bne	a7,t3,45a8 <start+0x58>
    4674:	00128293          	addi	t0,t0,1
    4678:	f0829ee3          	bne	t0,s0,4594 <start+0x44>
    467c:	000136b7          	lui	a3,0x13
    4680:	c0068693          	addi	a3,a3,-1024 # 12c00 <__global_pointer+0xd85c>
    4684:	00000793          	li	a5,0
    4688:	ba462703          	lw	a4,-1116(a2)
    468c:	00f70733          	add	a4,a4,a5
    4690:	00070023          	sb	zero,0(a4)
    4694:	00178793          	addi	a5,a5,1
    4698:	fed798e3          	bne	a5,a3,4688 <start+0x138>
    469c:	00c12403          	lw	s0,12(sp)
    46a0:	00812483          	lw	s1,8(sp)
    46a4:	00412903          	lw	s2,4(sp)
    46a8:	01010113          	addi	sp,sp,16
    46ac:	00008067          	ret
    46b0:	fbf78713          	addi	a4,a5,-65
    46b4:	0ff77713          	zext.b	a4,a4
    46b8:	fae3e8e3          	bltu	t2,a4,4668 <start+0x118>
    46bc:	fc978793          	addi	a5,a5,-55
    46c0:	00279693          	slli	a3,a5,0x2
    46c4:	00f686b3          	add	a3,a3,a5
    46c8:	00df86b3          	add	a3,t6,a3
    46cc:	ef9ff06f          	j	45c4 <start+0x74>

000046d0 <main>:
    46d0:	ff010113          	addi	sp,sp,-16
    46d4:	00112623          	sw	ra,12(sp)
    46d8:	040007b7          	lui	a5,0x4000
    46dc:	00812423          	sw	s0,8(sp)
    46e0:	00912223          	sw	s1,4(sp)
    46e4:	00005437          	lui	s0,0x5
    46e8:	ba840413          	addi	s0,s0,-1112 # 4ba8 <current_piece>
    46ec:	0e07a223          	sw	zero,228(a5) # 40000e4 <_stack_end+0x3efaf78>
    46f0:	04042823          	sw	zero,80(s0)
    46f4:	04042a23          	sw	zero,84(s0)
    46f8:	04042c23          	sw	zero,88(s0)
    46fc:	04042e23          	sw	zero,92(s0)
    4700:	06042023          	sw	zero,96(s0)
    4704:	06042223          	sw	zero,100(s0)
    4708:	06042423          	sw	zero,104(s0)
    470c:	06042623          	sw	zero,108(s0)
    4710:	06042823          	sw	zero,112(s0)
    4714:	06042a23          	sw	zero,116(s0)
    4718:	06042c23          	sw	zero,120(s0)
    471c:	06042e23          	sw	zero,124(s0)
    4720:	08042023          	sw	zero,128(s0)
    4724:	08042223          	sw	zero,132(s0)
    4728:	08042423          	sw	zero,136(s0)
    472c:	08042623          	sw	zero,140(s0)
    4730:	08042823          	sw	zero,144(s0)
    4734:	08042a23          	sw	zero,148(s0)
    4738:	08042c23          	sw	zero,152(s0)
    473c:	08042e23          	sw	zero,156(s0)
    4740:	0a042023          	sw	zero,160(s0)
    4744:	0a042223          	sw	zero,164(s0)
    4748:	0a042423          	sw	zero,168(s0)
    474c:	0a042623          	sw	zero,172(s0)
    4750:	0a042823          	sw	zero,176(s0)
    4754:	0a042a23          	sw	zero,180(s0)
    4758:	0a042c23          	sw	zero,184(s0)
    475c:	0a042e23          	sw	zero,188(s0)
    4760:	000054b7          	lui	s1,0x5
    4764:	0c042023          	sw	zero,192(s0)
    4768:	0c042223          	sw	zero,196(s0)
    476c:	0c042423          	sw	zero,200(s0)
    4770:	0c042623          	sw	zero,204(s0)
    4774:	0c042823          	sw	zero,208(s0)
    4778:	0c042a23          	sw	zero,212(s0)
    477c:	0c042c23          	sw	zero,216(s0)
    4780:	0c042e23          	sw	zero,220(s0)
    4784:	0e042023          	sw	zero,224(s0)
    4788:	0e042223          	sw	zero,228(s0)
    478c:	0e042423          	sw	zero,232(s0)
    4790:	0e042623          	sw	zero,236(s0)
    4794:	0e042823          	sw	zero,240(s0)
    4798:	0e042a23          	sw	zero,244(s0)
    479c:	0e042c23          	sw	zero,248(s0)
    47a0:	0e042e23          	sw	zero,252(s0)
    47a4:	10042023          	sw	zero,256(s0)
    47a8:	10042223          	sw	zero,260(s0)
    47ac:	10042423          	sw	zero,264(s0)
    47b0:	10042623          	sw	zero,268(s0)
    47b4:	10042823          	sw	zero,272(s0)
    47b8:	10042a23          	sw	zero,276(s0)
    47bc:	d95ff0ef          	jal	4550 <start>
    47c0:	ba44a503          	lw	a0,-1116(s1) # 4ba4 <VGA>
    47c4:	c05fc0ef          	jal	13c8 <draw_grid>
    47c8:	ffffc737          	lui	a4,0xffffc
    47cc:	040007b7          	lui	a5,0x4000
    47d0:	6bf70713          	addi	a4,a4,1727 # ffffc6bf <_stack_end+0xffef7553>
    47d4:	02e79423          	sh	a4,40(a5) # 4000028 <_stack_end+0x3efaebc>
    47d8:	040007b7          	lui	a5,0x4000
    47dc:	02d00713          	li	a4,45
    47e0:	02e79623          	sh	a4,44(a5) # 400002c <_stack_end+0x3efaec0>
    47e4:	040007b7          	lui	a5,0x4000
    47e8:	00700713          	li	a4,7
    47ec:	02e79223          	sh	a4,36(a5) # 4000024 <_stack_end+0x3efaeb8>
    47f0:	00100713          	li	a4,1
    47f4:	040007b7          	lui	a5,0x4000
    47f8:	0ce7ac23          	sw	a4,216(a5) # 40000d8 <_stack_end+0x3efaf6c>
    47fc:	040007b7          	lui	a5,0x4000
    4800:	0ce7ae23          	sw	a4,220(a5) # 40000dc <_stack_end+0x3efaf70>
    4804:	971fb0ef          	jal	174 <enable_interrupt>
    4808:	040007b7          	lui	a5,0x4000
    480c:	0107a683          	lw	a3,16(a5) # 4000010 <_stack_end+0x3efaea4>
    4810:	24925737          	lui	a4,0x24925
    4814:	92570713          	addi	a4,a4,-1755 # 24924925 <_stack_end+0x2481f7b9>
    4818:	0ff6f693          	zext.b	a3,a3
    481c:	00269793          	slli	a5,a3,0x2
    4820:	00d787b3          	add	a5,a5,a3
    4824:	00479613          	slli	a2,a5,0x4
    4828:	40f60633          	sub	a2,a2,a5
    482c:	0b360613          	addi	a2,a2,179
    4830:	03f67613          	andi	a2,a2,63
    4834:	0ff67693          	zext.b	a3,a2
    4838:	02e6b733          	mulhu	a4,a3,a4
    483c:	000055b7          	lui	a1,0x5
    4840:	d0c5a823          	sw	a2,-752(a1) # 4d10 <seed>
    4844:	000057b7          	lui	a5,0x5
    4848:	97478793          	addi	a5,a5,-1676 # 4974 <pieces>
    484c:	11840613          	addi	a2,s0,280
    4850:	40e685b3          	sub	a1,a3,a4
    4854:	0015d593          	srli	a1,a1,0x1
    4858:	00b70733          	add	a4,a4,a1
    485c:	00275713          	srli	a4,a4,0x2
    4860:	00371593          	slli	a1,a4,0x3
    4864:	40e58733          	sub	a4,a1,a4
    4868:	40e68733          	sub	a4,a3,a4
    486c:	0ff77713          	zext.b	a4,a4
    4870:	00271693          	slli	a3,a4,0x2
    4874:	00e68733          	add	a4,a3,a4
    4878:	00471713          	slli	a4,a4,0x4
    487c:	00e787b3          	add	a5,a5,a4
    4880:	05078713          	addi	a4,a5,80
    4884:	0087a683          	lw	a3,8(a5)
    4888:	0007a503          	lw	a0,0(a5)
    488c:	0047a583          	lw	a1,4(a5)
    4890:	00d62423          	sw	a3,8(a2)
    4894:	00a62023          	sw	a0,0(a2)
    4898:	00b62223          	sw	a1,4(a2)
    489c:	00c7a683          	lw	a3,12(a5)
    48a0:	01078793          	addi	a5,a5,16
    48a4:	01060613          	addi	a2,a2,16
    48a8:	fed62e23          	sw	a3,-4(a2)
    48ac:	fce79ce3          	bne	a5,a4,4884 <main+0x1b4>
    48b0:	8cdfc0ef          	jal	117c <spawn_next>
    48b4:	ba44a503          	lw	a0,-1116(s1)
    48b8:	00040593          	mv	a1,s0
    48bc:	00005437          	lui	s0,0x5
    48c0:	cd5fc0ef          	jal	1594 <draw_shape>
    48c4:	ba44a503          	lw	a0,-1116(s1)
    48c8:	cc040593          	addi	a1,s0,-832 # 4cc0 <next_piece>
    48cc:	e29fc0ef          	jal	16f4 <clear_next_shape>
    48d0:	ba44a503          	lw	a0,-1116(s1)
    48d4:	cc040593          	addi	a1,s0,-832
    48d8:	d89fc0ef          	jal	1660 <draw_next_piece>
    48dc:	0000006f          	j	48dc <main+0x20c>

Disassembly of section .data:

000048e0 <welcome_msg>:
    48e0:	3d3d                	.insn	2, 0x3d3d
    48e2:	3d3d                	.insn	2, 0x3d3d
    48e4:	3d3d                	.insn	2, 0x3d3d
    48e6:	3d3d                	.insn	2, 0x3d3d
    48e8:	3d3d                	.insn	2, 0x3d3d
    48ea:	3d3d                	.insn	2, 0x3d3d
    48ec:	3d3d                	.insn	2, 0x3d3d
    48ee:	3d3d                	.insn	2, 0x3d3d
    48f0:	3d3d                	.insn	2, 0x3d3d
    48f2:	3d3d                	.insn	2, 0x3d3d
    48f4:	3d3d                	.insn	2, 0x3d3d
    48f6:	3d3d                	.insn	2, 0x3d3d
    48f8:	3d3d                	.insn	2, 0x3d3d
    48fa:	3d3d                	.insn	2, 0x3d3d
    48fc:	3d3d                	.insn	2, 0x3d3d
    48fe:	3d3d                	.insn	2, 0x3d3d
    4900:	3d3d                	.insn	2, 0x3d3d
    4902:	3d3d                	.insn	2, 0x3d3d
    4904:	3d3d                	.insn	2, 0x3d3d
    4906:	3d3d                	.insn	2, 0x3d3d
    4908:	3d3d                	.insn	2, 0x3d3d
    490a:	3d3d                	.insn	2, 0x3d3d
    490c:	3d3d                	.insn	2, 0x3d3d
    490e:	3d3d                	.insn	2, 0x3d3d
    4910:	3d0a                	.insn	2, 0x3d0a
    4912:	3d3d                	.insn	2, 0x3d3d
    4914:	3d3d                	.insn	2, 0x3d3d
    4916:	5220                	.insn	2, 0x5220
    4918:	5349                	.insn	2, 0x5349
    491a:	20562d43          	.insn	4, 0x20562d43
    491e:	6f42                	.insn	2, 0x6f42
    4920:	552d746f          	jal	s0,dbe72 <__global_pointer+0xd6ace>
    4924:	2070                	.insn	2, 0x2070
    4926:	7250                	.insn	2, 0x7250
    4928:	7365636f          	jal	t1,5b05e <__global_pointer+0x55cba>
    492c:	6f4e2073          	csrs	0x6f4,t3
    4930:	6f432077          	.insn	4, 0x6f432077
    4934:	706d                	.insn	2, 0x706d
    4936:	656c                	.insn	2, 0x656c
    4938:	6574                	.insn	2, 0x6574
    493a:	3d20                	.insn	2, 0x3d20
    493c:	3d3d                	.insn	2, 0x3d3d
    493e:	3d3d                	.insn	2, 0x3d3d
    4940:	0a3d                	.insn	2, 0x0a3d
    4942:	3d3d                	.insn	2, 0x3d3d
    4944:	3d3d                	.insn	2, 0x3d3d
    4946:	3d3d                	.insn	2, 0x3d3d
    4948:	3d3d                	.insn	2, 0x3d3d
    494a:	3d3d                	.insn	2, 0x3d3d
    494c:	3d3d                	.insn	2, 0x3d3d
    494e:	3d3d                	.insn	2, 0x3d3d
    4950:	3d3d                	.insn	2, 0x3d3d
    4952:	3d3d                	.insn	2, 0x3d3d
    4954:	3d3d                	.insn	2, 0x3d3d
    4956:	3d3d                	.insn	2, 0x3d3d
    4958:	3d3d                	.insn	2, 0x3d3d
    495a:	3d3d                	.insn	2, 0x3d3d
    495c:	3d3d                	.insn	2, 0x3d3d
    495e:	3d3d                	.insn	2, 0x3d3d
    4960:	3d3d                	.insn	2, 0x3d3d
    4962:	3d3d                	.insn	2, 0x3d3d
    4964:	3d3d                	.insn	2, 0x3d3d
    4966:	3d3d                	.insn	2, 0x3d3d
    4968:	3d3d                	.insn	2, 0x3d3d
    496a:	3d3d                	.insn	2, 0x3d3d
    496c:	3d3d                	.insn	2, 0x3d3d
    496e:	3d3d                	.insn	2, 0x3d3d
    4970:	3d3d                	.insn	2, 0x3d3d
    4972:	000a                	.insn	2, 0x000a

00004974 <pieces>:
	...
    4980:	001f 0000 0001      	.insn	6, 0x00010000001f
	...
    4992:	0000                	.insn	2, 0x0000
    4994:	0001                	.insn	2, 0x0001
	...
    49a2:	0000                	.insn	2, 0x0000
    49a4:	0001                	.insn	2, 0x0001
	...
    49b2:	0000                	.insn	2, 0x0000
    49b4:	0001                	.insn	2, 0x0001
	...
    49c2:	0000                	.insn	2, 0x0000
    49c4:	0001                	.insn	2, 0x0001
	...
    49ce:	0000                	.insn	2, 0x0000
    49d0:	00000003          	lb	zero,0(zero) # 0 <_isr_handler>
    49d4:	0000                	.insn	2, 0x0000
    49d6:	0000                	.insn	2, 0x0000
    49d8:	0001                	.insn	2, 0x0001
	...
    49e6:	0000                	.insn	2, 0x0000
    49e8:	0001                	.insn	2, 0x0001
	...
    49f2:	0000                	.insn	2, 0x0000
    49f4:	0001                	.insn	2, 0x0001
    49f6:	0000                	.insn	2, 0x0000
    49f8:	0001                	.insn	2, 0x0001
	...
    4a12:	0000                	.insn	2, 0x0000
    4a14:	0002                	.insn	2, 0x0002
	...
    4a1e:	0000                	.insn	2, 0x0000
    4a20:	00ec                	.insn	2, 0x00ec
    4a22:	0000                	.insn	2, 0x0000
    4a24:	0001                	.insn	2, 0x0001
	...
    4a32:	0000                	.insn	2, 0x0000
    4a34:	0001                	.insn	2, 0x0001
	...
    4a42:	0000                	.insn	2, 0x0000
    4a44:	0001                	.insn	2, 0x0001
    4a46:	0000                	.insn	2, 0x0000
    4a48:	0001                	.insn	2, 0x0001
	...
    4a62:	0000                	.insn	2, 0x0000
    4a64:	00000003          	lb	zero,0(zero) # 0 <_isr_handler>
	...
    4a70:	00fc                	.insn	2, 0x00fc
    4a72:	0000                	.insn	2, 0x0000
    4a74:	0001                	.insn	2, 0x0001
    4a76:	0000                	.insn	2, 0x0000
    4a78:	0001                	.insn	2, 0x0001
	...
    4a82:	0000                	.insn	2, 0x0000
    4a84:	0001                	.insn	2, 0x0001
    4a86:	0000                	.insn	2, 0x0000
    4a88:	0001                	.insn	2, 0x0001
	...
    4ab2:	0000                	.insn	2, 0x0000
    4ab4:	0004                	.insn	2, 0x0004
	...
    4abe:	0000                	.insn	2, 0x0000
    4ac0:	001c                	.insn	2, 0x001c
    4ac2:	0000                	.insn	2, 0x0000
    4ac4:	0001                	.insn	2, 0x0001
	...
    4ad2:	0000                	.insn	2, 0x0000
    4ad4:	0001                	.insn	2, 0x0001
    4ad6:	0000                	.insn	2, 0x0000
    4ad8:	0001                	.insn	2, 0x0001
	...
    4ae6:	0000                	.insn	2, 0x0000
    4ae8:	0001                	.insn	2, 0x0001
	...
    4b02:	0000                	.insn	2, 0x0000
    4b04:	0005                	.insn	2, 0x0005
	...
    4b0e:	0000                	.insn	2, 0x0000
    4b10:	00000063          	beqz	zero,4b10 <pieces+0x19c>
    4b14:	0000                	.insn	2, 0x0000
    4b16:	0000                	.insn	2, 0x0000
    4b18:	0001                	.insn	2, 0x0001
	...
    4b22:	0000                	.insn	2, 0x0000
    4b24:	0001                	.insn	2, 0x0001
    4b26:	0000                	.insn	2, 0x0000
    4b28:	0001                	.insn	2, 0x0001
    4b2a:	0000                	.insn	2, 0x0000
    4b2c:	0001                	.insn	2, 0x0001
	...
    4b52:	0000                	.insn	2, 0x0000
    4b54:	0006                	.insn	2, 0x0006
	...
    4b5e:	0000                	.insn	2, 0x0000
    4b60:	00e0                	.insn	2, 0x00e0
    4b62:	0000                	.insn	2, 0x0000
    4b64:	0001                	.insn	2, 0x0001
    4b66:	0000                	.insn	2, 0x0000
    4b68:	0001                	.insn	2, 0x0001
	...
    4b76:	0000                	.insn	2, 0x0000
    4b78:	0001                	.insn	2, 0x0001
    4b7a:	0000                	.insn	2, 0x0000
    4b7c:	0001                	.insn	2, 0x0001
	...

00004ba4 <VGA>:
    4ba4:	0000                	.insn	2, 0x0000
    4ba6:	0800                	.insn	2, 0x0800

Disassembly of section .rodata:

00004d1c <font5x7-0x2f8>:
    4d1c:	1acc                	.insn	2, 0x1acc
    4d1e:	0000                	.insn	2, 0x0000
    4d20:	1ad8                	.insn	2, 0x1ad8
    4d22:	0000                	.insn	2, 0x0000
    4d24:	1ae4                	.insn	2, 0x1ae4
    4d26:	0000                	.insn	2, 0x0000
    4d28:	1af0                	.insn	2, 0x1af0
    4d2a:	0000                	.insn	2, 0x0000
    4d2c:	1afc                	.insn	2, 0x1afc
    4d2e:	0000                	.insn	2, 0x0000
    4d30:	1b08                	.insn	2, 0x1b08
    4d32:	0000                	.insn	2, 0x0000
    4d34:	1b14                	.insn	2, 0x1b14
    4d36:	0000                	.insn	2, 0x0000
    4d38:	1b20                	.insn	2, 0x1b20
    4d3a:	0000                	.insn	2, 0x0000
    4d3c:	1ac0                	.insn	2, 0x1ac0
    4d3e:	0000                	.insn	2, 0x0000
    4d40:	1ab4                	.insn	2, 0x1ab4
    4d42:	0000                	.insn	2, 0x0000
    4d44:	1d60                	.insn	2, 0x1d60
    4d46:	0000                	.insn	2, 0x0000
    4d48:	1d70                	.insn	2, 0x1d70
    4d4a:	0000                	.insn	2, 0x0000
    4d4c:	1d80                	.insn	2, 0x1d80
    4d4e:	0000                	.insn	2, 0x0000
    4d50:	1d90                	.insn	2, 0x1d90
    4d52:	0000                	.insn	2, 0x0000
    4d54:	1da0                	.insn	2, 0x1da0
    4d56:	0000                	.insn	2, 0x0000
    4d58:	1db0                	.insn	2, 0x1db0
    4d5a:	0000                	.insn	2, 0x0000
    4d5c:	1dc0                	.insn	2, 0x1dc0
    4d5e:	0000                	.insn	2, 0x0000
    4d60:	1dd0                	.insn	2, 0x1dd0
    4d62:	0000                	.insn	2, 0x0000
    4d64:	1de0                	.insn	2, 0x1de0
    4d66:	0000                	.insn	2, 0x0000
    4d68:	1c64                	.insn	2, 0x1c64
    4d6a:	0000                	.insn	2, 0x0000
    4d6c:	1df0                	.insn	2, 0x1df0
    4d6e:	0000                	.insn	2, 0x0000
    4d70:	1e00                	.insn	2, 0x1e00
    4d72:	0000                	.insn	2, 0x0000
    4d74:	1e10                	.insn	2, 0x1e10
    4d76:	0000                	.insn	2, 0x0000
    4d78:	1e20                	.insn	2, 0x1e20
    4d7a:	0000                	.insn	2, 0x0000
    4d7c:	1e30                	.insn	2, 0x1e30
    4d7e:	0000                	.insn	2, 0x0000
    4d80:	1e40                	.insn	2, 0x1e40
    4d82:	0000                	.insn	2, 0x0000
    4d84:	1e50                	.insn	2, 0x1e50
    4d86:	0000                	.insn	2, 0x0000
    4d88:	1e60                	.insn	2, 0x1e60
    4d8a:	0000                	.insn	2, 0x0000
    4d8c:	1e70                	.insn	2, 0x1e70
    4d8e:	0000                	.insn	2, 0x0000
    4d90:	1c90                	.insn	2, 0x1c90
    4d92:	0000                	.insn	2, 0x0000
    4d94:	1e80                	.insn	2, 0x1e80
    4d96:	0000                	.insn	2, 0x0000
    4d98:	1e90                	.insn	2, 0x1e90
    4d9a:	0000                	.insn	2, 0x0000
    4d9c:	1ea0                	.insn	2, 0x1ea0
    4d9e:	0000                	.insn	2, 0x0000
    4da0:	1eb0                	.insn	2, 0x1eb0
    4da2:	0000                	.insn	2, 0x0000
    4da4:	1ec0                	.insn	2, 0x1ec0
    4da6:	0000                	.insn	2, 0x0000
    4da8:	1ed0                	.insn	2, 0x1ed0
    4daa:	0000                	.insn	2, 0x0000
    4dac:	1ee0                	.insn	2, 0x1ee0
    4dae:	0000                	.insn	2, 0x0000
    4db0:	1ef0                	.insn	2, 0x1ef0
    4db2:	0000                	.insn	2, 0x0000
    4db4:	1f00                	.insn	2, 0x1f00
    4db6:	0000                	.insn	2, 0x0000
    4db8:	1cbc                	.insn	2, 0x1cbc
    4dba:	0000                	.insn	2, 0x0000
    4dbc:	1f10                	.insn	2, 0x1f10
    4dbe:	0000                	.insn	2, 0x0000
    4dc0:	1f20                	.insn	2, 0x1f20
    4dc2:	0000                	.insn	2, 0x0000
    4dc4:	1f30                	.insn	2, 0x1f30
    4dc6:	0000                	.insn	2, 0x0000
    4dc8:	1f40                	.insn	2, 0x1f40
    4dca:	0000                	.insn	2, 0x0000
    4dcc:	1f50                	.insn	2, 0x1f50
    4dce:	0000                	.insn	2, 0x0000
    4dd0:	1f60                	.insn	2, 0x1f60
    4dd2:	0000                	.insn	2, 0x0000
    4dd4:	1f70                	.insn	2, 0x1f70
    4dd6:	0000                	.insn	2, 0x0000
    4dd8:	1f80                	.insn	2, 0x1f80
    4dda:	0000                	.insn	2, 0x0000
    4ddc:	1f90                	.insn	2, 0x1f90
    4dde:	0000                	.insn	2, 0x0000
    4de0:	1ce8                	.insn	2, 0x1ce8
    4de2:	0000                	.insn	2, 0x0000
    4de4:	1fa0                	.insn	2, 0x1fa0
    4de6:	0000                	.insn	2, 0x0000
    4de8:	1fb0                	.insn	2, 0x1fb0
    4dea:	0000                	.insn	2, 0x0000
    4dec:	1fc0                	.insn	2, 0x1fc0
    4dee:	0000                	.insn	2, 0x0000
    4df0:	1fd0                	.insn	2, 0x1fd0
    4df2:	0000                	.insn	2, 0x0000
    4df4:	1fe0                	.insn	2, 0x1fe0
    4df6:	0000                	.insn	2, 0x0000
    4df8:	1ff0                	.insn	2, 0x1ff0
    4dfa:	0000                	.insn	2, 0x0000
    4dfc:	2000                	.insn	2, 0x2000
    4dfe:	0000                	.insn	2, 0x0000
    4e00:	2010                	.insn	2, 0x2010
    4e02:	0000                	.insn	2, 0x0000
    4e04:	2020                	.insn	2, 0x2020
    4e06:	0000                	.insn	2, 0x0000
    4e08:	1d14                	.insn	2, 0x1d14
    4e0a:	0000                	.insn	2, 0x0000
    4e0c:	2030                	.insn	2, 0x2030
    4e0e:	0000                	.insn	2, 0x0000
    4e10:	2040                	.insn	2, 0x2040
    4e12:	0000                	.insn	2, 0x0000
    4e14:	2050                	.insn	2, 0x2050
    4e16:	0000                	.insn	2, 0x0000
    4e18:	2060                	.insn	2, 0x2060
    4e1a:	0000                	.insn	2, 0x0000
    4e1c:	2070                	.insn	2, 0x2070
    4e1e:	0000                	.insn	2, 0x0000
    4e20:	2080                	.insn	2, 0x2080
    4e22:	0000                	.insn	2, 0x0000
    4e24:	2090                	.insn	2, 0x2090
    4e26:	0000                	.insn	2, 0x0000
    4e28:	20a0                	.insn	2, 0x20a0
    4e2a:	0000                	.insn	2, 0x0000
    4e2c:	1d50                	.insn	2, 0x1d50
    4e2e:	0000                	.insn	2, 0x0000
    4e30:	1d40                	.insn	2, 0x1d40
    4e32:	0000                	.insn	2, 0x0000
    4e34:	3394                	.insn	2, 0x3394
    4e36:	0000                	.insn	2, 0x0000
    4e38:	3384                	.insn	2, 0x3384
    4e3a:	0000                	.insn	2, 0x0000
    4e3c:	3344                	.insn	2, 0x3344
    4e3e:	0000                	.insn	2, 0x0000
    4e40:	3334                	.insn	2, 0x3334
    4e42:	0000                	.insn	2, 0x0000
    4e44:	3324                	.insn	2, 0x3324
    4e46:	0000                	.insn	2, 0x0000
    4e48:	3314                	.insn	2, 0x3314
    4e4a:	0000                	.insn	2, 0x0000
    4e4c:	3364                	.insn	2, 0x3364
    4e4e:	0000                	.insn	2, 0x0000
    4e50:	3354                	.insn	2, 0x3354
    4e52:	0000                	.insn	2, 0x0000
    4e54:	3374                	.insn	2, 0x3374
    4e56:	0000                	.insn	2, 0x0000
    4e58:	3238                	.insn	2, 0x3238
    4e5a:	0000                	.insn	2, 0x0000
    4e5c:	3480                	.insn	2, 0x3480
    4e5e:	0000                	.insn	2, 0x0000
    4e60:	3470                	.insn	2, 0x3470
    4e62:	0000                	.insn	2, 0x0000
    4e64:	35d8                	.insn	2, 0x35d8
    4e66:	0000                	.insn	2, 0x0000
    4e68:	35c8                	.insn	2, 0x35c8
    4e6a:	0000                	.insn	2, 0x0000
    4e6c:	35b8                	.insn	2, 0x35b8
    4e6e:	0000                	.insn	2, 0x0000
    4e70:	35a8                	.insn	2, 0x35a8
    4e72:	0000                	.insn	2, 0x0000
    4e74:	34b0                	.insn	2, 0x34b0
    4e76:	0000                	.insn	2, 0x0000
    4e78:	34a0                	.insn	2, 0x34a0
    4e7a:	0000                	.insn	2, 0x0000
    4e7c:	3490                	.insn	2, 0x3490
    4e7e:	0000                	.insn	2, 0x0000
    4e80:	3264                	.insn	2, 0x3264
    4e82:	0000                	.insn	2, 0x0000
    4e84:	3598                	.insn	2, 0x3598
    4e86:	0000                	.insn	2, 0x0000
    4e88:	3588                	.insn	2, 0x3588
    4e8a:	0000                	.insn	2, 0x0000
    4e8c:	3578                	.insn	2, 0x3578
    4e8e:	0000                	.insn	2, 0x0000
    4e90:	3568                	.insn	2, 0x3568
    4e92:	0000                	.insn	2, 0x0000
    4e94:	3688                	.insn	2, 0x3688
    4e96:	0000                	.insn	2, 0x0000
    4e98:	3678                	.insn	2, 0x3678
    4e9a:	0000                	.insn	2, 0x0000
    4e9c:	3668                	.insn	2, 0x3668
    4e9e:	0000                	.insn	2, 0x0000
    4ea0:	3658                	.insn	2, 0x3658
    4ea2:	0000                	.insn	2, 0x0000
    4ea4:	3648                	.insn	2, 0x3648
    4ea6:	0000                	.insn	2, 0x0000
    4ea8:	3290                	.insn	2, 0x3290
    4eaa:	0000                	.insn	2, 0x0000
    4eac:	3638                	.insn	2, 0x3638
    4eae:	0000                	.insn	2, 0x0000
    4eb0:	3628                	.insn	2, 0x3628
    4eb2:	0000                	.insn	2, 0x0000
    4eb4:	3618                	.insn	2, 0x3618
    4eb6:	0000                	.insn	2, 0x0000
    4eb8:	3608                	.insn	2, 0x3608
    4eba:	0000                	.insn	2, 0x0000
    4ebc:	35f8                	.insn	2, 0x35f8
    4ebe:	0000                	.insn	2, 0x0000
    4ec0:	35e8                	.insn	2, 0x35e8
    4ec2:	0000                	.insn	2, 0x0000
    4ec4:	3410                	.insn	2, 0x3410
    4ec6:	0000                	.insn	2, 0x0000
    4ec8:	3400                	.insn	2, 0x3400
    4eca:	0000                	.insn	2, 0x0000
    4ecc:	33f0                	.insn	2, 0x33f0
    4ece:	0000                	.insn	2, 0x0000
    4ed0:	32bc                	.insn	2, 0x32bc
    4ed2:	0000                	.insn	2, 0x0000
    4ed4:	33e0                	.insn	2, 0x33e0
    4ed6:	0000                	.insn	2, 0x0000
    4ed8:	3530                	.insn	2, 0x3530
    4eda:	0000                	.insn	2, 0x0000
    4edc:	3520                	.insn	2, 0x3520
    4ede:	0000                	.insn	2, 0x0000
    4ee0:	3510                	.insn	2, 0x3510
    4ee2:	0000                	.insn	2, 0x0000
    4ee4:	3500                	.insn	2, 0x3500
    4ee6:	0000                	.insn	2, 0x0000
    4ee8:	34f0                	.insn	2, 0x34f0
    4eea:	0000                	.insn	2, 0x0000
    4eec:	34e0                	.insn	2, 0x34e0
    4eee:	0000                	.insn	2, 0x0000
    4ef0:	34d0                	.insn	2, 0x34d0
    4ef2:	0000                	.insn	2, 0x0000
    4ef4:	34c0                	.insn	2, 0x34c0
    4ef6:	0000                	.insn	2, 0x0000
    4ef8:	32e8                	.insn	2, 0x32e8
    4efa:	0000                	.insn	2, 0x0000
    4efc:	2f2c                	.insn	2, 0x2f2c
    4efe:	0000                	.insn	2, 0x0000
    4f00:	3540                	.insn	2, 0x3540
    4f02:	0000                	.insn	2, 0x0000
    4f04:	345c                	.insn	2, 0x345c
    4f06:	0000                	.insn	2, 0x0000
    4f08:	3448                	.insn	2, 0x3448
    4f0a:	0000                	.insn	2, 0x0000
    4f0c:	3434                	.insn	2, 0x3434
    4f0e:	0000                	.insn	2, 0x0000
    4f10:	3420                	.insn	2, 0x3420
    4f12:	0000                	.insn	2, 0x0000
    4f14:	33cc                	.insn	2, 0x33cc
    4f16:	0000                	.insn	2, 0x0000
    4f18:	33b8                	.insn	2, 0x33b8
    4f1a:	0000                	.insn	2, 0x0000
    4f1c:	33a4                	.insn	2, 0x33a4
    4f1e:	0000                	.insn	2, 0x0000
    4f20:	3554                	.insn	2, 0x3554
    4f22:	0000                	.insn	2, 0x0000
    4f24:	3a34                	.insn	2, 0x3a34
    4f26:	0000                	.insn	2, 0x0000
    4f28:	3a44                	.insn	2, 0x3a44
    4f2a:	0000                	.insn	2, 0x0000
    4f2c:	3a54                	.insn	2, 0x3a54
    4f2e:	0000                	.insn	2, 0x0000
    4f30:	3a64                	.insn	2, 0x3a64
    4f32:	0000                	.insn	2, 0x0000
    4f34:	3a74                	.insn	2, 0x3a74
    4f36:	0000                	.insn	2, 0x0000
    4f38:	3a84                	.insn	2, 0x3a84
    4f3a:	0000                	.insn	2, 0x0000
    4f3c:	3a94                	.insn	2, 0x3a94
    4f3e:	0000                	.insn	2, 0x0000
    4f40:	3aa4                	.insn	2, 0x3aa4
    4f42:	0000                	.insn	2, 0x0000
    4f44:	3a24                	.insn	2, 0x3a24
    4f46:	0000                	.insn	2, 0x0000
    4f48:	393c                	.insn	2, 0x393c
    4f4a:	0000                	.insn	2, 0x0000
    4f4c:	3ab4                	.insn	2, 0x3ab4
    4f4e:	0000                	.insn	2, 0x0000
    4f50:	3ac4                	.insn	2, 0x3ac4
    4f52:	0000                	.insn	2, 0x0000
    4f54:	3bc4                	.insn	2, 0x3bc4
    4f56:	0000                	.insn	2, 0x0000
    4f58:	3bd4                	.insn	2, 0x3bd4
    4f5a:	0000                	.insn	2, 0x0000
    4f5c:	3be4                	.insn	2, 0x3be4
    4f5e:	0000                	.insn	2, 0x0000
    4f60:	3bf4                	.insn	2, 0x3bf4
    4f62:	0000                	.insn	2, 0x0000
    4f64:	3c04                	.insn	2, 0x3c04
    4f66:	0000                	.insn	2, 0x0000
    4f68:	3c14                	.insn	2, 0x3c14
    4f6a:	0000                	.insn	2, 0x0000
    4f6c:	3c24                	.insn	2, 0x3c24
    4f6e:	0000                	.insn	2, 0x0000
    4f70:	395c                	.insn	2, 0x395c
    4f72:	0000                	.insn	2, 0x0000
    4f74:	3ad4                	.insn	2, 0x3ad4
    4f76:	0000                	.insn	2, 0x0000
    4f78:	3ae4                	.insn	2, 0x3ae4
    4f7a:	0000                	.insn	2, 0x0000
    4f7c:	3af4                	.insn	2, 0x3af4
    4f7e:	0000                	.insn	2, 0x0000
    4f80:	3b04                	.insn	2, 0x3b04
    4f82:	0000                	.insn	2, 0x0000
    4f84:	3b14                	.insn	2, 0x3b14
    4f86:	0000                	.insn	2, 0x0000
    4f88:	3b24                	.insn	2, 0x3b24
    4f8a:	0000                	.insn	2, 0x0000
    4f8c:	3b34                	.insn	2, 0x3b34
    4f8e:	0000                	.insn	2, 0x0000
    4f90:	3b44                	.insn	2, 0x3b44
    4f92:	0000                	.insn	2, 0x0000
    4f94:	3b54                	.insn	2, 0x3b54
    4f96:	0000                	.insn	2, 0x0000
    4f98:	3980                	.insn	2, 0x3980
    4f9a:	0000                	.insn	2, 0x0000
    4f9c:	3b64                	.insn	2, 0x3b64
    4f9e:	0000                	.insn	2, 0x0000
    4fa0:	3b74                	.insn	2, 0x3b74
    4fa2:	0000                	.insn	2, 0x0000
    4fa4:	3b84                	.insn	2, 0x3b84
    4fa6:	0000                	.insn	2, 0x0000
    4fa8:	3b94                	.insn	2, 0x3b94
    4faa:	0000                	.insn	2, 0x0000
    4fac:	3ba4                	.insn	2, 0x3ba4
    4fae:	0000                	.insn	2, 0x0000
    4fb0:	3bb4                	.insn	2, 0x3bb4
    4fb2:	0000                	.insn	2, 0x0000
    4fb4:	3ca4                	.insn	2, 0x3ca4
    4fb6:	0000                	.insn	2, 0x0000
    4fb8:	3cb4                	.insn	2, 0x3cb4
    4fba:	0000                	.insn	2, 0x0000
    4fbc:	3cc4                	.insn	2, 0x3cc4
    4fbe:	0000                	.insn	2, 0x0000
    4fc0:	39a4                	.insn	2, 0x39a4
    4fc2:	0000                	.insn	2, 0x0000
    4fc4:	3cd4                	.insn	2, 0x3cd4
    4fc6:	0000                	.insn	2, 0x0000
    4fc8:	3ce4                	.insn	2, 0x3ce4
    4fca:	0000                	.insn	2, 0x0000
    4fcc:	3cf4                	.insn	2, 0x3cf4
    4fce:	0000                	.insn	2, 0x0000
    4fd0:	3d04                	.insn	2, 0x3d04
    4fd2:	0000                	.insn	2, 0x0000
    4fd4:	3d14                	.insn	2, 0x3d14
    4fd6:	0000                	.insn	2, 0x0000
    4fd8:	3d24                	.insn	2, 0x3d24
    4fda:	0000                	.insn	2, 0x0000
    4fdc:	3d34                	.insn	2, 0x3d34
    4fde:	0000                	.insn	2, 0x0000
    4fe0:	3d44                	.insn	2, 0x3d44
    4fe2:	0000                	.insn	2, 0x0000
    4fe4:	3d54                	.insn	2, 0x3d54
    4fe6:	0000                	.insn	2, 0x0000
    4fe8:	39c8                	.insn	2, 0x39c8
    4fea:	0000                	.insn	2, 0x0000
    4fec:	3d74                	.insn	2, 0x3d74
    4fee:	0000                	.insn	2, 0x0000
    4ff0:	3d84                	.insn	2, 0x3d84
    4ff2:	0000                	.insn	2, 0x0000
    4ff4:	3c64                	.insn	2, 0x3c64
    4ff6:	0000                	.insn	2, 0x0000
    4ff8:	3c74                	.insn	2, 0x3c74
    4ffa:	0000                	.insn	2, 0x0000
    4ffc:	3c84                	.insn	2, 0x3c84
    4ffe:	0000                	.insn	2, 0x0000
    5000:	3c94                	.insn	2, 0x3c94
    5002:	0000                	.insn	2, 0x0000
    5004:	3c44                	.insn	2, 0x3c44
    5006:	0000                	.insn	2, 0x0000
    5008:	3c54                	.insn	2, 0x3c54
    500a:	0000                	.insn	2, 0x0000
    500c:	3c34                	.insn	2, 0x3c34
    500e:	0000                	.insn	2, 0x0000
    5010:	3d64                	.insn	2, 0x3d64
	...

00005014 <font5x7>:
    5014:	513e                	.insn	2, 0x513e
    5016:	4549                	.insn	2, 0x4549
    5018:	003e                	.insn	2, 0x003e
    501a:	7f42                	.insn	2, 0x7f42
    501c:	0040                	.insn	2, 0x0040
    501e:	6142                	.insn	2, 0x6142
    5020:	4951                	.insn	2, 0x4951
    5022:	2146                	.insn	2, 0x2146
    5024:	4541                	.insn	2, 0x4541
    5026:	1418314b          	.insn	4, 0x1418314b
    502a:	7f12                	.insn	2, 0x7f12
    502c:	2710                	.insn	2, 0x2710
    502e:	4545                	.insn	2, 0x4545
    5030:	3945                	.insn	2, 0x3945
    5032:	4a3c                	.insn	2, 0x4a3c
    5034:	4949                	.insn	2, 0x4949
    5036:	0130                	.insn	2, 0x0130
    5038:	0971                	.insn	2, 0x0971
    503a:	0305                	.insn	2, 0x0305
    503c:	4936                	.insn	2, 0x4936
    503e:	4949                	.insn	2, 0x4949
    5040:	0636                	.insn	2, 0x0636
    5042:	4949                	.insn	2, 0x4949
    5044:	1e29                	.insn	2, 0x1e29
    5046:	117e                	.insn	2, 0x117e
    5048:	7e11                	.insn	2, 0x7e11
    504a:	7f00                	.insn	2, 0x7f00
    504c:	4949                	.insn	2, 0x4949
    504e:	0036                	.insn	2, 0x0036
    5050:	413e                	.insn	2, 0x413e
    5052:	2241                	.insn	2, 0x2241
    5054:	7f00                	.insn	2, 0x7f00
    5056:	4141                	.insn	2, 0x4141
    5058:	003e                	.insn	2, 0x003e
    505a:	497f 4149 7f00 0909 	.insn	18, 0x08087f007251413e000109097f004149497f
    5062:	0001 413e 7251 7f00 
    506a:	0808 
    506c:	007f 4100 417f 2000 	.insn	10, 0x41402000417f4100007f
    5074:	4140 
    5076:	087f003f 7f006314 	.insn	8, 0x7f006314087f003f
    507e:	4040                	.insn	2, 0x4040
    5080:	0040                	.insn	2, 0x0040
    5082:	067f 7f06 7f00 1806 	.insn	10, 0x007f18067f007f06067f
    508a:	007f 
    508c:	413e                	.insn	2, 0x413e
    508e:	3e41                	.insn	2, 0x3e41
    5090:	7f00                	.insn	2, 0x7f00
    5092:	0909                	.insn	2, 0x0909
    5094:	0006                	.insn	2, 0x0006
    5096:	413e                	.insn	2, 0x413e
    5098:	7e61                	.insn	2, 0x7e61
    509a:	7f00                	.insn	2, 0x7f00
    509c:	1909                	.insn	2, 0x1909
    509e:	0066                	.insn	2, 0x0066
    50a0:	4926                	.insn	2, 0x4926
    50a2:	3249                	.insn	2, 0x3249
    50a4:	0100                	.insn	2, 0x0100
    50a6:	017f 0001 403f 3f40 	.insn	10, 0x1f003f40403f0001017f
    50ae:	1f00 
    50b0:	6060                	.insn	2, 0x6060
    50b2:	001f 307f 7f30      	.insn	6, 0x7f30307f001f
    50b8:	6300                	.insn	2, 0x6300
    50ba:	1c1c                	.insn	2, 0x1c1c
    50bc:	78070063          	beqz	a4,583c <__global_pointer+0x498>
    50c0:	0708                	.insn	2, 0x0708
    50c2:	6100                	.insn	2, 0x6100
    50c4:	4951                	.insn	2, 0x4951
    50c6:	0047                	.short	0x0047

Disassembly of section .rodata.str1.4:

000050c8 <.rodata.str1.4>:
    50c8:	5b0a                	.insn	2, 0x5b0a
    50ca:	5845                	.insn	2, 0x5845
    50cc:	54504543          	.insn	4, 0x54504543
    50d0:	4f49                	.insn	2, 0x4f49
    50d2:	5d4e                	.insn	2, 0x5d4e
    50d4:	4920                	.insn	2, 0x4920
    50d6:	736e                	.insn	2, 0x736e
    50d8:	7274                	.insn	2, 0x7274
    50da:	6375                	.insn	2, 0x6375
    50dc:	6974                	.insn	2, 0x6974
    50de:	61206e6f          	jal	t3,b6f0 <__global_pointer+0x634c>
    50e2:	6464                	.insn	2, 0x6464
    50e4:	6572                	.insn	2, 0x6572
    50e6:	6d207373          	csrrci	t1,0x6d2,0
    50ea:	7369                	.insn	2, 0x7369
    50ec:	6c61                	.insn	2, 0x6c61
    50ee:	6769                	.insn	2, 0x6769
    50f0:	6d6e                	.insn	2, 0x6d6e
    50f2:	6e65                	.insn	2, 0x6e65
    50f4:	2e74                	.insn	2, 0x2e74
    50f6:	0020                	.insn	2, 0x0020
    50f8:	5b0a                	.insn	2, 0x5b0a
    50fa:	5845                	.insn	2, 0x5845
    50fc:	54504543          	.insn	4, 0x54504543
    5100:	4f49                	.insn	2, 0x4f49
    5102:	5d4e                	.insn	2, 0x5d4e
    5104:	4920                	.insn	2, 0x4920
    5106:	6c6c                	.insn	2, 0x6c6c
    5108:	6765                	.insn	2, 0x6765
    510a:	6c61                	.insn	2, 0x6c61
    510c:	6920                	.insn	2, 0x6920
    510e:	736e                	.insn	2, 0x736e
    5110:	7274                	.insn	2, 0x7274
    5112:	6375                	.insn	2, 0x6375
    5114:	6974                	.insn	2, 0x6974
    5116:	202e6e6f          	jal	t3,eb318 <__global_pointer+0xe5f74>
    511a:	0000                	.insn	2, 0x0000
    511c:	5b0a                	.insn	2, 0x5b0a
    511e:	5845                	.insn	2, 0x5845
    5120:	54504543          	.insn	4, 0x54504543
    5124:	4f49                	.insn	2, 0x4f49
    5126:	5d4e                	.insn	2, 0x5d4e
    5128:	5520                	.insn	2, 0x5520
    512a:	6b6e                	.insn	2, 0x6b6e
    512c:	6f6e                	.insn	2, 0x6f6e
    512e:	65206e77          	.insn	4, 0x65206e77
    5132:	7272                	.insn	2, 0x7272
    5134:	202e726f          	jal	tp,ec336 <__global_pointer+0xe6f92>
    5138:	0000                	.insn	2, 0x0000
    513a:	0000                	.insn	2, 0x0000
    513c:	7845                	.insn	2, 0x7845
    513e:	74706563          	bltu	zero,t2,5888 <__global_pointer+0x4e4>
    5142:	6f69                	.insn	2, 0x6f69
    5144:	206e                	.insn	2, 0x206e
    5146:	6441                	.insn	2, 0x6441
    5148:	7264                	.insn	2, 0x7264
    514a:	7365                	.insn	2, 0x7365
    514c:	00203a73          	csrrc	s4,frm,zero
    5150:	454d4147          	.insn	4, 0x454d4147
    5154:	4f20                	.insn	2, 0x4f20
    5156:	4556                	.insn	2, 0x4556
    5158:	0052                	.insn	2, 0x0052
    515a:	0000                	.insn	2, 0x0000
    515c:	524f4353          	.insn	4, 0x524f4353
    5160:	0045                	.insn	2, 0x0045
    5162:	0000                	.insn	2, 0x0000
    5164:	4554                	.insn	2, 0x4554
    5166:	5254                	.insn	2, 0x5254
    5168:	5349                	.insn	2, 0x5349
	...

Disassembly of section .comment:

00000000 <.comment>:
   0:	3a434347          	.insn	4, 0x3a434347
   4:	2820                	.insn	2, 0x2820
   6:	2029                	.insn	2, 0x2029
   8:	3531                	.insn	2, 0x3531
   a:	312e                	.insn	2, 0x312e
   c:	302e                	.insn	2, 0x302e
	...

Disassembly of section .riscv.attributes:

00000000 <.riscv.attributes>:
   0:	3641                	.insn	2, 0x3641
   2:	0000                	.insn	2, 0x0000
   4:	7200                	.insn	2, 0x7200
   6:	7369                	.insn	2, 0x7369
   8:	01007663          	bgeu	zero,a6,14 <_isr_routine+0xc>
   c:	002c                	.insn	2, 0x002c
   e:	0000                	.insn	2, 0x0000
  10:	1004                	.insn	2, 0x1004
  12:	7205                	.insn	2, 0x7205
  14:	3376                	.insn	2, 0x3376
  16:	6932                	.insn	2, 0x6932
  18:	7032                	.insn	2, 0x7032
  1a:	5f31                	.insn	2, 0x5f31
  1c:	326d                	.insn	2, 0x326d
  1e:	3070                	.insn	2, 0x3070
  20:	7a5f 6369 7273      	.insn	6, 0x727363697a5f
  26:	7032                	.insn	2, 0x7032
  28:	5f30                	.insn	2, 0x5f30
  2a:	6d7a                	.insn	2, 0x6d7a
  2c:	756d                	.insn	2, 0x756d
  2e:	316c                	.insn	2, 0x316c
  30:	3070                	.insn	2, 0x3070
  32:	0800                	.insn	2, 0x0800
  34:	0a01                	.insn	2, 0x0a01
  36:	0b                	.byte	0x0b
