
main.elf:     file format elf32-littleriscv


Disassembly of section .text:

00000000 <_isr_handler>:
       0:	0080006f          	j	8 <_isr_routine>
       4:	1440006f          	j	148 <_start>

00000008 <_isr_routine>:
       8:	f8010113          	addi	sp,sp,-128
       c:	00112023          	sw	ra,0(sp)
      10:	00312423          	sw	gp,8(sp)
      14:	00412623          	sw	tp,12(sp)
      18:	00512823          	sw	t0,16(sp)
      1c:	00612a23          	sw	t1,20(sp)
      20:	00712c23          	sw	t2,24(sp)
      24:	00812e23          	sw	s0,28(sp)
      28:	02912023          	sw	s1,32(sp)
      2c:	02a12223          	sw	a0,36(sp)
      30:	02b12423          	sw	a1,40(sp)
      34:	02c12623          	sw	a2,44(sp)
      38:	02d12823          	sw	a3,48(sp)
      3c:	02e12a23          	sw	a4,52(sp)
      40:	02f12c23          	sw	a5,56(sp)
      44:	03012e23          	sw	a6,60(sp)
      48:	05112023          	sw	a7,64(sp)
      4c:	05212223          	sw	s2,68(sp)
      50:	05312423          	sw	s3,72(sp)
      54:	05412623          	sw	s4,76(sp)
      58:	05512823          	sw	s5,80(sp)
      5c:	05612a23          	sw	s6,84(sp)
      60:	05712c23          	sw	s7,88(sp)
      64:	05812e23          	sw	s8,92(sp)
      68:	07912023          	sw	s9,96(sp)
      6c:	07a12223          	sw	s10,100(sp)
      70:	07b12423          	sw	s11,104(sp)
      74:	07c12623          	sw	t3,108(sp)
      78:	07d12823          	sw	t4,112(sp)
      7c:	07e12a23          	sw	t5,116(sp)
      80:	07f12c23          	sw	t6,120(sp)
      84:	342022f3          	csrr	t0,mcause
      88:	80000337          	lui	t1,0x80000
      8c:	02536463          	bltu	t1,t0,b4 <external_irq>
      90:	00028833          	add	a6,t0,zero
      94:	00b00313          	li	t1,11
      98:	00628463          	beq	t0,t1,a0 <skip_init_args>
      9c:	34102573          	csrr	a0,mepc

000000a0 <skip_init_args>:
      a0:	258000ef          	jal	2f8 <handle_exception>
      a4:	341022f3          	csrr	t0,mepc
      a8:	00428293          	addi	t0,t0,4
      ac:	34129073          	csrw	mepc,t0
      b0:	0180006f          	j	c8 <restore>

000000b4 <external_irq>:
      b4:	800002b7          	lui	t0,0x80000
      b8:	fff28293          	addi	t0,t0,-1 # 7fffffff <_stack_end+0x7fef364f>
      bc:	34202373          	csrr	t1,mcause
      c0:	0062f533          	and	a0,t0,t1
      c4:	00c060ef          	jal	60d0 <handle_interrupt>

000000c8 <restore>:
      c8:	00012083          	lw	ra,0(sp)
      cc:	00812183          	lw	gp,8(sp)
      d0:	00c12203          	lw	tp,12(sp)
      d4:	01012283          	lw	t0,16(sp)
      d8:	01412303          	lw	t1,20(sp)
      dc:	01812383          	lw	t2,24(sp)
      e0:	01c12403          	lw	s0,28(sp)
      e4:	02012483          	lw	s1,32(sp)
      e8:	02412503          	lw	a0,36(sp)
      ec:	02812583          	lw	a1,40(sp)
      f0:	02c12603          	lw	a2,44(sp)
      f4:	03012683          	lw	a3,48(sp)
      f8:	03412703          	lw	a4,52(sp)
      fc:	03812783          	lw	a5,56(sp)
     100:	03c12803          	lw	a6,60(sp)
     104:	04012883          	lw	a7,64(sp)
     108:	04412903          	lw	s2,68(sp)
     10c:	04812983          	lw	s3,72(sp)
     110:	04c12a03          	lw	s4,76(sp)
     114:	05012a83          	lw	s5,80(sp)
     118:	05412b03          	lw	s6,84(sp)
     11c:	05812b83          	lw	s7,88(sp)
     120:	05c12c03          	lw	s8,92(sp)
     124:	06012c83          	lw	s9,96(sp)
     128:	06412d03          	lw	s10,100(sp)
     12c:	06812d83          	lw	s11,104(sp)
     130:	06c12e03          	lw	t3,108(sp)
     134:	07012e83          	lw	t4,112(sp)
     138:	07412f03          	lw	t5,116(sp)
     13c:	07812f83          	lw	t6,120(sp)
     140:	08010113          	addi	sp,sp,128
     144:	30200073          	mret

00000148 <_start>:
     148:	30401073          	csrw	mie,zero
     14c:	0010d117          	auipc	sp,0x10d
     150:	86410113          	addi	sp,sp,-1948 # 10c9b0 <_stack_end>
     154:	00007197          	auipc	gp,0x7
     158:	ffc18193          	addi	gp,gp,-4 # 7150 <__global_pointer>
     15c:	00006517          	auipc	a0,0x6
     160:	53050513          	addi	a0,a0,1328 # 668c <welcome_msg>
     164:	00400893          	li	a7,4
     168:	00000073          	ecall
     16c:	0c0060ef          	jal	622c <main>

00000170 <loop>:
     170:	0000006f          	j	170 <loop>

00000174 <enable_interrupt>:
     174:	30486073          	csrsi	mie,16
     178:	30496073          	csrsi	mie,18
     17c:	3001e073          	csrsi	mstatus,3
     180:	00008067          	ret

00000184 <printc>:
     184:	04000737          	lui	a4,0x4000
     188:	04470713          	addi	a4,a4,68 # 4000044 <_stack_end+0x3ef3694>
     18c:	000106b7          	lui	a3,0x10
     190:	00072783          	lw	a5,0(a4)
     194:	fed7eee3          	bltu	a5,a3,190 <printc+0xc>
     198:	040007b7          	lui	a5,0x4000
     19c:	04a7a023          	sw	a0,64(a5) # 4000040 <_stack_end+0x3ef3690>
     1a0:	00008067          	ret

000001a4 <print>:
     1a4:	00054603          	lbu	a2,0(a0)
     1a8:	02060863          	beqz	a2,1d8 <print+0x34>
     1ac:	04000737          	lui	a4,0x4000
     1b0:	040005b7          	lui	a1,0x4000
     1b4:	04470713          	addi	a4,a4,68 # 4000044 <_stack_end+0x3ef3694>
     1b8:	04058593          	addi	a1,a1,64 # 4000040 <_stack_end+0x3ef3690>
     1bc:	000106b7          	lui	a3,0x10
     1c0:	00072783          	lw	a5,0(a4)
     1c4:	fed7eee3          	bltu	a5,a3,1c0 <print+0x1c>
     1c8:	00c5a023          	sw	a2,0(a1)
     1cc:	00154603          	lbu	a2,1(a0)
     1d0:	00150513          	addi	a0,a0,1
     1d4:	fe0616e3          	bnez	a2,1c0 <print+0x1c>
     1d8:	00008067          	ret

000001dc <print_dec>:
     1dc:	3b9ad737          	lui	a4,0x3b9ad
     1e0:	040006b7          	lui	a3,0x4000
     1e4:	04000337          	lui	t1,0x4000
     1e8:	ccccd8b7          	lui	a7,0xccccd
     1ec:	a0070713          	addi	a4,a4,-1536 # 3b9aca00 <_stack_end+0x3b8a0050>
     1f0:	04468693          	addi	a3,a3,68 # 4000044 <_stack_end+0x3ef3694>
     1f4:	04030313          	addi	t1,t1,64 # 4000040 <_stack_end+0x3ef3690>
     1f8:	ccd88893          	addi	a7,a7,-819 # cccccccd <_stack_end+0xccbc031d>
     1fc:	00a00593          	li	a1,10
     200:	00000793          	li	a5,0
     204:	00010637          	lui	a2,0x10
     208:	04e57663          	bgeu	a0,a4,254 <print_dec+0x78>
     20c:	00078813          	mv	a6,a5
     210:	00000793          	li	a5,0
     214:	04081063          	bnez	a6,254 <print_dec+0x78>
     218:	03173833          	mulhu	a6,a4,a7
     21c:	fff58593          	addi	a1,a1,-1
     220:	02e57533          	remu	a0,a0,a4
     224:	00385713          	srli	a4,a6,0x3
     228:	fe0590e3          	bnez	a1,208 <print_dec+0x2c>
     22c:	02079263          	bnez	a5,250 <print_dec+0x74>
     230:	04000737          	lui	a4,0x4000
     234:	04470713          	addi	a4,a4,68 # 4000044 <_stack_end+0x3ef3694>
     238:	000106b7          	lui	a3,0x10
     23c:	00072783          	lw	a5,0(a4)
     240:	fed7eee3          	bltu	a5,a3,23c <print_dec+0x60>
     244:	040007b7          	lui	a5,0x4000
     248:	03000713          	li	a4,48
     24c:	04e7a023          	sw	a4,64(a5) # 4000040 <_stack_end+0x3ef3690>
     250:	00008067          	ret
     254:	02e55833          	divu	a6,a0,a4
     258:	03080813          	addi	a6,a6,48
     25c:	0ff87813          	zext.b	a6,a6
     260:	0006a783          	lw	a5,0(a3) # 10000 <font5x7+0x3778>
     264:	fec7eee3          	bltu	a5,a2,260 <print_dec+0x84>
     268:	01032023          	sw	a6,0(t1)
     26c:	00100793          	li	a5,1
     270:	fa9ff06f          	j	218 <print_dec+0x3c>

00000274 <print_hex32>:
     274:	04000737          	lui	a4,0x4000
     278:	04470713          	addi	a4,a4,68 # 4000044 <_stack_end+0x3ef3694>
     27c:	000106b7          	lui	a3,0x10
     280:	00072783          	lw	a5,0(a4)
     284:	fed7eee3          	bltu	a5,a3,280 <print_hex32+0xc>
     288:	040007b7          	lui	a5,0x4000
     28c:	03000693          	li	a3,48
     290:	04d7a023          	sw	a3,64(a5) # 4000040 <_stack_end+0x3ef3690>
     294:	04478713          	addi	a4,a5,68
     298:	000106b7          	lui	a3,0x10
     29c:	00072783          	lw	a5,0(a4)
     2a0:	fed7eee3          	bltu	a5,a3,29c <print_hex32+0x28>
     2a4:	04000837          	lui	a6,0x4000
     2a8:	04080813          	addi	a6,a6,64 # 4000040 <_stack_end+0x3ef3690>
     2ac:	07800793          	li	a5,120
     2b0:	04000737          	lui	a4,0x4000
     2b4:	00f82023          	sw	a5,0(a6)
     2b8:	04470713          	addi	a4,a4,68 # 4000044 <_stack_end+0x3ef3694>
     2bc:	01c00613          	li	a2,28
     2c0:	00900313          	li	t1,9
     2c4:	000106b7          	lui	a3,0x10
     2c8:	ffc00893          	li	a7,-4
     2cc:	00c557b3          	srl	a5,a0,a2
     2d0:	00f7f793          	andi	a5,a5,15
     2d4:	03778593          	addi	a1,a5,55
     2d8:	00f36463          	bltu	t1,a5,2e0 <print_hex32+0x6c>
     2dc:	03078593          	addi	a1,a5,48
     2e0:	00072783          	lw	a5,0(a4)
     2e4:	fed7eee3          	bltu	a5,a3,2e0 <print_hex32+0x6c>
     2e8:	00b82023          	sw	a1,0(a6)
     2ec:	ffc60613          	addi	a2,a2,-4 # fffc <font5x7+0x3774>
     2f0:	fd161ee3          	bne	a2,a7,2cc <print_hex32+0x58>
     2f4:	00008067          	ret

000002f8 <handle_exception>:
     2f8:	00200793          	li	a5,2
     2fc:	1af80463          	beq	a6,a5,4a4 <handle_exception+0x1ac>
     300:	00b00793          	li	a5,11
     304:	12f80663          	beq	a6,a5,430 <handle_exception+0x138>
     308:	14081c63          	bnez	a6,460 <handle_exception+0x168>
     30c:	0000d637          	lui	a2,0xd
     310:	0000d8b7          	lui	a7,0xd
     314:	04000737          	lui	a4,0x4000
     318:	04000837          	lui	a6,0x4000
     31c:	90c60613          	addi	a2,a2,-1780 # c90c <font5x7+0x84>
     320:	93b88893          	addi	a7,a7,-1733 # c93b <font5x7+0xb3>
     324:	04470713          	addi	a4,a4,68 # 4000044 <_stack_end+0x3ef3694>
     328:	04080813          	addi	a6,a6,64 # 4000040 <_stack_end+0x3ef3690>
     32c:	00a00593          	li	a1,10
     330:	000106b7          	lui	a3,0x10
     334:	00072783          	lw	a5,0(a4)
     338:	fed7eee3          	bltu	a5,a3,334 <handle_exception+0x3c>
     33c:	00b82023          	sw	a1,0(a6)
     340:	00160613          	addi	a2,a2,1
     344:	00064583          	lbu	a1,0(a2)
     348:	ff1616e3          	bne	a2,a7,334 <handle_exception+0x3c>
     34c:	0000d637          	lui	a2,0xd
     350:	0000d8b7          	lui	a7,0xd
     354:	04000737          	lui	a4,0x4000
     358:	04000837          	lui	a6,0x4000
     35c:	98060613          	addi	a2,a2,-1664 # c980 <font5x7+0xf8>
     360:	99388893          	addi	a7,a7,-1645 # c993 <font5x7+0x10b>
     364:	04470713          	addi	a4,a4,68 # 4000044 <_stack_end+0x3ef3694>
     368:	04080813          	addi	a6,a6,64 # 4000040 <_stack_end+0x3ef3690>
     36c:	04500593          	li	a1,69
     370:	000106b7          	lui	a3,0x10
     374:	00072783          	lw	a5,0(a4)
     378:	fed7eee3          	bltu	a5,a3,374 <handle_exception+0x7c>
     37c:	00b82023          	sw	a1,0(a6)
     380:	00160613          	addi	a2,a2,1
     384:	00064583          	lbu	a1,0(a2)
     388:	ff1616e3          	bne	a2,a7,374 <handle_exception+0x7c>
     38c:	04000737          	lui	a4,0x4000
     390:	04470713          	addi	a4,a4,68 # 4000044 <_stack_end+0x3ef3694>
     394:	000106b7          	lui	a3,0x10
     398:	00072783          	lw	a5,0(a4)
     39c:	fed7eee3          	bltu	a5,a3,398 <handle_exception+0xa0>
     3a0:	040007b7          	lui	a5,0x4000
     3a4:	03000693          	li	a3,48
     3a8:	04d7a023          	sw	a3,64(a5) # 4000040 <_stack_end+0x3ef3690>
     3ac:	04478713          	addi	a4,a5,68
     3b0:	000106b7          	lui	a3,0x10
     3b4:	00072783          	lw	a5,0(a4)
     3b8:	fed7eee3          	bltu	a5,a3,3b4 <handle_exception+0xbc>
     3bc:	04000837          	lui	a6,0x4000
     3c0:	04080813          	addi	a6,a6,64 # 4000040 <_stack_end+0x3ef3690>
     3c4:	07800793          	li	a5,120
     3c8:	04000737          	lui	a4,0x4000
     3cc:	00f82023          	sw	a5,0(a6)
     3d0:	04470713          	addi	a4,a4,68 # 4000044 <_stack_end+0x3ef3694>
     3d4:	01c00613          	li	a2,28
     3d8:	00900313          	li	t1,9
     3dc:	000106b7          	lui	a3,0x10
     3e0:	ffc00893          	li	a7,-4
     3e4:	00c557b3          	srl	a5,a0,a2
     3e8:	00f7f793          	andi	a5,a5,15
     3ec:	03778593          	addi	a1,a5,55
     3f0:	00f36463          	bltu	t1,a5,3f8 <handle_exception+0x100>
     3f4:	03078593          	addi	a1,a5,48
     3f8:	00072783          	lw	a5,0(a4)
     3fc:	fed7eee3          	bltu	a5,a3,3f8 <handle_exception+0x100>
     400:	00b82023          	sw	a1,0(a6)
     404:	ffc60613          	addi	a2,a2,-4
     408:	fd161ee3          	bne	a2,a7,3e4 <handle_exception+0xec>
     40c:	04000737          	lui	a4,0x4000
     410:	04470713          	addi	a4,a4,68 # 4000044 <_stack_end+0x3ef3694>
     414:	000106b7          	lui	a3,0x10
     418:	00072783          	lw	a5,0(a4)
     41c:	fed7eee3          	bltu	a5,a3,418 <handle_exception+0x120>
     420:	040007b7          	lui	a5,0x4000
     424:	00a00713          	li	a4,10
     428:	04e7a023          	sw	a4,64(a5) # 4000040 <_stack_end+0x3ef3690>
     42c:	0000006f          	j	42c <handle_exception+0x134>
     430:	00400793          	li	a5,4
     434:	0af88a63          	beq	a7,a5,4e8 <handle_exception+0x1f0>
     438:	0f089463          	bne	a7,a6,520 <handle_exception+0x228>
     43c:	04000737          	lui	a4,0x4000
     440:	04470713          	addi	a4,a4,68 # 4000044 <_stack_end+0x3ef3694>
     444:	000106b7          	lui	a3,0x10
     448:	00072783          	lw	a5,0(a4)
     44c:	fed7eee3          	bltu	a5,a3,448 <handle_exception+0x150>
     450:	040007b7          	lui	a5,0x4000
     454:	0ff57513          	zext.b	a0,a0
     458:	04a7a023          	sw	a0,64(a5) # 4000040 <_stack_end+0x3ef3690>
     45c:	00008067          	ret
     460:	0000d637          	lui	a2,0xd
     464:	0000d8b7          	lui	a7,0xd
     468:	04000737          	lui	a4,0x4000
     46c:	04000837          	lui	a6,0x4000
     470:	96060613          	addi	a2,a2,-1696 # c960 <font5x7+0xd8>
     474:	97c88893          	addi	a7,a7,-1668 # c97c <font5x7+0xf4>
     478:	04470713          	addi	a4,a4,68 # 4000044 <_stack_end+0x3ef3694>
     47c:	04080813          	addi	a6,a6,64 # 4000040 <_stack_end+0x3ef3690>
     480:	00a00593          	li	a1,10
     484:	000106b7          	lui	a3,0x10
     488:	00072783          	lw	a5,0(a4)
     48c:	fed7eee3          	bltu	a5,a3,488 <handle_exception+0x190>
     490:	00b82023          	sw	a1,0(a6)
     494:	00160613          	addi	a2,a2,1
     498:	00064583          	lbu	a1,0(a2)
     49c:	ff1616e3          	bne	a2,a7,488 <handle_exception+0x190>
     4a0:	eadff06f          	j	34c <handle_exception+0x54>
     4a4:	0000d637          	lui	a2,0xd
     4a8:	0000d8b7          	lui	a7,0xd
     4ac:	04000737          	lui	a4,0x4000
     4b0:	04000837          	lui	a6,0x4000
     4b4:	93c60613          	addi	a2,a2,-1732 # c93c <font5x7+0xb4>
     4b8:	95e88893          	addi	a7,a7,-1698 # c95e <font5x7+0xd6>
     4bc:	04470713          	addi	a4,a4,68 # 4000044 <_stack_end+0x3ef3694>
     4c0:	04080813          	addi	a6,a6,64 # 4000040 <_stack_end+0x3ef3690>
     4c4:	00a00593          	li	a1,10
     4c8:	000106b7          	lui	a3,0x10
     4cc:	00072783          	lw	a5,0(a4)
     4d0:	fed7eee3          	bltu	a5,a3,4cc <handle_exception+0x1d4>
     4d4:	00b82023          	sw	a1,0(a6)
     4d8:	00160613          	addi	a2,a2,1
     4dc:	00064583          	lbu	a1,0(a2)
     4e0:	ff1616e3          	bne	a2,a7,4cc <handle_exception+0x1d4>
     4e4:	e69ff06f          	j	34c <handle_exception+0x54>
     4e8:	00054603          	lbu	a2,0(a0)
     4ec:	02060a63          	beqz	a2,520 <handle_exception+0x228>
     4f0:	04000737          	lui	a4,0x4000
     4f4:	040005b7          	lui	a1,0x4000
     4f8:	04470713          	addi	a4,a4,68 # 4000044 <_stack_end+0x3ef3694>
     4fc:	04058593          	addi	a1,a1,64 # 4000040 <_stack_end+0x3ef3690>
     500:	000106b7          	lui	a3,0x10
     504:	00072783          	lw	a5,0(a4)
     508:	fed7eee3          	bltu	a5,a3,504 <handle_exception+0x20c>
     50c:	00c5a023          	sw	a2,0(a1)
     510:	00154603          	lbu	a2,1(a0)
     514:	00150513          	addi	a0,a0,1
     518:	fe0616e3          	bnez	a2,504 <handle_exception+0x20c>
     51c:	00008067          	ret
     520:	00008067          	ret

00000524 <nextprime>:
     524:	00200793          	li	a5,2
     528:	02a7c063          	blt	a5,a0,548 <nextprime+0x24>
     52c:	00100693          	li	a3,1
     530:	00a05863          	blez	a0,540 <nextprime+0x1c>
     534:	fff50793          	addi	a5,a0,-1
     538:	00f037b3          	snez	a5,a5
     53c:	00278693          	addi	a3,a5,2
     540:	00068513          	mv	a0,a3
     544:	00008067          	ret
     548:	00150513          	addi	a0,a0,1
     54c:	00156693          	ori	a3,a0,1
     550:	00300793          	li	a5,3
     554:	02f6e733          	rem	a4,a3,a5
     558:	4016d613          	srai	a2,a3,0x1
     55c:	00260613          	addi	a2,a2,2
     560:	00178793          	addi	a5,a5,1
     564:	00070a63          	beqz	a4,578 <nextprime+0x54>
     568:	fcf60ce3          	beq	a2,a5,540 <nextprime+0x1c>
     56c:	02f6e733          	rem	a4,a3,a5
     570:	00178793          	addi	a5,a5,1
     574:	fe071ae3          	bnez	a4,568 <nextprime+0x44>
     578:	00268693          	addi	a3,a3,2 # 10002 <font5x7+0x377a>
     57c:	fd5ff06f          	j	550 <nextprime+0x2c>

00000580 <update_shape.constprop.0>:
     580:	000072b7          	lui	t0,0x7
     584:	95428293          	addi	t0,t0,-1708 # 6954 <grid>
     588:	00000313          	li	t1,0
     58c:	00400f13          	li	t5,4
     590:	00007737          	lui	a4,0x7
     594:	01200693          	li	a3,18
     598:	08100e13          	li	t3,129
     59c:	00800f93          	li	t6,8
     5a0:	00700e93          	li	t4,7
     5a4:	00431893          	slli	a7,t1,0x4
     5a8:	011508b3          	add	a7,a0,a7
     5ac:	00000813          	li	a6,0
     5b0:	0108a783          	lw	a5,16(a7)
     5b4:	1a078863          	beqz	a5,764 <update_shape.constprop.0+0x1e4>
     5b8:	00852783          	lw	a5,8(a0)
     5bc:	00452583          	lw	a1,4(a0)
     5c0:	00f307b3          	add	a5,t1,a5
     5c4:	0147b613          	sltiu	a2,a5,20
     5c8:	00b805b3          	add	a1,a6,a1
     5cc:	18060c63          	beqz	a2,764 <update_shape.constprop.0+0x1e4>
     5d0:	00a5b613          	sltiu	a2,a1,10
     5d4:	18060863          	beqz	a2,764 <update_shape.constprop.0+0x1e4>
     5d8:	fe010113          	addi	sp,sp,-32
     5dc:	00812e23          	sw	s0,28(sp)
     5e0:	00912c23          	sw	s1,24(sp)
     5e4:	01212a23          	sw	s2,20(sp)
     5e8:	01312823          	sw	s3,16(sp)
     5ec:	01412623          	sw	s4,12(sp)
     5f0:	01512423          	sw	s5,8(sp)
     5f4:	01612223          	sw	s6,4(sp)
     5f8:	01712023          	sw	s7,0(sp)
     5fc:	00279393          	slli	t2,a5,0x2
     600:	00f383b3          	add	t2,t2,a5
     604:	00139393          	slli	t2,t2,0x1
     608:	007283b3          	add	t2,t0,t2
     60c:	00b383b3          	add	t2,t2,a1
     610:	00578613          	addi	a2,a5,5
     614:	00261793          	slli	a5,a2,0x2
     618:	0003c403          	lbu	s0,0(t2)
     61c:	00c787b3          	add	a5,a5,a2
     620:	00f58593          	addi	a1,a1,15
     624:	00679793          	slli	a5,a5,0x6
     628:	00b787b3          	add	a5,a5,a1
     62c:	16041463          	bnez	s0,794 <update_shape.constprop.0+0x214>
     630:	95072603          	lw	a2,-1712(a4) # 6950 <VGA>
     634:	00379793          	slli	a5,a5,0x3
     638:	00678493          	addi	s1,a5,6
     63c:	00f60633          	add	a2,a2,a5
     640:	00d60023          	sb	a3,0(a2)
     644:	95072583          	lw	a1,-1712(a4)
     648:	00078613          	mv	a2,a5
     64c:	00f585b3          	add	a1,a1,a5
     650:	00d580a3          	sb	a3,1(a1)
     654:	00000593          	li	a1,0
     658:	95072383          	lw	t2,-1712(a4)
     65c:	00f383b3          	add	t2,t2,a5
     660:	00d38123          	sb	a3,2(t2)
     664:	95072383          	lw	t2,-1712(a4)
     668:	00f383b3          	add	t2,t2,a5
     66c:	00d381a3          	sb	a3,3(t2)
     670:	95072383          	lw	t2,-1712(a4)
     674:	00f383b3          	add	t2,t2,a5
     678:	00d38223          	sb	a3,4(t2)
     67c:	95072383          	lw	t2,-1712(a4)
     680:	00f383b3          	add	t2,t2,a5
     684:	00d382a3          	sb	a3,5(t2)
     688:	95072383          	lw	t2,-1712(a4)
     68c:	009383b3          	add	t2,t2,s1
     690:	00d38023          	sb	a3,0(t2)
     694:	08058863          	beqz	a1,724 <update_shape.constprop.0+0x1a4>
     698:	95072783          	lw	a5,-1712(a4)
     69c:	00c787b3          	add	a5,a5,a2
     6a0:	00d783a3          	sb	a3,7(a5)
     6a4:	00180813          	addi	a6,a6,1
     6a8:	00488893          	addi	a7,a7,4
     6ac:	0de80863          	beq	a6,t5,77c <update_shape.constprop.0+0x1fc>
     6b0:	0108a783          	lw	a5,16(a7)
     6b4:	fe0788e3          	beqz	a5,6a4 <update_shape.constprop.0+0x124>
     6b8:	00852783          	lw	a5,8(a0)
     6bc:	00452583          	lw	a1,4(a0)
     6c0:	00f307b3          	add	a5,t1,a5
     6c4:	0147b613          	sltiu	a2,a5,20
     6c8:	00b805b3          	add	a1,a6,a1
     6cc:	fc060ce3          	beqz	a2,6a4 <update_shape.constprop.0+0x124>
     6d0:	00a5b613          	sltiu	a2,a1,10
     6d4:	f20614e3          	bnez	a2,5fc <update_shape.constprop.0+0x7c>
     6d8:	fcdff06f          	j	6a4 <update_shape.constprop.0+0x124>
     6dc:	00040023          	sb	zero,0(s0)
     6e0:	95072383          	lw	t2,-1712(a4)
     6e4:	00078413          	mv	s0,a5
     6e8:	00f383b3          	add	t2,t2,a5
     6ec:	14038123          	sb	zero,322(t2)
     6f0:	95072383          	lw	t2,-1712(a4)
     6f4:	00f387b3          	add	a5,t2,a5
     6f8:	140781a3          	sb	zero,323(a5)
     6fc:	95072383          	lw	t2,-1712(a4)
     700:	00060793          	mv	a5,a2
     704:	00838633          	add	a2,t2,s0
     708:	14060223          	sb	zero,324(a2)
     70c:	95072603          	lw	a2,-1712(a4)
     710:	00860633          	add	a2,a2,s0
     714:	140602a3          	sb	zero,325(a2)
     718:	95072603          	lw	a2,-1712(a4)
     71c:	00960633          	add	a2,a2,s1
     720:	00060023          	sb	zero,0(a2)
     724:	95072383          	lw	t2,-1712(a4)
     728:	14078613          	addi	a2,a5,320
     72c:	00158593          	addi	a1,a1,1
     730:	00f383b3          	add	t2,t2,a5
     734:	00d383a3          	sb	a3,7(t2)
     738:	95072403          	lw	s0,-1712(a4)
     73c:	14178393          	addi	t2,a5,321
     740:	14048493          	addi	s1,s1,320
     744:	00c40433          	add	s0,s0,a2
     748:	00d40023          	sb	a3,0(s0)
     74c:	95072403          	lw	s0,-1712(a4)
     750:	00740433          	add	s0,s0,t2
     754:	f9d594e3          	bne	a1,t4,6dc <update_shape.constprop.0+0x15c>
     758:	00d40023          	sb	a3,0(s0)
     75c:	00060793          	mv	a5,a2
     760:	ef9ff06f          	j	658 <update_shape.constprop.0+0xd8>
     764:	00180813          	addi	a6,a6,1
     768:	00488893          	addi	a7,a7,4
     76c:	e5e812e3          	bne	a6,t5,5b0 <update_shape.constprop.0+0x30>
     770:	00130313          	addi	t1,t1,1
     774:	e30318e3          	bne	t1,a6,5a4 <update_shape.constprop.0+0x24>
     778:	00008067          	ret
     77c:	00130313          	addi	t1,t1,1
     780:	13030a63          	beq	t1,a6,8b4 <__heap_size+0xb4>
     784:	00431893          	slli	a7,t1,0x4
     788:	011508b3          	add	a7,a0,a7
     78c:	00000813          	li	a6,0
     790:	f21ff06f          	j	6b0 <update_shape.constprop.0+0x130>
     794:	00379793          	slli	a5,a5,0x3
     798:	00678493          	addi	s1,a5,6
     79c:	00000393          	li	t2,0
     7a0:	95072583          	lw	a1,-1712(a4)
     7a4:	007e5633          	srl	a2,t3,t2
     7a8:	00167613          	andi	a2,a2,1
     7ac:	00f585b3          	add	a1,a1,a5
     7b0:	00d58023          	sb	a3,0(a1)
     7b4:	95072583          	lw	a1,-1712(a4)
     7b8:	00178b93          	addi	s7,a5,1
     7bc:	00278b13          	addi	s6,a5,2
     7c0:	00378a93          	addi	s5,a5,3
     7c4:	00478993          	addi	s3,a5,4
     7c8:	00578913          	addi	s2,a5,5
     7cc:	08060263          	beqz	a2,850 <__heap_size+0x50>
     7d0:	017585b3          	add	a1,a1,s7
     7d4:	00d58023          	sb	a3,0(a1)
     7d8:	95072603          	lw	a2,-1712(a4)
     7dc:	00778a13          	addi	s4,a5,7
     7e0:	01660633          	add	a2,a2,s6
     7e4:	00d60023          	sb	a3,0(a2)
     7e8:	95072603          	lw	a2,-1712(a4)
     7ec:	01560633          	add	a2,a2,s5
     7f0:	00d60023          	sb	a3,0(a2)
     7f4:	95072603          	lw	a2,-1712(a4)
     7f8:	01360633          	add	a2,a2,s3
     7fc:	00d60023          	sb	a3,0(a2)
     800:	95072603          	lw	a2,-1712(a4)
     804:	01260633          	add	a2,a2,s2
     808:	00d60023          	sb	a3,0(a2)
     80c:	95072603          	lw	a2,-1712(a4)
     810:	00038e63          	beqz	t2,82c <__heap_size+0x2c>
     814:	00960633          	add	a2,a2,s1
     818:	00d60023          	sb	a3,0(a2)
     81c:	95072603          	lw	a2,-1712(a4)
     820:	00f607b3          	add	a5,a2,a5
     824:	00d783a3          	sb	a3,7(a5)
     828:	e7dff06f          	j	6a4 <update_shape.constprop.0+0x124>
     82c:	00960633          	add	a2,a2,s1
     830:	00d60023          	sb	a3,0(a2)
     834:	95072603          	lw	a2,-1712(a4)
     838:	14078793          	addi	a5,a5,320
     83c:	14048493          	addi	s1,s1,320
     840:	01460633          	add	a2,a2,s4
     844:	00100393          	li	t2,1
     848:	00d60023          	sb	a3,0(a2)
     84c:	f55ff06f          	j	7a0 <update_shape.constprop.0+0x220>
     850:	00f585b3          	add	a1,a1,a5
     854:	008580a3          	sb	s0,1(a1)
     858:	95072603          	lw	a2,-1712(a4)
     85c:	00138393          	addi	t2,t2,1
     860:	00f60633          	add	a2,a2,a5
     864:	00860123          	sb	s0,2(a2)
     868:	95072603          	lw	a2,-1712(a4)
     86c:	00f60633          	add	a2,a2,a5
     870:	008601a3          	sb	s0,3(a2)
     874:	95072603          	lw	a2,-1712(a4)
     878:	00f60633          	add	a2,a2,a5
     87c:	00860223          	sb	s0,4(a2)
     880:	95072603          	lw	a2,-1712(a4)
     884:	00f60633          	add	a2,a2,a5
     888:	008602a3          	sb	s0,5(a2)
     88c:	95072603          	lw	a2,-1712(a4)
     890:	00960633          	add	a2,a2,s1
     894:	00860023          	sb	s0,0(a2)
     898:	95072603          	lw	a2,-1712(a4)
     89c:	14048493          	addi	s1,s1,320
     8a0:	00f60633          	add	a2,a2,a5
     8a4:	00d603a3          	sb	a3,7(a2)
     8a8:	14078793          	addi	a5,a5,320
     8ac:	eff39ae3          	bne	t2,t6,7a0 <update_shape.constprop.0+0x220>
     8b0:	df5ff06f          	j	6a4 <update_shape.constprop.0+0x124>
     8b4:	01c12403          	lw	s0,28(sp)
     8b8:	01812483          	lw	s1,24(sp)
     8bc:	01412903          	lw	s2,20(sp)
     8c0:	01012983          	lw	s3,16(sp)
     8c4:	00c12a03          	lw	s4,12(sp)
     8c8:	00812a83          	lw	s5,8(sp)
     8cc:	00412b03          	lw	s6,4(sp)
     8d0:	00012b83          	lw	s7,0(sp)
     8d4:	02010113          	addi	sp,sp,32
     8d8:	00008067          	ret

000008dc <set_rand_seed>:
     8dc:	0000d7b7          	lui	a5,0xd
     8e0:	88a7a023          	sw	a0,-1920(a5) # c880 <seed>
     8e4:	00008067          	ret

000008e8 <rand>:
     8e8:	0000d737          	lui	a4,0xd
     8ec:	88072683          	lw	a3,-1920(a4) # c880 <seed>
     8f0:	00269793          	slli	a5,a3,0x2
     8f4:	00d787b3          	add	a5,a5,a3
     8f8:	00479513          	slli	a0,a5,0x4
     8fc:	40f50533          	sub	a0,a0,a5
     900:	0b350513          	addi	a0,a0,179
     904:	03f57513          	andi	a0,a0,63
     908:	88a72023          	sw	a0,-1920(a4)
     90c:	00008067          	ret

00000910 <delay>:
     910:	00008067          	ret

00000914 <spawn_piece>:
     914:	00007737          	lui	a4,0x7
     918:	95470713          	addi	a4,a4,-1708 # 6954 <grid>
     91c:	05050693          	addi	a3,a0,80
     920:	0c870793          	addi	a5,a4,200
     924:	00852603          	lw	a2,8(a0)
     928:	00052803          	lw	a6,0(a0)
     92c:	00452583          	lw	a1,4(a0)
     930:	00c7a423          	sw	a2,8(a5)
     934:	0107a023          	sw	a6,0(a5)
     938:	00b7a223          	sw	a1,4(a5)
     93c:	00c52603          	lw	a2,12(a0)
     940:	01050513          	addi	a0,a0,16
     944:	01078793          	addi	a5,a5,16
     948:	fec7ae23          	sw	a2,-4(a5)
     94c:	fcd51ce3          	bne	a0,a3,924 <spawn_piece+0x10>
     950:	00300793          	li	a5,3
     954:	0c072823          	sw	zero,208(a4)
     958:	0cf72623          	sw	a5,204(a4)
     95c:	00008067          	ret

00000960 <is_filled>:
     960:	01052703          	lw	a4,16(a0)
     964:	00050793          	mv	a5,a0
     968:	00070e63          	beqz	a4,984 <is_filled+0x24>
     96c:	00452703          	lw	a4,4(a0)
     970:	00852683          	lw	a3,8(a0)
     974:	00a73613          	sltiu	a2,a4,10
     978:	00060663          	beqz	a2,984 <is_filled+0x24>
     97c:	0146b613          	sltiu	a2,a3,20
     980:	24061663          	bnez	a2,bcc <is_filled+0x26c>
     984:	0147a703          	lw	a4,20(a5)
     988:	02070063          	beqz	a4,9a8 <is_filled+0x48>
     98c:	0047a683          	lw	a3,4(a5)
     990:	0087a603          	lw	a2,8(a5)
     994:	00168713          	addi	a4,a3,1
     998:	00a73713          	sltiu	a4,a4,10
     99c:	00070663          	beqz	a4,9a8 <is_filled+0x48>
     9a0:	01463713          	sltiu	a4,a2,20
     9a4:	24071a63          	bnez	a4,bf8 <is_filled+0x298>
     9a8:	0187a703          	lw	a4,24(a5)
     9ac:	02070063          	beqz	a4,9cc <is_filled+0x6c>
     9b0:	0047a683          	lw	a3,4(a5)
     9b4:	0087a603          	lw	a2,8(a5)
     9b8:	00268713          	addi	a4,a3,2
     9bc:	00a73713          	sltiu	a4,a4,10
     9c0:	00070663          	beqz	a4,9cc <is_filled+0x6c>
     9c4:	01463713          	sltiu	a4,a2,20
     9c8:	28071863          	bnez	a4,c58 <is_filled+0x2f8>
     9cc:	01c7a703          	lw	a4,28(a5)
     9d0:	02070063          	beqz	a4,9f0 <is_filled+0x90>
     9d4:	0047a683          	lw	a3,4(a5)
     9d8:	0087a603          	lw	a2,8(a5)
     9dc:	00368713          	addi	a4,a3,3
     9e0:	00a73713          	sltiu	a4,a4,10
     9e4:	00070663          	beqz	a4,9f0 <is_filled+0x90>
     9e8:	01463713          	sltiu	a4,a2,20
     9ec:	22071e63          	bnez	a4,c28 <is_filled+0x2c8>
     9f0:	0207a703          	lw	a4,32(a5)
     9f4:	02070063          	beqz	a4,a14 <is_filled+0xb4>
     9f8:	0087a703          	lw	a4,8(a5)
     9fc:	0047a603          	lw	a2,4(a5)
     a00:	00170713          	addi	a4,a4,1
     a04:	01473693          	sltiu	a3,a4,20
     a08:	00068663          	beqz	a3,a14 <is_filled+0xb4>
     a0c:	00a63693          	sltiu	a3,a2,10
     a10:	26069c63          	bnez	a3,c88 <is_filled+0x328>
     a14:	0247a703          	lw	a4,36(a5)
     a18:	02070263          	beqz	a4,a3c <is_filled+0xdc>
     a1c:	0047a603          	lw	a2,4(a5)
     a20:	0087a703          	lw	a4,8(a5)
     a24:	00160693          	addi	a3,a2,1
     a28:	00a6b693          	sltiu	a3,a3,10
     a2c:	00170713          	addi	a4,a4,1
     a30:	00068663          	beqz	a3,a3c <is_filled+0xdc>
     a34:	01473693          	sltiu	a3,a4,20
     a38:	28069063          	bnez	a3,cb8 <is_filled+0x358>
     a3c:	0287a703          	lw	a4,40(a5)
     a40:	02070263          	beqz	a4,a64 <is_filled+0x104>
     a44:	0047a603          	lw	a2,4(a5)
     a48:	0087a703          	lw	a4,8(a5)
     a4c:	00260693          	addi	a3,a2,2
     a50:	00a6b693          	sltiu	a3,a3,10
     a54:	00170713          	addi	a4,a4,1
     a58:	00068663          	beqz	a3,a64 <is_filled+0x104>
     a5c:	01473693          	sltiu	a3,a4,20
     a60:	28069463          	bnez	a3,ce8 <is_filled+0x388>
     a64:	02c7a703          	lw	a4,44(a5)
     a68:	02070263          	beqz	a4,a8c <is_filled+0x12c>
     a6c:	0047a603          	lw	a2,4(a5)
     a70:	0087a703          	lw	a4,8(a5)
     a74:	00360693          	addi	a3,a2,3
     a78:	00a6b693          	sltiu	a3,a3,10
     a7c:	00170713          	addi	a4,a4,1
     a80:	00068663          	beqz	a3,a8c <is_filled+0x12c>
     a84:	01473693          	sltiu	a3,a4,20
     a88:	28069863          	bnez	a3,d18 <is_filled+0x3b8>
     a8c:	0307a703          	lw	a4,48(a5)
     a90:	02070063          	beqz	a4,ab0 <is_filled+0x150>
     a94:	0087a703          	lw	a4,8(a5)
     a98:	0047a603          	lw	a2,4(a5)
     a9c:	00270713          	addi	a4,a4,2
     aa0:	01473693          	sltiu	a3,a4,20
     aa4:	00068663          	beqz	a3,ab0 <is_filled+0x150>
     aa8:	00a63693          	sltiu	a3,a2,10
     aac:	28069e63          	bnez	a3,d48 <is_filled+0x3e8>
     ab0:	0347a703          	lw	a4,52(a5)
     ab4:	02070263          	beqz	a4,ad8 <is_filled+0x178>
     ab8:	0047a603          	lw	a2,4(a5)
     abc:	0087a703          	lw	a4,8(a5)
     ac0:	00160693          	addi	a3,a2,1
     ac4:	00a6b693          	sltiu	a3,a3,10
     ac8:	00270713          	addi	a4,a4,2
     acc:	00068663          	beqz	a3,ad8 <is_filled+0x178>
     ad0:	01473693          	sltiu	a3,a4,20
     ad4:	2a069263          	bnez	a3,d78 <is_filled+0x418>
     ad8:	0387a703          	lw	a4,56(a5)
     adc:	02070263          	beqz	a4,b00 <is_filled+0x1a0>
     ae0:	0047a603          	lw	a2,4(a5)
     ae4:	0087a703          	lw	a4,8(a5)
     ae8:	00260693          	addi	a3,a2,2
     aec:	00a6b693          	sltiu	a3,a3,10
     af0:	00270713          	addi	a4,a4,2
     af4:	00068663          	beqz	a3,b00 <is_filled+0x1a0>
     af8:	01473693          	sltiu	a3,a4,20
     afc:	2a069663          	bnez	a3,da8 <is_filled+0x448>
     b00:	03c7a703          	lw	a4,60(a5)
     b04:	02070263          	beqz	a4,b28 <is_filled+0x1c8>
     b08:	0047a603          	lw	a2,4(a5)
     b0c:	0087a703          	lw	a4,8(a5)
     b10:	00360693          	addi	a3,a2,3
     b14:	00a6b693          	sltiu	a3,a3,10
     b18:	00270713          	addi	a4,a4,2
     b1c:	00068663          	beqz	a3,b28 <is_filled+0x1c8>
     b20:	01473693          	sltiu	a3,a4,20
     b24:	2e069263          	bnez	a3,e08 <is_filled+0x4a8>
     b28:	0407a703          	lw	a4,64(a5)
     b2c:	02070063          	beqz	a4,b4c <is_filled+0x1ec>
     b30:	0047a683          	lw	a3,4(a5)
     b34:	0087a703          	lw	a4,8(a5)
     b38:	00a6b613          	sltiu	a2,a3,10
     b3c:	00370713          	addi	a4,a4,3
     b40:	00060663          	beqz	a2,b4c <is_filled+0x1ec>
     b44:	01473613          	sltiu	a2,a4,20
     b48:	28061863          	bnez	a2,dd8 <is_filled+0x478>
     b4c:	0447a703          	lw	a4,68(a5)
     b50:	02070263          	beqz	a4,b74 <is_filled+0x214>
     b54:	0047a603          	lw	a2,4(a5)
     b58:	0087a703          	lw	a4,8(a5)
     b5c:	00160693          	addi	a3,a2,1
     b60:	00a6b693          	sltiu	a3,a3,10
     b64:	00370713          	addi	a4,a4,3
     b68:	00068663          	beqz	a3,b74 <is_filled+0x214>
     b6c:	01473693          	sltiu	a3,a4,20
     b70:	2e069c63          	bnez	a3,e68 <is_filled+0x508>
     b74:	0487a703          	lw	a4,72(a5)
     b78:	02070263          	beqz	a4,b9c <is_filled+0x23c>
     b7c:	0047a603          	lw	a2,4(a5)
     b80:	0087a703          	lw	a4,8(a5)
     b84:	00260693          	addi	a3,a2,2
     b88:	00a6b693          	sltiu	a3,a3,10
     b8c:	00370713          	addi	a4,a4,3
     b90:	00068663          	beqz	a3,b9c <is_filled+0x23c>
     b94:	01473693          	sltiu	a3,a4,20
     b98:	2a069063          	bnez	a3,e38 <is_filled+0x4d8>
     b9c:	04c7a503          	lw	a0,76(a5)
     ba0:	02050463          	beqz	a0,bc8 <is_filled+0x268>
     ba4:	0047a683          	lw	a3,4(a5)
     ba8:	0087a783          	lw	a5,8(a5)
     bac:	00368713          	addi	a4,a3,3
     bb0:	00a73713          	sltiu	a4,a4,10
     bb4:	00378793          	addi	a5,a5,3
     bb8:	00070663          	beqz	a4,bc4 <is_filled+0x264>
     bbc:	0147b713          	sltiu	a4,a5,20
     bc0:	2c071c63          	bnez	a4,e98 <is_filled+0x538>
     bc4:	00000513          	li	a0,0
     bc8:	00008067          	ret
     bcc:	00269613          	slli	a2,a3,0x2
     bd0:	00d60633          	add	a2,a2,a3
     bd4:	000076b7          	lui	a3,0x7
     bd8:	00161613          	slli	a2,a2,0x1
     bdc:	95468693          	addi	a3,a3,-1708 # 6954 <grid>
     be0:	00c686b3          	add	a3,a3,a2
     be4:	00e68733          	add	a4,a3,a4
     be8:	00074703          	lbu	a4,0(a4)
     bec:	d8070ce3          	beqz	a4,984 <is_filled+0x24>
     bf0:	00100513          	li	a0,1
     bf4:	00008067          	ret
     bf8:	00261713          	slli	a4,a2,0x2
     bfc:	00c70633          	add	a2,a4,a2
     c00:	00007737          	lui	a4,0x7
     c04:	00161613          	slli	a2,a2,0x1
     c08:	95470713          	addi	a4,a4,-1708 # 6954 <grid>
     c0c:	00c70733          	add	a4,a4,a2
     c10:	00d70733          	add	a4,a4,a3
     c14:	00174703          	lbu	a4,1(a4)
     c18:	fc071ce3          	bnez	a4,bf0 <is_filled+0x290>
     c1c:	0187a703          	lw	a4,24(a5)
     c20:	da0706e3          	beqz	a4,9cc <is_filled+0x6c>
     c24:	d8dff06f          	j	9b0 <is_filled+0x50>
     c28:	00261713          	slli	a4,a2,0x2
     c2c:	00c70633          	add	a2,a4,a2
     c30:	00007737          	lui	a4,0x7
     c34:	00161613          	slli	a2,a2,0x1
     c38:	95470713          	addi	a4,a4,-1708 # 6954 <grid>
     c3c:	00c70733          	add	a4,a4,a2
     c40:	00d70733          	add	a4,a4,a3
     c44:	00374703          	lbu	a4,3(a4)
     c48:	fa0714e3          	bnez	a4,bf0 <is_filled+0x290>
     c4c:	0207a703          	lw	a4,32(a5)
     c50:	dc0702e3          	beqz	a4,a14 <is_filled+0xb4>
     c54:	da5ff06f          	j	9f8 <is_filled+0x98>
     c58:	00261713          	slli	a4,a2,0x2
     c5c:	00c70633          	add	a2,a4,a2
     c60:	00007737          	lui	a4,0x7
     c64:	00161613          	slli	a2,a2,0x1
     c68:	95470713          	addi	a4,a4,-1708 # 6954 <grid>
     c6c:	00c70733          	add	a4,a4,a2
     c70:	00d70733          	add	a4,a4,a3
     c74:	00274703          	lbu	a4,2(a4)
     c78:	f6071ce3          	bnez	a4,bf0 <is_filled+0x290>
     c7c:	01c7a703          	lw	a4,28(a5)
     c80:	d60708e3          	beqz	a4,9f0 <is_filled+0x90>
     c84:	d51ff06f          	j	9d4 <is_filled+0x74>
     c88:	00271693          	slli	a3,a4,0x2
     c8c:	00e686b3          	add	a3,a3,a4
     c90:	00007737          	lui	a4,0x7
     c94:	00169693          	slli	a3,a3,0x1
     c98:	95470713          	addi	a4,a4,-1708 # 6954 <grid>
     c9c:	00d70733          	add	a4,a4,a3
     ca0:	00c70733          	add	a4,a4,a2
     ca4:	00074703          	lbu	a4,0(a4)
     ca8:	f40714e3          	bnez	a4,bf0 <is_filled+0x290>
     cac:	0247a703          	lw	a4,36(a5)
     cb0:	d80706e3          	beqz	a4,a3c <is_filled+0xdc>
     cb4:	d69ff06f          	j	a1c <is_filled+0xbc>
     cb8:	00271693          	slli	a3,a4,0x2
     cbc:	00e686b3          	add	a3,a3,a4
     cc0:	00007737          	lui	a4,0x7
     cc4:	00169693          	slli	a3,a3,0x1
     cc8:	95470713          	addi	a4,a4,-1708 # 6954 <grid>
     ccc:	00d70733          	add	a4,a4,a3
     cd0:	00c70733          	add	a4,a4,a2
     cd4:	00174703          	lbu	a4,1(a4)
     cd8:	f0071ce3          	bnez	a4,bf0 <is_filled+0x290>
     cdc:	0287a703          	lw	a4,40(a5)
     ce0:	d80702e3          	beqz	a4,a64 <is_filled+0x104>
     ce4:	d61ff06f          	j	a44 <is_filled+0xe4>
     ce8:	00271693          	slli	a3,a4,0x2
     cec:	00e686b3          	add	a3,a3,a4
     cf0:	00007737          	lui	a4,0x7
     cf4:	00169693          	slli	a3,a3,0x1
     cf8:	95470713          	addi	a4,a4,-1708 # 6954 <grid>
     cfc:	00d70733          	add	a4,a4,a3
     d00:	00c70733          	add	a4,a4,a2
     d04:	00274703          	lbu	a4,2(a4)
     d08:	ee0714e3          	bnez	a4,bf0 <is_filled+0x290>
     d0c:	02c7a703          	lw	a4,44(a5)
     d10:	d6070ee3          	beqz	a4,a8c <is_filled+0x12c>
     d14:	d59ff06f          	j	a6c <is_filled+0x10c>
     d18:	00271693          	slli	a3,a4,0x2
     d1c:	00e686b3          	add	a3,a3,a4
     d20:	00007737          	lui	a4,0x7
     d24:	00169693          	slli	a3,a3,0x1
     d28:	95470713          	addi	a4,a4,-1708 # 6954 <grid>
     d2c:	00d70733          	add	a4,a4,a3
     d30:	00c70733          	add	a4,a4,a2
     d34:	00374703          	lbu	a4,3(a4)
     d38:	ea071ce3          	bnez	a4,bf0 <is_filled+0x290>
     d3c:	0307a703          	lw	a4,48(a5)
     d40:	d60708e3          	beqz	a4,ab0 <is_filled+0x150>
     d44:	d51ff06f          	j	a94 <is_filled+0x134>
     d48:	00271693          	slli	a3,a4,0x2
     d4c:	00e686b3          	add	a3,a3,a4
     d50:	00007737          	lui	a4,0x7
     d54:	00169693          	slli	a3,a3,0x1
     d58:	95470713          	addi	a4,a4,-1708 # 6954 <grid>
     d5c:	00d70733          	add	a4,a4,a3
     d60:	00c70733          	add	a4,a4,a2
     d64:	00074703          	lbu	a4,0(a4)
     d68:	e80714e3          	bnez	a4,bf0 <is_filled+0x290>
     d6c:	0347a703          	lw	a4,52(a5)
     d70:	d60704e3          	beqz	a4,ad8 <is_filled+0x178>
     d74:	d45ff06f          	j	ab8 <is_filled+0x158>
     d78:	00271693          	slli	a3,a4,0x2
     d7c:	00e686b3          	add	a3,a3,a4
     d80:	00007737          	lui	a4,0x7
     d84:	00169693          	slli	a3,a3,0x1
     d88:	95470713          	addi	a4,a4,-1708 # 6954 <grid>
     d8c:	00d70733          	add	a4,a4,a3
     d90:	00c70733          	add	a4,a4,a2
     d94:	00174703          	lbu	a4,1(a4)
     d98:	e4071ce3          	bnez	a4,bf0 <is_filled+0x290>
     d9c:	0387a703          	lw	a4,56(a5)
     da0:	d60700e3          	beqz	a4,b00 <is_filled+0x1a0>
     da4:	d3dff06f          	j	ae0 <is_filled+0x180>
     da8:	00271693          	slli	a3,a4,0x2
     dac:	00e686b3          	add	a3,a3,a4
     db0:	00007737          	lui	a4,0x7
     db4:	00169693          	slli	a3,a3,0x1
     db8:	95470713          	addi	a4,a4,-1708 # 6954 <grid>
     dbc:	00d70733          	add	a4,a4,a3
     dc0:	00c70733          	add	a4,a4,a2
     dc4:	00274703          	lbu	a4,2(a4)
     dc8:	e20714e3          	bnez	a4,bf0 <is_filled+0x290>
     dcc:	03c7a703          	lw	a4,60(a5)
     dd0:	d4070ce3          	beqz	a4,b28 <is_filled+0x1c8>
     dd4:	d35ff06f          	j	b08 <is_filled+0x1a8>
     dd8:	00271613          	slli	a2,a4,0x2
     ddc:	00e60633          	add	a2,a2,a4
     de0:	00007737          	lui	a4,0x7
     de4:	00161613          	slli	a2,a2,0x1
     de8:	95470713          	addi	a4,a4,-1708 # 6954 <grid>
     dec:	00c70733          	add	a4,a4,a2
     df0:	00d70733          	add	a4,a4,a3
     df4:	00074703          	lbu	a4,0(a4)
     df8:	de071ce3          	bnez	a4,bf0 <is_filled+0x290>
     dfc:	0447a703          	lw	a4,68(a5)
     e00:	d6070ae3          	beqz	a4,b74 <is_filled+0x214>
     e04:	d51ff06f          	j	b54 <is_filled+0x1f4>
     e08:	00271693          	slli	a3,a4,0x2
     e0c:	00e686b3          	add	a3,a3,a4
     e10:	00007737          	lui	a4,0x7
     e14:	00169693          	slli	a3,a3,0x1
     e18:	95470713          	addi	a4,a4,-1708 # 6954 <grid>
     e1c:	00d70733          	add	a4,a4,a3
     e20:	00c70733          	add	a4,a4,a2
     e24:	00374703          	lbu	a4,3(a4)
     e28:	dc0714e3          	bnez	a4,bf0 <is_filled+0x290>
     e2c:	0407a703          	lw	a4,64(a5)
     e30:	d0070ee3          	beqz	a4,b4c <is_filled+0x1ec>
     e34:	cfdff06f          	j	b30 <is_filled+0x1d0>
     e38:	00271693          	slli	a3,a4,0x2
     e3c:	00e686b3          	add	a3,a3,a4
     e40:	00007737          	lui	a4,0x7
     e44:	00169693          	slli	a3,a3,0x1
     e48:	95470713          	addi	a4,a4,-1708 # 6954 <grid>
     e4c:	00d70733          	add	a4,a4,a3
     e50:	00c70733          	add	a4,a4,a2
     e54:	00274703          	lbu	a4,2(a4)
     e58:	d8071ce3          	bnez	a4,bf0 <is_filled+0x290>
     e5c:	04c7a503          	lw	a0,76(a5)
     e60:	d60504e3          	beqz	a0,bc8 <is_filled+0x268>
     e64:	d41ff06f          	j	ba4 <is_filled+0x244>
     e68:	00271693          	slli	a3,a4,0x2
     e6c:	00e686b3          	add	a3,a3,a4
     e70:	00007737          	lui	a4,0x7
     e74:	00169693          	slli	a3,a3,0x1
     e78:	95470713          	addi	a4,a4,-1708 # 6954 <grid>
     e7c:	00d70733          	add	a4,a4,a3
     e80:	00c70733          	add	a4,a4,a2
     e84:	00174703          	lbu	a4,1(a4)
     e88:	d60714e3          	bnez	a4,bf0 <is_filled+0x290>
     e8c:	0487a703          	lw	a4,72(a5)
     e90:	d00706e3          	beqz	a4,b9c <is_filled+0x23c>
     e94:	ce9ff06f          	j	b7c <is_filled+0x21c>
     e98:	00279713          	slli	a4,a5,0x2
     e9c:	00f70733          	add	a4,a4,a5
     ea0:	000077b7          	lui	a5,0x7
     ea4:	00171713          	slli	a4,a4,0x1
     ea8:	95478793          	addi	a5,a5,-1708 # 6954 <grid>
     eac:	00e787b3          	add	a5,a5,a4
     eb0:	00d787b3          	add	a5,a5,a3
     eb4:	0037c503          	lbu	a0,3(a5)
     eb8:	00a03533          	snez	a0,a0
     ebc:	00008067          	ret

00000ec0 <draw_char>:
     ec0:	fbf60613          	addi	a2,a2,-65
     ec4:	0ff67713          	zext.b	a4,a2
     ec8:	01900793          	li	a5,25
     ecc:	0ce7e663          	bltu	a5,a4,f98 <draw_char+0xd8>
     ed0:	00261713          	slli	a4,a2,0x2
     ed4:	0000d837          	lui	a6,0xd
     ed8:	00259793          	slli	a5,a1,0x2
     edc:	88880813          	addi	a6,a6,-1912 # c888 <font5x7>
     ee0:	00c70733          	add	a4,a4,a2
     ee4:	00b787b3          	add	a5,a5,a1
     ee8:	00e80633          	add	a2,a6,a4
     eec:	00679793          	slli	a5,a5,0x6
     ef0:	00560813          	addi	a6,a2,5
     ef4:	00a78533          	add	a0,a5,a0
     ef8:	00007737          	lui	a4,0x7
     efc:	00064783          	lbu	a5,0(a2)
     f00:	0017f593          	andi	a1,a5,1
     f04:	00058863          	beqz	a1,f14 <draw_char+0x54>
     f08:	95072583          	lw	a1,-1712(a4) # 6950 <VGA>
     f0c:	00a585b3          	add	a1,a1,a0
     f10:	00d58023          	sb	a3,0(a1)
     f14:	0027f593          	andi	a1,a5,2
     f18:	00058863          	beqz	a1,f28 <draw_char+0x68>
     f1c:	95072583          	lw	a1,-1712(a4)
     f20:	00a585b3          	add	a1,a1,a0
     f24:	14d58023          	sb	a3,320(a1)
     f28:	0047f593          	andi	a1,a5,4
     f2c:	00058863          	beqz	a1,f3c <draw_char+0x7c>
     f30:	95072583          	lw	a1,-1712(a4)
     f34:	00a585b3          	add	a1,a1,a0
     f38:	28d58023          	sb	a3,640(a1)
     f3c:	0087f593          	andi	a1,a5,8
     f40:	00058863          	beqz	a1,f50 <draw_char+0x90>
     f44:	95072583          	lw	a1,-1712(a4)
     f48:	00a585b3          	add	a1,a1,a0
     f4c:	3cd58023          	sb	a3,960(a1)
     f50:	0107f593          	andi	a1,a5,16
     f54:	00058863          	beqz	a1,f64 <draw_char+0xa4>
     f58:	95072583          	lw	a1,-1712(a4)
     f5c:	00a585b3          	add	a1,a1,a0
     f60:	50d58023          	sb	a3,1280(a1)
     f64:	0207f593          	andi	a1,a5,32
     f68:	00058863          	beqz	a1,f78 <draw_char+0xb8>
     f6c:	95072583          	lw	a1,-1712(a4)
     f70:	00a585b3          	add	a1,a1,a0
     f74:	64d58023          	sb	a3,1600(a1)
     f78:	0407f793          	andi	a5,a5,64
     f7c:	00078863          	beqz	a5,f8c <draw_char+0xcc>
     f80:	95072783          	lw	a5,-1712(a4)
     f84:	00a787b3          	add	a5,a5,a0
     f88:	78d78023          	sb	a3,1920(a5)
     f8c:	00160613          	addi	a2,a2,1
     f90:	00150513          	addi	a0,a0,1
     f94:	f6c814e3          	bne	a6,a2,efc <draw_char+0x3c>
     f98:	00008067          	ret

00000f9c <game_over>:
     f9c:	00013637          	lui	a2,0x13
     fa0:	c0060613          	addi	a2,a2,-1024 # 12c00 <font5x7+0x6378>
     fa4:	00000793          	li	a5,0
     fa8:	000076b7          	lui	a3,0x7
     fac:	9506a703          	lw	a4,-1712(a3) # 6950 <VGA>
     fb0:	00f70733          	add	a4,a4,a5
     fb4:	00070023          	sb	zero,0(a4)
     fb8:	00178793          	addi	a5,a5,1
     fbc:	fec798e3          	bne	a5,a2,fac <game_over+0x10>
     fc0:	0000d337          	lui	t1,0xd
     fc4:	0000d8b7          	lui	a7,0xd
     fc8:	00009e37          	lui	t3,0x9
     fcc:	99430313          	addi	t1,t1,-1644 # c994 <font5x7+0x10c>
     fd0:	88888893          	addi	a7,a7,-1912 # c888 <font5x7>
     fd4:	240e0e13          	addi	t3,t3,576 # 9240 <__global_pointer+0x20f0>
     fd8:	07c00813          	li	a6,124
     fdc:	01900f13          	li	t5,25
     fe0:	fe000593          	li	a1,-32
     fe4:	0c400e93          	li	t4,196
     fe8:	00034783          	lbu	a5,0(t1)
     fec:	fbf78793          	addi	a5,a5,-65
     ff0:	0ff7f713          	zext.b	a4,a5
     ff4:	0aef6a63          	bltu	t5,a4,10a8 <game_over+0x10c>
     ff8:	00279713          	slli	a4,a5,0x2
     ffc:	00f70733          	add	a4,a4,a5
    1000:	00e88733          	add	a4,a7,a4
    1004:	00570f93          	addi	t6,a4,5
    1008:	01c80633          	add	a2,a6,t3
    100c:	00074783          	lbu	a5,0(a4)
    1010:	0017f513          	andi	a0,a5,1
    1014:	00050863          	beqz	a0,1024 <game_over+0x88>
    1018:	9506a503          	lw	a0,-1712(a3)
    101c:	00c50533          	add	a0,a0,a2
    1020:	88b50023          	sb	a1,-1920(a0)
    1024:	0027f513          	andi	a0,a5,2
    1028:	00050863          	beqz	a0,1038 <game_over+0x9c>
    102c:	9506a503          	lw	a0,-1712(a3)
    1030:	00c50533          	add	a0,a0,a2
    1034:	9cb50023          	sb	a1,-1600(a0)
    1038:	0047f513          	andi	a0,a5,4
    103c:	00050863          	beqz	a0,104c <game_over+0xb0>
    1040:	9506a503          	lw	a0,-1712(a3)
    1044:	00c50533          	add	a0,a0,a2
    1048:	b0b50023          	sb	a1,-1280(a0)
    104c:	0087f513          	andi	a0,a5,8
    1050:	00050863          	beqz	a0,1060 <game_over+0xc4>
    1054:	9506a503          	lw	a0,-1712(a3)
    1058:	00c50533          	add	a0,a0,a2
    105c:	c4b50023          	sb	a1,-960(a0)
    1060:	0107f513          	andi	a0,a5,16
    1064:	00050863          	beqz	a0,1074 <game_over+0xd8>
    1068:	9506a503          	lw	a0,-1712(a3)
    106c:	00c50533          	add	a0,a0,a2
    1070:	d8b50023          	sb	a1,-640(a0)
    1074:	0207f513          	andi	a0,a5,32
    1078:	00050863          	beqz	a0,1088 <game_over+0xec>
    107c:	9506a503          	lw	a0,-1712(a3)
    1080:	00c50533          	add	a0,a0,a2
    1084:	ecb50023          	sb	a1,-320(a0)
    1088:	0407f793          	andi	a5,a5,64
    108c:	00078863          	beqz	a5,109c <game_over+0x100>
    1090:	9506a783          	lw	a5,-1712(a3)
    1094:	00c787b3          	add	a5,a5,a2
    1098:	00b78023          	sb	a1,0(a5)
    109c:	00170713          	addi	a4,a4,1
    10a0:	00160613          	addi	a2,a2,1
    10a4:	f6ef94e3          	bne	t6,a4,100c <game_over+0x70>
    10a8:	00880813          	addi	a6,a6,8
    10ac:	00130313          	addi	t1,t1,1
    10b0:	f3d81ce3          	bne	a6,t4,fe8 <game_over+0x4c>
    10b4:	0000d337          	lui	t1,0xd
    10b8:	0000ae37          	lui	t3,0xa
    10bc:	9a030313          	addi	t1,t1,-1632 # c9a0 <font5x7+0x118>
    10c0:	c40e0e13          	addi	t3,t3,-960 # 9c40 <__global_pointer+0x2af0>
    10c4:	08e00513          	li	a0,142
    10c8:	01900f13          	li	t5,25
    10cc:	fe000593          	li	a1,-32
    10d0:	0a700e93          	li	t4,167
    10d4:	00034783          	lbu	a5,0(t1)
    10d8:	fbf78793          	addi	a5,a5,-65
    10dc:	0ff7f713          	zext.b	a4,a5
    10e0:	0aef6a63          	bltu	t5,a4,1194 <game_over+0x1f8>
    10e4:	00279713          	slli	a4,a5,0x2
    10e8:	00f70733          	add	a4,a4,a5
    10ec:	00e88733          	add	a4,a7,a4
    10f0:	00570f93          	addi	t6,a4,5
    10f4:	01c50633          	add	a2,a0,t3
    10f8:	00074783          	lbu	a5,0(a4)
    10fc:	0017f813          	andi	a6,a5,1
    1100:	00080863          	beqz	a6,1110 <game_over+0x174>
    1104:	9506a803          	lw	a6,-1712(a3)
    1108:	00c80833          	add	a6,a6,a2
    110c:	9cb80023          	sb	a1,-1600(a6)
    1110:	0027f813          	andi	a6,a5,2
    1114:	00080863          	beqz	a6,1124 <game_over+0x188>
    1118:	9506a803          	lw	a6,-1712(a3)
    111c:	00c80833          	add	a6,a6,a2
    1120:	b0b80023          	sb	a1,-1280(a6)
    1124:	0047f813          	andi	a6,a5,4
    1128:	00080863          	beqz	a6,1138 <game_over+0x19c>
    112c:	9506a803          	lw	a6,-1712(a3)
    1130:	00c80833          	add	a6,a6,a2
    1134:	c4b80023          	sb	a1,-960(a6)
    1138:	0087f813          	andi	a6,a5,8
    113c:	00080863          	beqz	a6,114c <game_over+0x1b0>
    1140:	9506a803          	lw	a6,-1712(a3)
    1144:	00c80833          	add	a6,a6,a2
    1148:	d8b80023          	sb	a1,-640(a6)
    114c:	0107f813          	andi	a6,a5,16
    1150:	00080863          	beqz	a6,1160 <game_over+0x1c4>
    1154:	9506a803          	lw	a6,-1712(a3)
    1158:	00c80833          	add	a6,a6,a2
    115c:	ecb80023          	sb	a1,-320(a6)
    1160:	0207f813          	andi	a6,a5,32
    1164:	00080863          	beqz	a6,1174 <game_over+0x1d8>
    1168:	9506a803          	lw	a6,-1712(a3)
    116c:	00c80833          	add	a6,a6,a2
    1170:	00b80023          	sb	a1,0(a6)
    1174:	0407f793          	andi	a5,a5,64
    1178:	00078863          	beqz	a5,1188 <game_over+0x1ec>
    117c:	9506a783          	lw	a5,-1712(a3)
    1180:	00c787b3          	add	a5,a5,a2
    1184:	14b78023          	sb	a1,320(a5)
    1188:	00170713          	addi	a4,a4,1
    118c:	00160613          	addi	a2,a2,1
    1190:	f7f714e3          	bne	a4,t6,10f8 <game_over+0x15c>
    1194:	00550513          	addi	a0,a0,5
    1198:	00130313          	addi	t1,t1,1
    119c:	f3d51ce3          	bne	a0,t4,10d4 <game_over+0x138>
    11a0:	0000006f          	j	11a0 <game_over+0x204>

000011a4 <spawn_next>:
    11a4:	000077b7          	lui	a5,0x7
    11a8:	95478793          	addi	a5,a5,-1708 # 6954 <grid>
    11ac:	11878713          	addi	a4,a5,280
    11b0:	0c878693          	addi	a3,a5,200
    11b4:	16878613          	addi	a2,a5,360
    11b8:	00872583          	lw	a1,8(a4)
    11bc:	00072803          	lw	a6,0(a4)
    11c0:	00472503          	lw	a0,4(a4)
    11c4:	00b6a423          	sw	a1,8(a3)
    11c8:	0106a023          	sw	a6,0(a3)
    11cc:	00a6a223          	sw	a0,4(a3)
    11d0:	00c72583          	lw	a1,12(a4)
    11d4:	01070713          	addi	a4,a4,16
    11d8:	01068693          	addi	a3,a3,16
    11dc:	feb6ae23          	sw	a1,-4(a3)
    11e0:	fcc71ce3          	bne	a4,a2,11b8 <spawn_next+0x14>
    11e4:	0000d537          	lui	a0,0xd
    11e8:	88052603          	lw	a2,-1920(a0) # c880 <seed>
    11ec:	249256b7          	lui	a3,0x24925
    11f0:	92568693          	addi	a3,a3,-1755 # 24924925 <_stack_end+0x24817f75>
    11f4:	00261713          	slli	a4,a2,0x2
    11f8:	00c70733          	add	a4,a4,a2
    11fc:	00471593          	slli	a1,a4,0x4
    1200:	40e585b3          	sub	a1,a1,a4
    1204:	0b358593          	addi	a1,a1,179
    1208:	03f5f593          	andi	a1,a1,63
    120c:	0ff5f613          	zext.b	a2,a1
    1210:	02d636b3          	mulhu	a3,a2,a3
    1214:	88b52023          	sw	a1,-1920(a0)
    1218:	00006737          	lui	a4,0x6
    121c:	72070713          	addi	a4,a4,1824 # 6720 <pieces>
    1220:	11878593          	addi	a1,a5,280
    1224:	40d60533          	sub	a0,a2,a3
    1228:	00155513          	srli	a0,a0,0x1
    122c:	00a686b3          	add	a3,a3,a0
    1230:	0026d693          	srli	a3,a3,0x2
    1234:	00369513          	slli	a0,a3,0x3
    1238:	40d506b3          	sub	a3,a0,a3
    123c:	40d60633          	sub	a2,a2,a3
    1240:	0ff67613          	zext.b	a2,a2
    1244:	00261693          	slli	a3,a2,0x2
    1248:	00c686b3          	add	a3,a3,a2
    124c:	00469693          	slli	a3,a3,0x4
    1250:	00d70733          	add	a4,a4,a3
    1254:	05070693          	addi	a3,a4,80
    1258:	00872603          	lw	a2,8(a4)
    125c:	00072803          	lw	a6,0(a4)
    1260:	00472503          	lw	a0,4(a4)
    1264:	00c5a423          	sw	a2,8(a1)
    1268:	0105a023          	sw	a6,0(a1)
    126c:	00a5a223          	sw	a0,4(a1)
    1270:	00c72603          	lw	a2,12(a4)
    1274:	01070713          	addi	a4,a4,16
    1278:	01058593          	addi	a1,a1,16
    127c:	fec5ae23          	sw	a2,-4(a1)
    1280:	fcd71ce3          	bne	a4,a3,1258 <spawn_next+0xb4>
    1284:	0d87a703          	lw	a4,216(a5)
    1288:	00300693          	li	a3,3
    128c:	0c07a823          	sw	zero,208(a5)
    1290:	0cd7a623          	sw	a3,204(a5)
    1294:	00070663          	beqz	a4,12a0 <spawn_next+0xfc>
    1298:	0037c703          	lbu	a4,3(a5)
    129c:	0e071c63          	bnez	a4,1394 <spawn_next+0x1f0>
    12a0:	0dc7a703          	lw	a4,220(a5)
    12a4:	00070663          	beqz	a4,12b0 <spawn_next+0x10c>
    12a8:	0047c703          	lbu	a4,4(a5)
    12ac:	0e071463          	bnez	a4,1394 <spawn_next+0x1f0>
    12b0:	0e07a703          	lw	a4,224(a5)
    12b4:	00070663          	beqz	a4,12c0 <spawn_next+0x11c>
    12b8:	0057c703          	lbu	a4,5(a5)
    12bc:	0c071c63          	bnez	a4,1394 <spawn_next+0x1f0>
    12c0:	0e47a703          	lw	a4,228(a5)
    12c4:	00070663          	beqz	a4,12d0 <spawn_next+0x12c>
    12c8:	0067c703          	lbu	a4,6(a5)
    12cc:	0c071463          	bnez	a4,1394 <spawn_next+0x1f0>
    12d0:	0e87a703          	lw	a4,232(a5)
    12d4:	00070663          	beqz	a4,12e0 <spawn_next+0x13c>
    12d8:	00d7c703          	lbu	a4,13(a5)
    12dc:	0a071c63          	bnez	a4,1394 <spawn_next+0x1f0>
    12e0:	0ec7a703          	lw	a4,236(a5)
    12e4:	00070663          	beqz	a4,12f0 <spawn_next+0x14c>
    12e8:	00e7c703          	lbu	a4,14(a5)
    12ec:	0a071463          	bnez	a4,1394 <spawn_next+0x1f0>
    12f0:	0f07a703          	lw	a4,240(a5)
    12f4:	00070663          	beqz	a4,1300 <spawn_next+0x15c>
    12f8:	00f7c703          	lbu	a4,15(a5)
    12fc:	08071c63          	bnez	a4,1394 <spawn_next+0x1f0>
    1300:	0f47a703          	lw	a4,244(a5)
    1304:	00070663          	beqz	a4,1310 <spawn_next+0x16c>
    1308:	0107c703          	lbu	a4,16(a5)
    130c:	08071463          	bnez	a4,1394 <spawn_next+0x1f0>
    1310:	0f87a703          	lw	a4,248(a5)
    1314:	00070663          	beqz	a4,1320 <spawn_next+0x17c>
    1318:	0177c703          	lbu	a4,23(a5)
    131c:	06071c63          	bnez	a4,1394 <spawn_next+0x1f0>
    1320:	0fc7a703          	lw	a4,252(a5)
    1324:	00070663          	beqz	a4,1330 <spawn_next+0x18c>
    1328:	0187c703          	lbu	a4,24(a5)
    132c:	06071463          	bnez	a4,1394 <spawn_next+0x1f0>
    1330:	1007a703          	lw	a4,256(a5)
    1334:	00070663          	beqz	a4,1340 <spawn_next+0x19c>
    1338:	0197c703          	lbu	a4,25(a5)
    133c:	04071c63          	bnez	a4,1394 <spawn_next+0x1f0>
    1340:	1047a703          	lw	a4,260(a5)
    1344:	00070663          	beqz	a4,1350 <spawn_next+0x1ac>
    1348:	01a7c703          	lbu	a4,26(a5)
    134c:	04071463          	bnez	a4,1394 <spawn_next+0x1f0>
    1350:	1087a703          	lw	a4,264(a5)
    1354:	00070663          	beqz	a4,1360 <spawn_next+0x1bc>
    1358:	0217c703          	lbu	a4,33(a5)
    135c:	02071c63          	bnez	a4,1394 <spawn_next+0x1f0>
    1360:	10c7a703          	lw	a4,268(a5)
    1364:	00070663          	beqz	a4,1370 <spawn_next+0x1cc>
    1368:	0227c703          	lbu	a4,34(a5)
    136c:	02071463          	bnez	a4,1394 <spawn_next+0x1f0>
    1370:	1107a703          	lw	a4,272(a5)
    1374:	00070663          	beqz	a4,1380 <spawn_next+0x1dc>
    1378:	0237c703          	lbu	a4,35(a5)
    137c:	00071c63          	bnez	a4,1394 <spawn_next+0x1f0>
    1380:	1147a703          	lw	a4,276(a5)
    1384:	00070663          	beqz	a4,1390 <spawn_next+0x1ec>
    1388:	0247c783          	lbu	a5,36(a5)
    138c:	00079463          	bnez	a5,1394 <spawn_next+0x1f0>
    1390:	00008067          	ret
    1394:	ff010113          	addi	sp,sp,-16
    1398:	00112623          	sw	ra,12(sp)
    139c:	c01ff0ef          	jal	f9c <game_over>

000013a0 <labinit>:
    13a0:	ffffc6b7          	lui	a3,0xffffc
    13a4:	040007b7          	lui	a5,0x4000
    13a8:	6bf68693          	addi	a3,a3,1727 # ffffc6bf <_stack_end+0xffeefd0f>
    13ac:	02d79423          	sh	a3,40(a5) # 4000028 <_stack_end+0x3ef3678>
    13b0:	02d00693          	li	a3,45
    13b4:	02d79623          	sh	a3,44(a5)
    13b8:	00700693          	li	a3,7
    13bc:	02d79223          	sh	a3,36(a5)
    13c0:	00100693          	li	a3,1
    13c4:	0cd7ac23          	sw	a3,216(a5)
    13c8:	0cd7ae23          	sw	a3,220(a5)
    13cc:	da9fe06f          	j	174 <enable_interrupt>

000013d0 <get_btn>:
    13d0:	040007b7          	lui	a5,0x4000
    13d4:	0d07a503          	lw	a0,208(a5) # 40000d0 <_stack_end+0x3ef3720>
    13d8:	00157513          	andi	a0,a0,1
    13dc:	00008067          	ret

000013e0 <get_sw>:
    13e0:	040007b7          	lui	a5,0x4000
    13e4:	0107a503          	lw	a0,16(a5) # 4000010 <_stack_end+0x3ef3660>
    13e8:	3ff57513          	andi	a0,a0,1023
    13ec:	00008067          	ret

000013f0 <draw_grid>:
    13f0:	00007f37          	lui	t5,0x7
    13f4:	954f0f13          	addi	t5,t5,-1708 # 6954 <grid>
    13f8:	00003eb7          	lui	t4,0x3
    13fc:	0c8f0f93          	addi	t6,t5,200
    1400:	2c8e8e93          	addi	t4,t4,712 # 32c8 <move_piece+0x4c>
    1404:	01200713          	li	a4,18
    1408:	08100313          	li	t1,129
    140c:	00800813          	li	a6,8
    1410:	fb0e8e13          	addi	t3,t4,-80
    1414:	000f0593          	mv	a1,t5
    1418:	0005c883          	lbu	a7,0(a1)
    141c:	00089463          	bnez	a7,1424 <draw_grid+0x34>
    1420:	01200893          	li	a7,18
    1424:	01c507b3          	add	a5,a0,t3
    1428:	08100613          	li	a2,129
    142c:	00000693          	li	a3,0
    1430:	0600006f          	j	1490 <draw_grid+0xa0>
    1434:	0005c603          	lbu	a2,0(a1)
    1438:	0c061863          	bnez	a2,1508 <draw_grid+0x118>
    143c:	000780a3          	sb	zero,1(a5)
    1440:	0005c603          	lbu	a2,0(a1)
    1444:	0a061e63          	bnez	a2,1500 <draw_grid+0x110>
    1448:	00078123          	sb	zero,2(a5)
    144c:	0005c603          	lbu	a2,0(a1)
    1450:	0a061463          	bnez	a2,14f8 <draw_grid+0x108>
    1454:	000781a3          	sb	zero,3(a5)
    1458:	0005c603          	lbu	a2,0(a1)
    145c:	08061a63          	bnez	a2,14f0 <draw_grid+0x100>
    1460:	00078223          	sb	zero,4(a5)
    1464:	0005c603          	lbu	a2,0(a1)
    1468:	08061063          	bnez	a2,14e8 <draw_grid+0xf8>
    146c:	000782a3          	sb	zero,5(a5)
    1470:	0005c603          	lbu	a2,0(a1)
    1474:	06061663          	bnez	a2,14e0 <draw_grid+0xf0>
    1478:	00078323          	sb	zero,6(a5)
    147c:	00e783a3          	sb	a4,7(a5)
    1480:	00168693          	addi	a3,a3,1
    1484:	03068e63          	beq	a3,a6,14c0 <draw_grid+0xd0>
    1488:	14078793          	addi	a5,a5,320
    148c:	00d35633          	srl	a2,t1,a3
    1490:	00e78023          	sb	a4,0(a5)
    1494:	00167613          	andi	a2,a2,1
    1498:	f8060ee3          	beqz	a2,1434 <draw_grid+0x44>
    149c:	00e780a3          	sb	a4,1(a5)
    14a0:	00e78123          	sb	a4,2(a5)
    14a4:	00e781a3          	sb	a4,3(a5)
    14a8:	00e78223          	sb	a4,4(a5)
    14ac:	00e782a3          	sb	a4,5(a5)
    14b0:	00e78323          	sb	a4,6(a5)
    14b4:	00e783a3          	sb	a4,7(a5)
    14b8:	00168693          	addi	a3,a3,1
    14bc:	fd0696e3          	bne	a3,a6,1488 <draw_grid+0x98>
    14c0:	008e0e13          	addi	t3,t3,8
    14c4:	00158593          	addi	a1,a1,1
    14c8:	f5de18e3          	bne	t3,t4,1418 <draw_grid+0x28>
    14cc:	7ffe0e93          	addi	t4,t3,2047
    14d0:	00af0f13          	addi	t5,t5,10
    14d4:	201e8e93          	addi	t4,t4,513
    14d8:	f3ff1ce3          	bne	t5,t6,1410 <draw_grid+0x20>
    14dc:	00008067          	ret
    14e0:	01178323          	sb	a7,6(a5)
    14e4:	f99ff06f          	j	147c <draw_grid+0x8c>
    14e8:	011782a3          	sb	a7,5(a5)
    14ec:	f85ff06f          	j	1470 <draw_grid+0x80>
    14f0:	01178223          	sb	a7,4(a5)
    14f4:	f71ff06f          	j	1464 <draw_grid+0x74>
    14f8:	011781a3          	sb	a7,3(a5)
    14fc:	f5dff06f          	j	1458 <draw_grid+0x68>
    1500:	01178123          	sb	a7,2(a5)
    1504:	f49ff06f          	j	144c <draw_grid+0x5c>
    1508:	011780a3          	sb	a7,1(a5)
    150c:	f35ff06f          	j	1440 <draw_grid+0x50>

00001510 <draw_shape>:
    1510:	00000893          	li	a7,0
    1514:	00400313          	li	t1,4
    1518:	00489693          	slli	a3,a7,0x4
    151c:	00d586b3          	add	a3,a1,a3
    1520:	00000713          	li	a4,0
    1524:	0106a783          	lw	a5,16(a3)
    1528:	00079e63          	bnez	a5,1544 <draw_shape+0x34>
    152c:	00170713          	addi	a4,a4,1
    1530:	00468693          	addi	a3,a3,4
    1534:	fe6718e3          	bne	a4,t1,1524 <draw_shape+0x14>
    1538:	00188893          	addi	a7,a7,1
    153c:	fce89ee3          	bne	a7,a4,1518 <draw_shape+0x8>
    1540:	00008067          	ret
    1544:	0085a603          	lw	a2,8(a1)
    1548:	0045a803          	lw	a6,4(a1)
    154c:	00c5ce03          	lbu	t3,12(a1)
    1550:	00c88633          	add	a2,a7,a2
    1554:	00560613          	addi	a2,a2,5
    1558:	00261793          	slli	a5,a2,0x2
    155c:	00c787b3          	add	a5,a5,a2
    1560:	01070633          	add	a2,a4,a6
    1564:	00f60613          	addi	a2,a2,15
    1568:	00679793          	slli	a5,a5,0x6
    156c:	00c787b3          	add	a5,a5,a2
    1570:	00379793          	slli	a5,a5,0x3
    1574:	00f50833          	add	a6,a0,a5
    1578:	00178613          	addi	a2,a5,1
    157c:	01c80023          	sb	t3,0(a6)
    1580:	00c50633          	add	a2,a0,a2
    1584:	01c60023          	sb	t3,0(a2)
    1588:	00c5ce03          	lbu	t3,12(a1)
    158c:	00278813          	addi	a6,a5,2
    1590:	01050833          	add	a6,a0,a6
    1594:	00378613          	addi	a2,a5,3
    1598:	01c80023          	sb	t3,0(a6)
    159c:	00c50633          	add	a2,a0,a2
    15a0:	01c60023          	sb	t3,0(a2)
    15a4:	00c5ce03          	lbu	t3,12(a1)
    15a8:	00478813          	addi	a6,a5,4
    15ac:	01050833          	add	a6,a0,a6
    15b0:	00578613          	addi	a2,a5,5
    15b4:	01c80023          	sb	t3,0(a6)
    15b8:	00c50633          	add	a2,a0,a2
    15bc:	01c60023          	sb	t3,0(a2)
    15c0:	00c5ce03          	lbu	t3,12(a1)
    15c4:	00678813          	addi	a6,a5,6
    15c8:	01050833          	add	a6,a0,a6
    15cc:	00778613          	addi	a2,a5,7
    15d0:	01c80023          	sb	t3,0(a6)
    15d4:	00c50633          	add	a2,a0,a2
    15d8:	01c60023          	sb	t3,0(a2)
    15dc:	00c5ce03          	lbu	t3,12(a1)
    15e0:	14078813          	addi	a6,a5,320
    15e4:	01050833          	add	a6,a0,a6
    15e8:	14178613          	addi	a2,a5,321
    15ec:	01c80023          	sb	t3,0(a6)
    15f0:	00c50633          	add	a2,a0,a2
    15f4:	01c60023          	sb	t3,0(a2)
    15f8:	00c5ce03          	lbu	t3,12(a1)
    15fc:	14278813          	addi	a6,a5,322
    1600:	01050833          	add	a6,a0,a6
    1604:	14378613          	addi	a2,a5,323
    1608:	01c80023          	sb	t3,0(a6)
    160c:	00c50633          	add	a2,a0,a2
    1610:	01c60023          	sb	t3,0(a2)
    1614:	00c5ce03          	lbu	t3,12(a1)
    1618:	14478813          	addi	a6,a5,324
    161c:	01050833          	add	a6,a0,a6
    1620:	14578613          	addi	a2,a5,325
    1624:	01c80023          	sb	t3,0(a6)
    1628:	00c50633          	add	a2,a0,a2
    162c:	01c60023          	sb	t3,0(a2)
    1630:	00c5ce03          	lbu	t3,12(a1)
    1634:	14678813          	addi	a6,a5,326
    1638:	01050833          	add	a6,a0,a6
    163c:	14778613          	addi	a2,a5,327
    1640:	01c80023          	sb	t3,0(a6)
    1644:	00c50633          	add	a2,a0,a2
    1648:	01c60023          	sb	t3,0(a2)
    164c:	00c5ce03          	lbu	t3,12(a1)
    1650:	28078813          	addi	a6,a5,640
    1654:	01050833          	add	a6,a0,a6
    1658:	28178613          	addi	a2,a5,641
    165c:	01c80023          	sb	t3,0(a6)
    1660:	00c50633          	add	a2,a0,a2
    1664:	01c60023          	sb	t3,0(a2)
    1668:	00c5ce03          	lbu	t3,12(a1)
    166c:	28278813          	addi	a6,a5,642
    1670:	01050833          	add	a6,a0,a6
    1674:	28378613          	addi	a2,a5,643
    1678:	01c80023          	sb	t3,0(a6)
    167c:	00c50633          	add	a2,a0,a2
    1680:	01c60023          	sb	t3,0(a2)
    1684:	00c5ce03          	lbu	t3,12(a1)
    1688:	28478813          	addi	a6,a5,644
    168c:	01050833          	add	a6,a0,a6
    1690:	28578613          	addi	a2,a5,645
    1694:	01c80023          	sb	t3,0(a6)
    1698:	00c50633          	add	a2,a0,a2
    169c:	01c60023          	sb	t3,0(a2)
    16a0:	00c5ce03          	lbu	t3,12(a1)
    16a4:	28678813          	addi	a6,a5,646
    16a8:	01050833          	add	a6,a0,a6
    16ac:	28778613          	addi	a2,a5,647
    16b0:	01c80023          	sb	t3,0(a6)
    16b4:	00c50633          	add	a2,a0,a2
    16b8:	01c60023          	sb	t3,0(a2)
    16bc:	00c5ce03          	lbu	t3,12(a1)
    16c0:	3c078813          	addi	a6,a5,960
    16c4:	01050833          	add	a6,a0,a6
    16c8:	3c178613          	addi	a2,a5,961
    16cc:	01c80023          	sb	t3,0(a6)
    16d0:	00c50633          	add	a2,a0,a2
    16d4:	01c60023          	sb	t3,0(a2)
    16d8:	00c5ce03          	lbu	t3,12(a1)
    16dc:	3c278813          	addi	a6,a5,962
    16e0:	01050833          	add	a6,a0,a6
    16e4:	3c378613          	addi	a2,a5,963
    16e8:	01c80023          	sb	t3,0(a6)
    16ec:	00c50633          	add	a2,a0,a2
    16f0:	01c60023          	sb	t3,0(a2)
    16f4:	00c5ce03          	lbu	t3,12(a1)
    16f8:	3c478813          	addi	a6,a5,964
    16fc:	01050833          	add	a6,a0,a6
    1700:	3c578613          	addi	a2,a5,965
    1704:	01c80023          	sb	t3,0(a6)
    1708:	00c50633          	add	a2,a0,a2
    170c:	01c60023          	sb	t3,0(a2)
    1710:	00c5ce03          	lbu	t3,12(a1)
    1714:	3c678813          	addi	a6,a5,966
    1718:	01050833          	add	a6,a0,a6
    171c:	3c778613          	addi	a2,a5,967
    1720:	01c80023          	sb	t3,0(a6)
    1724:	00c50633          	add	a2,a0,a2
    1728:	01c60023          	sb	t3,0(a2)
    172c:	00c5ce03          	lbu	t3,12(a1)
    1730:	50078813          	addi	a6,a5,1280
    1734:	01050833          	add	a6,a0,a6
    1738:	50178613          	addi	a2,a5,1281
    173c:	01c80023          	sb	t3,0(a6)
    1740:	00c50633          	add	a2,a0,a2
    1744:	01c60023          	sb	t3,0(a2)
    1748:	00c5ce03          	lbu	t3,12(a1)
    174c:	50278813          	addi	a6,a5,1282
    1750:	01050833          	add	a6,a0,a6
    1754:	50378613          	addi	a2,a5,1283
    1758:	01c80023          	sb	t3,0(a6)
    175c:	00c50633          	add	a2,a0,a2
    1760:	01c60023          	sb	t3,0(a2)
    1764:	00c5ce03          	lbu	t3,12(a1)
    1768:	50478813          	addi	a6,a5,1284
    176c:	01050833          	add	a6,a0,a6
    1770:	50578613          	addi	a2,a5,1285
    1774:	01c80023          	sb	t3,0(a6)
    1778:	00c50633          	add	a2,a0,a2
    177c:	01c60023          	sb	t3,0(a2)
    1780:	00c5ce03          	lbu	t3,12(a1)
    1784:	50678813          	addi	a6,a5,1286
    1788:	01050833          	add	a6,a0,a6
    178c:	50778613          	addi	a2,a5,1287
    1790:	01c80023          	sb	t3,0(a6)
    1794:	00c50633          	add	a2,a0,a2
    1798:	01c60023          	sb	t3,0(a2)
    179c:	00c5ce03          	lbu	t3,12(a1)
    17a0:	64078813          	addi	a6,a5,1600
    17a4:	01050833          	add	a6,a0,a6
    17a8:	64178613          	addi	a2,a5,1601
    17ac:	01c80023          	sb	t3,0(a6)
    17b0:	00c50633          	add	a2,a0,a2
    17b4:	01c60023          	sb	t3,0(a2)
    17b8:	00c5ce03          	lbu	t3,12(a1)
    17bc:	64278813          	addi	a6,a5,1602
    17c0:	01050833          	add	a6,a0,a6
    17c4:	64378613          	addi	a2,a5,1603
    17c8:	01c80023          	sb	t3,0(a6)
    17cc:	00c50633          	add	a2,a0,a2
    17d0:	01c60023          	sb	t3,0(a2)
    17d4:	00c5ce03          	lbu	t3,12(a1)
    17d8:	64478813          	addi	a6,a5,1604
    17dc:	01050833          	add	a6,a0,a6
    17e0:	64578613          	addi	a2,a5,1605
    17e4:	01c80023          	sb	t3,0(a6)
    17e8:	00c50633          	add	a2,a0,a2
    17ec:	01c60023          	sb	t3,0(a2)
    17f0:	00c5ce03          	lbu	t3,12(a1)
    17f4:	64678813          	addi	a6,a5,1606
    17f8:	01050833          	add	a6,a0,a6
    17fc:	64778613          	addi	a2,a5,1607
    1800:	01c80023          	sb	t3,0(a6)
    1804:	00c50633          	add	a2,a0,a2
    1808:	01c60023          	sb	t3,0(a2)
    180c:	00c5ce03          	lbu	t3,12(a1)
    1810:	78078813          	addi	a6,a5,1920
    1814:	01050833          	add	a6,a0,a6
    1818:	78178613          	addi	a2,a5,1921
    181c:	01c80023          	sb	t3,0(a6)
    1820:	00c50633          	add	a2,a0,a2
    1824:	01c60023          	sb	t3,0(a2)
    1828:	00c5ce03          	lbu	t3,12(a1)
    182c:	78278813          	addi	a6,a5,1922
    1830:	01050833          	add	a6,a0,a6
    1834:	78378613          	addi	a2,a5,1923
    1838:	01c80023          	sb	t3,0(a6)
    183c:	00c50633          	add	a2,a0,a2
    1840:	01c60023          	sb	t3,0(a2)
    1844:	00c5ce03          	lbu	t3,12(a1)
    1848:	78478813          	addi	a6,a5,1924
    184c:	01050833          	add	a6,a0,a6
    1850:	78578613          	addi	a2,a5,1925
    1854:	01c80023          	sb	t3,0(a6)
    1858:	00c50633          	add	a2,a0,a2
    185c:	01c60023          	sb	t3,0(a2)
    1860:	00c5ce03          	lbu	t3,12(a1)
    1864:	78678813          	addi	a6,a5,1926
    1868:	01050833          	add	a6,a0,a6
    186c:	78778613          	addi	a2,a5,1927
    1870:	01c80023          	sb	t3,0(a6)
    1874:	00c50633          	add	a2,a0,a2
    1878:	01c60023          	sb	t3,0(a2)
    187c:	00c5ce03          	lbu	t3,12(a1)
    1880:	7ff78813          	addi	a6,a5,2047
    1884:	7ff78613          	addi	a2,a5,2047
    1888:	0c180813          	addi	a6,a6,193
    188c:	01050833          	add	a6,a0,a6
    1890:	0c260613          	addi	a2,a2,194
    1894:	01c80023          	sb	t3,0(a6)
    1898:	00c50633          	add	a2,a0,a2
    189c:	01c60023          	sb	t3,0(a2)
    18a0:	00c5ce03          	lbu	t3,12(a1)
    18a4:	7ff78813          	addi	a6,a5,2047
    18a8:	7ff78613          	addi	a2,a5,2047
    18ac:	0c380813          	addi	a6,a6,195
    18b0:	01050833          	add	a6,a0,a6
    18b4:	0c460613          	addi	a2,a2,196
    18b8:	01c80023          	sb	t3,0(a6)
    18bc:	00c50633          	add	a2,a0,a2
    18c0:	01c60023          	sb	t3,0(a2)
    18c4:	00c5ce03          	lbu	t3,12(a1)
    18c8:	7ff78813          	addi	a6,a5,2047
    18cc:	7ff78613          	addi	a2,a5,2047
    18d0:	0c580813          	addi	a6,a6,197
    18d4:	01050833          	add	a6,a0,a6
    18d8:	0c660613          	addi	a2,a2,198
    18dc:	01c80023          	sb	t3,0(a6)
    18e0:	00c50633          	add	a2,a0,a2
    18e4:	01c60023          	sb	t3,0(a2)
    18e8:	00c5c803          	lbu	a6,12(a1)
    18ec:	7ff78613          	addi	a2,a5,2047
    18f0:	0c760613          	addi	a2,a2,199
    18f4:	7ff78793          	addi	a5,a5,2047
    18f8:	00c50633          	add	a2,a0,a2
    18fc:	0c878793          	addi	a5,a5,200
    1900:	01060023          	sb	a6,0(a2)
    1904:	00f507b3          	add	a5,a0,a5
    1908:	01078023          	sb	a6,0(a5)
    190c:	c21ff06f          	j	152c <draw_shape+0x1c>

00001910 <draw_next_piece>:
    1910:	00003637          	lui	a2,0x3
    1914:	20060613          	addi	a2,a2,512 # 3200 <rotate_piece+0x1c4>
    1918:	fc010113          	addi	sp,sp,-64
    191c:	40c50833          	sub	a6,a0,a2
    1920:	00003737          	lui	a4,0x3
    1924:	00003537          	lui	a0,0x3
    1928:	000037b7          	lui	a5,0x3
    192c:	03412623          	sw	s4,44(sp)
    1930:	03512423          	sw	s5,40(sp)
    1934:	03612223          	sw	s6,36(sp)
    1938:	03712023          	sw	s7,32(sp)
    193c:	01812e23          	sw	s8,28(sp)
    1940:	01912c23          	sw	s9,24(sp)
    1944:	01a12a23          	sw	s10,20(sp)
    1948:	01b12823          	sw	s11,16(sp)
    194c:	00003d37          	lui	s10,0x3
    1950:	00003db7          	lui	s11,0x3
    1954:	00003cb7          	lui	s9,0x3
    1958:	00003c37          	lui	s8,0x3
    195c:	00003bb7          	lui	s7,0x3
    1960:	00003b37          	lui	s6,0x3
    1964:	00003ab7          	lui	s5,0x3
    1968:	00003a37          	lui	s4,0x3
    196c:	44450513          	addi	a0,a0,1092 # 3444 <move_piece+0x1c8>
    1970:	44570713          	addi	a4,a4,1093 # 3445 <move_piece+0x1c9>
    1974:	44678793          	addi	a5,a5,1094 # 3446 <move_piece+0x1ca>
    1978:	02812e23          	sw	s0,60(sp)
    197c:	02912c23          	sw	s1,56(sp)
    1980:	03212a23          	sw	s2,52(sp)
    1984:	03312823          	sw	s3,48(sp)
    1988:	01058693          	addi	a3,a1,16
    198c:	304d8d93          	addi	s11,s11,772 # 3304 <move_piece+0x88>
    1990:	305d0d13          	addi	s10,s10,773 # 3305 <move_piece+0x89>
    1994:	306c8c93          	addi	s9,s9,774 # 3306 <move_piece+0x8a>
    1998:	307c0c13          	addi	s8,s8,775 # 3307 <move_piece+0x8b>
    199c:	308b8b93          	addi	s7,s7,776 # 3308 <move_piece+0x8c>
    19a0:	309b0b13          	addi	s6,s6,777 # 3309 <move_piece+0x8d>
    19a4:	30aa8a93          	addi	s5,s5,778 # 330a <move_piece+0x8e>
    19a8:	30ba0a13          	addi	s4,s4,779 # 330b <move_piece+0x8f>
    19ac:	00a12223          	sw	a0,4(sp)
    19b0:	00e12423          	sw	a4,8(sp)
    19b4:	00f12623          	sw	a5,12(sp)
    19b8:	00003437          	lui	s0,0x3
    19bc:	00003937          	lui	s2,0x3
    19c0:	000034b7          	lui	s1,0x3
    19c4:	44a40393          	addi	t2,s0,1098 # 344a <move_piece+0x1ce>
    19c8:	44b40293          	addi	t0,s0,1099
    19cc:	58440f93          	addi	t6,s0,1412
    19d0:	58540f13          	addi	t5,s0,1413
    19d4:	58640e93          	addi	t4,s0,1414
    19d8:	58740e13          	addi	t3,s0,1415
    19dc:	58840313          	addi	t1,s0,1416
    19e0:	58940893          	addi	a7,s0,1417
    19e4:	44790913          	addi	s2,s2,1095 # 3447 <move_piece+0x1cb>
    19e8:	44848493          	addi	s1,s1,1096 # 3448 <move_piece+0x1cc>
    19ec:	44940413          	addi	s0,s0,1097
    19f0:	ff068713          	addi	a4,a3,-16
    19f4:	00c807b3          	add	a5,a6,a2
    19f8:	00c12023          	sw	a2,0(sp)
    19fc:	01072603          	lw	a2,16(a4)
    1a00:	06061263          	bnez	a2,1a64 <draw_next_piece+0x154>
    1a04:	00470713          	addi	a4,a4,4
    1a08:	00878793          	addi	a5,a5,8
    1a0c:	fee698e3          	bne	a3,a4,19fc <draw_next_piece+0xec>
    1a10:	00012603          	lw	a2,0(sp)
    1a14:	000067b7          	lui	a5,0x6
    1a18:	a0078793          	addi	a5,a5,-1536 # 5a00 <tick+0x11fc>
    1a1c:	7ff60613          	addi	a2,a2,2047
    1a20:	20160613          	addi	a2,a2,513
    1a24:	01068693          	addi	a3,a3,16
    1a28:	f8f618e3          	bne	a2,a5,19b8 <draw_next_piece+0xa8>
    1a2c:	03c12403          	lw	s0,60(sp)
    1a30:	03812483          	lw	s1,56(sp)
    1a34:	03412903          	lw	s2,52(sp)
    1a38:	03012983          	lw	s3,48(sp)
    1a3c:	02c12a03          	lw	s4,44(sp)
    1a40:	02812a83          	lw	s5,40(sp)
    1a44:	02412b03          	lw	s6,36(sp)
    1a48:	02012b83          	lw	s7,32(sp)
    1a4c:	01c12c03          	lw	s8,28(sp)
    1a50:	01812c83          	lw	s9,24(sp)
    1a54:	01412d03          	lw	s10,20(sp)
    1a58:	01012d83          	lw	s11,16(sp)
    1a5c:	04010113          	addi	sp,sp,64
    1a60:	00008067          	ret
    1a64:	00c5c983          	lbu	s3,12(a1)
    1a68:	01b78533          	add	a0,a5,s11
    1a6c:	01a78633          	add	a2,a5,s10
    1a70:	01350023          	sb	s3,0(a0)
    1a74:	01360023          	sb	s3,0(a2)
    1a78:	00c5c983          	lbu	s3,12(a1)
    1a7c:	01978533          	add	a0,a5,s9
    1a80:	01878633          	add	a2,a5,s8
    1a84:	01350023          	sb	s3,0(a0)
    1a88:	01360023          	sb	s3,0(a2)
    1a8c:	00c5c983          	lbu	s3,12(a1)
    1a90:	01778533          	add	a0,a5,s7
    1a94:	01678633          	add	a2,a5,s6
    1a98:	01350023          	sb	s3,0(a0)
    1a9c:	01360023          	sb	s3,0(a2)
    1aa0:	00c5c983          	lbu	s3,12(a1)
    1aa4:	01578533          	add	a0,a5,s5
    1aa8:	01478633          	add	a2,a5,s4
    1aac:	01350023          	sb	s3,0(a0)
    1ab0:	01360023          	sb	s3,0(a2)
    1ab4:	00412603          	lw	a2,4(sp)
    1ab8:	00c5c983          	lbu	s3,12(a1)
    1abc:	00c78533          	add	a0,a5,a2
    1ac0:	00812603          	lw	a2,8(sp)
    1ac4:	01350023          	sb	s3,0(a0)
    1ac8:	00c78633          	add	a2,a5,a2
    1acc:	01360023          	sb	s3,0(a2)
    1ad0:	00c12603          	lw	a2,12(sp)
    1ad4:	00c5c983          	lbu	s3,12(a1)
    1ad8:	00c78533          	add	a0,a5,a2
    1adc:	01350023          	sb	s3,0(a0)
    1ae0:	01278633          	add	a2,a5,s2
    1ae4:	01360023          	sb	s3,0(a2)
    1ae8:	00c5c983          	lbu	s3,12(a1)
    1aec:	00978533          	add	a0,a5,s1
    1af0:	00878633          	add	a2,a5,s0
    1af4:	01350023          	sb	s3,0(a0)
    1af8:	01360023          	sb	s3,0(a2)
    1afc:	00c5c983          	lbu	s3,12(a1)
    1b00:	00778533          	add	a0,a5,t2
    1b04:	00578633          	add	a2,a5,t0
    1b08:	01350023          	sb	s3,0(a0)
    1b0c:	01360023          	sb	s3,0(a2)
    1b10:	00c5c983          	lbu	s3,12(a1)
    1b14:	01f78533          	add	a0,a5,t6
    1b18:	01e78633          	add	a2,a5,t5
    1b1c:	01350023          	sb	s3,0(a0)
    1b20:	01360023          	sb	s3,0(a2)
    1b24:	00c5c983          	lbu	s3,12(a1)
    1b28:	01d78533          	add	a0,a5,t4
    1b2c:	01c78633          	add	a2,a5,t3
    1b30:	01350023          	sb	s3,0(a0)
    1b34:	01360023          	sb	s3,0(a2)
    1b38:	00c5c983          	lbu	s3,12(a1)
    1b3c:	00678533          	add	a0,a5,t1
    1b40:	01178633          	add	a2,a5,a7
    1b44:	01350023          	sb	s3,0(a0)
    1b48:	01360023          	sb	s3,0(a2)
    1b4c:	00c5c503          	lbu	a0,12(a1)
    1b50:	00003637          	lui	a2,0x3
    1b54:	58a60613          	addi	a2,a2,1418 # 358a <move_piece+0x30e>
    1b58:	00c78633          	add	a2,a5,a2
    1b5c:	00a60023          	sb	a0,0(a2)
    1b60:	00003637          	lui	a2,0x3
    1b64:	58b60613          	addi	a2,a2,1419 # 358b <move_piece+0x30f>
    1b68:	00c78633          	add	a2,a5,a2
    1b6c:	00a60023          	sb	a0,0(a2)
    1b70:	00c5c503          	lbu	a0,12(a1)
    1b74:	00003637          	lui	a2,0x3
    1b78:	6c460613          	addi	a2,a2,1732 # 36c4 <move_piece+0x448>
    1b7c:	00c78633          	add	a2,a5,a2
    1b80:	00a60023          	sb	a0,0(a2)
    1b84:	00003637          	lui	a2,0x3
    1b88:	6c560613          	addi	a2,a2,1733 # 36c5 <move_piece+0x449>
    1b8c:	00c78633          	add	a2,a5,a2
    1b90:	00a60023          	sb	a0,0(a2)
    1b94:	00c5c503          	lbu	a0,12(a1)
    1b98:	00003637          	lui	a2,0x3
    1b9c:	6c660613          	addi	a2,a2,1734 # 36c6 <move_piece+0x44a>
    1ba0:	00c78633          	add	a2,a5,a2
    1ba4:	00a60023          	sb	a0,0(a2)
    1ba8:	00003637          	lui	a2,0x3
    1bac:	6c760613          	addi	a2,a2,1735 # 36c7 <move_piece+0x44b>
    1bb0:	00c78633          	add	a2,a5,a2
    1bb4:	00a60023          	sb	a0,0(a2)
    1bb8:	00c5c503          	lbu	a0,12(a1)
    1bbc:	00003637          	lui	a2,0x3
    1bc0:	6c860613          	addi	a2,a2,1736 # 36c8 <move_piece+0x44c>
    1bc4:	00c78633          	add	a2,a5,a2
    1bc8:	00a60023          	sb	a0,0(a2)
    1bcc:	00003637          	lui	a2,0x3
    1bd0:	6c960613          	addi	a2,a2,1737 # 36c9 <move_piece+0x44d>
    1bd4:	00c78633          	add	a2,a5,a2
    1bd8:	00a60023          	sb	a0,0(a2)
    1bdc:	00c5c503          	lbu	a0,12(a1)
    1be0:	00003637          	lui	a2,0x3
    1be4:	6ca60613          	addi	a2,a2,1738 # 36ca <move_piece+0x44e>
    1be8:	00c78633          	add	a2,a5,a2
    1bec:	00a60023          	sb	a0,0(a2)
    1bf0:	00003637          	lui	a2,0x3
    1bf4:	6cb60613          	addi	a2,a2,1739 # 36cb <move_piece+0x44f>
    1bf8:	00c78633          	add	a2,a5,a2
    1bfc:	00a60023          	sb	a0,0(a2)
    1c00:	00c5c503          	lbu	a0,12(a1)
    1c04:	00004637          	lui	a2,0x4
    1c08:	80460613          	addi	a2,a2,-2044 # 3804 <move_piece+0x588>
    1c0c:	00c78633          	add	a2,a5,a2
    1c10:	00a60023          	sb	a0,0(a2)
    1c14:	00004637          	lui	a2,0x4
    1c18:	80560613          	addi	a2,a2,-2043 # 3805 <move_piece+0x589>
    1c1c:	00c78633          	add	a2,a5,a2
    1c20:	00a60023          	sb	a0,0(a2)
    1c24:	00c5c503          	lbu	a0,12(a1)
    1c28:	00004637          	lui	a2,0x4
    1c2c:	80660613          	addi	a2,a2,-2042 # 3806 <move_piece+0x58a>
    1c30:	00c78633          	add	a2,a5,a2
    1c34:	00a60023          	sb	a0,0(a2)
    1c38:	00004637          	lui	a2,0x4
    1c3c:	80760613          	addi	a2,a2,-2041 # 3807 <move_piece+0x58b>
    1c40:	00c78633          	add	a2,a5,a2
    1c44:	00a60023          	sb	a0,0(a2)
    1c48:	00c5c503          	lbu	a0,12(a1)
    1c4c:	00004637          	lui	a2,0x4
    1c50:	80860613          	addi	a2,a2,-2040 # 3808 <move_piece+0x58c>
    1c54:	00c78633          	add	a2,a5,a2
    1c58:	00a60023          	sb	a0,0(a2)
    1c5c:	00004637          	lui	a2,0x4
    1c60:	80960613          	addi	a2,a2,-2039 # 3809 <move_piece+0x58d>
    1c64:	00c78633          	add	a2,a5,a2
    1c68:	00a60023          	sb	a0,0(a2)
    1c6c:	00c5c503          	lbu	a0,12(a1)
    1c70:	00004637          	lui	a2,0x4
    1c74:	80a60613          	addi	a2,a2,-2038 # 380a <move_piece+0x58e>
    1c78:	00c78633          	add	a2,a5,a2
    1c7c:	00a60023          	sb	a0,0(a2)
    1c80:	00004637          	lui	a2,0x4
    1c84:	80b60613          	addi	a2,a2,-2037 # 380b <move_piece+0x58f>
    1c88:	00c78633          	add	a2,a5,a2
    1c8c:	00a60023          	sb	a0,0(a2)
    1c90:	00c5c503          	lbu	a0,12(a1)
    1c94:	00004637          	lui	a2,0x4
    1c98:	94460613          	addi	a2,a2,-1724 # 3944 <move_piece+0x6c8>
    1c9c:	00c78633          	add	a2,a5,a2
    1ca0:	00a60023          	sb	a0,0(a2)
    1ca4:	00004637          	lui	a2,0x4
    1ca8:	94560613          	addi	a2,a2,-1723 # 3945 <move_piece+0x6c9>
    1cac:	00c78633          	add	a2,a5,a2
    1cb0:	00a60023          	sb	a0,0(a2)
    1cb4:	00c5c503          	lbu	a0,12(a1)
    1cb8:	00004637          	lui	a2,0x4
    1cbc:	94660613          	addi	a2,a2,-1722 # 3946 <move_piece+0x6ca>
    1cc0:	00c78633          	add	a2,a5,a2
    1cc4:	00a60023          	sb	a0,0(a2)
    1cc8:	00004637          	lui	a2,0x4
    1ccc:	94760613          	addi	a2,a2,-1721 # 3947 <move_piece+0x6cb>
    1cd0:	00c78633          	add	a2,a5,a2
    1cd4:	00a60023          	sb	a0,0(a2)
    1cd8:	00c5c503          	lbu	a0,12(a1)
    1cdc:	00004637          	lui	a2,0x4
    1ce0:	94860613          	addi	a2,a2,-1720 # 3948 <move_piece+0x6cc>
    1ce4:	00c78633          	add	a2,a5,a2
    1ce8:	00a60023          	sb	a0,0(a2)
    1cec:	00004637          	lui	a2,0x4
    1cf0:	94960613          	addi	a2,a2,-1719 # 3949 <move_piece+0x6cd>
    1cf4:	00c78633          	add	a2,a5,a2
    1cf8:	00a60023          	sb	a0,0(a2)
    1cfc:	00c5c503          	lbu	a0,12(a1)
    1d00:	00004637          	lui	a2,0x4
    1d04:	94a60613          	addi	a2,a2,-1718 # 394a <move_piece+0x6ce>
    1d08:	00c78633          	add	a2,a5,a2
    1d0c:	00a60023          	sb	a0,0(a2)
    1d10:	00004637          	lui	a2,0x4
    1d14:	94b60613          	addi	a2,a2,-1717 # 394b <move_piece+0x6cf>
    1d18:	00c78633          	add	a2,a5,a2
    1d1c:	00a60023          	sb	a0,0(a2)
    1d20:	00c5c503          	lbu	a0,12(a1)
    1d24:	00004637          	lui	a2,0x4
    1d28:	a8460613          	addi	a2,a2,-1404 # 3a84 <move_piece+0x808>
    1d2c:	00c78633          	add	a2,a5,a2
    1d30:	00a60023          	sb	a0,0(a2)
    1d34:	00004637          	lui	a2,0x4
    1d38:	a8560613          	addi	a2,a2,-1403 # 3a85 <move_piece+0x809>
    1d3c:	00c78633          	add	a2,a5,a2
    1d40:	00a60023          	sb	a0,0(a2)
    1d44:	00c5c503          	lbu	a0,12(a1)
    1d48:	00004637          	lui	a2,0x4
    1d4c:	a8660613          	addi	a2,a2,-1402 # 3a86 <move_piece+0x80a>
    1d50:	00c78633          	add	a2,a5,a2
    1d54:	00a60023          	sb	a0,0(a2)
    1d58:	00004637          	lui	a2,0x4
    1d5c:	a8760613          	addi	a2,a2,-1401 # 3a87 <move_piece+0x80b>
    1d60:	00c78633          	add	a2,a5,a2
    1d64:	00a60023          	sb	a0,0(a2)
    1d68:	00c5c503          	lbu	a0,12(a1)
    1d6c:	00004637          	lui	a2,0x4
    1d70:	a8860613          	addi	a2,a2,-1400 # 3a88 <move_piece+0x80c>
    1d74:	00c78633          	add	a2,a5,a2
    1d78:	00a60023          	sb	a0,0(a2)
    1d7c:	00004637          	lui	a2,0x4
    1d80:	a8960613          	addi	a2,a2,-1399 # 3a89 <move_piece+0x80d>
    1d84:	00c78633          	add	a2,a5,a2
    1d88:	00a60023          	sb	a0,0(a2)
    1d8c:	00c5c503          	lbu	a0,12(a1)
    1d90:	00004637          	lui	a2,0x4
    1d94:	a8a60613          	addi	a2,a2,-1398 # 3a8a <move_piece+0x80e>
    1d98:	00c78633          	add	a2,a5,a2
    1d9c:	00a60023          	sb	a0,0(a2)
    1da0:	00004637          	lui	a2,0x4
    1da4:	a8b60613          	addi	a2,a2,-1397 # 3a8b <move_piece+0x80f>
    1da8:	00c78633          	add	a2,a5,a2
    1dac:	00a60023          	sb	a0,0(a2)
    1db0:	00c5c503          	lbu	a0,12(a1)
    1db4:	00004637          	lui	a2,0x4
    1db8:	bc460613          	addi	a2,a2,-1084 # 3bc4 <move_piece+0x948>
    1dbc:	00c78633          	add	a2,a5,a2
    1dc0:	00a60023          	sb	a0,0(a2)
    1dc4:	00004637          	lui	a2,0x4
    1dc8:	bc560613          	addi	a2,a2,-1083 # 3bc5 <move_piece+0x949>
    1dcc:	00c78633          	add	a2,a5,a2
    1dd0:	00a60023          	sb	a0,0(a2)
    1dd4:	00c5c503          	lbu	a0,12(a1)
    1dd8:	00004637          	lui	a2,0x4
    1ddc:	bc660613          	addi	a2,a2,-1082 # 3bc6 <move_piece+0x94a>
    1de0:	00c78633          	add	a2,a5,a2
    1de4:	00a60023          	sb	a0,0(a2)
    1de8:	00004637          	lui	a2,0x4
    1dec:	bc760613          	addi	a2,a2,-1081 # 3bc7 <move_piece+0x94b>
    1df0:	00c78633          	add	a2,a5,a2
    1df4:	00a60023          	sb	a0,0(a2)
    1df8:	00c5c503          	lbu	a0,12(a1)
    1dfc:	00004637          	lui	a2,0x4
    1e00:	bc860613          	addi	a2,a2,-1080 # 3bc8 <move_piece+0x94c>
    1e04:	00c78633          	add	a2,a5,a2
    1e08:	00a60023          	sb	a0,0(a2)
    1e0c:	00004637          	lui	a2,0x4
    1e10:	bc960613          	addi	a2,a2,-1079 # 3bc9 <move_piece+0x94d>
    1e14:	00c78633          	add	a2,a5,a2
    1e18:	00a60023          	sb	a0,0(a2)
    1e1c:	00c5c503          	lbu	a0,12(a1)
    1e20:	00004637          	lui	a2,0x4
    1e24:	bca60613          	addi	a2,a2,-1078 # 3bca <move_piece+0x94e>
    1e28:	00c78633          	add	a2,a5,a2
    1e2c:	00a60023          	sb	a0,0(a2)
    1e30:	00004637          	lui	a2,0x4
    1e34:	bcb60613          	addi	a2,a2,-1077 # 3bcb <move_piece+0x94f>
    1e38:	00c78633          	add	a2,a5,a2
    1e3c:	00a60023          	sb	a0,0(a2)
    1e40:	bc5ff06f          	j	1a04 <draw_next_piece+0xf4>

00001e44 <clear_next_shape>:
    1e44:	fc010113          	addi	sp,sp,-64
    1e48:	00003637          	lui	a2,0x3
    1e4c:	000037b7          	lui	a5,0x3
    1e50:	03212a23          	sw	s2,52(sp)
    1e54:	03312823          	sw	s3,48(sp)
    1e58:	03412623          	sw	s4,44(sp)
    1e5c:	03512423          	sw	s5,40(sp)
    1e60:	03612223          	sw	s6,36(sp)
    1e64:	03712023          	sw	s7,32(sp)
    1e68:	01812e23          	sw	s8,28(sp)
    1e6c:	01912c23          	sw	s9,24(sp)
    1e70:	01a12a23          	sw	s10,20(sp)
    1e74:	01b12823          	sw	s11,16(sp)
    1e78:	20060613          	addi	a2,a2,512 # 3200 <rotate_piece+0x1c4>
    1e7c:	00003db7          	lui	s11,0x3
    1e80:	00003d37          	lui	s10,0x3
    1e84:	00003cb7          	lui	s9,0x3
    1e88:	00003c37          	lui	s8,0x3
    1e8c:	00003bb7          	lui	s7,0x3
    1e90:	00003b37          	lui	s6,0x3
    1e94:	00003ab7          	lui	s5,0x3
    1e98:	00003a37          	lui	s4,0x3
    1e9c:	000039b7          	lui	s3,0x3
    1ea0:	00003937          	lui	s2,0x3
    1ea4:	44678793          	addi	a5,a5,1094 # 3446 <move_piece+0x1ca>
    1ea8:	02812e23          	sw	s0,60(sp)
    1eac:	02912c23          	sw	s1,56(sp)
    1eb0:	01058693          	addi	a3,a1,16
    1eb4:	40c50533          	sub	a0,a0,a2
    1eb8:	304d8d93          	addi	s11,s11,772 # 3304 <move_piece+0x88>
    1ebc:	305d0d13          	addi	s10,s10,773 # 3305 <move_piece+0x89>
    1ec0:	306c8c93          	addi	s9,s9,774 # 3306 <move_piece+0x8a>
    1ec4:	307c0c13          	addi	s8,s8,775 # 3307 <move_piece+0x8b>
    1ec8:	308b8b93          	addi	s7,s7,776 # 3308 <move_piece+0x8c>
    1ecc:	309b0b13          	addi	s6,s6,777 # 3309 <move_piece+0x8d>
    1ed0:	30aa8a93          	addi	s5,s5,778 # 330a <move_piece+0x8e>
    1ed4:	30ba0a13          	addi	s4,s4,779 # 330b <move_piece+0x8f>
    1ed8:	44498993          	addi	s3,s3,1092 # 3444 <move_piece+0x1c8>
    1edc:	44590913          	addi	s2,s2,1093 # 3445 <move_piece+0x1c9>
    1ee0:	00f12623          	sw	a5,12(sp)
    1ee4:	00003437          	lui	s0,0x3
    1ee8:	000034b7          	lui	s1,0x3
    1eec:	44940393          	addi	t2,s0,1097 # 3449 <move_piece+0x1cd>
    1ef0:	44a40293          	addi	t0,s0,1098
    1ef4:	44b40f93          	addi	t6,s0,1099
    1ef8:	58440f13          	addi	t5,s0,1412
    1efc:	58540e93          	addi	t4,s0,1413
    1f00:	58640e13          	addi	t3,s0,1414
    1f04:	58740313          	addi	t1,s0,1415
    1f08:	58840893          	addi	a7,s0,1416
    1f0c:	58940813          	addi	a6,s0,1417
    1f10:	44748493          	addi	s1,s1,1095 # 3447 <move_piece+0x1cb>
    1f14:	44840413          	addi	s0,s0,1096
    1f18:	ff068713          	addi	a4,a3,-16
    1f1c:	00c507b3          	add	a5,a0,a2
    1f20:	00c12423          	sw	a2,8(sp)
    1f24:	01072603          	lw	a2,16(a4)
    1f28:	06061263          	bnez	a2,1f8c <clear_next_shape+0x148>
    1f2c:	00470713          	addi	a4,a4,4
    1f30:	00878793          	addi	a5,a5,8
    1f34:	fee698e3          	bne	a3,a4,1f24 <clear_next_shape+0xe0>
    1f38:	00812603          	lw	a2,8(sp)
    1f3c:	000067b7          	lui	a5,0x6
    1f40:	a0078793          	addi	a5,a5,-1536 # 5a00 <tick+0x11fc>
    1f44:	7ff60613          	addi	a2,a2,2047
    1f48:	20160613          	addi	a2,a2,513
    1f4c:	01068693          	addi	a3,a3,16
    1f50:	f8f61ae3          	bne	a2,a5,1ee4 <clear_next_shape+0xa0>
    1f54:	03c12403          	lw	s0,60(sp)
    1f58:	03812483          	lw	s1,56(sp)
    1f5c:	03412903          	lw	s2,52(sp)
    1f60:	03012983          	lw	s3,48(sp)
    1f64:	02c12a03          	lw	s4,44(sp)
    1f68:	02812a83          	lw	s5,40(sp)
    1f6c:	02412b03          	lw	s6,36(sp)
    1f70:	02012b83          	lw	s7,32(sp)
    1f74:	01c12c03          	lw	s8,28(sp)
    1f78:	01812c83          	lw	s9,24(sp)
    1f7c:	01412d03          	lw	s10,20(sp)
    1f80:	01012d83          	lw	s11,16(sp)
    1f84:	04010113          	addi	sp,sp,64
    1f88:	00008067          	ret
    1f8c:	01b78633          	add	a2,a5,s11
    1f90:	00060023          	sb	zero,0(a2)
    1f94:	01a78633          	add	a2,a5,s10
    1f98:	00060023          	sb	zero,0(a2)
    1f9c:	01978633          	add	a2,a5,s9
    1fa0:	00060023          	sb	zero,0(a2)
    1fa4:	01878633          	add	a2,a5,s8
    1fa8:	00060023          	sb	zero,0(a2)
    1fac:	01778633          	add	a2,a5,s7
    1fb0:	00060023          	sb	zero,0(a2)
    1fb4:	01678633          	add	a2,a5,s6
    1fb8:	00060023          	sb	zero,0(a2)
    1fbc:	01578633          	add	a2,a5,s5
    1fc0:	00060023          	sb	zero,0(a2)
    1fc4:	01478633          	add	a2,a5,s4
    1fc8:	00060023          	sb	zero,0(a2)
    1fcc:	01378633          	add	a2,a5,s3
    1fd0:	00060023          	sb	zero,0(a2)
    1fd4:	01278633          	add	a2,a5,s2
    1fd8:	00060023          	sb	zero,0(a2)
    1fdc:	00c12603          	lw	a2,12(sp)
    1fe0:	000035b7          	lui	a1,0x3
    1fe4:	58a58593          	addi	a1,a1,1418 # 358a <move_piece+0x30e>
    1fe8:	00c78633          	add	a2,a5,a2
    1fec:	00060023          	sb	zero,0(a2)
    1ff0:	00978633          	add	a2,a5,s1
    1ff4:	00060023          	sb	zero,0(a2)
    1ff8:	00878633          	add	a2,a5,s0
    1ffc:	00060023          	sb	zero,0(a2)
    2000:	00778633          	add	a2,a5,t2
    2004:	00060023          	sb	zero,0(a2)
    2008:	00578633          	add	a2,a5,t0
    200c:	00060023          	sb	zero,0(a2)
    2010:	01f78633          	add	a2,a5,t6
    2014:	00060023          	sb	zero,0(a2)
    2018:	01e78633          	add	a2,a5,t5
    201c:	00060023          	sb	zero,0(a2)
    2020:	01d78633          	add	a2,a5,t4
    2024:	00060023          	sb	zero,0(a2)
    2028:	01c78633          	add	a2,a5,t3
    202c:	00060023          	sb	zero,0(a2)
    2030:	00678633          	add	a2,a5,t1
    2034:	00060023          	sb	zero,0(a2)
    2038:	01178633          	add	a2,a5,a7
    203c:	00060023          	sb	zero,0(a2)
    2040:	01078633          	add	a2,a5,a6
    2044:	00060023          	sb	zero,0(a2)
    2048:	00003637          	lui	a2,0x3
    204c:	00b785b3          	add	a1,a5,a1
    2050:	58b60613          	addi	a2,a2,1419 # 358b <move_piece+0x30f>
    2054:	00058023          	sb	zero,0(a1)
    2058:	00c78633          	add	a2,a5,a2
    205c:	000035b7          	lui	a1,0x3
    2060:	00060023          	sb	zero,0(a2)
    2064:	6c458593          	addi	a1,a1,1732 # 36c4 <move_piece+0x448>
    2068:	00003637          	lui	a2,0x3
    206c:	00b785b3          	add	a1,a5,a1
    2070:	6c560613          	addi	a2,a2,1733 # 36c5 <move_piece+0x449>
    2074:	00058023          	sb	zero,0(a1)
    2078:	00c78633          	add	a2,a5,a2
    207c:	000035b7          	lui	a1,0x3
    2080:	00060023          	sb	zero,0(a2)
    2084:	6c658593          	addi	a1,a1,1734 # 36c6 <move_piece+0x44a>
    2088:	00003637          	lui	a2,0x3
    208c:	00b785b3          	add	a1,a5,a1
    2090:	6c760613          	addi	a2,a2,1735 # 36c7 <move_piece+0x44b>
    2094:	00058023          	sb	zero,0(a1)
    2098:	00c78633          	add	a2,a5,a2
    209c:	000035b7          	lui	a1,0x3
    20a0:	00060023          	sb	zero,0(a2)
    20a4:	6c858593          	addi	a1,a1,1736 # 36c8 <move_piece+0x44c>
    20a8:	00003637          	lui	a2,0x3
    20ac:	00b785b3          	add	a1,a5,a1
    20b0:	6c960613          	addi	a2,a2,1737 # 36c9 <move_piece+0x44d>
    20b4:	00058023          	sb	zero,0(a1)
    20b8:	00c78633          	add	a2,a5,a2
    20bc:	000035b7          	lui	a1,0x3
    20c0:	00060023          	sb	zero,0(a2)
    20c4:	6ca58593          	addi	a1,a1,1738 # 36ca <move_piece+0x44e>
    20c8:	00003637          	lui	a2,0x3
    20cc:	00b785b3          	add	a1,a5,a1
    20d0:	6cb60613          	addi	a2,a2,1739 # 36cb <move_piece+0x44f>
    20d4:	00058023          	sb	zero,0(a1)
    20d8:	00c78633          	add	a2,a5,a2
    20dc:	000045b7          	lui	a1,0x4
    20e0:	00060023          	sb	zero,0(a2)
    20e4:	80458593          	addi	a1,a1,-2044 # 3804 <move_piece+0x588>
    20e8:	00004637          	lui	a2,0x4
    20ec:	00b785b3          	add	a1,a5,a1
    20f0:	80560613          	addi	a2,a2,-2043 # 3805 <move_piece+0x589>
    20f4:	00058023          	sb	zero,0(a1)
    20f8:	00c78633          	add	a2,a5,a2
    20fc:	000045b7          	lui	a1,0x4
    2100:	00060023          	sb	zero,0(a2)
    2104:	80658593          	addi	a1,a1,-2042 # 3806 <move_piece+0x58a>
    2108:	00004637          	lui	a2,0x4
    210c:	00b785b3          	add	a1,a5,a1
    2110:	80760613          	addi	a2,a2,-2041 # 3807 <move_piece+0x58b>
    2114:	00058023          	sb	zero,0(a1)
    2118:	00c78633          	add	a2,a5,a2
    211c:	000045b7          	lui	a1,0x4
    2120:	00060023          	sb	zero,0(a2)
    2124:	80858593          	addi	a1,a1,-2040 # 3808 <move_piece+0x58c>
    2128:	00004637          	lui	a2,0x4
    212c:	00b785b3          	add	a1,a5,a1
    2130:	80960613          	addi	a2,a2,-2039 # 3809 <move_piece+0x58d>
    2134:	00058023          	sb	zero,0(a1)
    2138:	00c78633          	add	a2,a5,a2
    213c:	000045b7          	lui	a1,0x4
    2140:	00060023          	sb	zero,0(a2)
    2144:	80a58593          	addi	a1,a1,-2038 # 380a <move_piece+0x58e>
    2148:	00004637          	lui	a2,0x4
    214c:	00b785b3          	add	a1,a5,a1
    2150:	80b60613          	addi	a2,a2,-2037 # 380b <move_piece+0x58f>
    2154:	00058023          	sb	zero,0(a1)
    2158:	00c78633          	add	a2,a5,a2
    215c:	000045b7          	lui	a1,0x4
    2160:	00060023          	sb	zero,0(a2)
    2164:	94458593          	addi	a1,a1,-1724 # 3944 <move_piece+0x6c8>
    2168:	00004637          	lui	a2,0x4
    216c:	00b785b3          	add	a1,a5,a1
    2170:	94560613          	addi	a2,a2,-1723 # 3945 <move_piece+0x6c9>
    2174:	00058023          	sb	zero,0(a1)
    2178:	00c78633          	add	a2,a5,a2
    217c:	000045b7          	lui	a1,0x4
    2180:	00060023          	sb	zero,0(a2)
    2184:	94658593          	addi	a1,a1,-1722 # 3946 <move_piece+0x6ca>
    2188:	00004637          	lui	a2,0x4
    218c:	00b785b3          	add	a1,a5,a1
    2190:	94760613          	addi	a2,a2,-1721 # 3947 <move_piece+0x6cb>
    2194:	00058023          	sb	zero,0(a1)
    2198:	00c78633          	add	a2,a5,a2
    219c:	000045b7          	lui	a1,0x4
    21a0:	00060023          	sb	zero,0(a2)
    21a4:	94858593          	addi	a1,a1,-1720 # 3948 <move_piece+0x6cc>
    21a8:	00004637          	lui	a2,0x4
    21ac:	00b785b3          	add	a1,a5,a1
    21b0:	94960613          	addi	a2,a2,-1719 # 3949 <move_piece+0x6cd>
    21b4:	00058023          	sb	zero,0(a1)
    21b8:	00c78633          	add	a2,a5,a2
    21bc:	000045b7          	lui	a1,0x4
    21c0:	00060023          	sb	zero,0(a2)
    21c4:	94a58593          	addi	a1,a1,-1718 # 394a <move_piece+0x6ce>
    21c8:	00004637          	lui	a2,0x4
    21cc:	00b785b3          	add	a1,a5,a1
    21d0:	94b60613          	addi	a2,a2,-1717 # 394b <move_piece+0x6cf>
    21d4:	00058023          	sb	zero,0(a1)
    21d8:	00c78633          	add	a2,a5,a2
    21dc:	000045b7          	lui	a1,0x4
    21e0:	00060023          	sb	zero,0(a2)
    21e4:	a8458593          	addi	a1,a1,-1404 # 3a84 <move_piece+0x808>
    21e8:	00004637          	lui	a2,0x4
    21ec:	00b785b3          	add	a1,a5,a1
    21f0:	a8560613          	addi	a2,a2,-1403 # 3a85 <move_piece+0x809>
    21f4:	00058023          	sb	zero,0(a1)
    21f8:	00c78633          	add	a2,a5,a2
    21fc:	000045b7          	lui	a1,0x4
    2200:	00060023          	sb	zero,0(a2)
    2204:	a8658593          	addi	a1,a1,-1402 # 3a86 <move_piece+0x80a>
    2208:	00004637          	lui	a2,0x4
    220c:	00b785b3          	add	a1,a5,a1
    2210:	a8760613          	addi	a2,a2,-1401 # 3a87 <move_piece+0x80b>
    2214:	00058023          	sb	zero,0(a1)
    2218:	00c78633          	add	a2,a5,a2
    221c:	000045b7          	lui	a1,0x4
    2220:	00060023          	sb	zero,0(a2)
    2224:	a8858593          	addi	a1,a1,-1400 # 3a88 <move_piece+0x80c>
    2228:	00004637          	lui	a2,0x4
    222c:	00b785b3          	add	a1,a5,a1
    2230:	a8960613          	addi	a2,a2,-1399 # 3a89 <move_piece+0x80d>
    2234:	00058023          	sb	zero,0(a1)
    2238:	00c78633          	add	a2,a5,a2
    223c:	000045b7          	lui	a1,0x4
    2240:	00060023          	sb	zero,0(a2)
    2244:	a8a58593          	addi	a1,a1,-1398 # 3a8a <move_piece+0x80e>
    2248:	00004637          	lui	a2,0x4
    224c:	00b785b3          	add	a1,a5,a1
    2250:	a8b60613          	addi	a2,a2,-1397 # 3a8b <move_piece+0x80f>
    2254:	00058023          	sb	zero,0(a1)
    2258:	00c78633          	add	a2,a5,a2
    225c:	000045b7          	lui	a1,0x4
    2260:	00060023          	sb	zero,0(a2)
    2264:	bc458593          	addi	a1,a1,-1084 # 3bc4 <move_piece+0x948>
    2268:	00004637          	lui	a2,0x4
    226c:	00b785b3          	add	a1,a5,a1
    2270:	bc560613          	addi	a2,a2,-1083 # 3bc5 <move_piece+0x949>
    2274:	00058023          	sb	zero,0(a1)
    2278:	00c78633          	add	a2,a5,a2
    227c:	000045b7          	lui	a1,0x4
    2280:	00060023          	sb	zero,0(a2)
    2284:	bc658593          	addi	a1,a1,-1082 # 3bc6 <move_piece+0x94a>
    2288:	00004637          	lui	a2,0x4
    228c:	00b785b3          	add	a1,a5,a1
    2290:	bc760613          	addi	a2,a2,-1081 # 3bc7 <move_piece+0x94b>
    2294:	00058023          	sb	zero,0(a1)
    2298:	00c78633          	add	a2,a5,a2
    229c:	000045b7          	lui	a1,0x4
    22a0:	00060023          	sb	zero,0(a2)
    22a4:	bc858593          	addi	a1,a1,-1080 # 3bc8 <move_piece+0x94c>
    22a8:	00004637          	lui	a2,0x4
    22ac:	00b785b3          	add	a1,a5,a1
    22b0:	bc960613          	addi	a2,a2,-1079 # 3bc9 <move_piece+0x94d>
    22b4:	00058023          	sb	zero,0(a1)
    22b8:	00c78633          	add	a2,a5,a2
    22bc:	000045b7          	lui	a1,0x4
    22c0:	00060023          	sb	zero,0(a2)
    22c4:	bca58593          	addi	a1,a1,-1078 # 3bca <move_piece+0x94e>
    22c8:	00004637          	lui	a2,0x4
    22cc:	00b785b3          	add	a1,a5,a1
    22d0:	bcb60613          	addi	a2,a2,-1077 # 3bcb <move_piece+0x94f>
    22d4:	00058023          	sb	zero,0(a1)
    22d8:	00c78633          	add	a2,a5,a2
    22dc:	00060023          	sb	zero,0(a2)
    22e0:	c4dff06f          	j	1f2c <clear_next_shape+0xe8>

000022e4 <update_cell>:
    22e4:	00550713          	addi	a4,a0,5
    22e8:	00271793          	slli	a5,a4,0x2
    22ec:	00e787b3          	add	a5,a5,a4
    22f0:	00007737          	lui	a4,0x7
    22f4:	00f58693          	addi	a3,a1,15
    22f8:	00679793          	slli	a5,a5,0x6
    22fc:	95072583          	lw	a1,-1712(a4) # 6950 <VGA>
    2300:	00d787b3          	add	a5,a5,a3
    2304:	00379793          	slli	a5,a5,0x3
    2308:	01200693          	li	a3,18
    230c:	00f585b3          	add	a1,a1,a5
    2310:	00d58023          	sb	a3,0(a1)
    2314:	95072583          	lw	a1,-1712(a4)
    2318:	00678313          	addi	t1,a5,6
    231c:	00078f13          	mv	t5,a5
    2320:	00f585b3          	add	a1,a1,a5
    2324:	00d580a3          	sb	a3,1(a1)
    2328:	00000813          	li	a6,0
    232c:	00700e13          	li	t3,7
    2330:	95072583          	lw	a1,-1712(a4)
    2334:	00f585b3          	add	a1,a1,a5
    2338:	00d58123          	sb	a3,2(a1)
    233c:	95072583          	lw	a1,-1712(a4)
    2340:	00f585b3          	add	a1,a1,a5
    2344:	00d581a3          	sb	a3,3(a1)
    2348:	95072583          	lw	a1,-1712(a4)
    234c:	00f585b3          	add	a1,a1,a5
    2350:	00d58223          	sb	a3,4(a1)
    2354:	95072583          	lw	a1,-1712(a4)
    2358:	00f585b3          	add	a1,a1,a5
    235c:	00d582a3          	sb	a3,5(a1)
    2360:	95072583          	lw	a1,-1712(a4)
    2364:	006585b3          	add	a1,a1,t1
    2368:	00d58023          	sb	a3,0(a1)
    236c:	04080e63          	beqz	a6,23c8 <update_cell+0xe4>
    2370:	95072783          	lw	a5,-1712(a4)
    2374:	01e787b3          	add	a5,a5,t5
    2378:	00d783a3          	sb	a3,7(a5)
    237c:	00008067          	ret
    2380:	00c50023          	sb	a2,0(a0)
    2384:	95072583          	lw	a1,-1712(a4)
    2388:	00078513          	mv	a0,a5
    238c:	00f585b3          	add	a1,a1,a5
    2390:	14c58123          	sb	a2,322(a1)
    2394:	95072583          	lw	a1,-1712(a4)
    2398:	00f587b3          	add	a5,a1,a5
    239c:	14c781a3          	sb	a2,323(a5)
    23a0:	95072583          	lw	a1,-1712(a4)
    23a4:	00088793          	mv	a5,a7
    23a8:	00a585b3          	add	a1,a1,a0
    23ac:	14c58223          	sb	a2,324(a1)
    23b0:	95072583          	lw	a1,-1712(a4)
    23b4:	00a585b3          	add	a1,a1,a0
    23b8:	14c582a3          	sb	a2,325(a1)
    23bc:	95072583          	lw	a1,-1712(a4)
    23c0:	006585b3          	add	a1,a1,t1
    23c4:	00c58023          	sb	a2,0(a1)
    23c8:	95072583          	lw	a1,-1712(a4)
    23cc:	14078893          	addi	a7,a5,320
    23d0:	00180813          	addi	a6,a6,1
    23d4:	00f585b3          	add	a1,a1,a5
    23d8:	00d583a3          	sb	a3,7(a1)
    23dc:	95072503          	lw	a0,-1712(a4)
    23e0:	14178593          	addi	a1,a5,321
    23e4:	14030313          	addi	t1,t1,320
    23e8:	01150533          	add	a0,a0,a7
    23ec:	00d50023          	sb	a3,0(a0)
    23f0:	95072503          	lw	a0,-1712(a4)
    23f4:	00b50533          	add	a0,a0,a1
    23f8:	f9c814e3          	bne	a6,t3,2380 <update_cell+0x9c>
    23fc:	00088f13          	mv	t5,a7
    2400:	00d50023          	sb	a3,0(a0)
    2404:	00088793          	mv	a5,a7
    2408:	f29ff06f          	j	2330 <update_cell+0x4c>

0000240c <update_shape>:
    240c:	fd010113          	addi	sp,sp,-48
    2410:	000077b7          	lui	a5,0x7
    2414:	02912423          	sw	s1,40(sp)
    2418:	01512c23          	sw	s5,24(sp)
    241c:	01612a23          	sw	s6,20(sp)
    2420:	01812623          	sw	s8,12(sp)
    2424:	01b12023          	sw	s11,0(sp)
    2428:	02812623          	sw	s0,44(sp)
    242c:	95478d93          	addi	s11,a5,-1708 # 6954 <grid>
    2430:	03212223          	sw	s2,36(sp)
    2434:	03312023          	sw	s3,32(sp)
    2438:	01412e23          	sw	s4,28(sp)
    243c:	01712823          	sw	s7,16(sp)
    2440:	00000e93          	li	t4,0
    2444:	00100b13          	li	s6,1
    2448:	00400f93          	li	t6,4
    244c:	000077b7          	lui	a5,0x7
    2450:	01200713          	li	a4,18
    2454:	08100f13          	li	t5,129
    2458:	00800a93          	li	s5,8
    245c:	00200c13          	li	s8,2
    2460:	00058493          	mv	s1,a1
    2464:	004e9813          	slli	a6,t4,0x4
    2468:	01050833          	add	a6,a0,a6
    246c:	00000593          	li	a1,0
    2470:	01082683          	lw	a3,16(a6)
    2474:	0e068263          	beqz	a3,2558 <update_shape+0x14c>
    2478:	00852683          	lw	a3,8(a0)
    247c:	00452603          	lw	a2,4(a0)
    2480:	00de86b3          	add	a3,t4,a3
    2484:	0146b893          	sltiu	a7,a3,20
    2488:	00c58633          	add	a2,a1,a2
    248c:	0c088663          	beqz	a7,2558 <update_shape+0x14c>
    2490:	00a63893          	sltiu	a7,a2,10
    2494:	0c088263          	beqz	a7,2558 <update_shape+0x14c>
    2498:	2f648063          	beq	s1,s6,2778 <update_shape+0x36c>
    249c:	19848463          	beq	s1,s8,2624 <update_shape+0x218>
    24a0:	0a049c63          	bnez	s1,2558 <update_shape+0x14c>
    24a4:	00269893          	slli	a7,a3,0x2
    24a8:	00d888b3          	add	a7,a7,a3
    24ac:	00189893          	slli	a7,a7,0x1
    24b0:	011d88b3          	add	a7,s11,a7
    24b4:	00c888b3          	add	a7,a7,a2
    24b8:	00568693          	addi	a3,a3,5
    24bc:	0008c403          	lbu	s0,0(a7)
    24c0:	00269893          	slli	a7,a3,0x2
    24c4:	00d886b3          	add	a3,a7,a3
    24c8:	00f60613          	addi	a2,a2,15
    24cc:	00669693          	slli	a3,a3,0x6
    24d0:	00c686b3          	add	a3,a3,a2
    24d4:	3c041463          	bnez	s0,289c <update_shape+0x490>
    24d8:	00007637          	lui	a2,0x7
    24dc:	95062303          	lw	t1,-1712(a2) # 6950 <VGA>
    24e0:	00369693          	slli	a3,a3,0x3
    24e4:	01200893          	li	a7,18
    24e8:	00d30333          	add	t1,t1,a3
    24ec:	01130023          	sb	a7,0(t1)
    24f0:	95062303          	lw	t1,-1712(a2)
    24f4:	00668413          	addi	s0,a3,6
    24f8:	00000393          	li	t2,0
    24fc:	00d30333          	add	t1,t1,a3
    2500:	011300a3          	sb	a7,1(t1)
    2504:	00700913          	li	s2,7
    2508:	00068313          	mv	t1,a3
    250c:	95062e03          	lw	t3,-1712(a2)
    2510:	00de0e33          	add	t3,t3,a3
    2514:	011e0123          	sb	a7,2(t3)
    2518:	95062e03          	lw	t3,-1712(a2)
    251c:	00de0e33          	add	t3,t3,a3
    2520:	011e01a3          	sb	a7,3(t3)
    2524:	95062e03          	lw	t3,-1712(a2)
    2528:	00de0e33          	add	t3,t3,a3
    252c:	011e0223          	sb	a7,4(t3)
    2530:	95062e03          	lw	t3,-1712(a2)
    2534:	00de0e33          	add	t3,t3,a3
    2538:	011e02a3          	sb	a7,5(t3)
    253c:	95062e03          	lw	t3,-1712(a2)
    2540:	008e0e33          	add	t3,t3,s0
    2544:	011e0023          	sb	a7,0(t3)
    2548:	08038e63          	beqz	t2,25e4 <update_shape+0x1d8>
    254c:	95062683          	lw	a3,-1712(a2)
    2550:	006686b3          	add	a3,a3,t1
    2554:	011683a3          	sb	a7,7(a3)
    2558:	00158593          	addi	a1,a1,1
    255c:	00480813          	addi	a6,a6,4
    2560:	f1f598e3          	bne	a1,t6,2470 <update_shape+0x64>
    2564:	001e8e93          	addi	t4,t4,1
    2568:	eebe9ee3          	bne	t4,a1,2464 <update_shape+0x58>
    256c:	02c12403          	lw	s0,44(sp)
    2570:	02812483          	lw	s1,40(sp)
    2574:	02412903          	lw	s2,36(sp)
    2578:	02012983          	lw	s3,32(sp)
    257c:	01c12a03          	lw	s4,28(sp)
    2580:	01812a83          	lw	s5,24(sp)
    2584:	01412b03          	lw	s6,20(sp)
    2588:	01012b83          	lw	s7,16(sp)
    258c:	00c12c03          	lw	s8,12(sp)
    2590:	00012d83          	lw	s11,0(sp)
    2594:	03010113          	addi	sp,sp,48
    2598:	00008067          	ret
    259c:	00028023          	sb	zero,0(t0)
    25a0:	95062e03          	lw	t3,-1712(a2)
    25a4:	00068293          	mv	t0,a3
    25a8:	00de0e33          	add	t3,t3,a3
    25ac:	140e0123          	sb	zero,322(t3)
    25b0:	95062e03          	lw	t3,-1712(a2)
    25b4:	00de06b3          	add	a3,t3,a3
    25b8:	140681a3          	sb	zero,323(a3)
    25bc:	95062e03          	lw	t3,-1712(a2)
    25c0:	00030693          	mv	a3,t1
    25c4:	005e0333          	add	t1,t3,t0
    25c8:	14030223          	sb	zero,324(t1)
    25cc:	95062303          	lw	t1,-1712(a2)
    25d0:	00530333          	add	t1,t1,t0
    25d4:	140302a3          	sb	zero,325(t1)
    25d8:	95062303          	lw	t1,-1712(a2)
    25dc:	00830333          	add	t1,t1,s0
    25e0:	00030023          	sb	zero,0(t1)
    25e4:	95062e03          	lw	t3,-1712(a2)
    25e8:	14068313          	addi	t1,a3,320
    25ec:	00138393          	addi	t2,t2,1
    25f0:	00de0e33          	add	t3,t3,a3
    25f4:	011e03a3          	sb	a7,7(t3)
    25f8:	95062283          	lw	t0,-1712(a2)
    25fc:	14168e13          	addi	t3,a3,321
    2600:	14040413          	addi	s0,s0,320
    2604:	006282b3          	add	t0,t0,t1
    2608:	01128023          	sb	a7,0(t0)
    260c:	95062283          	lw	t0,-1712(a2)
    2610:	01c282b3          	add	t0,t0,t3
    2614:	f92394e3          	bne	t2,s2,259c <update_shape+0x190>
    2618:	01128023          	sb	a7,0(t0)
    261c:	00030693          	mv	a3,t1
    2620:	eedff06f          	j	250c <update_shape+0x100>
    2624:	00568893          	addi	a7,a3,5
    2628:	00289313          	slli	t1,a7,0x2
    262c:	01130333          	add	t1,t1,a7
    2630:	00269893          	slli	a7,a3,0x2
    2634:	00d888b3          	add	a7,a7,a3
    2638:	00c54283          	lbu	t0,12(a0)
    263c:	00631693          	slli	a3,t1,0x6
    2640:	00189893          	slli	a7,a7,0x1
    2644:	00f60313          	addi	t1,a2,15
    2648:	006686b3          	add	a3,a3,t1
    264c:	011d88b3          	add	a7,s11,a7
    2650:	00369693          	slli	a3,a3,0x3
    2654:	00c88633          	add	a2,a7,a2
    2658:	00668e13          	addi	t3,a3,6
    265c:	00560023          	sb	t0,0(a2)
    2660:	00000313          	li	t1,0
    2664:	9507a883          	lw	a7,-1712(a5) # 6950 <VGA>
    2668:	006f5633          	srl	a2,t5,t1
    266c:	00167613          	andi	a2,a2,1
    2670:	00d888b3          	add	a7,a7,a3
    2674:	00e88023          	sb	a4,0(a7)
    2678:	9507a883          	lw	a7,-1712(a5)
    267c:	00168a13          	addi	s4,a3,1
    2680:	00268993          	addi	s3,a3,2
    2684:	00368913          	addi	s2,a3,3
    2688:	00468413          	addi	s0,a3,4
    268c:	00568393          	addi	t2,a3,5
    2690:	08060263          	beqz	a2,2714 <update_shape+0x308>
    2694:	014888b3          	add	a7,a7,s4
    2698:	00e88023          	sb	a4,0(a7)
    269c:	9507a603          	lw	a2,-1712(a5)
    26a0:	00768b93          	addi	s7,a3,7
    26a4:	01360633          	add	a2,a2,s3
    26a8:	00e60023          	sb	a4,0(a2)
    26ac:	9507a603          	lw	a2,-1712(a5)
    26b0:	01260633          	add	a2,a2,s2
    26b4:	00e60023          	sb	a4,0(a2)
    26b8:	9507a603          	lw	a2,-1712(a5)
    26bc:	00860633          	add	a2,a2,s0
    26c0:	00e60023          	sb	a4,0(a2)
    26c4:	9507a603          	lw	a2,-1712(a5)
    26c8:	00760633          	add	a2,a2,t2
    26cc:	00e60023          	sb	a4,0(a2)
    26d0:	9507a603          	lw	a2,-1712(a5)
    26d4:	02031463          	bnez	t1,26fc <update_shape+0x2f0>
    26d8:	01c60633          	add	a2,a2,t3
    26dc:	00e60023          	sb	a4,0(a2)
    26e0:	9507a603          	lw	a2,-1712(a5)
    26e4:	14068693          	addi	a3,a3,320
    26e8:	140e0e13          	addi	t3,t3,320
    26ec:	01760633          	add	a2,a2,s7
    26f0:	00100313          	li	t1,1
    26f4:	00e60023          	sb	a4,0(a2)
    26f8:	f6dff06f          	j	2664 <update_shape+0x258>
    26fc:	01c60633          	add	a2,a2,t3
    2700:	00e60023          	sb	a4,0(a2)
    2704:	9507a603          	lw	a2,-1712(a5)
    2708:	00d606b3          	add	a3,a2,a3
    270c:	00e683a3          	sb	a4,7(a3)
    2710:	e49ff06f          	j	2558 <update_shape+0x14c>
    2714:	00d888b3          	add	a7,a7,a3
    2718:	005880a3          	sb	t0,1(a7)
    271c:	9507a603          	lw	a2,-1712(a5)
    2720:	00130313          	addi	t1,t1,1
    2724:	00d60633          	add	a2,a2,a3
    2728:	00560123          	sb	t0,2(a2)
    272c:	9507a603          	lw	a2,-1712(a5)
    2730:	00d60633          	add	a2,a2,a3
    2734:	005601a3          	sb	t0,3(a2)
    2738:	9507a603          	lw	a2,-1712(a5)
    273c:	00d60633          	add	a2,a2,a3
    2740:	00560223          	sb	t0,4(a2)
    2744:	9507a603          	lw	a2,-1712(a5)
    2748:	00d60633          	add	a2,a2,a3
    274c:	005602a3          	sb	t0,5(a2)
    2750:	9507a603          	lw	a2,-1712(a5)
    2754:	01c60633          	add	a2,a2,t3
    2758:	00560023          	sb	t0,0(a2)
    275c:	9507a603          	lw	a2,-1712(a5)
    2760:	140e0e13          	addi	t3,t3,320
    2764:	00d60633          	add	a2,a2,a3
    2768:	00e603a3          	sb	a4,7(a2)
    276c:	14068693          	addi	a3,a3,320
    2770:	ef531ae3          	bne	t1,s5,2664 <update_shape+0x258>
    2774:	de5ff06f          	j	2558 <update_shape+0x14c>
    2778:	00568693          	addi	a3,a3,5
    277c:	00269893          	slli	a7,a3,0x2
    2780:	00d886b3          	add	a3,a7,a3
    2784:	00f60613          	addi	a2,a2,15
    2788:	00669693          	slli	a3,a3,0x6
    278c:	00c686b3          	add	a3,a3,a2
    2790:	00c54283          	lbu	t0,12(a0)
    2794:	00369693          	slli	a3,a3,0x3
    2798:	00668e13          	addi	t3,a3,6
    279c:	00000313          	li	t1,0
    27a0:	9507a883          	lw	a7,-1712(a5)
    27a4:	006f5633          	srl	a2,t5,t1
    27a8:	00167613          	andi	a2,a2,1
    27ac:	00d888b3          	add	a7,a7,a3
    27b0:	00e88023          	sb	a4,0(a7)
    27b4:	9507a883          	lw	a7,-1712(a5)
    27b8:	00168a13          	addi	s4,a3,1
    27bc:	00268993          	addi	s3,a3,2
    27c0:	00368913          	addi	s2,a3,3
    27c4:	00468413          	addi	s0,a3,4
    27c8:	00568393          	addi	t2,a3,5
    27cc:	06060663          	beqz	a2,2838 <update_shape+0x42c>
    27d0:	014888b3          	add	a7,a7,s4
    27d4:	00e88023          	sb	a4,0(a7)
    27d8:	9507a603          	lw	a2,-1712(a5)
    27dc:	00768b93          	addi	s7,a3,7
    27e0:	01360633          	add	a2,a2,s3
    27e4:	00e60023          	sb	a4,0(a2)
    27e8:	9507a603          	lw	a2,-1712(a5)
    27ec:	01260633          	add	a2,a2,s2
    27f0:	00e60023          	sb	a4,0(a2)
    27f4:	9507a603          	lw	a2,-1712(a5)
    27f8:	00860633          	add	a2,a2,s0
    27fc:	00e60023          	sb	a4,0(a2)
    2800:	9507a603          	lw	a2,-1712(a5)
    2804:	00760633          	add	a2,a2,t2
    2808:	00e60023          	sb	a4,0(a2)
    280c:	9507a603          	lw	a2,-1712(a5)
    2810:	ee0316e3          	bnez	t1,26fc <update_shape+0x2f0>
    2814:	01c60633          	add	a2,a2,t3
    2818:	00e60023          	sb	a4,0(a2)
    281c:	9507a603          	lw	a2,-1712(a5)
    2820:	14068693          	addi	a3,a3,320
    2824:	140e0e13          	addi	t3,t3,320
    2828:	01760633          	add	a2,a2,s7
    282c:	00100313          	li	t1,1
    2830:	00e60023          	sb	a4,0(a2)
    2834:	f6dff06f          	j	27a0 <update_shape+0x394>
    2838:	00d888b3          	add	a7,a7,a3
    283c:	005880a3          	sb	t0,1(a7)
    2840:	9507a603          	lw	a2,-1712(a5)
    2844:	00130313          	addi	t1,t1,1
    2848:	00d60633          	add	a2,a2,a3
    284c:	00560123          	sb	t0,2(a2)
    2850:	9507a603          	lw	a2,-1712(a5)
    2854:	00d60633          	add	a2,a2,a3
    2858:	005601a3          	sb	t0,3(a2)
    285c:	9507a603          	lw	a2,-1712(a5)
    2860:	00d60633          	add	a2,a2,a3
    2864:	00560223          	sb	t0,4(a2)
    2868:	9507a603          	lw	a2,-1712(a5)
    286c:	00d60633          	add	a2,a2,a3
    2870:	005602a3          	sb	t0,5(a2)
    2874:	9507a603          	lw	a2,-1712(a5)
    2878:	01c60633          	add	a2,a2,t3
    287c:	00560023          	sb	t0,0(a2)
    2880:	9507a603          	lw	a2,-1712(a5)
    2884:	140e0e13          	addi	t3,t3,320
    2888:	00d60633          	add	a2,a2,a3
    288c:	00e603a3          	sb	a4,7(a2)
    2890:	14068693          	addi	a3,a3,320
    2894:	f15316e3          	bne	t1,s5,27a0 <update_shape+0x394>
    2898:	cc1ff06f          	j	2558 <update_shape+0x14c>
    289c:	00369693          	slli	a3,a3,0x3
    28a0:	01912423          	sw	s9,8(sp)
    28a4:	01a12223          	sw	s10,4(sp)
    28a8:	00668393          	addi	t2,a3,6
    28ac:	00000e13          	li	t3,0
    28b0:	00007637          	lui	a2,0x7
    28b4:	01200893          	li	a7,18
    28b8:	08100c93          	li	s9,129
    28bc:	95062d03          	lw	s10,-1712(a2) # 6950 <VGA>
    28c0:	01ccd333          	srl	t1,s9,t3
    28c4:	00137313          	andi	t1,t1,1
    28c8:	00dd0d33          	add	s10,s10,a3
    28cc:	011d0023          	sb	a7,0(s10)
    28d0:	95062d03          	lw	s10,-1712(a2)
    28d4:	00168293          	addi	t0,a3,1
    28d8:	00268b93          	addi	s7,a3,2
    28dc:	00368a13          	addi	s4,a3,3
    28e0:	00468993          	addi	s3,a3,4
    28e4:	00568913          	addi	s2,a3,5
    28e8:	08030663          	beqz	t1,2974 <update_shape+0x568>
    28ec:	005d02b3          	add	t0,s10,t0
    28f0:	01128023          	sb	a7,0(t0)
    28f4:	95062283          	lw	t0,-1712(a2)
    28f8:	00768313          	addi	t1,a3,7
    28fc:	017282b3          	add	t0,t0,s7
    2900:	01128023          	sb	a7,0(t0)
    2904:	95062283          	lw	t0,-1712(a2)
    2908:	014282b3          	add	t0,t0,s4
    290c:	01128023          	sb	a7,0(t0)
    2910:	95062283          	lw	t0,-1712(a2)
    2914:	013282b3          	add	t0,t0,s3
    2918:	01128023          	sb	a7,0(t0)
    291c:	95062283          	lw	t0,-1712(a2)
    2920:	012282b3          	add	t0,t0,s2
    2924:	01128023          	sb	a7,0(t0)
    2928:	95062283          	lw	t0,-1712(a2)
    292c:	020e0263          	beqz	t3,2950 <update_shape+0x544>
    2930:	007282b3          	add	t0,t0,t2
    2934:	01128023          	sb	a7,0(t0)
    2938:	95062603          	lw	a2,-1712(a2)
    293c:	00d606b3          	add	a3,a2,a3
    2940:	011683a3          	sb	a7,7(a3)
    2944:	00812c83          	lw	s9,8(sp)
    2948:	00412d03          	lw	s10,4(sp)
    294c:	c0dff06f          	j	2558 <update_shape+0x14c>
    2950:	007282b3          	add	t0,t0,t2
    2954:	01128023          	sb	a7,0(t0)
    2958:	95062283          	lw	t0,-1712(a2)
    295c:	14068693          	addi	a3,a3,320
    2960:	14038393          	addi	t2,t2,320
    2964:	00628333          	add	t1,t0,t1
    2968:	00100e13          	li	t3,1
    296c:	01130023          	sb	a7,0(t1)
    2970:	f4dff06f          	j	28bc <update_shape+0x4b0>
    2974:	00dd0d33          	add	s10,s10,a3
    2978:	008d00a3          	sb	s0,1(s10)
    297c:	95062303          	lw	t1,-1712(a2)
    2980:	001e0e13          	addi	t3,t3,1
    2984:	00d30333          	add	t1,t1,a3
    2988:	00830123          	sb	s0,2(t1)
    298c:	95062303          	lw	t1,-1712(a2)
    2990:	00d30333          	add	t1,t1,a3
    2994:	008301a3          	sb	s0,3(t1)
    2998:	95062303          	lw	t1,-1712(a2)
    299c:	00d30333          	add	t1,t1,a3
    29a0:	00830223          	sb	s0,4(t1)
    29a4:	95062303          	lw	t1,-1712(a2)
    29a8:	00d30333          	add	t1,t1,a3
    29ac:	008302a3          	sb	s0,5(t1)
    29b0:	95062303          	lw	t1,-1712(a2)
    29b4:	00730333          	add	t1,t1,t2
    29b8:	00830023          	sb	s0,0(t1)
    29bc:	95062303          	lw	t1,-1712(a2)
    29c0:	14038393          	addi	t2,t2,320
    29c4:	00d30333          	add	t1,t1,a3
    29c8:	011303a3          	sb	a7,7(t1)
    29cc:	00800313          	li	t1,8
    29d0:	14068693          	addi	a3,a3,320
    29d4:	ee6e14e3          	bne	t3,t1,28bc <update_shape+0x4b0>
    29d8:	f6dff06f          	j	2944 <update_shape+0x538>

000029dc <check_fit>:
    29dc:	000076b7          	lui	a3,0x7
    29e0:	95468693          	addi	a3,a3,-1708 # 6954 <grid>
    29e4:	00000793          	li	a5,0
    29e8:	00400813          	li	a6,4
    29ec:	0005a703          	lw	a4,0(a1)
    29f0:	02070e63          	beqz	a4,2a2c <check_fit+0x50>
    29f4:	00452883          	lw	a7,4(a0)
    29f8:	00852603          	lw	a2,8(a0)
    29fc:	00a8b713          	sltiu	a4,a7,10
    2a00:	00c78633          	add	a2,a5,a2
    2a04:	10070463          	beqz	a4,2b0c <check_fit+0x130>
    2a08:	01463713          	sltiu	a4,a2,20
    2a0c:	10070063          	beqz	a4,2b0c <check_fit+0x130>
    2a10:	00261713          	slli	a4,a2,0x2
    2a14:	00c70733          	add	a4,a4,a2
    2a18:	00171713          	slli	a4,a4,0x1
    2a1c:	00e68733          	add	a4,a3,a4
    2a20:	01170733          	add	a4,a4,a7
    2a24:	00074703          	lbu	a4,0(a4)
    2a28:	0e071263          	bnez	a4,2b0c <check_fit+0x130>
    2a2c:	0045a703          	lw	a4,4(a1)
    2a30:	04070063          	beqz	a4,2a70 <check_fit+0x94>
    2a34:	00452883          	lw	a7,4(a0)
    2a38:	00852603          	lw	a2,8(a0)
    2a3c:	00188713          	addi	a4,a7,1
    2a40:	00a73713          	sltiu	a4,a4,10
    2a44:	00c78633          	add	a2,a5,a2
    2a48:	0c070263          	beqz	a4,2b0c <check_fit+0x130>
    2a4c:	01463713          	sltiu	a4,a2,20
    2a50:	0a070e63          	beqz	a4,2b0c <check_fit+0x130>
    2a54:	00261713          	slli	a4,a2,0x2
    2a58:	00c70733          	add	a4,a4,a2
    2a5c:	00171713          	slli	a4,a4,0x1
    2a60:	00e68733          	add	a4,a3,a4
    2a64:	01170733          	add	a4,a4,a7
    2a68:	00174703          	lbu	a4,1(a4)
    2a6c:	0a071063          	bnez	a4,2b0c <check_fit+0x130>
    2a70:	0085a703          	lw	a4,8(a1)
    2a74:	04070063          	beqz	a4,2ab4 <check_fit+0xd8>
    2a78:	00452883          	lw	a7,4(a0)
    2a7c:	00852603          	lw	a2,8(a0)
    2a80:	00288713          	addi	a4,a7,2
    2a84:	00a73713          	sltiu	a4,a4,10
    2a88:	00c78633          	add	a2,a5,a2
    2a8c:	08070063          	beqz	a4,2b0c <check_fit+0x130>
    2a90:	01463713          	sltiu	a4,a2,20
    2a94:	06070c63          	beqz	a4,2b0c <check_fit+0x130>
    2a98:	00261713          	slli	a4,a2,0x2
    2a9c:	00c70733          	add	a4,a4,a2
    2aa0:	00171713          	slli	a4,a4,0x1
    2aa4:	00e68733          	add	a4,a3,a4
    2aa8:	01170733          	add	a4,a4,a7
    2aac:	00274703          	lbu	a4,2(a4)
    2ab0:	04071e63          	bnez	a4,2b0c <check_fit+0x130>
    2ab4:	00c5a703          	lw	a4,12(a1)
    2ab8:	04070063          	beqz	a4,2af8 <check_fit+0x11c>
    2abc:	00452883          	lw	a7,4(a0)
    2ac0:	00852603          	lw	a2,8(a0)
    2ac4:	00388713          	addi	a4,a7,3
    2ac8:	00a73713          	sltiu	a4,a4,10
    2acc:	00c78633          	add	a2,a5,a2
    2ad0:	02070e63          	beqz	a4,2b0c <check_fit+0x130>
    2ad4:	01463713          	sltiu	a4,a2,20
    2ad8:	02070a63          	beqz	a4,2b0c <check_fit+0x130>
    2adc:	00261713          	slli	a4,a2,0x2
    2ae0:	00c70733          	add	a4,a4,a2
    2ae4:	00171713          	slli	a4,a4,0x1
    2ae8:	00e68733          	add	a4,a3,a4
    2aec:	01170733          	add	a4,a4,a7
    2af0:	00374703          	lbu	a4,3(a4)
    2af4:	00071c63          	bnez	a4,2b0c <check_fit+0x130>
    2af8:	00178793          	addi	a5,a5,1
    2afc:	01058593          	addi	a1,a1,16
    2b00:	ef0796e3          	bne	a5,a6,29ec <check_fit+0x10>
    2b04:	00100513          	li	a0,1
    2b08:	00008067          	ret
    2b0c:	00000513          	li	a0,0
    2b10:	00008067          	ret

00002b14 <collision>:
    2b14:	00050793          	mv	a5,a0
    2b18:	01052503          	lw	a0,16(a0)
    2b1c:	36050663          	beqz	a0,2e88 <collision+0x374>
    2b20:	0087a683          	lw	a3,8(a5)
    2b24:	01300713          	li	a4,19
    2b28:	00168693          	addi	a3,a3,1
    2b2c:	24d74463          	blt	a4,a3,2d74 <collision+0x260>
    2b30:	00269813          	slli	a6,a3,0x2
    2b34:	0047a583          	lw	a1,4(a5)
    2b38:	00d80633          	add	a2,a6,a3
    2b3c:	00007737          	lui	a4,0x7
    2b40:	00161613          	slli	a2,a2,0x1
    2b44:	95470713          	addi	a4,a4,-1708 # 6954 <grid>
    2b48:	00c70633          	add	a2,a4,a2
    2b4c:	00b60633          	add	a2,a2,a1
    2b50:	00064603          	lbu	a2,0(a2)
    2b54:	22061063          	bnez	a2,2d74 <collision+0x260>
    2b58:	0147a603          	lw	a2,20(a5)
    2b5c:	00158513          	addi	a0,a1,1
    2b60:	00060e63          	beqz	a2,2b7c <collision+0x68>
    2b64:	00d80633          	add	a2,a6,a3
    2b68:	00161613          	slli	a2,a2,0x1
    2b6c:	00c70633          	add	a2,a4,a2
    2b70:	00a60633          	add	a2,a2,a0
    2b74:	00064603          	lbu	a2,0(a2)
    2b78:	1e061e63          	bnez	a2,2d74 <collision+0x260>
    2b7c:	0187a603          	lw	a2,24(a5)
    2b80:	34060263          	beqz	a2,2ec4 <collision+0x3b0>
    2b84:	00d80633          	add	a2,a6,a3
    2b88:	00161613          	slli	a2,a2,0x1
    2b8c:	00258513          	addi	a0,a1,2
    2b90:	00c70633          	add	a2,a4,a2
    2b94:	00a60633          	add	a2,a2,a0
    2b98:	00064603          	lbu	a2,0(a2)
    2b9c:	1c061c63          	bnez	a2,2d74 <collision+0x260>
    2ba0:	01c7a603          	lw	a2,28(a5)
    2ba4:	00358593          	addi	a1,a1,3
    2ba8:	00060e63          	beqz	a2,2bc4 <collision+0xb0>
    2bac:	00d806b3          	add	a3,a6,a3
    2bb0:	00169693          	slli	a3,a3,0x1
    2bb4:	00d70733          	add	a4,a4,a3
    2bb8:	00b70733          	add	a4,a4,a1
    2bbc:	00074703          	lbu	a4,0(a4)
    2bc0:	1a071a63          	bnez	a4,2d74 <collision+0x260>
    2bc4:	0207a503          	lw	a0,32(a5)
    2bc8:	32050663          	beqz	a0,2ef4 <collision+0x3e0>
    2bcc:	0087a683          	lw	a3,8(a5)
    2bd0:	01300713          	li	a4,19
    2bd4:	00268693          	addi	a3,a3,2
    2bd8:	18d74e63          	blt	a4,a3,2d74 <collision+0x260>
    2bdc:	00269813          	slli	a6,a3,0x2
    2be0:	0047a583          	lw	a1,4(a5)
    2be4:	00d80633          	add	a2,a6,a3
    2be8:	00007737          	lui	a4,0x7
    2bec:	00161613          	slli	a2,a2,0x1
    2bf0:	95470713          	addi	a4,a4,-1708 # 6954 <grid>
    2bf4:	00c70633          	add	a2,a4,a2
    2bf8:	00b60633          	add	a2,a2,a1
    2bfc:	00064603          	lbu	a2,0(a2)
    2c00:	16061a63          	bnez	a2,2d74 <collision+0x260>
    2c04:	0247a603          	lw	a2,36(a5)
    2c08:	00158513          	addi	a0,a1,1
    2c0c:	00060e63          	beqz	a2,2c28 <collision+0x114>
    2c10:	00d80633          	add	a2,a6,a3
    2c14:	00161613          	slli	a2,a2,0x1
    2c18:	00c70633          	add	a2,a4,a2
    2c1c:	00a60633          	add	a2,a2,a0
    2c20:	00064603          	lbu	a2,0(a2)
    2c24:	14061863          	bnez	a2,2d74 <collision+0x260>
    2c28:	0287a603          	lw	a2,40(a5)
    2c2c:	10060263          	beqz	a2,2d30 <collision+0x21c>
    2c30:	00d80633          	add	a2,a6,a3
    2c34:	00161613          	slli	a2,a2,0x1
    2c38:	00258513          	addi	a0,a1,2
    2c3c:	00c70633          	add	a2,a4,a2
    2c40:	00a60633          	add	a2,a2,a0
    2c44:	00064603          	lbu	a2,0(a2)
    2c48:	12061663          	bnez	a2,2d74 <collision+0x260>
    2c4c:	02c7a603          	lw	a2,44(a5)
    2c50:	00358593          	addi	a1,a1,3
    2c54:	10061463          	bnez	a2,2d5c <collision+0x248>
    2c58:	0307a503          	lw	a0,48(a5)
    2c5c:	12050063          	beqz	a0,2d7c <collision+0x268>
    2c60:	0087a683          	lw	a3,8(a5)
    2c64:	01300713          	li	a4,19
    2c68:	00368693          	addi	a3,a3,3
    2c6c:	10d74463          	blt	a4,a3,2d74 <collision+0x260>
    2c70:	00269813          	slli	a6,a3,0x2
    2c74:	0047a583          	lw	a1,4(a5)
    2c78:	00d80633          	add	a2,a6,a3
    2c7c:	00007737          	lui	a4,0x7
    2c80:	00161613          	slli	a2,a2,0x1
    2c84:	95470713          	addi	a4,a4,-1708 # 6954 <grid>
    2c88:	00c70633          	add	a2,a4,a2
    2c8c:	00b60633          	add	a2,a2,a1
    2c90:	00064603          	lbu	a2,0(a2)
    2c94:	0e061063          	bnez	a2,2d74 <collision+0x260>
    2c98:	0347a603          	lw	a2,52(a5)
    2c9c:	00158513          	addi	a0,a1,1
    2ca0:	10061463          	bnez	a2,2da8 <collision+0x294>
    2ca4:	0387a603          	lw	a2,56(a5)
    2ca8:	12060063          	beqz	a2,2dc8 <collision+0x2b4>
    2cac:	00d80633          	add	a2,a6,a3
    2cb0:	00161613          	slli	a2,a2,0x1
    2cb4:	00258513          	addi	a0,a1,2
    2cb8:	00c70633          	add	a2,a4,a2
    2cbc:	00a60633          	add	a2,a2,a0
    2cc0:	00064603          	lbu	a2,0(a2)
    2cc4:	0a061863          	bnez	a2,2d74 <collision+0x260>
    2cc8:	03c7a603          	lw	a2,60(a5)
    2ccc:	00358593          	addi	a1,a1,3
    2cd0:	12061263          	bnez	a2,2df4 <collision+0x2e0>
    2cd4:	0407a703          	lw	a4,64(a5)
    2cd8:	12070e63          	beqz	a4,2e14 <collision+0x300>
    2cdc:	0087a683          	lw	a3,8(a5)
    2ce0:	01300713          	li	a4,19
    2ce4:	00468693          	addi	a3,a3,4
    2ce8:	08d74663          	blt	a4,a3,2d74 <collision+0x260>
    2cec:	00269613          	slli	a2,a3,0x2
    2cf0:	0047a583          	lw	a1,4(a5)
    2cf4:	00d60533          	add	a0,a2,a3
    2cf8:	00007737          	lui	a4,0x7
    2cfc:	00151513          	slli	a0,a0,0x1
    2d00:	95470713          	addi	a4,a4,-1708 # 6954 <grid>
    2d04:	00a70533          	add	a0,a4,a0
    2d08:	00b50533          	add	a0,a0,a1
    2d0c:	00054803          	lbu	a6,0(a0)
    2d10:	00058513          	mv	a0,a1
    2d14:	06081063          	bnez	a6,2d74 <collision+0x260>
    2d18:	0447a803          	lw	a6,68(a5)
    2d1c:	26080263          	beqz	a6,2f80 <collision+0x46c>
    2d20:	00150813          	addi	a6,a0,1
    2d24:	11c0006f          	j	2e40 <collision+0x32c>
    2d28:	0287a703          	lw	a4,40(a5)
    2d2c:	2c071663          	bnez	a4,2ff8 <collision+0x4e4>
    2d30:	02c7a703          	lw	a4,44(a5)
    2d34:	f20702e3          	beqz	a4,2c58 <collision+0x144>
    2d38:	0087a683          	lw	a3,8(a5)
    2d3c:	01300713          	li	a4,19
    2d40:	00268693          	addi	a3,a3,2
    2d44:	02d74863          	blt	a4,a3,2d74 <collision+0x260>
    2d48:	0047a583          	lw	a1,4(a5)
    2d4c:	00007737          	lui	a4,0x7
    2d50:	95470713          	addi	a4,a4,-1708 # 6954 <grid>
    2d54:	00358593          	addi	a1,a1,3
    2d58:	00269813          	slli	a6,a3,0x2
    2d5c:	00d806b3          	add	a3,a6,a3
    2d60:	00169693          	slli	a3,a3,0x1
    2d64:	00d70733          	add	a4,a4,a3
    2d68:	00b70733          	add	a4,a4,a1
    2d6c:	00074703          	lbu	a4,0(a4)
    2d70:	ee0704e3          	beqz	a4,2c58 <collision+0x144>
    2d74:	00000513          	li	a0,0
    2d78:	00008067          	ret
    2d7c:	0347a703          	lw	a4,52(a5)
    2d80:	1a070263          	beqz	a4,2f24 <collision+0x410>
    2d84:	0087a683          	lw	a3,8(a5)
    2d88:	01300713          	li	a4,19
    2d8c:	00368693          	addi	a3,a3,3
    2d90:	12d74463          	blt	a4,a3,2eb8 <collision+0x3a4>
    2d94:	0047a583          	lw	a1,4(a5)
    2d98:	00007737          	lui	a4,0x7
    2d9c:	95470713          	addi	a4,a4,-1708 # 6954 <grid>
    2da0:	00158513          	addi	a0,a1,1
    2da4:	00269813          	slli	a6,a3,0x2
    2da8:	00d80633          	add	a2,a6,a3
    2dac:	00161613          	slli	a2,a2,0x1
    2db0:	00c70633          	add	a2,a4,a2
    2db4:	00a60633          	add	a2,a2,a0
    2db8:	00064603          	lbu	a2,0(a2)
    2dbc:	fa061ce3          	bnez	a2,2d74 <collision+0x260>
    2dc0:	0387a603          	lw	a2,56(a5)
    2dc4:	ee0614e3          	bnez	a2,2cac <collision+0x198>
    2dc8:	03c7a703          	lw	a4,60(a5)
    2dcc:	f00704e3          	beqz	a4,2cd4 <collision+0x1c0>
    2dd0:	0087a683          	lw	a3,8(a5)
    2dd4:	01300713          	li	a4,19
    2dd8:	00368693          	addi	a3,a3,3
    2ddc:	f8d74ce3          	blt	a4,a3,2d74 <collision+0x260>
    2de0:	0047a583          	lw	a1,4(a5)
    2de4:	00007737          	lui	a4,0x7
    2de8:	95470713          	addi	a4,a4,-1708 # 6954 <grid>
    2dec:	00358593          	addi	a1,a1,3
    2df0:	00269813          	slli	a6,a3,0x2
    2df4:	00d806b3          	add	a3,a6,a3
    2df8:	00169693          	slli	a3,a3,0x1
    2dfc:	00d70733          	add	a4,a4,a3
    2e00:	00b70733          	add	a4,a4,a1
    2e04:	00074703          	lbu	a4,0(a4)
    2e08:	f60716e3          	bnez	a4,2d74 <collision+0x260>
    2e0c:	0407a703          	lw	a4,64(a5)
    2e10:	ec0716e3          	bnez	a4,2cdc <collision+0x1c8>
    2e14:	0447a503          	lw	a0,68(a5)
    2e18:	12050c63          	beqz	a0,2f50 <collision+0x43c>
    2e1c:	0087a683          	lw	a3,8(a5)
    2e20:	01300713          	li	a4,19
    2e24:	00468693          	addi	a3,a3,4
    2e28:	f4d746e3          	blt	a4,a3,2d74 <collision+0x260>
    2e2c:	0047a503          	lw	a0,4(a5)
    2e30:	00007737          	lui	a4,0x7
    2e34:	95470713          	addi	a4,a4,-1708 # 6954 <grid>
    2e38:	00150813          	addi	a6,a0,1
    2e3c:	00269613          	slli	a2,a3,0x2
    2e40:	00d605b3          	add	a1,a2,a3
    2e44:	00159593          	slli	a1,a1,0x1
    2e48:	00b705b3          	add	a1,a4,a1
    2e4c:	010585b3          	add	a1,a1,a6
    2e50:	0005c583          	lbu	a1,0(a1)
    2e54:	f20590e3          	bnez	a1,2d74 <collision+0x260>
    2e58:	0487a583          	lw	a1,72(a5)
    2e5c:	12058663          	beqz	a1,2f88 <collision+0x474>
    2e60:	00d605b3          	add	a1,a2,a3
    2e64:	00159593          	slli	a1,a1,0x1
    2e68:	00b705b3          	add	a1,a4,a1
    2e6c:	00a585b3          	add	a1,a1,a0
    2e70:	0025c583          	lbu	a1,2(a1)
    2e74:	f00590e3          	bnez	a1,2d74 <collision+0x260>
    2e78:	04c7a783          	lw	a5,76(a5)
    2e7c:	1a079063          	bnez	a5,301c <collision+0x508>
    2e80:	00100513          	li	a0,1
    2e84:	00008067          	ret
    2e88:	0147a703          	lw	a4,20(a5)
    2e8c:	02070863          	beqz	a4,2ebc <collision+0x3a8>
    2e90:	0087a683          	lw	a3,8(a5)
    2e94:	01300713          	li	a4,19
    2e98:	00168693          	addi	a3,a3,1
    2e9c:	00d74e63          	blt	a4,a3,2eb8 <collision+0x3a4>
    2ea0:	0047a583          	lw	a1,4(a5)
    2ea4:	00007737          	lui	a4,0x7
    2ea8:	95470713          	addi	a4,a4,-1708 # 6954 <grid>
    2eac:	00158513          	addi	a0,a1,1
    2eb0:	00269813          	slli	a6,a3,0x2
    2eb4:	cb1ff06f          	j	2b64 <collision+0x50>
    2eb8:	00008067          	ret
    2ebc:	0187a703          	lw	a4,24(a5)
    2ec0:	10071a63          	bnez	a4,2fd4 <collision+0x4c0>
    2ec4:	01c7a703          	lw	a4,28(a5)
    2ec8:	ce070ee3          	beqz	a4,2bc4 <collision+0xb0>
    2ecc:	0087a683          	lw	a3,8(a5)
    2ed0:	01300713          	li	a4,19
    2ed4:	00168693          	addi	a3,a3,1
    2ed8:	e8d74ee3          	blt	a4,a3,2d74 <collision+0x260>
    2edc:	0047a583          	lw	a1,4(a5)
    2ee0:	00007737          	lui	a4,0x7
    2ee4:	95470713          	addi	a4,a4,-1708 # 6954 <grid>
    2ee8:	00358593          	addi	a1,a1,3
    2eec:	00269813          	slli	a6,a3,0x2
    2ef0:	cbdff06f          	j	2bac <collision+0x98>
    2ef4:	0247a703          	lw	a4,36(a5)
    2ef8:	e20708e3          	beqz	a4,2d28 <collision+0x214>
    2efc:	0087a683          	lw	a3,8(a5)
    2f00:	01300713          	li	a4,19
    2f04:	00268693          	addi	a3,a3,2
    2f08:	fad748e3          	blt	a4,a3,2eb8 <collision+0x3a4>
    2f0c:	0047a583          	lw	a1,4(a5)
    2f10:	00007737          	lui	a4,0x7
    2f14:	95470713          	addi	a4,a4,-1708 # 6954 <grid>
    2f18:	00158513          	addi	a0,a1,1
    2f1c:	00269813          	slli	a6,a3,0x2
    2f20:	cf1ff06f          	j	2c10 <collision+0xfc>
    2f24:	0387a703          	lw	a4,56(a5)
    2f28:	ea0700e3          	beqz	a4,2dc8 <collision+0x2b4>
    2f2c:	0087a683          	lw	a3,8(a5)
    2f30:	01300713          	li	a4,19
    2f34:	00368693          	addi	a3,a3,3
    2f38:	f8d740e3          	blt	a4,a3,2eb8 <collision+0x3a4>
    2f3c:	00007737          	lui	a4,0x7
    2f40:	0047a583          	lw	a1,4(a5)
    2f44:	95470713          	addi	a4,a4,-1708 # 6954 <grid>
    2f48:	00269813          	slli	a6,a3,0x2
    2f4c:	d61ff06f          	j	2cac <collision+0x198>
    2f50:	0487a703          	lw	a4,72(a5)
    2f54:	02070a63          	beqz	a4,2f88 <collision+0x474>
    2f58:	0087a683          	lw	a3,8(a5)
    2f5c:	01300713          	li	a4,19
    2f60:	00468693          	addi	a3,a3,4
    2f64:	f4d74ae3          	blt	a4,a3,2eb8 <collision+0x3a4>
    2f68:	0047a583          	lw	a1,4(a5)
    2f6c:	00007737          	lui	a4,0x7
    2f70:	95470713          	addi	a4,a4,-1708 # 6954 <grid>
    2f74:	00269613          	slli	a2,a3,0x2
    2f78:	00058513          	mv	a0,a1
    2f7c:	ee5ff06f          	j	2e60 <collision+0x34c>
    2f80:	0487a503          	lw	a0,72(a5)
    2f84:	fe051ae3          	bnez	a0,2f78 <collision+0x464>
    2f88:	04c7a703          	lw	a4,76(a5)
    2f8c:	00100513          	li	a0,1
    2f90:	f20704e3          	beqz	a4,2eb8 <collision+0x3a4>
    2f94:	0087a683          	lw	a3,8(a5)
    2f98:	01300713          	li	a4,19
    2f9c:	00468693          	addi	a3,a3,4
    2fa0:	dcd74ae3          	blt	a4,a3,2d74 <collision+0x260>
    2fa4:	0047a503          	lw	a0,4(a5)
    2fa8:	00269613          	slli	a2,a3,0x2
    2fac:	00d607b3          	add	a5,a2,a3
    2fb0:	00007737          	lui	a4,0x7
    2fb4:	95470713          	addi	a4,a4,-1708 # 6954 <grid>
    2fb8:	00179793          	slli	a5,a5,0x1
    2fbc:	00350513          	addi	a0,a0,3
    2fc0:	00f707b3          	add	a5,a4,a5
    2fc4:	00a787b3          	add	a5,a5,a0
    2fc8:	0007c503          	lbu	a0,0(a5)
    2fcc:	00153513          	seqz	a0,a0
    2fd0:	00008067          	ret
    2fd4:	0087a683          	lw	a3,8(a5)
    2fd8:	01300713          	li	a4,19
    2fdc:	00168693          	addi	a3,a3,1
    2fe0:	ecd74ce3          	blt	a4,a3,2eb8 <collision+0x3a4>
    2fe4:	00007737          	lui	a4,0x7
    2fe8:	0047a583          	lw	a1,4(a5)
    2fec:	95470713          	addi	a4,a4,-1708 # 6954 <grid>
    2ff0:	00269813          	slli	a6,a3,0x2
    2ff4:	b91ff06f          	j	2b84 <collision+0x70>
    2ff8:	0087a683          	lw	a3,8(a5)
    2ffc:	01300713          	li	a4,19
    3000:	00268693          	addi	a3,a3,2
    3004:	ead74ae3          	blt	a4,a3,2eb8 <collision+0x3a4>
    3008:	00007737          	lui	a4,0x7
    300c:	0047a583          	lw	a1,4(a5)
    3010:	95470713          	addi	a4,a4,-1708 # 6954 <grid>
    3014:	00269813          	slli	a6,a3,0x2
    3018:	c19ff06f          	j	2c30 <collision+0x11c>
    301c:	00d607b3          	add	a5,a2,a3
    3020:	00179793          	slli	a5,a5,0x1
    3024:	00350513          	addi	a0,a0,3
    3028:	00f707b3          	add	a5,a4,a5
    302c:	00a787b3          	add	a5,a5,a0
    3030:	0007c503          	lbu	a0,0(a5)
    3034:	00153513          	seqz	a0,a0
    3038:	00008067          	ret

0000303c <rotate_piece>:
    303c:	f9010113          	addi	sp,sp,-112
    3040:	01452383          	lw	t2,20(a0)
    3044:	01852e83          	lw	t4,24(a0)
    3048:	01c52803          	lw	a6,28(a0)
    304c:	06812623          	sw	s0,108(sp)
    3050:	07312023          	sw	s3,96(sp)
    3054:	02452403          	lw	s0,36(a0)
    3058:	01052983          	lw	s3,16(a0)
    305c:	05412e23          	sw	s4,92(sp)
    3060:	02052a03          	lw	s4,32(a0)
    3064:	02c52883          	lw	a7,44(a0)
    3068:	03852f83          	lw	t6,56(a0)
    306c:	03c52303          	lw	t1,60(a0)
    3070:	04852283          	lw	t0,72(a0)
    3074:	04c52e03          	lw	t3,76(a0)
    3078:	06912423          	sw	s1,104(sp)
    307c:	07212223          	sw	s2,100(sp)
    3080:	03452483          	lw	s1,52(a0)
    3084:	04452903          	lw	s2,68(a0)
    3088:	05512c23          	sw	s5,88(sp)
    308c:	05612a23          	sw	s6,84(sp)
    3090:	03052a83          	lw	s5,48(a0)
    3094:	04052b03          	lw	s6,64(a0)
    3098:	02852f03          	lw	t5,40(a0)
    309c:	05712823          	sw	s7,80(sp)
    30a0:	05812623          	sw	s8,76(sp)
    30a4:	00007637          	lui	a2,0x7
    30a8:	01312623          	sw	s3,12(sp)
    30ac:	00712e23          	sw	t2,28(sp)
    30b0:	03d12623          	sw	t4,44(sp)
    30b4:	03012e23          	sw	a6,60(sp)
    30b8:	01412423          	sw	s4,8(sp)
    30bc:	00812c23          	sw	s0,24(sp)
    30c0:	03e12423          	sw	t5,40(sp)
    30c4:	95460613          	addi	a2,a2,-1708 # 6954 <grid>
    30c8:	03112c23          	sw	a7,56(sp)
    30cc:	01512223          	sw	s5,4(sp)
    30d0:	00912a23          	sw	s1,20(sp)
    30d4:	03f12223          	sw	t6,36(sp)
    30d8:	02612a23          	sw	t1,52(sp)
    30dc:	01612023          	sw	s6,0(sp)
    30e0:	01212823          	sw	s2,16(sp)
    30e4:	02512023          	sw	t0,32(sp)
    30e8:	03c12823          	sw	t3,48(sp)
    30ec:	00010793          	mv	a5,sp
    30f0:	00000713          	li	a4,0
    30f4:	00400593          	li	a1,4
    30f8:	0007a683          	lw	a3,0(a5)
    30fc:	02068e63          	beqz	a3,3138 <rotate_piece+0xfc>
    3100:	00452c03          	lw	s8,4(a0)
    3104:	00852b83          	lw	s7,8(a0)
    3108:	00ac3693          	sltiu	a3,s8,10
    310c:	01770bb3          	add	s7,a4,s7
    3110:	14068063          	beqz	a3,3250 <rotate_piece+0x214>
    3114:	014bb693          	sltiu	a3,s7,20
    3118:	12068c63          	beqz	a3,3250 <rotate_piece+0x214>
    311c:	002b9693          	slli	a3,s7,0x2
    3120:	017686b3          	add	a3,a3,s7
    3124:	00169693          	slli	a3,a3,0x1
    3128:	00d606b3          	add	a3,a2,a3
    312c:	018686b3          	add	a3,a3,s8
    3130:	0006c683          	lbu	a3,0(a3)
    3134:	10069e63          	bnez	a3,3250 <rotate_piece+0x214>
    3138:	0047a683          	lw	a3,4(a5)
    313c:	04068063          	beqz	a3,317c <rotate_piece+0x140>
    3140:	00452c03          	lw	s8,4(a0)
    3144:	00852b83          	lw	s7,8(a0)
    3148:	001c0693          	addi	a3,s8,1
    314c:	00a6b693          	sltiu	a3,a3,10
    3150:	01770bb3          	add	s7,a4,s7
    3154:	0e068e63          	beqz	a3,3250 <rotate_piece+0x214>
    3158:	014bb693          	sltiu	a3,s7,20
    315c:	0e068a63          	beqz	a3,3250 <rotate_piece+0x214>
    3160:	002b9693          	slli	a3,s7,0x2
    3164:	017686b3          	add	a3,a3,s7
    3168:	00169693          	slli	a3,a3,0x1
    316c:	00d606b3          	add	a3,a2,a3
    3170:	018686b3          	add	a3,a3,s8
    3174:	0016c683          	lbu	a3,1(a3)
    3178:	0c069c63          	bnez	a3,3250 <rotate_piece+0x214>
    317c:	0087a683          	lw	a3,8(a5)
    3180:	04068063          	beqz	a3,31c0 <rotate_piece+0x184>
    3184:	00452c03          	lw	s8,4(a0)
    3188:	00852b83          	lw	s7,8(a0)
    318c:	002c0693          	addi	a3,s8,2
    3190:	00a6b693          	sltiu	a3,a3,10
    3194:	01770bb3          	add	s7,a4,s7
    3198:	0a068c63          	beqz	a3,3250 <rotate_piece+0x214>
    319c:	014bb693          	sltiu	a3,s7,20
    31a0:	0a068863          	beqz	a3,3250 <rotate_piece+0x214>
    31a4:	002b9693          	slli	a3,s7,0x2
    31a8:	017686b3          	add	a3,a3,s7
    31ac:	00169693          	slli	a3,a3,0x1
    31b0:	00d606b3          	add	a3,a2,a3
    31b4:	018686b3          	add	a3,a3,s8
    31b8:	0026c683          	lbu	a3,2(a3)
    31bc:	08069a63          	bnez	a3,3250 <rotate_piece+0x214>
    31c0:	00c7a683          	lw	a3,12(a5)
    31c4:	04068063          	beqz	a3,3204 <rotate_piece+0x1c8>
    31c8:	00452c03          	lw	s8,4(a0)
    31cc:	00852b83          	lw	s7,8(a0)
    31d0:	003c0693          	addi	a3,s8,3
    31d4:	00a6b693          	sltiu	a3,a3,10
    31d8:	01770bb3          	add	s7,a4,s7
    31dc:	06068a63          	beqz	a3,3250 <rotate_piece+0x214>
    31e0:	014bb693          	sltiu	a3,s7,20
    31e4:	06068663          	beqz	a3,3250 <rotate_piece+0x214>
    31e8:	002b9693          	slli	a3,s7,0x2
    31ec:	017686b3          	add	a3,a3,s7
    31f0:	00169693          	slli	a3,a3,0x1
    31f4:	00d606b3          	add	a3,a2,a3
    31f8:	018686b3          	add	a3,a3,s8
    31fc:	0036c683          	lbu	a3,3(a3)
    3200:	04069863          	bnez	a3,3250 <rotate_piece+0x214>
    3204:	00170713          	addi	a4,a4,1
    3208:	01078793          	addi	a5,a5,16
    320c:	eeb716e3          	bne	a4,a1,30f8 <rotate_piece+0xbc>
    3210:	01652823          	sw	s6,16(a0)
    3214:	01552a23          	sw	s5,20(a0)
    3218:	01452c23          	sw	s4,24(a0)
    321c:	01352e23          	sw	s3,28(a0)
    3220:	03252023          	sw	s2,32(a0)
    3224:	02952223          	sw	s1,36(a0)
    3228:	02852423          	sw	s0,40(a0)
    322c:	02752623          	sw	t2,44(a0)
    3230:	02552823          	sw	t0,48(a0)
    3234:	03f52a23          	sw	t6,52(a0)
    3238:	03e52c23          	sw	t5,56(a0)
    323c:	03d52e23          	sw	t4,60(a0)
    3240:	05c52023          	sw	t3,64(a0)
    3244:	04652223          	sw	t1,68(a0)
    3248:	05152423          	sw	a7,72(a0)
    324c:	05052623          	sw	a6,76(a0)
    3250:	06c12403          	lw	s0,108(sp)
    3254:	06812483          	lw	s1,104(sp)
    3258:	06412903          	lw	s2,100(sp)
    325c:	06012983          	lw	s3,96(sp)
    3260:	05c12a03          	lw	s4,92(sp)
    3264:	05812a83          	lw	s5,88(sp)
    3268:	05412b03          	lw	s6,84(sp)
    326c:	05012b83          	lw	s7,80(sp)
    3270:	04c12c03          	lw	s8,76(sp)
    3274:	07010113          	addi	sp,sp,112
    3278:	00008067          	ret

0000327c <move_piece>:
    327c:	040007b7          	lui	a5,0x4000
    3280:	01078793          	addi	a5,a5,16 # 4000010 <_stack_end+0x3ef3660>
    3284:	0007a783          	lw	a5,0(a5)
    3288:	01052703          	lw	a4,16(a0)
    328c:	fb010113          	addi	sp,sp,-80
    3290:	3ff7f793          	andi	a5,a5,1023
    3294:	00f12e23          	sw	a5,28(sp)
    3298:	04112623          	sw	ra,76(sp)
    329c:	04812423          	sw	s0,72(sp)
    32a0:	01452783          	lw	a5,20(a0)
    32a4:	01852683          	lw	a3,24(a0)
    32a8:	01c52603          	lw	a2,28(a0)
    32ac:	06071863          	bnez	a4,331c <move_piece+0xa0>
    32b0:	16079663          	bnez	a5,341c <move_piece+0x1a0>
    32b4:	54069a63          	bnez	a3,3808 <move_piece+0x58c>
    32b8:	06061863          	bnez	a2,3328 <move_piece+0xac>
    32bc:	02052403          	lw	s0,32(a0)
    32c0:	02452683          	lw	a3,36(a0)
    32c4:	02852703          	lw	a4,40(a0)
    32c8:	02c52783          	lw	a5,44(a0)
    32cc:	10040e63          	beqz	s0,33e8 <move_piece+0x16c>
    32d0:	10069e63          	bnez	a3,33ec <move_piece+0x170>
    32d4:	16071063          	bnez	a4,3434 <move_piece+0x1b8>
    32d8:	36078e63          	beqz	a5,3654 <move_piece+0x3d8>
    32dc:	03c52783          	lw	a5,60(a0)
    32e0:	00400413          	li	s0,4
    32e4:	06079a63          	bnez	a5,3358 <move_piece+0xdc>
    32e8:	04052603          	lw	a2,64(a0)
    32ec:	04452683          	lw	a3,68(a0)
    32f0:	04852703          	lw	a4,72(a0)
    32f4:	04c52783          	lw	a5,76(a0)
    32f8:	14060e63          	beqz	a2,3454 <move_piece+0x1d8>
    32fc:	14041c63          	bnez	s0,3454 <move_piece+0x1d8>
    3300:	16069063          	bnez	a3,3460 <move_piece+0x1e4>
    3304:	16071063          	bnez	a4,3464 <move_piece+0x1e8>
    3308:	00f037b3          	snez	a5,a5
    330c:	40f007b3          	neg	a5,a5
    3310:	0037f413          	andi	s0,a5,3
    3314:	00140413          	addi	s0,s0,1
    3318:	1540006f          	j	346c <move_piece+0x1f0>
    331c:	10079063          	bnez	a5,341c <move_piece+0x1a0>
    3320:	4e069463          	bnez	a3,3808 <move_piece+0x58c>
    3324:	0a060a63          	beqz	a2,33d8 <move_piece+0x15c>
    3328:	02c52783          	lw	a5,44(a0)
    332c:	00400413          	li	s0,4
    3330:	fa0796e3          	bnez	a5,32dc <move_piece+0x60>
    3334:	03052603          	lw	a2,48(a0)
    3338:	03452683          	lw	a3,52(a0)
    333c:	03852703          	lw	a4,56(a0)
    3340:	03c52783          	lw	a5,60(a0)
    3344:	32060063          	beqz	a2,3664 <move_piece+0x3e8>
    3348:	30041e63          	bnez	s0,3664 <move_piece+0x3e8>
    334c:	32069263          	bnez	a3,3670 <move_piece+0x3f4>
    3350:	0a071e63          	bnez	a4,340c <move_piece+0x190>
    3354:	0e078863          	beqz	a5,3444 <move_piece+0x1c8>
    3358:	04c52783          	lw	a5,76(a0)
    335c:	00400413          	li	s0,4
    3360:	10078663          	beqz	a5,346c <move_piece+0x1f0>
    3364:	000075b7          	lui	a1,0x7
    3368:	95458593          	addi	a1,a1,-1708 # 6954 <grid>
    336c:	0d85a783          	lw	a5,216(a1)
    3370:	0d05a603          	lw	a2,208(a1)
    3374:	0cc5a683          	lw	a3,204(a1)
    3378:	00400413          	li	s0,4
    337c:	10079463          	bnez	a5,3484 <move_piece+0x208>
    3380:	0dc5a783          	lw	a5,220(a1)
    3384:	30078863          	beqz	a5,3694 <move_piece+0x418>
    3388:	00160813          	addi	a6,a2,1
    338c:	01300793          	li	a5,19
    3390:	3307cc63          	blt	a5,a6,36c8 <move_piece+0x44c>
    3394:	00168893          	addi	a7,a3,1
    3398:	00281793          	slli	a5,a6,0x2
    339c:	01078733          	add	a4,a5,a6
    33a0:	00171713          	slli	a4,a4,0x1
    33a4:	00e58733          	add	a4,a1,a4
    33a8:	01170733          	add	a4,a4,a7
    33ac:	00074703          	lbu	a4,0(a4)
    33b0:	30071c63          	bnez	a4,36c8 <move_piece+0x44c>
    33b4:	0e05a703          	lw	a4,224(a1)
    33b8:	2e071a63          	bnez	a4,36ac <move_piece+0x430>
    33bc:	0e45a783          	lw	a5,228(a1)
    33c0:	12078263          	beqz	a5,34e4 <move_piece+0x268>
    33c4:	00160813          	addi	a6,a2,1
    33c8:	01300793          	li	a5,19
    33cc:	2f07ce63          	blt	a5,a6,36c8 <move_piece+0x44c>
    33d0:	00281793          	slli	a5,a6,0x2
    33d4:	0f40006f          	j	34c8 <move_piece+0x24c>
    33d8:	02452683          	lw	a3,36(a0)
    33dc:	02852703          	lw	a4,40(a0)
    33e0:	02c52783          	lw	a5,44(a0)
    33e4:	00100413          	li	s0,1
    33e8:	04068463          	beqz	a3,3430 <move_piece+0x1b4>
    33ec:	04071463          	bnez	a4,3434 <move_piece+0x1b8>
    33f0:	ee0796e3          	bnez	a5,32dc <move_piece+0x60>
    33f4:	03852703          	lw	a4,56(a0)
    33f8:	03c52783          	lw	a5,60(a0)
    33fc:	00200413          	li	s0,2
    3400:	00342693          	slti	a3,s0,3
    3404:	ee0680e3          	beqz	a3,32e4 <move_piece+0x68>
    3408:	ec070ee3          	beqz	a4,32e4 <move_piece+0x68>
    340c:	f40796e3          	bnez	a5,3358 <move_piece+0xdc>
    3410:	04c52783          	lw	a5,76(a0)
    3414:	00300413          	li	s0,3
    3418:	f49ff06f          	j	3360 <move_piece+0xe4>
    341c:	3e069663          	bnez	a3,3808 <move_piece+0x58c>
    3420:	f00614e3          	bnez	a2,3328 <move_piece+0xac>
    3424:	02852703          	lw	a4,40(a0)
    3428:	02c52783          	lw	a5,44(a0)
    342c:	00200413          	li	s0,2
    3430:	f00700e3          	beqz	a4,3330 <move_piece+0xb4>
    3434:	ea0794e3          	bnez	a5,32dc <move_piece+0x60>
    3438:	03c52783          	lw	a5,60(a0)
    343c:	00300413          	li	s0,3
    3440:	ea5ff06f          	j	32e4 <move_piece+0x68>
    3444:	04452683          	lw	a3,68(a0)
    3448:	04852703          	lw	a4,72(a0)
    344c:	04c52783          	lw	a5,76(a0)
    3450:	00100413          	li	s0,1
    3454:	22068863          	beqz	a3,3684 <move_piece+0x408>
    3458:	00242693          	slti	a3,s0,2
    345c:	22068463          	beqz	a3,3684 <move_piece+0x408>
    3460:	44070c63          	beqz	a4,38b8 <move_piece+0x63c>
    3464:	00f03433          	snez	s0,a5
    3468:	00340413          	addi	s0,s0,3
    346c:	000075b7          	lui	a1,0x7
    3470:	95458593          	addi	a1,a1,-1708 # 6954 <grid>
    3474:	0d85a783          	lw	a5,216(a1)
    3478:	0d05a603          	lw	a2,208(a1)
    347c:	0cc5a683          	lw	a3,204(a1)
    3480:	f00780e3          	beqz	a5,3380 <move_piece+0x104>
    3484:	00160813          	addi	a6,a2,1
    3488:	01300793          	li	a5,19
    348c:	2307ce63          	blt	a5,a6,36c8 <move_piece+0x44c>
    3490:	00281793          	slli	a5,a6,0x2
    3494:	01078733          	add	a4,a5,a6
    3498:	00171713          	slli	a4,a4,0x1
    349c:	00e58733          	add	a4,a1,a4
    34a0:	00d70733          	add	a4,a4,a3
    34a4:	00074703          	lbu	a4,0(a4)
    34a8:	22071063          	bnez	a4,36c8 <move_piece+0x44c>
    34ac:	0dc5a703          	lw	a4,220(a1)
    34b0:	00168893          	addi	a7,a3,1
    34b4:	ee0714e3          	bnez	a4,339c <move_piece+0x120>
    34b8:	0e05a703          	lw	a4,224(a1)
    34bc:	1e071863          	bnez	a4,36ac <move_piece+0x430>
    34c0:	0e45a703          	lw	a4,228(a1)
    34c4:	02070063          	beqz	a4,34e4 <move_piece+0x268>
    34c8:	010787b3          	add	a5,a5,a6
    34cc:	00179793          	slli	a5,a5,0x1
    34d0:	00368713          	addi	a4,a3,3
    34d4:	00f587b3          	add	a5,a1,a5
    34d8:	00e787b3          	add	a5,a5,a4
    34dc:	0007c783          	lbu	a5,0(a5)
    34e0:	1e079463          	bnez	a5,36c8 <move_piece+0x44c>
    34e4:	0e85a783          	lw	a5,232(a1)
    34e8:	20078663          	beqz	a5,36f4 <move_piece+0x478>
    34ec:	00260813          	addi	a6,a2,2
    34f0:	01300793          	li	a5,19
    34f4:	1d07ca63          	blt	a5,a6,36c8 <move_piece+0x44c>
    34f8:	00281793          	slli	a5,a6,0x2
    34fc:	01078733          	add	a4,a5,a6
    3500:	00171713          	slli	a4,a4,0x1
    3504:	00e58733          	add	a4,a1,a4
    3508:	00d70733          	add	a4,a4,a3
    350c:	00074703          	lbu	a4,0(a4)
    3510:	1a071c63          	bnez	a4,36c8 <move_piece+0x44c>
    3514:	0ec5a703          	lw	a4,236(a1)
    3518:	00168893          	addi	a7,a3,1
    351c:	1e071a63          	bnez	a4,3710 <move_piece+0x494>
    3520:	0f05a703          	lw	a4,240(a1)
    3524:	02070063          	beqz	a4,3544 <move_piece+0x2c8>
    3528:	01078733          	add	a4,a5,a6
    352c:	00171713          	slli	a4,a4,0x1
    3530:	00268893          	addi	a7,a3,2
    3534:	00e58733          	add	a4,a1,a4
    3538:	01170733          	add	a4,a4,a7
    353c:	00074703          	lbu	a4,0(a4)
    3540:	18071463          	bnez	a4,36c8 <move_piece+0x44c>
    3544:	0f45a703          	lw	a4,244(a1)
    3548:	02070063          	beqz	a4,3568 <move_piece+0x2ec>
    354c:	010787b3          	add	a5,a5,a6
    3550:	00179793          	slli	a5,a5,0x1
    3554:	00368713          	addi	a4,a3,3
    3558:	00f587b3          	add	a5,a1,a5
    355c:	00e787b3          	add	a5,a5,a4
    3560:	0007c783          	lbu	a5,0(a5)
    3564:	16079263          	bnez	a5,36c8 <move_piece+0x44c>
    3568:	0f85a783          	lw	a5,248(a1)
    356c:	1e078063          	beqz	a5,374c <move_piece+0x4d0>
    3570:	00360813          	addi	a6,a2,3
    3574:	01300793          	li	a5,19
    3578:	1507c863          	blt	a5,a6,36c8 <move_piece+0x44c>
    357c:	00281793          	slli	a5,a6,0x2
    3580:	01078733          	add	a4,a5,a6
    3584:	00171713          	slli	a4,a4,0x1
    3588:	00e58733          	add	a4,a1,a4
    358c:	00d70733          	add	a4,a4,a3
    3590:	00074703          	lbu	a4,0(a4)
    3594:	12071a63          	bnez	a4,36c8 <move_piece+0x44c>
    3598:	0fc5a703          	lw	a4,252(a1)
    359c:	00168893          	addi	a7,a3,1
    35a0:	2a070863          	beqz	a4,3850 <move_piece+0x5d4>
    35a4:	01078733          	add	a4,a5,a6
    35a8:	00171713          	slli	a4,a4,0x1
    35ac:	00e58733          	add	a4,a1,a4
    35b0:	01170733          	add	a4,a4,a7
    35b4:	00074703          	lbu	a4,0(a4)
    35b8:	10071863          	bnez	a4,36c8 <move_piece+0x44c>
    35bc:	1005a703          	lw	a4,256(a1)
    35c0:	10070c63          	beqz	a4,36d8 <move_piece+0x45c>
    35c4:	01078733          	add	a4,a5,a6
    35c8:	00171713          	slli	a4,a4,0x1
    35cc:	00268893          	addi	a7,a3,2
    35d0:	00e58733          	add	a4,a1,a4
    35d4:	01170733          	add	a4,a4,a7
    35d8:	00074703          	lbu	a4,0(a4)
    35dc:	0e071663          	bnez	a4,36c8 <move_piece+0x44c>
    35e0:	1045a703          	lw	a4,260(a1)
    35e4:	02070063          	beqz	a4,3604 <move_piece+0x388>
    35e8:	010787b3          	add	a5,a5,a6
    35ec:	00179793          	slli	a5,a5,0x1
    35f0:	00368713          	addi	a4,a3,3
    35f4:	00f587b3          	add	a5,a1,a5
    35f8:	00e787b3          	add	a5,a5,a4
    35fc:	0007c783          	lbu	a5,0(a5)
    3600:	0c079463          	bnez	a5,36c8 <move_piece+0x44c>
    3604:	1085a783          	lw	a5,264(a1)
    3608:	16078463          	beqz	a5,3770 <move_piece+0x4f4>
    360c:	00460813          	addi	a6,a2,4
    3610:	01300793          	li	a5,19
    3614:	0b07ca63          	blt	a5,a6,36c8 <move_piece+0x44c>
    3618:	00281793          	slli	a5,a6,0x2
    361c:	01078733          	add	a4,a5,a6
    3620:	00171713          	slli	a4,a4,0x1
    3624:	00e58733          	add	a4,a1,a4
    3628:	00d70733          	add	a4,a4,a3
    362c:	00074703          	lbu	a4,0(a4)
    3630:	08071c63          	bnez	a4,36c8 <move_piece+0x44c>
    3634:	10c5a703          	lw	a4,268(a1)
    3638:	26071c63          	bnez	a4,38b0 <move_piece+0x634>
    363c:	1105a703          	lw	a4,272(a1)
    3640:	14071863          	bnez	a4,3790 <move_piece+0x514>
    3644:	1145a703          	lw	a4,276(a1)
    3648:	18070263          	beqz	a4,37cc <move_piece+0x550>
    364c:	00368693          	addi	a3,a3,3
    3650:	1640006f          	j	37b4 <move_piece+0x538>
    3654:	03452683          	lw	a3,52(a0)
    3658:	03852703          	lw	a4,56(a0)
    365c:	03c52783          	lw	a5,60(a0)
    3660:	00100413          	li	s0,1
    3664:	00242613          	slti	a2,s0,2
    3668:	d8060ce3          	beqz	a2,3400 <move_piece+0x184>
    366c:	d8068ae3          	beqz	a3,3400 <move_piece+0x184>
    3670:	d8071ee3          	bnez	a4,340c <move_piece+0x190>
    3674:	ce0792e3          	bnez	a5,3358 <move_piece+0xdc>
    3678:	04852703          	lw	a4,72(a0)
    367c:	04c52783          	lw	a5,76(a0)
    3680:	00200413          	li	s0,2
    3684:	00342693          	slti	a3,s0,3
    3688:	cc068ce3          	beqz	a3,3360 <move_piece+0xe4>
    368c:	dc071ce3          	bnez	a4,3464 <move_piece+0x1e8>
    3690:	cd1ff06f          	j	3360 <move_piece+0xe4>
    3694:	0e05a783          	lw	a5,224(a1)
    3698:	d20782e3          	beqz	a5,33bc <move_piece+0x140>
    369c:	00160813          	addi	a6,a2,1
    36a0:	01300793          	li	a5,19
    36a4:	0307c263          	blt	a5,a6,36c8 <move_piece+0x44c>
    36a8:	00281793          	slli	a5,a6,0x2
    36ac:	01078733          	add	a4,a5,a6
    36b0:	00171713          	slli	a4,a4,0x1
    36b4:	00268893          	addi	a7,a3,2
    36b8:	00e58733          	add	a4,a1,a4
    36bc:	01170733          	add	a4,a4,a7
    36c0:	00074703          	lbu	a4,0(a4)
    36c4:	de070ee3          	beqz	a4,34c0 <move_piece+0x244>
    36c8:	04c12083          	lw	ra,76(sp)
    36cc:	04812403          	lw	s0,72(sp)
    36d0:	05010113          	addi	sp,sp,80
    36d4:	00008067          	ret
    36d8:	1045a783          	lw	a5,260(a1)
    36dc:	f20784e3          	beqz	a5,3604 <move_piece+0x388>
    36e0:	00360813          	addi	a6,a2,3
    36e4:	01300793          	li	a5,19
    36e8:	ff07c0e3          	blt	a5,a6,36c8 <move_piece+0x44c>
    36ec:	00281793          	slli	a5,a6,0x2
    36f0:	ef9ff06f          	j	35e8 <move_piece+0x36c>
    36f4:	0ec5a783          	lw	a5,236(a1)
    36f8:	12078263          	beqz	a5,381c <move_piece+0x5a0>
    36fc:	00260813          	addi	a6,a2,2
    3700:	01300793          	li	a5,19
    3704:	fd07c2e3          	blt	a5,a6,36c8 <move_piece+0x44c>
    3708:	00168893          	addi	a7,a3,1
    370c:	00281793          	slli	a5,a6,0x2
    3710:	01078733          	add	a4,a5,a6
    3714:	00171713          	slli	a4,a4,0x1
    3718:	00e58733          	add	a4,a1,a4
    371c:	01170733          	add	a4,a4,a7
    3720:	00074703          	lbu	a4,0(a4)
    3724:	fa0712e3          	bnez	a4,36c8 <move_piece+0x44c>
    3728:	0f05a703          	lw	a4,240(a1)
    372c:	de071ee3          	bnez	a4,3528 <move_piece+0x2ac>
    3730:	0f45a783          	lw	a5,244(a1)
    3734:	e2078ae3          	beqz	a5,3568 <move_piece+0x2ec>
    3738:	00260813          	addi	a6,a2,2
    373c:	01300793          	li	a5,19
    3740:	f907c4e3          	blt	a5,a6,36c8 <move_piece+0x44c>
    3744:	00281793          	slli	a5,a6,0x2
    3748:	e05ff06f          	j	354c <move_piece+0x2d0>
    374c:	0fc5a783          	lw	a5,252(a1)
    3750:	0e079463          	bnez	a5,3838 <move_piece+0x5bc>
    3754:	1005a783          	lw	a5,256(a1)
    3758:	f80780e3          	beqz	a5,36d8 <move_piece+0x45c>
    375c:	00360813          	addi	a6,a2,3
    3760:	01300793          	li	a5,19
    3764:	f707c2e3          	blt	a5,a6,36c8 <move_piece+0x44c>
    3768:	00281793          	slli	a5,a6,0x2
    376c:	e59ff06f          	j	35c4 <move_piece+0x348>
    3770:	10c5a783          	lw	a5,268(a1)
    3774:	0e079463          	bnez	a5,385c <move_piece+0x5e0>
    3778:	1105a783          	lw	a5,272(a1)
    377c:	10078a63          	beqz	a5,3890 <move_piece+0x614>
    3780:	00460813          	addi	a6,a2,4
    3784:	01300793          	li	a5,19
    3788:	f507c0e3          	blt	a5,a6,36c8 <move_piece+0x44c>
    378c:	00281793          	slli	a5,a6,0x2
    3790:	01078733          	add	a4,a5,a6
    3794:	00171713          	slli	a4,a4,0x1
    3798:	00e58733          	add	a4,a1,a4
    379c:	00d70733          	add	a4,a4,a3
    37a0:	00274703          	lbu	a4,2(a4)
    37a4:	f20712e3          	bnez	a4,36c8 <move_piece+0x44c>
    37a8:	1145a703          	lw	a4,276(a1)
    37ac:	00368693          	addi	a3,a3,3
    37b0:	00070e63          	beqz	a4,37cc <move_piece+0x550>
    37b4:	010787b3          	add	a5,a5,a6
    37b8:	00179793          	slli	a5,a5,0x1
    37bc:	00f587b3          	add	a5,a1,a5
    37c0:	00d787b3          	add	a5,a5,a3
    37c4:	0007c783          	lbu	a5,0(a5)
    37c8:	f00790e3          	bnez	a5,36c8 <move_piece+0x44c>
    37cc:	04912223          	sw	s1,68(sp)
    37d0:	01c12483          	lw	s1,28(sp)
    37d4:	0014f493          	andi	s1,s1,1
    37d8:	58049e63          	bnez	s1,3d74 <move_piece+0xaf8>
    37dc:	01c12783          	lw	a5,28(sp)
    37e0:	0027f793          	andi	a5,a5,2
    37e4:	0e079263          	bnez	a5,38c8 <move_piece+0x64c>
    37e8:	01c12783          	lw	a5,28(sp)
    37ec:	0047f793          	andi	a5,a5,4
    37f0:	24079063          	bnez	a5,3a30 <move_piece+0x7b4>
    37f4:	04c12083          	lw	ra,76(sp)
    37f8:	04812403          	lw	s0,72(sp)
    37fc:	04412483          	lw	s1,68(sp)
    3800:	05010113          	addi	sp,sp,80
    3804:	00008067          	ret
    3808:	02c52783          	lw	a5,44(a0)
    380c:	00300413          	li	s0,3
    3810:	b20600e3          	beqz	a2,3330 <move_piece+0xb4>
    3814:	00400413          	li	s0,4
    3818:	b19ff06f          	j	3330 <move_piece+0xb4>
    381c:	0f05a783          	lw	a5,240(a1)
    3820:	f00788e3          	beqz	a5,3730 <move_piece+0x4b4>
    3824:	00260813          	addi	a6,a2,2
    3828:	01300793          	li	a5,19
    382c:	e907cee3          	blt	a5,a6,36c8 <move_piece+0x44c>
    3830:	00281793          	slli	a5,a6,0x2
    3834:	cf5ff06f          	j	3528 <move_piece+0x2ac>
    3838:	00360813          	addi	a6,a2,3
    383c:	01300793          	li	a5,19
    3840:	e907c4e3          	blt	a5,a6,36c8 <move_piece+0x44c>
    3844:	00168893          	addi	a7,a3,1
    3848:	00281793          	slli	a5,a6,0x2
    384c:	d59ff06f          	j	35a4 <move_piece+0x328>
    3850:	1005a703          	lw	a4,256(a1)
    3854:	d60718e3          	bnez	a4,35c4 <move_piece+0x348>
    3858:	d89ff06f          	j	35e0 <move_piece+0x364>
    385c:	00460813          	addi	a6,a2,4
    3860:	01300793          	li	a5,19
    3864:	e707c2e3          	blt	a5,a6,36c8 <move_piece+0x44c>
    3868:	00168893          	addi	a7,a3,1
    386c:	00281793          	slli	a5,a6,0x2
    3870:	01078733          	add	a4,a5,a6
    3874:	00171713          	slli	a4,a4,0x1
    3878:	00e58733          	add	a4,a1,a4
    387c:	01170733          	add	a4,a4,a7
    3880:	00074703          	lbu	a4,0(a4)
    3884:	e40712e3          	bnez	a4,36c8 <move_piece+0x44c>
    3888:	1105a703          	lw	a4,272(a1)
    388c:	f00712e3          	bnez	a4,3790 <move_piece+0x514>
    3890:	1145a783          	lw	a5,276(a1)
    3894:	f2078ce3          	beqz	a5,37cc <move_piece+0x550>
    3898:	00460813          	addi	a6,a2,4
    389c:	01300793          	li	a5,19
    38a0:	e307c4e3          	blt	a5,a6,36c8 <move_piece+0x44c>
    38a4:	00281793          	slli	a5,a6,0x2
    38a8:	00368693          	addi	a3,a3,3
    38ac:	f09ff06f          	j	37b4 <move_piece+0x538>
    38b0:	00168893          	addi	a7,a3,1
    38b4:	fbdff06f          	j	3870 <move_piece+0x5f4>
    38b8:	00f037b3          	snez	a5,a5
    38bc:	00179413          	slli	s0,a5,0x1
    38c0:	00240413          	addi	s0,s0,2
    38c4:	ba9ff06f          	j	346c <move_piece+0x1f0>
    38c8:	00a12623          	sw	a0,12(sp)
    38cc:	05212023          	sw	s2,64(sp)
    38d0:	03312e23          	sw	s3,60(sp)
    38d4:	03412c23          	sw	s4,56(sp)
    38d8:	03512a23          	sw	s5,52(sp)
    38dc:	03612823          	sw	s6,48(sp)
    38e0:	ca1fc0ef          	jal	580 <update_shape.constprop.0>
    38e4:	00c12503          	lw	a0,12(sp)
    38e8:	00900713          	li	a4,9
    38ec:	00452783          	lw	a5,4(a0)
    38f0:	00878433          	add	s0,a5,s0
    38f4:	00874663          	blt	a4,s0,3900 <move_piece+0x684>
    38f8:	00178793          	addi	a5,a5,1
    38fc:	00f52223          	sw	a5,4(a0)
    3900:	00000f93          	li	t6,0
    3904:	00007737          	lui	a4,0x7
    3908:	01200693          	li	a3,18
    390c:	08100f13          	li	t5,129
    3910:	00800393          	li	t2,8
    3914:	00400293          	li	t0,4
    3918:	004f9e93          	slli	t4,t6,0x4
    391c:	01d50eb3          	add	t4,a0,t4
    3920:	00000e13          	li	t3,0
    3924:	010ea783          	lw	a5,16(t4)
    3928:	0c078a63          	beqz	a5,39fc <move_piece+0x780>
    392c:	00852783          	lw	a5,8(a0)
    3930:	00452603          	lw	a2,4(a0)
    3934:	00ff87b3          	add	a5,t6,a5
    3938:	0147b813          	sltiu	a6,a5,20
    393c:	00ce0633          	add	a2,t3,a2
    3940:	0a080e63          	beqz	a6,39fc <move_piece+0x780>
    3944:	00a63813          	sltiu	a6,a2,10
    3948:	0a080a63          	beqz	a6,39fc <move_piece+0x780>
    394c:	00578793          	addi	a5,a5,5
    3950:	00279813          	slli	a6,a5,0x2
    3954:	00f807b3          	add	a5,a6,a5
    3958:	00f60613          	addi	a2,a2,15
    395c:	00679793          	slli	a5,a5,0x6
    3960:	00c787b3          	add	a5,a5,a2
    3964:	00c54403          	lbu	s0,12(a0)
    3968:	00379793          	slli	a5,a5,0x3
    396c:	00678313          	addi	t1,a5,6
    3970:	00000893          	li	a7,0
    3974:	95072803          	lw	a6,-1712(a4) # 6950 <VGA>
    3978:	011f5633          	srl	a2,t5,a7
    397c:	00167613          	andi	a2,a2,1
    3980:	00f80833          	add	a6,a6,a5
    3984:	00d80023          	sb	a3,0(a6)
    3988:	95072803          	lw	a6,-1712(a4)
    398c:	00178b13          	addi	s6,a5,1
    3990:	00278a93          	addi	s5,a5,2
    3994:	00378a13          	addi	s4,a5,3
    3998:	00478913          	addi	s2,a5,4
    399c:	00578493          	addi	s1,a5,5
    39a0:	36060863          	beqz	a2,3d10 <move_piece+0xa94>
    39a4:	01680833          	add	a6,a6,s6
    39a8:	00d80023          	sb	a3,0(a6)
    39ac:	95072603          	lw	a2,-1712(a4)
    39b0:	00778993          	addi	s3,a5,7
    39b4:	01560633          	add	a2,a2,s5
    39b8:	00d60023          	sb	a3,0(a2)
    39bc:	95072603          	lw	a2,-1712(a4)
    39c0:	01460633          	add	a2,a2,s4
    39c4:	00d60023          	sb	a3,0(a2)
    39c8:	95072603          	lw	a2,-1712(a4)
    39cc:	01260633          	add	a2,a2,s2
    39d0:	00d60023          	sb	a3,0(a2)
    39d4:	95072603          	lw	a2,-1712(a4)
    39d8:	00960633          	add	a2,a2,s1
    39dc:	00d60023          	sb	a3,0(a2)
    39e0:	95072603          	lw	a2,-1712(a4)
    39e4:	30088463          	beqz	a7,3cec <move_piece+0xa70>
    39e8:	00660633          	add	a2,a2,t1
    39ec:	00d60023          	sb	a3,0(a2)
    39f0:	95072603          	lw	a2,-1712(a4)
    39f4:	00f607b3          	add	a5,a2,a5
    39f8:	00d783a3          	sb	a3,7(a5)
    39fc:	001e0e13          	addi	t3,t3,1
    3a00:	004e8e93          	addi	t4,t4,4
    3a04:	f25e10e3          	bne	t3,t0,3924 <move_piece+0x6a8>
    3a08:	001f8f93          	addi	t6,t6,1
    3a0c:	f05f96e3          	bne	t6,t0,3918 <move_piece+0x69c>
    3a10:	01c12783          	lw	a5,28(sp)
    3a14:	04012903          	lw	s2,64(sp)
    3a18:	03c12983          	lw	s3,60(sp)
    3a1c:	0047f793          	andi	a5,a5,4
    3a20:	03812a03          	lw	s4,56(sp)
    3a24:	03412a83          	lw	s5,52(sp)
    3a28:	03012b03          	lw	s6,48(sp)
    3a2c:	dc0784e3          	beqz	a5,37f4 <move_piece+0x578>
    3a30:	00a12623          	sw	a0,12(sp)
    3a34:	05212023          	sw	s2,64(sp)
    3a38:	03312e23          	sw	s3,60(sp)
    3a3c:	03412c23          	sw	s4,56(sp)
    3a40:	03512a23          	sw	s5,52(sp)
    3a44:	b3dfc0ef          	jal	580 <update_shape.constprop.0>
    3a48:	00c12503          	lw	a0,12(sp)
    3a4c:	000077b7          	lui	a5,0x7
    3a50:	01300813          	li	a6,19
    3a54:	01052883          	lw	a7,16(a0)
    3a58:	00852603          	lw	a2,8(a0)
    3a5c:	95478593          	addi	a1,a5,-1708 # 6954 <grid>
    3a60:	26088663          	beqz	a7,3ccc <move_piece+0xa50>
    3a64:	00160713          	addi	a4,a2,1
    3a68:	64e84863          	blt	a6,a4,40b8 <move_piece+0xe3c>
    3a6c:	00271313          	slli	t1,a4,0x2
    3a70:	00452783          	lw	a5,4(a0)
    3a74:	00e306b3          	add	a3,t1,a4
    3a78:	00169693          	slli	a3,a3,0x1
    3a7c:	00d586b3          	add	a3,a1,a3
    3a80:	00f686b3          	add	a3,a3,a5
    3a84:	0006c683          	lbu	a3,0(a3)
    3a88:	62069863          	bnez	a3,40b8 <move_piece+0xe3c>
    3a8c:	01452683          	lw	a3,20(a0)
    3a90:	00178e13          	addi	t3,a5,1
    3a94:	00068e63          	beqz	a3,3ab0 <move_piece+0x834>
    3a98:	00e306b3          	add	a3,t1,a4
    3a9c:	00169693          	slli	a3,a3,0x1
    3aa0:	00d586b3          	add	a3,a1,a3
    3aa4:	01c686b3          	add	a3,a3,t3
    3aa8:	0006c683          	lbu	a3,0(a3)
    3aac:	60069663          	bnez	a3,40b8 <move_piece+0xe3c>
    3ab0:	01852683          	lw	a3,24(a0)
    3ab4:	4a068863          	beqz	a3,3f64 <move_piece+0xce8>
    3ab8:	00e306b3          	add	a3,t1,a4
    3abc:	00169693          	slli	a3,a3,0x1
    3ac0:	00278e13          	addi	t3,a5,2
    3ac4:	00d586b3          	add	a3,a1,a3
    3ac8:	01c686b3          	add	a3,a3,t3
    3acc:	0006c683          	lbu	a3,0(a3)
    3ad0:	5e069463          	bnez	a3,40b8 <move_piece+0xe3c>
    3ad4:	01c52683          	lw	a3,28(a0)
    3ad8:	00378793          	addi	a5,a5,3
    3adc:	00068e63          	beqz	a3,3af8 <move_piece+0x87c>
    3ae0:	00e30733          	add	a4,t1,a4
    3ae4:	00171713          	slli	a4,a4,0x1
    3ae8:	00e58733          	add	a4,a1,a4
    3aec:	00f70733          	add	a4,a4,a5
    3af0:	00074783          	lbu	a5,0(a4)
    3af4:	5c079263          	bnez	a5,40b8 <move_piece+0xe3c>
    3af8:	02052783          	lw	a5,32(a0)
    3afc:	48078463          	beqz	a5,3f84 <move_piece+0xd08>
    3b00:	00260713          	addi	a4,a2,2
    3b04:	5ae84a63          	blt	a6,a4,40b8 <move_piece+0xe3c>
    3b08:	00271313          	slli	t1,a4,0x2
    3b0c:	00452783          	lw	a5,4(a0)
    3b10:	00e306b3          	add	a3,t1,a4
    3b14:	00169693          	slli	a3,a3,0x1
    3b18:	00d586b3          	add	a3,a1,a3
    3b1c:	00f686b3          	add	a3,a3,a5
    3b20:	0006c683          	lbu	a3,0(a3)
    3b24:	58069a63          	bnez	a3,40b8 <move_piece+0xe3c>
    3b28:	02452683          	lw	a3,36(a0)
    3b2c:	00178e13          	addi	t3,a5,1
    3b30:	00068e63          	beqz	a3,3b4c <move_piece+0x8d0>
    3b34:	00e306b3          	add	a3,t1,a4
    3b38:	00169693          	slli	a3,a3,0x1
    3b3c:	00d586b3          	add	a3,a1,a3
    3b40:	01c686b3          	add	a3,a3,t3
    3b44:	0006c683          	lbu	a3,0(a3)
    3b48:	56069863          	bnez	a3,40b8 <move_piece+0xe3c>
    3b4c:	02852683          	lw	a3,40(a0)
    3b50:	44068a63          	beqz	a3,3fa4 <move_piece+0xd28>
    3b54:	00e306b3          	add	a3,t1,a4
    3b58:	00169693          	slli	a3,a3,0x1
    3b5c:	00278e13          	addi	t3,a5,2
    3b60:	00d586b3          	add	a3,a1,a3
    3b64:	01c686b3          	add	a3,a3,t3
    3b68:	0006c683          	lbu	a3,0(a3)
    3b6c:	54069663          	bnez	a3,40b8 <move_piece+0xe3c>
    3b70:	02c52683          	lw	a3,44(a0)
    3b74:	02068063          	beqz	a3,3b94 <move_piece+0x918>
    3b78:	00378693          	addi	a3,a5,3
    3b7c:	00e307b3          	add	a5,t1,a4
    3b80:	00179793          	slli	a5,a5,0x1
    3b84:	00f587b3          	add	a5,a1,a5
    3b88:	00d787b3          	add	a5,a5,a3
    3b8c:	0007c783          	lbu	a5,0(a5)
    3b90:	52079463          	bnez	a5,40b8 <move_piece+0xe3c>
    3b94:	03052783          	lw	a5,48(a0)
    3b98:	42078663          	beqz	a5,3fc4 <move_piece+0xd48>
    3b9c:	00360713          	addi	a4,a2,3
    3ba0:	50e84c63          	blt	a6,a4,40b8 <move_piece+0xe3c>
    3ba4:	00271313          	slli	t1,a4,0x2
    3ba8:	00452783          	lw	a5,4(a0)
    3bac:	00e306b3          	add	a3,t1,a4
    3bb0:	00169693          	slli	a3,a3,0x1
    3bb4:	00d586b3          	add	a3,a1,a3
    3bb8:	00f686b3          	add	a3,a3,a5
    3bbc:	0006c683          	lbu	a3,0(a3)
    3bc0:	4e069c63          	bnez	a3,40b8 <move_piece+0xe3c>
    3bc4:	03452683          	lw	a3,52(a0)
    3bc8:	00178e13          	addi	t3,a5,1
    3bcc:	00068e63          	beqz	a3,3be8 <move_piece+0x96c>
    3bd0:	00e306b3          	add	a3,t1,a4
    3bd4:	00169693          	slli	a3,a3,0x1
    3bd8:	00d586b3          	add	a3,a1,a3
    3bdc:	01c686b3          	add	a3,a3,t3
    3be0:	0006c683          	lbu	a3,0(a3)
    3be4:	4c069a63          	bnez	a3,40b8 <move_piece+0xe3c>
    3be8:	03852683          	lw	a3,56(a0)
    3bec:	3e068c63          	beqz	a3,3fe4 <move_piece+0xd68>
    3bf0:	00e306b3          	add	a3,t1,a4
    3bf4:	00169693          	slli	a3,a3,0x1
    3bf8:	00278e13          	addi	t3,a5,2
    3bfc:	00d586b3          	add	a3,a1,a3
    3c00:	01c686b3          	add	a3,a3,t3
    3c04:	0006c683          	lbu	a3,0(a3)
    3c08:	4a069863          	bnez	a3,40b8 <move_piece+0xe3c>
    3c0c:	03c52683          	lw	a3,60(a0)
    3c10:	02068063          	beqz	a3,3c30 <move_piece+0x9b4>
    3c14:	00378693          	addi	a3,a5,3
    3c18:	00e307b3          	add	a5,t1,a4
    3c1c:	00179793          	slli	a5,a5,0x1
    3c20:	00f587b3          	add	a5,a1,a5
    3c24:	00d787b3          	add	a5,a5,a3
    3c28:	0007c783          	lbu	a5,0(a5)
    3c2c:	48079663          	bnez	a5,40b8 <move_piece+0xe3c>
    3c30:	04052783          	lw	a5,64(a0)
    3c34:	3c078863          	beqz	a5,4004 <move_piece+0xd88>
    3c38:	00460713          	addi	a4,a2,4
    3c3c:	46e84e63          	blt	a6,a4,40b8 <move_piece+0xe3c>
    3c40:	00271313          	slli	t1,a4,0x2
    3c44:	00452783          	lw	a5,4(a0)
    3c48:	00e306b3          	add	a3,t1,a4
    3c4c:	00169693          	slli	a3,a3,0x1
    3c50:	00d586b3          	add	a3,a1,a3
    3c54:	00f686b3          	add	a3,a3,a5
    3c58:	0006c683          	lbu	a3,0(a3)
    3c5c:	44069e63          	bnez	a3,40b8 <move_piece+0xe3c>
    3c60:	04452683          	lw	a3,68(a0)
    3c64:	00068e63          	beqz	a3,3c80 <move_piece+0xa04>
    3c68:	00e306b3          	add	a3,t1,a4
    3c6c:	00169693          	slli	a3,a3,0x1
    3c70:	00d586b3          	add	a3,a1,a3
    3c74:	00f686b3          	add	a3,a3,a5
    3c78:	0016c683          	lbu	a3,1(a3)
    3c7c:	42069e63          	bnez	a3,40b8 <move_piece+0xe3c>
    3c80:	04852683          	lw	a3,72(a0)
    3c84:	38068e63          	beqz	a3,4020 <move_piece+0xda4>
    3c88:	00e306b3          	add	a3,t1,a4
    3c8c:	00169693          	slli	a3,a3,0x1
    3c90:	00d586b3          	add	a3,a1,a3
    3c94:	00f686b3          	add	a3,a3,a5
    3c98:	0026c683          	lbu	a3,2(a3)
    3c9c:	40069e63          	bnez	a3,40b8 <move_piece+0xe3c>
    3ca0:	04c52683          	lw	a3,76(a0)
    3ca4:	00068e63          	beqz	a3,3cc0 <move_piece+0xa44>
    3ca8:	00e30733          	add	a4,t1,a4
    3cac:	00171713          	slli	a4,a4,0x1
    3cb0:	00e58733          	add	a4,a1,a4
    3cb4:	00f707b3          	add	a5,a4,a5
    3cb8:	0037c783          	lbu	a5,3(a5)
    3cbc:	3e079e63          	bnez	a5,40b8 <move_piece+0xe3c>
    3cc0:	00160613          	addi	a2,a2,1
    3cc4:	00c52423          	sw	a2,8(a0)
    3cc8:	d8089ee3          	bnez	a7,3a64 <move_piece+0x7e8>
    3ccc:	01452783          	lw	a5,20(a0)
    3cd0:	36078663          	beqz	a5,403c <move_piece+0xdc0>
    3cd4:	00160713          	addi	a4,a2,1
    3cd8:	3ee84063          	blt	a6,a4,40b8 <move_piece+0xe3c>
    3cdc:	00452783          	lw	a5,4(a0)
    3ce0:	00271313          	slli	t1,a4,0x2
    3ce4:	00178e13          	addi	t3,a5,1
    3ce8:	db1ff06f          	j	3a98 <move_piece+0x81c>
    3cec:	00660633          	add	a2,a2,t1
    3cf0:	00d60023          	sb	a3,0(a2)
    3cf4:	95072603          	lw	a2,-1712(a4)
    3cf8:	14078793          	addi	a5,a5,320
    3cfc:	14030313          	addi	t1,t1,320
    3d00:	01360633          	add	a2,a2,s3
    3d04:	00100893          	li	a7,1
    3d08:	00d60023          	sb	a3,0(a2)
    3d0c:	c69ff06f          	j	3974 <move_piece+0x6f8>
    3d10:	00f80833          	add	a6,a6,a5
    3d14:	008800a3          	sb	s0,1(a6)
    3d18:	95072603          	lw	a2,-1712(a4)
    3d1c:	00188893          	addi	a7,a7,1
    3d20:	00f60633          	add	a2,a2,a5
    3d24:	00860123          	sb	s0,2(a2)
    3d28:	95072603          	lw	a2,-1712(a4)
    3d2c:	00f60633          	add	a2,a2,a5
    3d30:	008601a3          	sb	s0,3(a2)
    3d34:	95072603          	lw	a2,-1712(a4)
    3d38:	00f60633          	add	a2,a2,a5
    3d3c:	00860223          	sb	s0,4(a2)
    3d40:	95072603          	lw	a2,-1712(a4)
    3d44:	00f60633          	add	a2,a2,a5
    3d48:	008602a3          	sb	s0,5(a2)
    3d4c:	95072603          	lw	a2,-1712(a4)
    3d50:	00660633          	add	a2,a2,t1
    3d54:	00860023          	sb	s0,0(a2)
    3d58:	95072603          	lw	a2,-1712(a4)
    3d5c:	14030313          	addi	t1,t1,320
    3d60:	00f60633          	add	a2,a2,a5
    3d64:	00d603a3          	sb	a3,7(a2)
    3d68:	14078793          	addi	a5,a5,320
    3d6c:	c07894e3          	bne	a7,t2,3974 <move_piece+0x6f8>
    3d70:	c8dff06f          	j	39fc <move_piece+0x780>
    3d74:	00a12623          	sw	a0,12(sp)
    3d78:	05212023          	sw	s2,64(sp)
    3d7c:	03312e23          	sw	s3,60(sp)
    3d80:	03412c23          	sw	s4,56(sp)
    3d84:	03512a23          	sw	s5,52(sp)
    3d88:	03612823          	sw	s6,48(sp)
    3d8c:	03712623          	sw	s7,44(sp)
    3d90:	03812423          	sw	s8,40(sp)
    3d94:	fecfc0ef          	jal	580 <update_shape.constprop.0>
    3d98:	00c12503          	lw	a0,12(sp)
    3d9c:	00452783          	lw	a5,4(a0)
    3da0:	00f05663          	blez	a5,3dac <move_piece+0xb30>
    3da4:	fff78793          	addi	a5,a5,-1
    3da8:	00f52223          	sw	a5,4(a0)
    3dac:	00000f93          	li	t6,0
    3db0:	00007737          	lui	a4,0x7
    3db4:	01200693          	li	a3,18
    3db8:	08100f13          	li	t5,129
    3dbc:	00800393          	li	t2,8
    3dc0:	00400293          	li	t0,4
    3dc4:	004f9e93          	slli	t4,t6,0x4
    3dc8:	01d50eb3          	add	t4,a0,t4
    3dcc:	00000e13          	li	t3,0
    3dd0:	010ea783          	lw	a5,16(t4)
    3dd4:	0c078a63          	beqz	a5,3ea8 <move_piece+0xc2c>
    3dd8:	00852783          	lw	a5,8(a0)
    3ddc:	00452603          	lw	a2,4(a0)
    3de0:	00ff87b3          	add	a5,t6,a5
    3de4:	0147b813          	sltiu	a6,a5,20
    3de8:	00ce0633          	add	a2,t3,a2
    3dec:	0a080e63          	beqz	a6,3ea8 <move_piece+0xc2c>
    3df0:	00a63813          	sltiu	a6,a2,10
    3df4:	0a080a63          	beqz	a6,3ea8 <move_piece+0xc2c>
    3df8:	00578793          	addi	a5,a5,5
    3dfc:	00279813          	slli	a6,a5,0x2
    3e00:	00f807b3          	add	a5,a6,a5
    3e04:	00f60613          	addi	a2,a2,15
    3e08:	00679793          	slli	a5,a5,0x6
    3e0c:	00c787b3          	add	a5,a5,a2
    3e10:	00c54903          	lbu	s2,12(a0)
    3e14:	00379793          	slli	a5,a5,0x3
    3e18:	00678313          	addi	t1,a5,6
    3e1c:	00000893          	li	a7,0
    3e20:	95072803          	lw	a6,-1712(a4) # 6950 <VGA>
    3e24:	011f5633          	srl	a2,t5,a7
    3e28:	00167613          	andi	a2,a2,1
    3e2c:	00f80833          	add	a6,a6,a5
    3e30:	00d80023          	sb	a3,0(a6)
    3e34:	95072803          	lw	a6,-1712(a4)
    3e38:	00178b93          	addi	s7,a5,1
    3e3c:	00278b13          	addi	s6,a5,2
    3e40:	00378a93          	addi	s5,a5,3
    3e44:	00478a13          	addi	s4,a5,4
    3e48:	00578993          	addi	s3,a5,5
    3e4c:	0a060a63          	beqz	a2,3f00 <move_piece+0xc84>
    3e50:	01780833          	add	a6,a6,s7
    3e54:	00d80023          	sb	a3,0(a6)
    3e58:	95072603          	lw	a2,-1712(a4)
    3e5c:	00778c13          	addi	s8,a5,7
    3e60:	01660633          	add	a2,a2,s6
    3e64:	00d60023          	sb	a3,0(a2)
    3e68:	95072603          	lw	a2,-1712(a4)
    3e6c:	01560633          	add	a2,a2,s5
    3e70:	00d60023          	sb	a3,0(a2)
    3e74:	95072603          	lw	a2,-1712(a4)
    3e78:	01460633          	add	a2,a2,s4
    3e7c:	00d60023          	sb	a3,0(a2)
    3e80:	95072603          	lw	a2,-1712(a4)
    3e84:	01360633          	add	a2,a2,s3
    3e88:	00d60023          	sb	a3,0(a2)
    3e8c:	95072603          	lw	a2,-1712(a4)
    3e90:	04088663          	beqz	a7,3edc <move_piece+0xc60>
    3e94:	00660633          	add	a2,a2,t1
    3e98:	00d60023          	sb	a3,0(a2)
    3e9c:	95072603          	lw	a2,-1712(a4)
    3ea0:	00f607b3          	add	a5,a2,a5
    3ea4:	00d783a3          	sb	a3,7(a5)
    3ea8:	001e0e13          	addi	t3,t3,1
    3eac:	004e8e93          	addi	t4,t4,4
    3eb0:	f25e10e3          	bne	t3,t0,3dd0 <move_piece+0xb54>
    3eb4:	001f8f93          	addi	t6,t6,1
    3eb8:	f05f96e3          	bne	t6,t0,3dc4 <move_piece+0xb48>
    3ebc:	04012903          	lw	s2,64(sp)
    3ec0:	03c12983          	lw	s3,60(sp)
    3ec4:	03812a03          	lw	s4,56(sp)
    3ec8:	03412a83          	lw	s5,52(sp)
    3ecc:	03012b03          	lw	s6,48(sp)
    3ed0:	02c12b83          	lw	s7,44(sp)
    3ed4:	02812c03          	lw	s8,40(sp)
    3ed8:	905ff06f          	j	37dc <move_piece+0x560>
    3edc:	00660633          	add	a2,a2,t1
    3ee0:	00d60023          	sb	a3,0(a2)
    3ee4:	95072603          	lw	a2,-1712(a4)
    3ee8:	14078793          	addi	a5,a5,320
    3eec:	14030313          	addi	t1,t1,320
    3ef0:	01860633          	add	a2,a2,s8
    3ef4:	00048893          	mv	a7,s1
    3ef8:	00d60023          	sb	a3,0(a2)
    3efc:	f25ff06f          	j	3e20 <move_piece+0xba4>
    3f00:	00f80833          	add	a6,a6,a5
    3f04:	012800a3          	sb	s2,1(a6)
    3f08:	95072603          	lw	a2,-1712(a4)
    3f0c:	00188893          	addi	a7,a7,1
    3f10:	00f60633          	add	a2,a2,a5
    3f14:	01260123          	sb	s2,2(a2)
    3f18:	95072603          	lw	a2,-1712(a4)
    3f1c:	00f60633          	add	a2,a2,a5
    3f20:	012601a3          	sb	s2,3(a2)
    3f24:	95072603          	lw	a2,-1712(a4)
    3f28:	00f60633          	add	a2,a2,a5
    3f2c:	01260223          	sb	s2,4(a2)
    3f30:	95072603          	lw	a2,-1712(a4)
    3f34:	00f60633          	add	a2,a2,a5
    3f38:	012602a3          	sb	s2,5(a2)
    3f3c:	95072603          	lw	a2,-1712(a4)
    3f40:	00660633          	add	a2,a2,t1
    3f44:	01260023          	sb	s2,0(a2)
    3f48:	95072603          	lw	a2,-1712(a4)
    3f4c:	14030313          	addi	t1,t1,320
    3f50:	00f60633          	add	a2,a2,a5
    3f54:	00d603a3          	sb	a3,7(a2)
    3f58:	14078793          	addi	a5,a5,320
    3f5c:	ec7892e3          	bne	a7,t2,3e20 <move_piece+0xba4>
    3f60:	f49ff06f          	j	3ea8 <move_piece+0xc2c>
    3f64:	01c52783          	lw	a5,28(a0)
    3f68:	b80788e3          	beqz	a5,3af8 <move_piece+0x87c>
    3f6c:	00160713          	addi	a4,a2,1
    3f70:	14e84463          	blt	a6,a4,40b8 <move_piece+0xe3c>
    3f74:	00452783          	lw	a5,4(a0)
    3f78:	00271313          	slli	t1,a4,0x2
    3f7c:	00378793          	addi	a5,a5,3
    3f80:	b61ff06f          	j	3ae0 <move_piece+0x864>
    3f84:	02452783          	lw	a5,36(a0)
    3f88:	0c078863          	beqz	a5,4058 <move_piece+0xddc>
    3f8c:	00260713          	addi	a4,a2,2
    3f90:	12e84463          	blt	a6,a4,40b8 <move_piece+0xe3c>
    3f94:	00452783          	lw	a5,4(a0)
    3f98:	00271313          	slli	t1,a4,0x2
    3f9c:	00178e13          	addi	t3,a5,1
    3fa0:	b95ff06f          	j	3b34 <move_piece+0x8b8>
    3fa4:	02c52783          	lw	a5,44(a0)
    3fa8:	be0786e3          	beqz	a5,3b94 <move_piece+0x918>
    3fac:	00260713          	addi	a4,a2,2
    3fb0:	10e84463          	blt	a6,a4,40b8 <move_piece+0xe3c>
    3fb4:	00452783          	lw	a5,4(a0)
    3fb8:	00271313          	slli	t1,a4,0x2
    3fbc:	00378693          	addi	a3,a5,3
    3fc0:	bbdff06f          	j	3b7c <move_piece+0x900>
    3fc4:	03452783          	lw	a5,52(a0)
    3fc8:	0a078863          	beqz	a5,4078 <move_piece+0xdfc>
    3fcc:	00360713          	addi	a4,a2,3
    3fd0:	0ee84463          	blt	a6,a4,40b8 <move_piece+0xe3c>
    3fd4:	00452783          	lw	a5,4(a0)
    3fd8:	00271313          	slli	t1,a4,0x2
    3fdc:	00178e13          	addi	t3,a5,1
    3fe0:	bf1ff06f          	j	3bd0 <move_piece+0x954>
    3fe4:	03c52783          	lw	a5,60(a0)
    3fe8:	c40784e3          	beqz	a5,3c30 <move_piece+0x9b4>
    3fec:	00360713          	addi	a4,a2,3
    3ff0:	0ce84463          	blt	a6,a4,40b8 <move_piece+0xe3c>
    3ff4:	00452783          	lw	a5,4(a0)
    3ff8:	00271313          	slli	t1,a4,0x2
    3ffc:	00378693          	addi	a3,a5,3
    4000:	c19ff06f          	j	3c18 <move_piece+0x99c>
    4004:	04452783          	lw	a5,68(a0)
    4008:	08078863          	beqz	a5,4098 <move_piece+0xe1c>
    400c:	00460713          	addi	a4,a2,4
    4010:	0ae84463          	blt	a6,a4,40b8 <move_piece+0xe3c>
    4014:	00452783          	lw	a5,4(a0)
    4018:	00271313          	slli	t1,a4,0x2
    401c:	c4dff06f          	j	3c68 <move_piece+0x9ec>
    4020:	04c52783          	lw	a5,76(a0)
    4024:	c8078ee3          	beqz	a5,3cc0 <move_piece+0xa44>
    4028:	00460713          	addi	a4,a2,4
    402c:	08e84663          	blt	a6,a4,40b8 <move_piece+0xe3c>
    4030:	00452783          	lw	a5,4(a0)
    4034:	00271313          	slli	t1,a4,0x2
    4038:	c71ff06f          	j	3ca8 <move_piece+0xa2c>
    403c:	01852783          	lw	a5,24(a0)
    4040:	f20782e3          	beqz	a5,3f64 <move_piece+0xce8>
    4044:	00160713          	addi	a4,a2,1
    4048:	06e84863          	blt	a6,a4,40b8 <move_piece+0xe3c>
    404c:	00452783          	lw	a5,4(a0)
    4050:	00271313          	slli	t1,a4,0x2
    4054:	a65ff06f          	j	3ab8 <move_piece+0x83c>
    4058:	02852783          	lw	a5,40(a0)
    405c:	f40784e3          	beqz	a5,3fa4 <move_piece+0xd28>
    4060:	00260713          	addi	a4,a2,2
    4064:	01300793          	li	a5,19
    4068:	04e7c863          	blt	a5,a4,40b8 <move_piece+0xe3c>
    406c:	00452783          	lw	a5,4(a0)
    4070:	00271313          	slli	t1,a4,0x2
    4074:	ae1ff06f          	j	3b54 <move_piece+0x8d8>
    4078:	03852783          	lw	a5,56(a0)
    407c:	f60784e3          	beqz	a5,3fe4 <move_piece+0xd68>
    4080:	00360713          	addi	a4,a2,3
    4084:	01300793          	li	a5,19
    4088:	02e7c863          	blt	a5,a4,40b8 <move_piece+0xe3c>
    408c:	00452783          	lw	a5,4(a0)
    4090:	00271313          	slli	t1,a4,0x2
    4094:	b5dff06f          	j	3bf0 <move_piece+0x974>
    4098:	04852783          	lw	a5,72(a0)
    409c:	f80782e3          	beqz	a5,4020 <move_piece+0xda4>
    40a0:	00460713          	addi	a4,a2,4
    40a4:	01300793          	li	a5,19
    40a8:	00e7c863          	blt	a5,a4,40b8 <move_piece+0xe3c>
    40ac:	00452783          	lw	a5,4(a0)
    40b0:	00271313          	slli	t1,a4,0x2
    40b4:	bd5ff06f          	j	3c88 <move_piece+0xa0c>
    40b8:	fff60793          	addi	a5,a2,-1
    40bc:	00f52423          	sw	a5,8(a0)
    40c0:	00000f13          	li	t5,0
    40c4:	00007737          	lui	a4,0x7
    40c8:	01200693          	li	a3,18
    40cc:	08100e93          	li	t4,129
    40d0:	00800293          	li	t0,8
    40d4:	00400f93          	li	t6,4
    40d8:	004f1e13          	slli	t3,t5,0x4
    40dc:	01c50e33          	add	t3,a0,t3
    40e0:	00000313          	li	t1,0
    40e4:	010e2783          	lw	a5,16(t3)
    40e8:	0c078a63          	beqz	a5,41bc <move_piece+0xf40>
    40ec:	00452603          	lw	a2,4(a0)
    40f0:	00852783          	lw	a5,8(a0)
    40f4:	00c30633          	add	a2,t1,a2
    40f8:	00a63593          	sltiu	a1,a2,10
    40fc:	00ff07b3          	add	a5,t5,a5
    4100:	0a058e63          	beqz	a1,41bc <move_piece+0xf40>
    4104:	0147b593          	sltiu	a1,a5,20
    4108:	0a058a63          	beqz	a1,41bc <move_piece+0xf40>
    410c:	00578793          	addi	a5,a5,5
    4110:	00279593          	slli	a1,a5,0x2
    4114:	00f587b3          	add	a5,a1,a5
    4118:	00f60613          	addi	a2,a2,15
    411c:	00679793          	slli	a5,a5,0x6
    4120:	00c787b3          	add	a5,a5,a2
    4124:	00c54383          	lbu	t2,12(a0)
    4128:	00379793          	slli	a5,a5,0x3
    412c:	00678893          	addi	a7,a5,6
    4130:	00000813          	li	a6,0
    4134:	95072583          	lw	a1,-1712(a4) # 6950 <VGA>
    4138:	010ed633          	srl	a2,t4,a6
    413c:	00167613          	andi	a2,a2,1
    4140:	00f585b3          	add	a1,a1,a5
    4144:	00d58023          	sb	a3,0(a1)
    4148:	95072583          	lw	a1,-1712(a4)
    414c:	00178a93          	addi	s5,a5,1
    4150:	00278a13          	addi	s4,a5,2
    4154:	00378993          	addi	s3,a5,3
    4158:	00478493          	addi	s1,a5,4
    415c:	00578413          	addi	s0,a5,5
    4160:	0a060c63          	beqz	a2,4218 <move_piece+0xf9c>
    4164:	015585b3          	add	a1,a1,s5
    4168:	00d58023          	sb	a3,0(a1)
    416c:	95072603          	lw	a2,-1712(a4)
    4170:	00778913          	addi	s2,a5,7
    4174:	01460633          	add	a2,a2,s4
    4178:	00d60023          	sb	a3,0(a2)
    417c:	95072603          	lw	a2,-1712(a4)
    4180:	01360633          	add	a2,a2,s3
    4184:	00d60023          	sb	a3,0(a2)
    4188:	95072603          	lw	a2,-1712(a4)
    418c:	00960633          	add	a2,a2,s1
    4190:	00d60023          	sb	a3,0(a2)
    4194:	95072603          	lw	a2,-1712(a4)
    4198:	00860633          	add	a2,a2,s0
    419c:	00d60023          	sb	a3,0(a2)
    41a0:	95072603          	lw	a2,-1712(a4)
    41a4:	04080863          	beqz	a6,41f4 <move_piece+0xf78>
    41a8:	01160633          	add	a2,a2,a7
    41ac:	00d60023          	sb	a3,0(a2)
    41b0:	95072603          	lw	a2,-1712(a4)
    41b4:	00f607b3          	add	a5,a2,a5
    41b8:	00d783a3          	sb	a3,7(a5)
    41bc:	00130313          	addi	t1,t1,1
    41c0:	004e0e13          	addi	t3,t3,4
    41c4:	f3f310e3          	bne	t1,t6,40e4 <move_piece+0xe68>
    41c8:	001f0f13          	addi	t5,t5,1
    41cc:	f1ff16e3          	bne	t5,t6,40d8 <move_piece+0xe5c>
    41d0:	04c12083          	lw	ra,76(sp)
    41d4:	04812403          	lw	s0,72(sp)
    41d8:	04412483          	lw	s1,68(sp)
    41dc:	04012903          	lw	s2,64(sp)
    41e0:	03c12983          	lw	s3,60(sp)
    41e4:	03812a03          	lw	s4,56(sp)
    41e8:	03412a83          	lw	s5,52(sp)
    41ec:	05010113          	addi	sp,sp,80
    41f0:	00008067          	ret
    41f4:	01160633          	add	a2,a2,a7
    41f8:	00d60023          	sb	a3,0(a2)
    41fc:	95072603          	lw	a2,-1712(a4)
    4200:	14078793          	addi	a5,a5,320
    4204:	14088893          	addi	a7,a7,320
    4208:	01260633          	add	a2,a2,s2
    420c:	00100813          	li	a6,1
    4210:	00d60023          	sb	a3,0(a2)
    4214:	f21ff06f          	j	4134 <move_piece+0xeb8>
    4218:	00f585b3          	add	a1,a1,a5
    421c:	007580a3          	sb	t2,1(a1)
    4220:	95072603          	lw	a2,-1712(a4)
    4224:	00180813          	addi	a6,a6,1
    4228:	00f60633          	add	a2,a2,a5
    422c:	00760123          	sb	t2,2(a2)
    4230:	95072603          	lw	a2,-1712(a4)
    4234:	00f60633          	add	a2,a2,a5
    4238:	007601a3          	sb	t2,3(a2)
    423c:	95072603          	lw	a2,-1712(a4)
    4240:	00f60633          	add	a2,a2,a5
    4244:	00760223          	sb	t2,4(a2)
    4248:	95072603          	lw	a2,-1712(a4)
    424c:	00f60633          	add	a2,a2,a5
    4250:	007602a3          	sb	t2,5(a2)
    4254:	95072603          	lw	a2,-1712(a4)
    4258:	01160633          	add	a2,a2,a7
    425c:	00760023          	sb	t2,0(a2)
    4260:	95072603          	lw	a2,-1712(a4)
    4264:	14088893          	addi	a7,a7,320
    4268:	00f60633          	add	a2,a2,a5
    426c:	00d603a3          	sb	a3,7(a2)
    4270:	14078793          	addi	a5,a5,320
    4274:	ec5810e3          	bne	a6,t0,4134 <move_piece+0xeb8>
    4278:	f45ff06f          	j	41bc <move_piece+0xf40>

0000427c <clear_lines>:
    427c:	fb010113          	addi	sp,sp,-80
    4280:	000077b7          	lui	a5,0x7
    4284:	04912423          	sw	s1,72(sp)
    4288:	03412e23          	sw	s4,60(sp)
    428c:	03512c23          	sw	s5,56(sp)
    4290:	000074b7          	lui	s1,0x7
    4294:	01200593          	li	a1,18
    4298:	00003a37          	lui	s4,0x3
    429c:	00003ab7          	lui	s5,0x3
    42a0:	04812623          	sw	s0,76(sp)
    42a4:	05212223          	sw	s2,68(sp)
    42a8:	05312023          	sw	s3,64(sp)
    42ac:	03a12223          	sw	s10,36(sp)
    42b0:	95e78913          	addi	s2,a5,-1698 # 695e <grid+0xa>
    42b4:	03612a23          	sw	s6,52(sp)
    42b8:	03712823          	sw	s7,48(sp)
    42bc:	03812623          	sw	s8,44(sp)
    42c0:	03912423          	sw	s9,40(sp)
    42c4:	03b12023          	sw	s11,32(sp)
    42c8:	95448493          	addi	s1,s1,-1708 # 6954 <grid>
    42cc:	00058693          	mv	a3,a1
    42d0:	278a0a13          	addi	s4,s4,632 # 3278 <rotate_piece+0x23c>
    42d4:	2c8a8a93          	addi	s5,s5,712 # 32c8 <move_piece+0x4c>
    42d8:	01300813          	li	a6,19
    42dc:	04c00f93          	li	t6,76
    42e0:	000077b7          	lui	a5,0x7
    42e4:	08100393          	li	t2,129
    42e8:	00800413          	li	s0,8
    42ec:	ff600993          	li	s3,-10
    42f0:	fff00d13          	li	s10,-1
    42f4:	010f8733          	add	a4,t6,a6
    42f8:	00171713          	slli	a4,a4,0x1
    42fc:	00e48733          	add	a4,s1,a4
    4300:	00074603          	lbu	a2,0(a4)
    4304:	4a060a63          	beqz	a2,47b8 <clear_lines+0x53c>
    4308:	00174603          	lbu	a2,1(a4)
    430c:	4a060663          	beqz	a2,47b8 <clear_lines+0x53c>
    4310:	00274603          	lbu	a2,2(a4)
    4314:	4a060263          	beqz	a2,47b8 <clear_lines+0x53c>
    4318:	00374603          	lbu	a2,3(a4)
    431c:	48060e63          	beqz	a2,47b8 <clear_lines+0x53c>
    4320:	00474603          	lbu	a2,4(a4)
    4324:	48060a63          	beqz	a2,47b8 <clear_lines+0x53c>
    4328:	00574603          	lbu	a2,5(a4)
    432c:	48060663          	beqz	a2,47b8 <clear_lines+0x53c>
    4330:	00674603          	lbu	a2,6(a4)
    4334:	48060263          	beqz	a2,47b8 <clear_lines+0x53c>
    4338:	00774603          	lbu	a2,7(a4)
    433c:	46060e63          	beqz	a2,47b8 <clear_lines+0x53c>
    4340:	00874603          	lbu	a2,8(a4)
    4344:	46060a63          	beqz	a2,47b8 <clear_lines+0x53c>
    4348:	00974703          	lbu	a4,9(a4)
    434c:	46070663          	beqz	a4,47b8 <clear_lines+0x53c>
    4350:	010f8e33          	add	t3,t6,a6
    4354:	001e1313          	slli	t1,t3,0x1
    4358:	009e1e13          	slli	t3,t3,0x9
    435c:	014e0eb3          	add	t4,t3,s4
    4360:	00648333          	add	t1,s1,t1
    4364:	015e0e33          	add	t3,t3,s5
    4368:	00048293          	mv	t0,s1
    436c:	00030023          	sb	zero,0(t1)
    4370:	000e8713          	mv	a4,t4
    4374:	00000513          	li	a0,0
    4378:	9507a603          	lw	a2,-1712(a5) # 6950 <VGA>
    437c:	00a3d8b3          	srl	a7,t2,a0
    4380:	0018fd93          	andi	s11,a7,1
    4384:	00e60633          	add	a2,a2,a4
    4388:	00d60023          	sb	a3,0(a2)
    438c:	9507a603          	lw	a2,-1712(a5)
    4390:	00170893          	addi	a7,a4,1
    4394:	00270c93          	addi	s9,a4,2
    4398:	01160f33          	add	t5,a2,a7
    439c:	01e12623          	sw	t5,12(sp)
    43a0:	00370c13          	addi	s8,a4,3
    43a4:	00470b93          	addi	s7,a4,4
    43a8:	00570b13          	addi	s6,a4,5
    43ac:	00670f13          	addi	t5,a4,6
    43b0:	060d8463          	beqz	s11,4418 <clear_lines+0x19c>
    43b4:	00c12603          	lw	a2,12(sp)
    43b8:	00770893          	addi	a7,a4,7
    43bc:	00d60023          	sb	a3,0(a2)
    43c0:	9507a603          	lw	a2,-1712(a5)
    43c4:	01960633          	add	a2,a2,s9
    43c8:	00d60023          	sb	a3,0(a2)
    43cc:	9507a603          	lw	a2,-1712(a5)
    43d0:	01860633          	add	a2,a2,s8
    43d4:	00d60023          	sb	a3,0(a2)
    43d8:	9507a603          	lw	a2,-1712(a5)
    43dc:	01760633          	add	a2,a2,s7
    43e0:	00d60023          	sb	a3,0(a2)
    43e4:	9507a603          	lw	a2,-1712(a5)
    43e8:	01660633          	add	a2,a2,s6
    43ec:	00d60023          	sb	a3,0(a2)
    43f0:	9507a603          	lw	a2,-1712(a5)
    43f4:	01e60633          	add	a2,a2,t5
    43f8:	08051063          	bnez	a0,4478 <clear_lines+0x1fc>
    43fc:	00d60023          	sb	a3,0(a2)
    4400:	9507a603          	lw	a2,-1712(a5)
    4404:	14070713          	addi	a4,a4,320
    4408:	00100513          	li	a0,1
    440c:	01160633          	add	a2,a2,a7
    4410:	00d60023          	sb	a3,0(a2)
    4414:	f65ff06f          	j	4378 <clear_lines+0xfc>
    4418:	01160633          	add	a2,a2,a7
    441c:	00060023          	sb	zero,0(a2)
    4420:	9507a603          	lw	a2,-1712(a5)
    4424:	00150513          	addi	a0,a0,1
    4428:	01960633          	add	a2,a2,s9
    442c:	00060023          	sb	zero,0(a2)
    4430:	9507a603          	lw	a2,-1712(a5)
    4434:	01860633          	add	a2,a2,s8
    4438:	00060023          	sb	zero,0(a2)
    443c:	9507a603          	lw	a2,-1712(a5)
    4440:	01760633          	add	a2,a2,s7
    4444:	00060023          	sb	zero,0(a2)
    4448:	9507a603          	lw	a2,-1712(a5)
    444c:	01660633          	add	a2,a2,s6
    4450:	00060023          	sb	zero,0(a2)
    4454:	9507a603          	lw	a2,-1712(a5)
    4458:	01e60633          	add	a2,a2,t5
    445c:	00060023          	sb	zero,0(a2)
    4460:	9507a603          	lw	a2,-1712(a5)
    4464:	00e60633          	add	a2,a2,a4
    4468:	00d603a3          	sb	a3,7(a2)
    446c:	14070713          	addi	a4,a4,320
    4470:	f08514e3          	bne	a0,s0,4378 <clear_lines+0xfc>
    4474:	0140006f          	j	4488 <clear_lines+0x20c>
    4478:	00d60023          	sb	a3,0(a2)
    447c:	9507a603          	lw	a2,-1712(a5)
    4480:	00e60733          	add	a4,a2,a4
    4484:	00d703a3          	sb	a3,7(a4)
    4488:	008e8e93          	addi	t4,t4,8
    448c:	00130313          	addi	t1,t1,1
    4490:	edde1ee3          	bne	t3,t4,436c <clear_lines+0xf0>
    4494:	00007737          	lui	a4,0x7
    4498:	95e70893          	addi	a7,a4,-1698 # 695e <grid+0xa>
    449c:	1e080063          	beqz	a6,467c <clear_lines+0x400>
    44a0:	00259e93          	slli	t4,a1,0x2
    44a4:	00be8eb3          	add	t4,t4,a1
    44a8:	00080b13          	mv	s6,a6
    44ac:	001e9e93          	slli	t4,t4,0x1
    44b0:	00058813          	mv	a6,a1
    44b4:	00090593          	mv	a1,s2
    44b8:	01d90333          	add	t1,s2,t4
    44bc:	fb0e0893          	addi	a7,t3,-80
    44c0:	000b0c13          	mv	s8,s6
    44c4:	00028b93          	mv	s7,t0
    44c8:	41d98f33          	sub	t5,s3,t4
    44cc:	01d12c23          	sw	t4,24(sp)
    44d0:	01c12e23          	sw	t3,28(sp)
    44d4:	01112823          	sw	a7,16(sp)
    44d8:	00612a23          	sw	t1,20(sp)
    44dc:	00080b13          	mv	s6,a6
    44e0:	00058293          	mv	t0,a1
    44e4:	03c0006f          	j	4520 <clear_lines+0x2a4>
    44e8:	00d60023          	sb	a3,0(a2)
    44ec:	9507a603          	lw	a2,-1712(a5)
    44f0:	000d8c13          	mv	s8,s11
    44f4:	00a60733          	add	a4,a2,a0
    44f8:	00d70023          	sb	a3,0(a4)
    44fc:	01012703          	lw	a4,16(sp)
    4500:	00870713          	addi	a4,a4,8
    4504:	00e12823          	sw	a4,16(sp)
    4508:	01412703          	lw	a4,20(sp)
    450c:	01012603          	lw	a2,16(sp)
    4510:	00170713          	addi	a4,a4,1
    4514:	00e12a23          	sw	a4,20(sp)
    4518:	01c12703          	lw	a4,28(sp)
    451c:	12c70863          	beq	a4,a2,464c <clear_lines+0x3d0>
    4520:	01412703          	lw	a4,20(sp)
    4524:	01812603          	lw	a2,24(sp)
    4528:	00000593          	li	a1,0
    452c:	00ef0733          	add	a4,t5,a4
    4530:	00c70733          	add	a4,a4,a2
    4534:	00074803          	lbu	a6,0(a4)
    4538:	01412603          	lw	a2,20(sp)
    453c:	01012703          	lw	a4,16(sp)
    4540:	000c0d93          	mv	s11,s8
    4544:	01060023          	sb	a6,0(a2)
    4548:	9507a503          	lw	a0,-1712(a5)
    454c:	00170c13          	addi	s8,a4,1
    4550:	00b3d633          	srl	a2,t2,a1
    4554:	00e50533          	add	a0,a0,a4
    4558:	00d50023          	sb	a3,0(a0)
    455c:	9507a503          	lw	a0,-1712(a5)
    4560:	00167613          	andi	a2,a2,1
    4564:	00270c93          	addi	s9,a4,2
    4568:	018508b3          	add	a7,a0,s8
    456c:	01112623          	sw	a7,12(sp)
    4570:	00370e93          	addi	t4,a4,3
    4574:	00470e13          	addi	t3,a4,4
    4578:	00570313          	addi	t1,a4,5
    457c:	00670893          	addi	a7,a4,6
    4580:	06060463          	beqz	a2,45e8 <clear_lines+0x36c>
    4584:	00c12603          	lw	a2,12(sp)
    4588:	00770513          	addi	a0,a4,7
    458c:	00d60023          	sb	a3,0(a2)
    4590:	9507a603          	lw	a2,-1712(a5)
    4594:	01960633          	add	a2,a2,s9
    4598:	00d60023          	sb	a3,0(a2)
    459c:	9507a603          	lw	a2,-1712(a5)
    45a0:	01d60633          	add	a2,a2,t4
    45a4:	00d60023          	sb	a3,0(a2)
    45a8:	9507a603          	lw	a2,-1712(a5)
    45ac:	01c60633          	add	a2,a2,t3
    45b0:	00d60023          	sb	a3,0(a2)
    45b4:	9507a603          	lw	a2,-1712(a5)
    45b8:	00660633          	add	a2,a2,t1
    45bc:	00d60023          	sb	a3,0(a2)
    45c0:	9507a603          	lw	a2,-1712(a5)
    45c4:	01160633          	add	a2,a2,a7
    45c8:	f20590e3          	bnez	a1,44e8 <clear_lines+0x26c>
    45cc:	00d60023          	sb	a3,0(a2)
    45d0:	9507a603          	lw	a2,-1712(a5)
    45d4:	14070713          	addi	a4,a4,320
    45d8:	00100593          	li	a1,1
    45dc:	00a60633          	add	a2,a2,a0
    45e0:	00d60023          	sb	a3,0(a2)
    45e4:	f65ff06f          	j	4548 <clear_lines+0x2cc>
    45e8:	01850533          	add	a0,a0,s8
    45ec:	01050023          	sb	a6,0(a0)
    45f0:	9507a503          	lw	a0,-1712(a5)
    45f4:	00158593          	addi	a1,a1,1
    45f8:	01950533          	add	a0,a0,s9
    45fc:	01050023          	sb	a6,0(a0)
    4600:	9507a503          	lw	a0,-1712(a5)
    4604:	01d50533          	add	a0,a0,t4
    4608:	01050023          	sb	a6,0(a0)
    460c:	9507a503          	lw	a0,-1712(a5)
    4610:	01c50533          	add	a0,a0,t3
    4614:	01050023          	sb	a6,0(a0)
    4618:	9507a503          	lw	a0,-1712(a5)
    461c:	00650533          	add	a0,a0,t1
    4620:	01050023          	sb	a6,0(a0)
    4624:	9507a503          	lw	a0,-1712(a5)
    4628:	01150533          	add	a0,a0,a7
    462c:	01050023          	sb	a6,0(a0)
    4630:	9507a503          	lw	a0,-1712(a5)
    4634:	00e50633          	add	a2,a0,a4
    4638:	00d603a3          	sb	a3,7(a2)
    463c:	14070713          	addi	a4,a4,320
    4640:	f08594e3          	bne	a1,s0,4548 <clear_lines+0x2cc>
    4644:	000d8c13          	mv	s8,s11
    4648:	eb5ff06f          	j	44fc <clear_lines+0x280>
    464c:	01812e83          	lw	t4,24(sp)
    4650:	80070e13          	addi	t3,a4,-2048
    4654:	000b0813          	mv	a6,s6
    4658:	ff6e8e93          	addi	t4,t4,-10
    465c:	00028593          	mv	a1,t0
    4660:	000c0b13          	mv	s6,s8
    4664:	000b8293          	mv	t0,s7
    4668:	e00e0e13          	addi	t3,t3,-512
    466c:	e53e96e3          	bne	t4,s3,44b8 <clear_lines+0x23c>
    4670:	00058893          	mv	a7,a1
    4674:	00080593          	mv	a1,a6
    4678:	000c0813          	mv	a6,s8
    467c:	00003e37          	lui	t3,0x3
    4680:	278e0e13          	addi	t3,t3,632 # 3278 <rotate_piece+0x23c>
    4684:	00028023          	sb	zero,0(t0)
    4688:	000e0713          	mv	a4,t3
    468c:	00000313          	li	t1,0
    4690:	9507a503          	lw	a0,-1712(a5)
    4694:	0063d633          	srl	a2,t2,t1
    4698:	00170c93          	addi	s9,a4,1
    469c:	00e50533          	add	a0,a0,a4
    46a0:	00d50023          	sb	a3,0(a0)
    46a4:	9507a503          	lw	a0,-1712(a5)
    46a8:	00167613          	andi	a2,a2,1
    46ac:	00270c13          	addi	s8,a4,2
    46b0:	01950db3          	add	s11,a0,s9
    46b4:	00370b93          	addi	s7,a4,3
    46b8:	00470b13          	addi	s6,a4,4
    46bc:	00570f13          	addi	t5,a4,5
    46c0:	00670e93          	addi	t4,a4,6
    46c4:	06060263          	beqz	a2,4728 <clear_lines+0x4ac>
    46c8:	00dd8023          	sb	a3,0(s11)
    46cc:	9507a603          	lw	a2,-1712(a5)
    46d0:	00770513          	addi	a0,a4,7
    46d4:	01860633          	add	a2,a2,s8
    46d8:	00d60023          	sb	a3,0(a2)
    46dc:	9507a603          	lw	a2,-1712(a5)
    46e0:	01760633          	add	a2,a2,s7
    46e4:	00d60023          	sb	a3,0(a2)
    46e8:	9507a603          	lw	a2,-1712(a5)
    46ec:	01660633          	add	a2,a2,s6
    46f0:	00d60023          	sb	a3,0(a2)
    46f4:	9507a603          	lw	a2,-1712(a5)
    46f8:	01e60633          	add	a2,a2,t5
    46fc:	00d60023          	sb	a3,0(a2)
    4700:	9507a603          	lw	a2,-1712(a5)
    4704:	01d60633          	add	a2,a2,t4
    4708:	08031063          	bnez	t1,4788 <clear_lines+0x50c>
    470c:	00d60023          	sb	a3,0(a2)
    4710:	9507a603          	lw	a2,-1712(a5)
    4714:	14070713          	addi	a4,a4,320
    4718:	00100313          	li	t1,1
    471c:	00a60633          	add	a2,a2,a0
    4720:	00d60023          	sb	a3,0(a2)
    4724:	f6dff06f          	j	4690 <clear_lines+0x414>
    4728:	01950533          	add	a0,a0,s9
    472c:	00050023          	sb	zero,0(a0)
    4730:	9507a603          	lw	a2,-1712(a5)
    4734:	00130313          	addi	t1,t1,1
    4738:	01860633          	add	a2,a2,s8
    473c:	00060023          	sb	zero,0(a2)
    4740:	9507a603          	lw	a2,-1712(a5)
    4744:	01760633          	add	a2,a2,s7
    4748:	00060023          	sb	zero,0(a2)
    474c:	9507a603          	lw	a2,-1712(a5)
    4750:	01660633          	add	a2,a2,s6
    4754:	00060023          	sb	zero,0(a2)
    4758:	9507a603          	lw	a2,-1712(a5)
    475c:	01e60633          	add	a2,a2,t5
    4760:	00060023          	sb	zero,0(a2)
    4764:	9507a603          	lw	a2,-1712(a5)
    4768:	01d60633          	add	a2,a2,t4
    476c:	00060023          	sb	zero,0(a2)
    4770:	9507a603          	lw	a2,-1712(a5)
    4774:	00e60633          	add	a2,a2,a4
    4778:	00d603a3          	sb	a3,7(a2)
    477c:	14070713          	addi	a4,a4,320
    4780:	f08318e3          	bne	t1,s0,4690 <clear_lines+0x414>
    4784:	0140006f          	j	4798 <clear_lines+0x51c>
    4788:	00d60023          	sb	a3,0(a2)
    478c:	9507a603          	lw	a2,-1712(a5)
    4790:	00e60733          	add	a4,a2,a4
    4794:	00d703a3          	sb	a3,7(a4)
    4798:	00128293          	addi	t0,t0,1
    479c:	008e0e13          	addi	t3,t3,8
    47a0:	ee5892e3          	bne	a7,t0,4684 <clear_lines+0x408>
    47a4:	010f8733          	add	a4,t6,a6
    47a8:	00171713          	slli	a4,a4,0x1
    47ac:	00e48733          	add	a4,s1,a4
    47b0:	00074603          	lbu	a2,0(a4)
    47b4:	b4061ae3          	bnez	a2,4308 <clear_lines+0x8c>
    47b8:	00058813          	mv	a6,a1
    47bc:	01a58863          	beq	a1,s10,47cc <clear_lines+0x550>
    47c0:	00259f93          	slli	t6,a1,0x2
    47c4:	fff58593          	addi	a1,a1,-1
    47c8:	b2dff06f          	j	42f4 <clear_lines+0x78>
    47cc:	04c12403          	lw	s0,76(sp)
    47d0:	04812483          	lw	s1,72(sp)
    47d4:	04412903          	lw	s2,68(sp)
    47d8:	04012983          	lw	s3,64(sp)
    47dc:	03c12a03          	lw	s4,60(sp)
    47e0:	03812a83          	lw	s5,56(sp)
    47e4:	03412b03          	lw	s6,52(sp)
    47e8:	03012b83          	lw	s7,48(sp)
    47ec:	02c12c03          	lw	s8,44(sp)
    47f0:	02812c83          	lw	s9,40(sp)
    47f4:	02412d03          	lw	s10,36(sp)
    47f8:	02012d83          	lw	s11,32(sp)
    47fc:	05010113          	addi	sp,sp,80
    4800:	00008067          	ret

00004804 <tick>:
    4804:	040007b7          	lui	a5,0x4000
    4808:	01078793          	addi	a5,a5,16 # 4000010 <_stack_end+0x3ef3660>
    480c:	0007a783          	lw	a5,0(a5)
    4810:	f8010113          	addi	sp,sp,-128
    4814:	06812c23          	sw	s0,120(sp)
    4818:	3ff7f793          	andi	a5,a5,1023
    481c:	02f12e23          	sw	a5,60(sp)
    4820:	03c12783          	lw	a5,60(sp)
    4824:	06912a23          	sw	s1,116(sp)
    4828:	06112e23          	sw	ra,124(sp)
    482c:	07212823          	sw	s2,112(sp)
    4830:	07312623          	sw	s3,108(sp)
    4834:	00050413          	mv	s0,a0
    4838:	000074b7          	lui	s1,0x7
    483c:	00078463          	beqz	a5,4844 <tick+0x40>
    4840:	7840106f          	j	5fc4 <tick+0x17c0>
    4844:	00007937          	lui	s2,0x7
    4848:	95448493          	addi	s1,s1,-1708 # 6954 <grid>
    484c:	a1c90913          	addi	s2,s2,-1508 # 6a1c <current_piece>
    4850:	00090513          	mv	a0,s2
    4854:	d2dfb0ef          	jal	580 <update_shape.constprop.0>
    4858:	0d84a683          	lw	a3,216(s1)
    485c:	0d04a703          	lw	a4,208(s1)
    4860:	0cc4a783          	lw	a5,204(s1)
    4864:	1a068c63          	beqz	a3,4a1c <tick+0x218>
    4868:	00170593          	addi	a1,a4,1
    486c:	01300693          	li	a3,19
    4870:	22b6cc63          	blt	a3,a1,4aa8 <tick+0x2a4>
    4874:	00259693          	slli	a3,a1,0x2
    4878:	00b68633          	add	a2,a3,a1
    487c:	00161613          	slli	a2,a2,0x1
    4880:	00c48633          	add	a2,s1,a2
    4884:	00f60633          	add	a2,a2,a5
    4888:	00064603          	lbu	a2,0(a2)
    488c:	20061e63          	bnez	a2,4aa8 <tick+0x2a4>
    4890:	0dc4a603          	lw	a2,220(s1)
    4894:	00178513          	addi	a0,a5,1
    4898:	1a061063          	bnez	a2,4a38 <tick+0x234>
    489c:	0e04a603          	lw	a2,224(s1)
    48a0:	1e061663          	bnez	a2,4a8c <tick+0x288>
    48a4:	0e44a603          	lw	a2,228(s1)
    48a8:	02060063          	beqz	a2,48c8 <tick+0xc4>
    48ac:	00b686b3          	add	a3,a3,a1
    48b0:	00169693          	slli	a3,a3,0x1
    48b4:	00378613          	addi	a2,a5,3
    48b8:	00d486b3          	add	a3,s1,a3
    48bc:	00c686b3          	add	a3,a3,a2
    48c0:	0006c683          	lbu	a3,0(a3)
    48c4:	1e069263          	bnez	a3,4aa8 <tick+0x2a4>
    48c8:	0e84a683          	lw	a3,232(s1)
    48cc:	64068663          	beqz	a3,4f18 <tick+0x714>
    48d0:	00270593          	addi	a1,a4,2
    48d4:	01300693          	li	a3,19
    48d8:	1cb6c863          	blt	a3,a1,4aa8 <tick+0x2a4>
    48dc:	00259693          	slli	a3,a1,0x2
    48e0:	00b68633          	add	a2,a3,a1
    48e4:	00161613          	slli	a2,a2,0x1
    48e8:	00c48633          	add	a2,s1,a2
    48ec:	00f60633          	add	a2,a2,a5
    48f0:	00064603          	lbu	a2,0(a2)
    48f4:	1a061a63          	bnez	a2,4aa8 <tick+0x2a4>
    48f8:	0ec4a603          	lw	a2,236(s1)
    48fc:	00178513          	addi	a0,a5,1
    4900:	62061a63          	bnez	a2,4f34 <tick+0x730>
    4904:	0f04a603          	lw	a2,240(s1)
    4908:	64061663          	bnez	a2,4f54 <tick+0x750>
    490c:	0f44a603          	lw	a2,244(s1)
    4910:	02060063          	beqz	a2,4930 <tick+0x12c>
    4914:	00b686b3          	add	a3,a3,a1
    4918:	00169693          	slli	a3,a3,0x1
    491c:	00378613          	addi	a2,a5,3
    4920:	00d486b3          	add	a3,s1,a3
    4924:	00c686b3          	add	a3,a3,a2
    4928:	0006c683          	lbu	a3,0(a3)
    492c:	16069e63          	bnez	a3,4aa8 <tick+0x2a4>
    4930:	0f84a683          	lw	a3,248(s1)
    4934:	00069463          	bnez	a3,493c <tick+0x138>
    4938:	5d80106f          	j	5f10 <tick+0x170c>
    493c:	00370593          	addi	a1,a4,3
    4940:	01300693          	li	a3,19
    4944:	16b6c263          	blt	a3,a1,4aa8 <tick+0x2a4>
    4948:	00259613          	slli	a2,a1,0x2
    494c:	00b606b3          	add	a3,a2,a1
    4950:	00169693          	slli	a3,a3,0x1
    4954:	00d486b3          	add	a3,s1,a3
    4958:	00f686b3          	add	a3,a3,a5
    495c:	0006c683          	lbu	a3,0(a3)
    4960:	14069463          	bnez	a3,4aa8 <tick+0x2a4>
    4964:	0fc4a683          	lw	a3,252(s1)
    4968:	00178513          	addi	a0,a5,1
    496c:	00069463          	bnez	a3,4974 <tick+0x170>
    4970:	68c0106f          	j	5ffc <tick+0x17f8>
    4974:	00b606b3          	add	a3,a2,a1
    4978:	00169693          	slli	a3,a3,0x1
    497c:	00d486b3          	add	a3,s1,a3
    4980:	00a686b3          	add	a3,a3,a0
    4984:	0006c683          	lbu	a3,0(a3)
    4988:	12069063          	bnez	a3,4aa8 <tick+0x2a4>
    498c:	1004a683          	lw	a3,256(s1)
    4990:	56068663          	beqz	a3,4efc <tick+0x6f8>
    4994:	00b606b3          	add	a3,a2,a1
    4998:	00169693          	slli	a3,a3,0x1
    499c:	00278513          	addi	a0,a5,2
    49a0:	00d486b3          	add	a3,s1,a3
    49a4:	00a686b3          	add	a3,a3,a0
    49a8:	0006c683          	lbu	a3,0(a3)
    49ac:	0e069e63          	bnez	a3,4aa8 <tick+0x2a4>
    49b0:	1044a683          	lw	a3,260(s1)
    49b4:	02068063          	beqz	a3,49d4 <tick+0x1d0>
    49b8:	00b606b3          	add	a3,a2,a1
    49bc:	00169693          	slli	a3,a3,0x1
    49c0:	00378513          	addi	a0,a5,3
    49c4:	00d486b3          	add	a3,s1,a3
    49c8:	00a686b3          	add	a3,a3,a0
    49cc:	0006c683          	lbu	a3,0(a3)
    49d0:	0c069c63          	bnez	a3,4aa8 <tick+0x2a4>
    49d4:	1084a683          	lw	a3,264(s1)
    49d8:	00069463          	bnez	a3,49e0 <tick+0x1dc>
    49dc:	5580106f          	j	5f34 <tick+0x1730>
    49e0:	00470593          	addi	a1,a4,4
    49e4:	01300693          	li	a3,19
    49e8:	0cb6c063          	blt	a3,a1,4aa8 <tick+0x2a4>
    49ec:	00259693          	slli	a3,a1,0x2
    49f0:	00b68633          	add	a2,a3,a1
    49f4:	00161613          	slli	a2,a2,0x1
    49f8:	00c48633          	add	a2,s1,a2
    49fc:	00f60633          	add	a2,a2,a5
    4a00:	00064603          	lbu	a2,0(a2)
    4a04:	0a061263          	bnez	a2,4aa8 <tick+0x2a4>
    4a08:	10c4a603          	lw	a2,268(s1)
    4a0c:	00061463          	bnez	a2,4a14 <tick+0x210>
    4a10:	69c0106f          	j	60ac <tick+0x18a8>
    4a14:	00178513          	addi	a0,a5,1
    4a18:	53c0106f          	j	5f54 <tick+0x1750>
    4a1c:	0dc4a683          	lw	a3,220(s1)
    4a20:	04068a63          	beqz	a3,4a74 <tick+0x270>
    4a24:	00170593          	addi	a1,a4,1
    4a28:	01300693          	li	a3,19
    4a2c:	06b6ce63          	blt	a3,a1,4aa8 <tick+0x2a4>
    4a30:	00178513          	addi	a0,a5,1
    4a34:	00259693          	slli	a3,a1,0x2
    4a38:	00b68633          	add	a2,a3,a1
    4a3c:	00161613          	slli	a2,a2,0x1
    4a40:	00c48633          	add	a2,s1,a2
    4a44:	00a60633          	add	a2,a2,a0
    4a48:	00064603          	lbu	a2,0(a2)
    4a4c:	04061e63          	bnez	a2,4aa8 <tick+0x2a4>
    4a50:	0e04a603          	lw	a2,224(s1)
    4a54:	02061c63          	bnez	a2,4a8c <tick+0x288>
    4a58:	0e44a683          	lw	a3,228(s1)
    4a5c:	e60686e3          	beqz	a3,48c8 <tick+0xc4>
    4a60:	00170593          	addi	a1,a4,1
    4a64:	01300693          	li	a3,19
    4a68:	04b6c063          	blt	a3,a1,4aa8 <tick+0x2a4>
    4a6c:	00259693          	slli	a3,a1,0x2
    4a70:	e3dff06f          	j	48ac <tick+0xa8>
    4a74:	0e04a683          	lw	a3,224(s1)
    4a78:	fe0680e3          	beqz	a3,4a58 <tick+0x254>
    4a7c:	00170593          	addi	a1,a4,1
    4a80:	01300693          	li	a3,19
    4a84:	02b6c263          	blt	a3,a1,4aa8 <tick+0x2a4>
    4a88:	00259693          	slli	a3,a1,0x2
    4a8c:	00b68633          	add	a2,a3,a1
    4a90:	00161613          	slli	a2,a2,0x1
    4a94:	00278513          	addi	a0,a5,2
    4a98:	00c48633          	add	a2,s1,a2
    4a9c:	00a60633          	add	a2,a2,a0
    4aa0:	00064603          	lbu	a2,0(a2)
    4aa4:	e00600e3          	beqz	a2,48a4 <tick+0xa0>
    4aa8:	07412423          	sw	s4,104(sp)
    4aac:	07512223          	sw	s5,100(sp)
    4ab0:	07612023          	sw	s6,96(sp)
    4ab4:	05712e23          	sw	s7,92(sp)
    4ab8:	05812c23          	sw	s8,88(sp)
    4abc:	05912a23          	sw	s9,84(sp)
    4ac0:	05a12823          	sw	s10,80(sp)
    4ac4:	05b12623          	sw	s11,76(sp)
    4ac8:	00090293          	mv	t0,s2
    4acc:	00000f13          	li	t5,0
    4ad0:	00007737          	lui	a4,0x7
    4ad4:	01200693          	li	a3,18
    4ad8:	00700e93          	li	t4,7
    4adc:	00400f93          	li	t6,4
    4ae0:	00028e13          	mv	t3,t0
    4ae4:	00000313          	li	t1,0
    4ae8:	010e2783          	lw	a5,16(t3)
    4aec:	0c078663          	beqz	a5,4bb8 <tick+0x3b4>
    4af0:	0d04a783          	lw	a5,208(s1)
    4af4:	0cc4a603          	lw	a2,204(s1)
    4af8:	00ff07b3          	add	a5,t5,a5
    4afc:	0147b593          	sltiu	a1,a5,20
    4b00:	00c30633          	add	a2,t1,a2
    4b04:	0a058a63          	beqz	a1,4bb8 <tick+0x3b4>
    4b08:	00a63593          	sltiu	a1,a2,10
    4b0c:	0a058663          	beqz	a1,4bb8 <tick+0x3b4>
    4b10:	00578593          	addi	a1,a5,5
    4b14:	00259513          	slli	a0,a1,0x2
    4b18:	00b50533          	add	a0,a0,a1
    4b1c:	00279593          	slli	a1,a5,0x2
    4b20:	00f585b3          	add	a1,a1,a5
    4b24:	00651793          	slli	a5,a0,0x6
    4b28:	00f60513          	addi	a0,a2,15
    4b2c:	0d44c383          	lbu	t2,212(s1)
    4b30:	00a787b3          	add	a5,a5,a0
    4b34:	00159593          	slli	a1,a1,0x1
    4b38:	95072503          	lw	a0,-1712(a4) # 6950 <VGA>
    4b3c:	00b485b3          	add	a1,s1,a1
    4b40:	00379793          	slli	a5,a5,0x3
    4b44:	00c58633          	add	a2,a1,a2
    4b48:	00760023          	sb	t2,0(a2)
    4b4c:	00f50633          	add	a2,a0,a5
    4b50:	00d60023          	sb	a3,0(a2)
    4b54:	95072603          	lw	a2,-1712(a4)
    4b58:	00678893          	addi	a7,a5,6
    4b5c:	00000593          	li	a1,0
    4b60:	00f60633          	add	a2,a2,a5
    4b64:	00d600a3          	sb	a3,1(a2)
    4b68:	00078613          	mv	a2,a5
    4b6c:	95072503          	lw	a0,-1712(a4)
    4b70:	00f50533          	add	a0,a0,a5
    4b74:	00d50123          	sb	a3,2(a0)
    4b78:	95072503          	lw	a0,-1712(a4)
    4b7c:	00f50533          	add	a0,a0,a5
    4b80:	00d501a3          	sb	a3,3(a0)
    4b84:	95072503          	lw	a0,-1712(a4)
    4b88:	00f50533          	add	a0,a0,a5
    4b8c:	00d50223          	sb	a3,4(a0)
    4b90:	95072503          	lw	a0,-1712(a4)
    4b94:	00f50533          	add	a0,a0,a5
    4b98:	00d502a3          	sb	a3,5(a0)
    4b9c:	95072503          	lw	a0,-1712(a4)
    4ba0:	01150533          	add	a0,a0,a7
    4ba4:	00d50023          	sb	a3,0(a0)
    4ba8:	40058a63          	beqz	a1,4fbc <tick+0x7b8>
    4bac:	95072783          	lw	a5,-1712(a4)
    4bb0:	00c787b3          	add	a5,a5,a2
    4bb4:	00d783a3          	sb	a3,7(a5)
    4bb8:	00130313          	addi	t1,t1,1
    4bbc:	004e0e13          	addi	t3,t3,4
    4bc0:	f3f314e3          	bne	t1,t6,4ae8 <tick+0x2e4>
    4bc4:	001f0f13          	addi	t5,t5,1
    4bc8:	01028293          	addi	t0,t0,16
    4bcc:	f06f1ae3          	bne	t5,t1,4ae0 <tick+0x2dc>
    4bd0:	eacff0ef          	jal	427c <clear_lines>
    4bd4:	0000d9b7          	lui	s3,0xd
    4bd8:	87c9a703          	lw	a4,-1924(s3) # c87c <num_locked>
    4bdc:	12b00793          	li	a5,299
    4be0:	00e7c463          	blt	a5,a4,4be8 <tick+0x3e4>
    4be4:	4280106f          	j	600c <tick+0x1808>
    4be8:	00003637          	lui	a2,0x3
    4bec:	00003837          	lui	a6,0x3
    4bf0:	000035b7          	lui	a1,0x3
    4bf4:	000037b7          	lui	a5,0x3
    4bf8:	12848713          	addi	a4,s1,296
    4bfc:	44480813          	addi	a6,a6,1092 # 3444 <move_piece+0x1c8>
    4c00:	20060613          	addi	a2,a2,512 # 3200 <rotate_piece+0x1c4>
    4c04:	00003bb7          	lui	s7,0x3
    4c08:	00003b37          	lui	s6,0x3
    4c0c:	00003ab7          	lui	s5,0x3
    4c10:	00003a37          	lui	s4,0x3
    4c14:	00003c37          	lui	s8,0x3
    4c18:	00003cb7          	lui	s9,0x3
    4c1c:	00003d37          	lui	s10,0x3
    4c20:	00003db7          	lui	s11,0x3
    4c24:	44558593          	addi	a1,a1,1093 # 3445 <move_piece+0x1c9>
    4c28:	44678793          	addi	a5,a5,1094 # 3446 <move_piece+0x1ca>
    4c2c:	01012823          	sw	a6,16(sp)
    4c30:	40c40533          	sub	a0,s0,a2
    4c34:	00070693          	mv	a3,a4
    4c38:	304b8b93          	addi	s7,s7,772 # 3304 <move_piece+0x88>
    4c3c:	305b0b13          	addi	s6,s6,773 # 3305 <move_piece+0x89>
    4c40:	306a8a93          	addi	s5,s5,774 # 3306 <move_piece+0x8a>
    4c44:	307a0a13          	addi	s4,s4,775 # 3307 <move_piece+0x8b>
    4c48:	308c0c13          	addi	s8,s8,776 # 3308 <move_piece+0x8c>
    4c4c:	309c8c93          	addi	s9,s9,777 # 3309 <move_piece+0x8d>
    4c50:	30ad0d13          	addi	s10,s10,778 # 330a <move_piece+0x8e>
    4c54:	30bd8d93          	addi	s11,s11,779 # 330b <move_piece+0x8f>
    4c58:	00b12a23          	sw	a1,20(sp)
    4c5c:	00f12c23          	sw	a5,24(sp)
    4c60:	00e12e23          	sw	a4,28(sp)
    4c64:	02912023          	sw	s1,32(sp)
    4c68:	03212223          	sw	s2,36(sp)
    4c6c:	00098813          	mv	a6,s3
    4c70:	000039b7          	lui	s3,0x3
    4c74:	00003937          	lui	s2,0x3
    4c78:	000034b7          	lui	s1,0x3
    4c7c:	000033b7          	lui	t2,0x3
    4c80:	000032b7          	lui	t0,0x3
    4c84:	00003fb7          	lui	t6,0x3
    4c88:	00003f37          	lui	t5,0x3
    4c8c:	00003eb7          	lui	t4,0x3
    4c90:	00003e37          	lui	t3,0x3
    4c94:	00003337          	lui	t1,0x3
    4c98:	000038b7          	lui	a7,0x3
    4c9c:	44798993          	addi	s3,s3,1095 # 3447 <move_piece+0x1cb>
    4ca0:	44890913          	addi	s2,s2,1096 # 3448 <move_piece+0x1cc>
    4ca4:	44948493          	addi	s1,s1,1097 # 3449 <move_piece+0x1cd>
    4ca8:	44a38393          	addi	t2,t2,1098 # 344a <move_piece+0x1ce>
    4cac:	44b28293          	addi	t0,t0,1099 # 344b <move_piece+0x1cf>
    4cb0:	584f8f93          	addi	t6,t6,1412 # 3584 <move_piece+0x308>
    4cb4:	585f0f13          	addi	t5,t5,1413 # 3585 <move_piece+0x309>
    4cb8:	586e8e93          	addi	t4,t4,1414 # 3586 <move_piece+0x30a>
    4cbc:	587e0e13          	addi	t3,t3,1415 # 3587 <move_piece+0x30b>
    4cc0:	58830313          	addi	t1,t1,1416 # 3588 <move_piece+0x30c>
    4cc4:	58988893          	addi	a7,a7,1417 # 3589 <move_piece+0x30d>
    4cc8:	ff068713          	addi	a4,a3,-16
    4ccc:	00a607b3          	add	a5,a2,a0
    4cd0:	00c12623          	sw	a2,12(sp)
    4cd4:	01072603          	lw	a2,16(a4)
    4cd8:	6a0616e3          	bnez	a2,5b84 <tick+0x1380>
    4cdc:	00470713          	addi	a4,a4,4
    4ce0:	00878793          	addi	a5,a5,8
    4ce4:	fee698e3          	bne	a3,a4,4cd4 <tick+0x4d0>
    4ce8:	00c12603          	lw	a2,12(sp)
    4cec:	000067b7          	lui	a5,0x6
    4cf0:	a0078793          	addi	a5,a5,-1536 # 5a00 <tick+0x11fc>
    4cf4:	7ff60613          	addi	a2,a2,2047
    4cf8:	20160613          	addi	a2,a2,513
    4cfc:	01068693          	addi	a3,a3,16
    4d00:	f6f618e3          	bne	a2,a5,4c70 <tick+0x46c>
    4d04:	01c12703          	lw	a4,28(sp)
    4d08:	02a12423          	sw	a0,40(sp)
    4d0c:	02012483          	lw	s1,32(sp)
    4d10:	02e12623          	sw	a4,44(sp)
    4d14:	02412903          	lw	s2,36(sp)
    4d18:	00080993          	mv	s3,a6
    4d1c:	c88fc0ef          	jal	11a4 <spawn_next>
    4d20:	00003737          	lui	a4,0x3
    4d24:	30870713          	addi	a4,a4,776 # 3308 <move_piece+0x8c>
    4d28:	00e12623          	sw	a4,12(sp)
    4d2c:	00003737          	lui	a4,0x3
    4d30:	30970713          	addi	a4,a4,777 # 3309 <move_piece+0x8d>
    4d34:	00e12823          	sw	a4,16(sp)
    4d38:	00003737          	lui	a4,0x3
    4d3c:	30a70713          	addi	a4,a4,778 # 330a <move_piece+0x8e>
    4d40:	00e12a23          	sw	a4,20(sp)
    4d44:	00003737          	lui	a4,0x3
    4d48:	30b70713          	addi	a4,a4,779 # 330b <move_piece+0x8f>
    4d4c:	00e12c23          	sw	a4,24(sp)
    4d50:	00003737          	lui	a4,0x3
    4d54:	44470713          	addi	a4,a4,1092 # 3444 <move_piece+0x1c8>
    4d58:	00e12e23          	sw	a4,28(sp)
    4d5c:	00003737          	lui	a4,0x3
    4d60:	44570713          	addi	a4,a4,1093 # 3445 <move_piece+0x1c9>
    4d64:	02e12023          	sw	a4,32(sp)
    4d68:	000037b7          	lui	a5,0x3
    4d6c:	02c12703          	lw	a4,44(sp)
    4d70:	02812503          	lw	a0,40(sp)
    4d74:	00003637          	lui	a2,0x3
    4d78:	00003db7          	lui	s11,0x3
    4d7c:	00003d37          	lui	s10,0x3
    4d80:	00003cb7          	lui	s9,0x3
    4d84:	00003c37          	lui	s8,0x3
    4d88:	44678793          	addi	a5,a5,1094 # 3446 <move_piece+0x1ca>
    4d8c:	20060613          	addi	a2,a2,512 # 3200 <rotate_piece+0x1c4>
    4d90:	304d8d93          	addi	s11,s11,772 # 3304 <move_piece+0x88>
    4d94:	305d0d13          	addi	s10,s10,773 # 3305 <move_piece+0x89>
    4d98:	306c8c93          	addi	s9,s9,774 # 3306 <move_piece+0x8a>
    4d9c:	307c0c13          	addi	s8,s8,775 # 3307 <move_piece+0x8b>
    4da0:	02f12223          	sw	a5,36(sp)
    4da4:	00003ab7          	lui	s5,0x3
    4da8:	00003a37          	lui	s4,0x3
    4dac:	000033b7          	lui	t2,0x3
    4db0:	000032b7          	lui	t0,0x3
    4db4:	00003fb7          	lui	t6,0x3
    4db8:	00003f37          	lui	t5,0x3
    4dbc:	00003eb7          	lui	t4,0x3
    4dc0:	00003e37          	lui	t3,0x3
    4dc4:	00003337          	lui	t1,0x3
    4dc8:	000038b7          	lui	a7,0x3
    4dcc:	00003837          	lui	a6,0x3
    4dd0:	447a8a93          	addi	s5,s5,1095 # 3447 <move_piece+0x1cb>
    4dd4:	448a0a13          	addi	s4,s4,1096 # 3448 <move_piece+0x1cc>
    4dd8:	44938393          	addi	t2,t2,1097 # 3449 <move_piece+0x1cd>
    4ddc:	44a28293          	addi	t0,t0,1098 # 344a <move_piece+0x1ce>
    4de0:	44bf8f93          	addi	t6,t6,1099 # 344b <move_piece+0x1cf>
    4de4:	584f0f13          	addi	t5,t5,1412 # 3584 <move_piece+0x308>
    4de8:	585e8e93          	addi	t4,t4,1413 # 3585 <move_piece+0x309>
    4dec:	586e0e13          	addi	t3,t3,1414 # 3586 <move_piece+0x30a>
    4df0:	58730313          	addi	t1,t1,1415 # 3587 <move_piece+0x30b>
    4df4:	58888893          	addi	a7,a7,1416 # 3588 <move_piece+0x30c>
    4df8:	58980813          	addi	a6,a6,1417 # 3589 <move_piece+0x30d>
    4dfc:	ff070693          	addi	a3,a4,-16
    4e00:	00a607b3          	add	a5,a2,a0
    4e04:	0106a583          	lw	a1,16(a3)
    4e08:	180596e3          	bnez	a1,5794 <tick+0xf90>
    4e0c:	00468693          	addi	a3,a3,4
    4e10:	00878793          	addi	a5,a5,8
    4e14:	fed718e3          	bne	a4,a3,4e04 <tick+0x600>
    4e18:	7ff60613          	addi	a2,a2,2047
    4e1c:	000067b7          	lui	a5,0x6
    4e20:	20160613          	addi	a2,a2,513
    4e24:	a0078793          	addi	a5,a5,-1536 # 5a00 <tick+0x11fc>
    4e28:	01070713          	addi	a4,a4,16
    4e2c:	f6f61ce3          	bne	a2,a5,4da4 <tick+0x5a0>
    4e30:	06812a03          	lw	s4,104(sp)
    4e34:	06412a83          	lw	s5,100(sp)
    4e38:	06012b03          	lw	s6,96(sp)
    4e3c:	05c12b83          	lw	s7,92(sp)
    4e40:	05812c03          	lw	s8,88(sp)
    4e44:	05412c83          	lw	s9,84(sp)
    4e48:	05012d03          	lw	s10,80(sp)
    4e4c:	04c12d83          	lw	s11,76(sp)
    4e50:	00040513          	mv	a0,s0
    4e54:	d9cfc0ef          	jal	13f0 <draw_grid>
    4e58:	87c9a783          	lw	a5,-1924(s3)
    4e5c:	04f05a63          	blez	a5,4eb0 <tick+0x6ac>
    4e60:	00007737          	lui	a4,0x7
    4e64:	abc70713          	addi	a4,a4,-1348 # 6abc <locked_pieces>
    4e68:	00000e13          	li	t3,0
    4e6c:	00400813          	li	a6,4
    4e70:	00070313          	mv	t1,a4
    4e74:	00000893          	li	a7,0
    4e78:	00030613          	mv	a2,t1
    4e7c:	00000693          	li	a3,0
    4e80:	01062783          	lw	a5,16(a2)
    4e84:	16079c63          	bnez	a5,4ffc <tick+0x7f8>
    4e88:	00168693          	addi	a3,a3,1
    4e8c:	00460613          	addi	a2,a2,4
    4e90:	ff0698e3          	bne	a3,a6,4e80 <tick+0x67c>
    4e94:	00188893          	addi	a7,a7,1
    4e98:	01030313          	addi	t1,t1,16
    4e9c:	fd089ee3          	bne	a7,a6,4e78 <tick+0x674>
    4ea0:	87c9a783          	lw	a5,-1924(s3)
    4ea4:	001e0e13          	addi	t3,t3,1
    4ea8:	05070713          	addi	a4,a4,80
    4eac:	fcfe42e3          	blt	t3,a5,4e70 <tick+0x66c>
    4eb0:	00000813          	li	a6,0
    4eb4:	00400513          	li	a0,4
    4eb8:	00090693          	mv	a3,s2
    4ebc:	00000713          	li	a4,0
    4ec0:	0106a783          	lw	a5,16(a3)
    4ec4:	50079263          	bnez	a5,53c8 <tick+0xbc4>
    4ec8:	00170713          	addi	a4,a4,1
    4ecc:	00468693          	addi	a3,a3,4
    4ed0:	fea718e3          	bne	a4,a0,4ec0 <tick+0x6bc>
    4ed4:	00180813          	addi	a6,a6,1
    4ed8:	01090913          	addi	s2,s2,16
    4edc:	fce81ee3          	bne	a6,a4,4eb8 <tick+0x6b4>
    4ee0:	07c12083          	lw	ra,124(sp)
    4ee4:	07812403          	lw	s0,120(sp)
    4ee8:	07412483          	lw	s1,116(sp)
    4eec:	07012903          	lw	s2,112(sp)
    4ef0:	06c12983          	lw	s3,108(sp)
    4ef4:	08010113          	addi	sp,sp,128
    4ef8:	00008067          	ret
    4efc:	1044a683          	lw	a3,260(s1)
    4f00:	ac068ae3          	beqz	a3,49d4 <tick+0x1d0>
    4f04:	00370593          	addi	a1,a4,3
    4f08:	01300693          	li	a3,19
    4f0c:	b8b6cee3          	blt	a3,a1,4aa8 <tick+0x2a4>
    4f10:	00259613          	slli	a2,a1,0x2
    4f14:	aa5ff06f          	j	49b8 <tick+0x1b4>
    4f18:	0ec4a683          	lw	a3,236(s1)
    4f1c:	7c0684e3          	beqz	a3,5ee4 <tick+0x16e0>
    4f20:	00270593          	addi	a1,a4,2
    4f24:	01300693          	li	a3,19
    4f28:	b8b6c0e3          	blt	a3,a1,4aa8 <tick+0x2a4>
    4f2c:	00178513          	addi	a0,a5,1
    4f30:	00259693          	slli	a3,a1,0x2
    4f34:	00b68633          	add	a2,a3,a1
    4f38:	00161613          	slli	a2,a2,0x1
    4f3c:	00c48633          	add	a2,s1,a2
    4f40:	00a60633          	add	a2,a2,a0
    4f44:	00064603          	lbu	a2,0(a2)
    4f48:	b60610e3          	bnez	a2,4aa8 <tick+0x2a4>
    4f4c:	0f04a603          	lw	a2,240(s1)
    4f50:	78060ee3          	beqz	a2,5eec <tick+0x16e8>
    4f54:	00b68633          	add	a2,a3,a1
    4f58:	00161613          	slli	a2,a2,0x1
    4f5c:	00278513          	addi	a0,a5,2
    4f60:	00c48633          	add	a2,s1,a2
    4f64:	00a60633          	add	a2,a2,a0
    4f68:	00064603          	lbu	a2,0(a2)
    4f6c:	9a0600e3          	beqz	a2,490c <tick+0x108>
    4f70:	b39ff06f          	j	4aa8 <tick+0x2a4>
    4f74:	00780023          	sb	t2,0(a6)
    4f78:	95072503          	lw	a0,-1712(a4)
    4f7c:	00078813          	mv	a6,a5
    4f80:	00f50533          	add	a0,a0,a5
    4f84:	14750123          	sb	t2,322(a0)
    4f88:	95072503          	lw	a0,-1712(a4)
    4f8c:	00f507b3          	add	a5,a0,a5
    4f90:	147781a3          	sb	t2,323(a5)
    4f94:	95072503          	lw	a0,-1712(a4)
    4f98:	00060793          	mv	a5,a2
    4f9c:	01050633          	add	a2,a0,a6
    4fa0:	14760223          	sb	t2,324(a2)
    4fa4:	95072603          	lw	a2,-1712(a4)
    4fa8:	01060633          	add	a2,a2,a6
    4fac:	147602a3          	sb	t2,325(a2)
    4fb0:	95072603          	lw	a2,-1712(a4)
    4fb4:	01160633          	add	a2,a2,a7
    4fb8:	00760023          	sb	t2,0(a2)
    4fbc:	95072503          	lw	a0,-1712(a4)
    4fc0:	14078613          	addi	a2,a5,320
    4fc4:	00158593          	addi	a1,a1,1
    4fc8:	00f50533          	add	a0,a0,a5
    4fcc:	00d503a3          	sb	a3,7(a0)
    4fd0:	95072803          	lw	a6,-1712(a4)
    4fd4:	14178513          	addi	a0,a5,321
    4fd8:	14088893          	addi	a7,a7,320
    4fdc:	00c80833          	add	a6,a6,a2
    4fe0:	00d80023          	sb	a3,0(a6)
    4fe4:	95072803          	lw	a6,-1712(a4)
    4fe8:	00a80833          	add	a6,a6,a0
    4fec:	f9d594e3          	bne	a1,t4,4f74 <tick+0x770>
    4ff0:	00d80023          	sb	a3,0(a6)
    4ff4:	00060793          	mv	a5,a2
    4ff8:	b75ff06f          	j	4b6c <tick+0x368>
    4ffc:	00872583          	lw	a1,8(a4)
    5000:	00472503          	lw	a0,4(a4)
    5004:	00c74e83          	lbu	t4,12(a4)
    5008:	00b885b3          	add	a1,a7,a1
    500c:	00558593          	addi	a1,a1,5
    5010:	00259793          	slli	a5,a1,0x2
    5014:	00b787b3          	add	a5,a5,a1
    5018:	00a685b3          	add	a1,a3,a0
    501c:	00f58593          	addi	a1,a1,15
    5020:	00679793          	slli	a5,a5,0x6
    5024:	00b787b3          	add	a5,a5,a1
    5028:	00379793          	slli	a5,a5,0x3
    502c:	00f40533          	add	a0,s0,a5
    5030:	00178593          	addi	a1,a5,1
    5034:	01d50023          	sb	t4,0(a0)
    5038:	00b405b3          	add	a1,s0,a1
    503c:	01d58023          	sb	t4,0(a1)
    5040:	00c74e83          	lbu	t4,12(a4)
    5044:	00278513          	addi	a0,a5,2
    5048:	00a40533          	add	a0,s0,a0
    504c:	00378593          	addi	a1,a5,3
    5050:	01d50023          	sb	t4,0(a0)
    5054:	00b405b3          	add	a1,s0,a1
    5058:	01d58023          	sb	t4,0(a1)
    505c:	00c74e83          	lbu	t4,12(a4)
    5060:	00478513          	addi	a0,a5,4
    5064:	00a40533          	add	a0,s0,a0
    5068:	00578593          	addi	a1,a5,5
    506c:	01d50023          	sb	t4,0(a0)
    5070:	00b405b3          	add	a1,s0,a1
    5074:	01d58023          	sb	t4,0(a1)
    5078:	00c74e83          	lbu	t4,12(a4)
    507c:	00678513          	addi	a0,a5,6
    5080:	00a40533          	add	a0,s0,a0
    5084:	00778593          	addi	a1,a5,7
    5088:	01d50023          	sb	t4,0(a0)
    508c:	00b405b3          	add	a1,s0,a1
    5090:	01d58023          	sb	t4,0(a1)
    5094:	00c74e83          	lbu	t4,12(a4)
    5098:	14078513          	addi	a0,a5,320
    509c:	00a40533          	add	a0,s0,a0
    50a0:	14178593          	addi	a1,a5,321
    50a4:	01d50023          	sb	t4,0(a0)
    50a8:	00b405b3          	add	a1,s0,a1
    50ac:	01d58023          	sb	t4,0(a1)
    50b0:	00c74e83          	lbu	t4,12(a4)
    50b4:	14278513          	addi	a0,a5,322
    50b8:	00a40533          	add	a0,s0,a0
    50bc:	14378593          	addi	a1,a5,323
    50c0:	01d50023          	sb	t4,0(a0)
    50c4:	00b405b3          	add	a1,s0,a1
    50c8:	01d58023          	sb	t4,0(a1)
    50cc:	00c74e83          	lbu	t4,12(a4)
    50d0:	14478513          	addi	a0,a5,324
    50d4:	00a40533          	add	a0,s0,a0
    50d8:	14578593          	addi	a1,a5,325
    50dc:	01d50023          	sb	t4,0(a0)
    50e0:	00b405b3          	add	a1,s0,a1
    50e4:	01d58023          	sb	t4,0(a1)
    50e8:	00c74e83          	lbu	t4,12(a4)
    50ec:	14678513          	addi	a0,a5,326
    50f0:	00a40533          	add	a0,s0,a0
    50f4:	14778593          	addi	a1,a5,327
    50f8:	01d50023          	sb	t4,0(a0)
    50fc:	00b405b3          	add	a1,s0,a1
    5100:	01d58023          	sb	t4,0(a1)
    5104:	00c74e83          	lbu	t4,12(a4)
    5108:	28078513          	addi	a0,a5,640
    510c:	00a40533          	add	a0,s0,a0
    5110:	28178593          	addi	a1,a5,641
    5114:	01d50023          	sb	t4,0(a0)
    5118:	00b405b3          	add	a1,s0,a1
    511c:	01d58023          	sb	t4,0(a1)
    5120:	00c74e83          	lbu	t4,12(a4)
    5124:	28278513          	addi	a0,a5,642
    5128:	00a40533          	add	a0,s0,a0
    512c:	28378593          	addi	a1,a5,643
    5130:	01d50023          	sb	t4,0(a0)
    5134:	00b405b3          	add	a1,s0,a1
    5138:	01d58023          	sb	t4,0(a1)
    513c:	00c74e83          	lbu	t4,12(a4)
    5140:	28478513          	addi	a0,a5,644
    5144:	00a40533          	add	a0,s0,a0
    5148:	28578593          	addi	a1,a5,645
    514c:	01d50023          	sb	t4,0(a0)
    5150:	00b405b3          	add	a1,s0,a1
    5154:	01d58023          	sb	t4,0(a1)
    5158:	00c74e83          	lbu	t4,12(a4)
    515c:	28678513          	addi	a0,a5,646
    5160:	00a40533          	add	a0,s0,a0
    5164:	28778593          	addi	a1,a5,647
    5168:	01d50023          	sb	t4,0(a0)
    516c:	00b405b3          	add	a1,s0,a1
    5170:	01d58023          	sb	t4,0(a1)
    5174:	00c74e83          	lbu	t4,12(a4)
    5178:	3c078513          	addi	a0,a5,960
    517c:	00a40533          	add	a0,s0,a0
    5180:	3c178593          	addi	a1,a5,961
    5184:	01d50023          	sb	t4,0(a0)
    5188:	00b405b3          	add	a1,s0,a1
    518c:	01d58023          	sb	t4,0(a1)
    5190:	00c74e83          	lbu	t4,12(a4)
    5194:	3c278513          	addi	a0,a5,962
    5198:	00a40533          	add	a0,s0,a0
    519c:	3c378593          	addi	a1,a5,963
    51a0:	01d50023          	sb	t4,0(a0)
    51a4:	00b405b3          	add	a1,s0,a1
    51a8:	01d58023          	sb	t4,0(a1)
    51ac:	00c74e83          	lbu	t4,12(a4)
    51b0:	3c478513          	addi	a0,a5,964
    51b4:	00a40533          	add	a0,s0,a0
    51b8:	3c578593          	addi	a1,a5,965
    51bc:	01d50023          	sb	t4,0(a0)
    51c0:	00b405b3          	add	a1,s0,a1
    51c4:	01d58023          	sb	t4,0(a1)
    51c8:	00c74e83          	lbu	t4,12(a4)
    51cc:	3c678513          	addi	a0,a5,966
    51d0:	00a40533          	add	a0,s0,a0
    51d4:	3c778593          	addi	a1,a5,967
    51d8:	01d50023          	sb	t4,0(a0)
    51dc:	00b405b3          	add	a1,s0,a1
    51e0:	01d58023          	sb	t4,0(a1)
    51e4:	00c74e83          	lbu	t4,12(a4)
    51e8:	50078513          	addi	a0,a5,1280
    51ec:	00a40533          	add	a0,s0,a0
    51f0:	50178593          	addi	a1,a5,1281
    51f4:	01d50023          	sb	t4,0(a0)
    51f8:	00b405b3          	add	a1,s0,a1
    51fc:	01d58023          	sb	t4,0(a1)
    5200:	00c74e83          	lbu	t4,12(a4)
    5204:	50278513          	addi	a0,a5,1282
    5208:	00a40533          	add	a0,s0,a0
    520c:	50378593          	addi	a1,a5,1283
    5210:	01d50023          	sb	t4,0(a0)
    5214:	00b405b3          	add	a1,s0,a1
    5218:	01d58023          	sb	t4,0(a1)
    521c:	00c74e83          	lbu	t4,12(a4)
    5220:	50478513          	addi	a0,a5,1284
    5224:	00a40533          	add	a0,s0,a0
    5228:	50578593          	addi	a1,a5,1285
    522c:	01d50023          	sb	t4,0(a0)
    5230:	00b405b3          	add	a1,s0,a1
    5234:	01d58023          	sb	t4,0(a1)
    5238:	00c74e83          	lbu	t4,12(a4)
    523c:	50678513          	addi	a0,a5,1286
    5240:	00a40533          	add	a0,s0,a0
    5244:	50778593          	addi	a1,a5,1287
    5248:	01d50023          	sb	t4,0(a0)
    524c:	00b405b3          	add	a1,s0,a1
    5250:	01d58023          	sb	t4,0(a1)
    5254:	00c74e83          	lbu	t4,12(a4)
    5258:	64078513          	addi	a0,a5,1600
    525c:	00a40533          	add	a0,s0,a0
    5260:	64178593          	addi	a1,a5,1601
    5264:	01d50023          	sb	t4,0(a0)
    5268:	00b405b3          	add	a1,s0,a1
    526c:	01d58023          	sb	t4,0(a1)
    5270:	00c74e83          	lbu	t4,12(a4)
    5274:	64278513          	addi	a0,a5,1602
    5278:	00a40533          	add	a0,s0,a0
    527c:	64378593          	addi	a1,a5,1603
    5280:	01d50023          	sb	t4,0(a0)
    5284:	00b405b3          	add	a1,s0,a1
    5288:	01d58023          	sb	t4,0(a1)
    528c:	00c74e83          	lbu	t4,12(a4)
    5290:	64478513          	addi	a0,a5,1604
    5294:	00a40533          	add	a0,s0,a0
    5298:	64578593          	addi	a1,a5,1605
    529c:	01d50023          	sb	t4,0(a0)
    52a0:	00b405b3          	add	a1,s0,a1
    52a4:	01d58023          	sb	t4,0(a1)
    52a8:	00c74e83          	lbu	t4,12(a4)
    52ac:	64678513          	addi	a0,a5,1606
    52b0:	00a40533          	add	a0,s0,a0
    52b4:	64778593          	addi	a1,a5,1607
    52b8:	01d50023          	sb	t4,0(a0)
    52bc:	00b405b3          	add	a1,s0,a1
    52c0:	01d58023          	sb	t4,0(a1)
    52c4:	00c74e83          	lbu	t4,12(a4)
    52c8:	78078513          	addi	a0,a5,1920
    52cc:	00a40533          	add	a0,s0,a0
    52d0:	78178593          	addi	a1,a5,1921
    52d4:	01d50023          	sb	t4,0(a0)
    52d8:	00b405b3          	add	a1,s0,a1
    52dc:	01d58023          	sb	t4,0(a1)
    52e0:	00c74e83          	lbu	t4,12(a4)
    52e4:	78278513          	addi	a0,a5,1922
    52e8:	00a40533          	add	a0,s0,a0
    52ec:	78378593          	addi	a1,a5,1923
    52f0:	01d50023          	sb	t4,0(a0)
    52f4:	00b405b3          	add	a1,s0,a1
    52f8:	01d58023          	sb	t4,0(a1)
    52fc:	00c74e83          	lbu	t4,12(a4)
    5300:	78478513          	addi	a0,a5,1924
    5304:	00a40533          	add	a0,s0,a0
    5308:	78578593          	addi	a1,a5,1925
    530c:	01d50023          	sb	t4,0(a0)
    5310:	00b405b3          	add	a1,s0,a1
    5314:	01d58023          	sb	t4,0(a1)
    5318:	00c74e83          	lbu	t4,12(a4)
    531c:	78678513          	addi	a0,a5,1926
    5320:	00a40533          	add	a0,s0,a0
    5324:	78778593          	addi	a1,a5,1927
    5328:	01d50023          	sb	t4,0(a0)
    532c:	00b405b3          	add	a1,s0,a1
    5330:	01d58023          	sb	t4,0(a1)
    5334:	00c74e83          	lbu	t4,12(a4)
    5338:	7ff78513          	addi	a0,a5,2047
    533c:	7ff78593          	addi	a1,a5,2047
    5340:	0c150513          	addi	a0,a0,193
    5344:	00a40533          	add	a0,s0,a0
    5348:	0c258593          	addi	a1,a1,194
    534c:	01d50023          	sb	t4,0(a0)
    5350:	00b405b3          	add	a1,s0,a1
    5354:	01d58023          	sb	t4,0(a1)
    5358:	00c74e83          	lbu	t4,12(a4)
    535c:	7ff78513          	addi	a0,a5,2047
    5360:	7ff78593          	addi	a1,a5,2047
    5364:	0c350513          	addi	a0,a0,195
    5368:	00a40533          	add	a0,s0,a0
    536c:	0c458593          	addi	a1,a1,196
    5370:	01d50023          	sb	t4,0(a0)
    5374:	00b405b3          	add	a1,s0,a1
    5378:	01d58023          	sb	t4,0(a1)
    537c:	00c74e83          	lbu	t4,12(a4)
    5380:	7ff78513          	addi	a0,a5,2047
    5384:	7ff78593          	addi	a1,a5,2047
    5388:	0c550513          	addi	a0,a0,197
    538c:	00a40533          	add	a0,s0,a0
    5390:	0c658593          	addi	a1,a1,198
    5394:	01d50023          	sb	t4,0(a0)
    5398:	00b405b3          	add	a1,s0,a1
    539c:	01d58023          	sb	t4,0(a1)
    53a0:	00c74503          	lbu	a0,12(a4)
    53a4:	7ff78593          	addi	a1,a5,2047
    53a8:	0c758593          	addi	a1,a1,199
    53ac:	7ff78793          	addi	a5,a5,2047
    53b0:	00b405b3          	add	a1,s0,a1
    53b4:	0c878793          	addi	a5,a5,200
    53b8:	00a58023          	sb	a0,0(a1)
    53bc:	00f407b3          	add	a5,s0,a5
    53c0:	00a78023          	sb	a0,0(a5)
    53c4:	ac5ff06f          	j	4e88 <tick+0x684>
    53c8:	0d04a603          	lw	a2,208(s1)
    53cc:	0cc4a583          	lw	a1,204(s1)
    53d0:	0d44c883          	lbu	a7,212(s1)
    53d4:	00c80633          	add	a2,a6,a2
    53d8:	00560613          	addi	a2,a2,5
    53dc:	00261793          	slli	a5,a2,0x2
    53e0:	00c787b3          	add	a5,a5,a2
    53e4:	00b70633          	add	a2,a4,a1
    53e8:	00f60613          	addi	a2,a2,15
    53ec:	00679793          	slli	a5,a5,0x6
    53f0:	00c787b3          	add	a5,a5,a2
    53f4:	00379793          	slli	a5,a5,0x3
    53f8:	00f405b3          	add	a1,s0,a5
    53fc:	00178613          	addi	a2,a5,1
    5400:	01158023          	sb	a7,0(a1)
    5404:	00c40633          	add	a2,s0,a2
    5408:	01160023          	sb	a7,0(a2)
    540c:	0d44c883          	lbu	a7,212(s1)
    5410:	00278593          	addi	a1,a5,2
    5414:	00b405b3          	add	a1,s0,a1
    5418:	00378613          	addi	a2,a5,3
    541c:	01158023          	sb	a7,0(a1)
    5420:	00c40633          	add	a2,s0,a2
    5424:	01160023          	sb	a7,0(a2)
    5428:	0d44c883          	lbu	a7,212(s1)
    542c:	00478593          	addi	a1,a5,4
    5430:	00b405b3          	add	a1,s0,a1
    5434:	00578613          	addi	a2,a5,5
    5438:	01158023          	sb	a7,0(a1)
    543c:	00c40633          	add	a2,s0,a2
    5440:	01160023          	sb	a7,0(a2)
    5444:	0d44c883          	lbu	a7,212(s1)
    5448:	00678593          	addi	a1,a5,6
    544c:	00b405b3          	add	a1,s0,a1
    5450:	00778613          	addi	a2,a5,7
    5454:	01158023          	sb	a7,0(a1)
    5458:	00c40633          	add	a2,s0,a2
    545c:	01160023          	sb	a7,0(a2)
    5460:	0d44c883          	lbu	a7,212(s1)
    5464:	14078593          	addi	a1,a5,320
    5468:	00b405b3          	add	a1,s0,a1
    546c:	14178613          	addi	a2,a5,321
    5470:	01158023          	sb	a7,0(a1)
    5474:	00c40633          	add	a2,s0,a2
    5478:	01160023          	sb	a7,0(a2)
    547c:	0d44c883          	lbu	a7,212(s1)
    5480:	14278593          	addi	a1,a5,322
    5484:	00b405b3          	add	a1,s0,a1
    5488:	14378613          	addi	a2,a5,323
    548c:	01158023          	sb	a7,0(a1)
    5490:	00c40633          	add	a2,s0,a2
    5494:	01160023          	sb	a7,0(a2)
    5498:	0d44c883          	lbu	a7,212(s1)
    549c:	14478593          	addi	a1,a5,324
    54a0:	00b405b3          	add	a1,s0,a1
    54a4:	14578613          	addi	a2,a5,325
    54a8:	01158023          	sb	a7,0(a1)
    54ac:	00c40633          	add	a2,s0,a2
    54b0:	01160023          	sb	a7,0(a2)
    54b4:	0d44c883          	lbu	a7,212(s1)
