
main.elf:     file format elf32-littleriscv


Disassembly of section .text:

00000000 <_isr_handler>:
       0:	0080006f          	j	8 <_isr_routine>
       4:	1440006f          	j	148 <_start>

00000008 <_isr_routine>:
       8:	f8010113          	addi	sp,sp,-128
       c:	00112023          	sw	ra,0(sp)
      10:	00312423          	sw	gp,8(sp)
      14:	00412623          	sw	tp,12(sp)
      18:	00512823          	sw	t0,16(sp)
      1c:	00612a23          	sw	t1,20(sp)
      20:	00712c23          	sw	t2,24(sp)
      24:	00812e23          	sw	s0,28(sp)
      28:	02912023          	sw	s1,32(sp)
      2c:	02a12223          	sw	a0,36(sp)
      30:	02b12423          	sw	a1,40(sp)
      34:	02c12623          	sw	a2,44(sp)
      38:	02d12823          	sw	a3,48(sp)
      3c:	02e12a23          	sw	a4,52(sp)
      40:	02f12c23          	sw	a5,56(sp)
      44:	03012e23          	sw	a6,60(sp)
      48:	05112023          	sw	a7,64(sp)
      4c:	05212223          	sw	s2,68(sp)
      50:	05312423          	sw	s3,72(sp)
      54:	05412623          	sw	s4,76(sp)
      58:	05512823          	sw	s5,80(sp)
      5c:	05612a23          	sw	s6,84(sp)
      60:	05712c23          	sw	s7,88(sp)
      64:	05812e23          	sw	s8,92(sp)
      68:	07912023          	sw	s9,96(sp)
      6c:	07a12223          	sw	s10,100(sp)
      70:	07b12423          	sw	s11,104(sp)
      74:	07c12623          	sw	t3,108(sp)
      78:	07d12823          	sw	t4,112(sp)
      7c:	07e12a23          	sw	t5,116(sp)
      80:	07f12c23          	sw	t6,120(sp)
      84:	342022f3          	csrr	t0,mcause
      88:	80000337          	lui	t1,0x80000
      8c:	02536463          	bltu	t1,t0,b4 <external_irq>
      90:	00028833          	add	a6,t0,zero
      94:	00b00313          	li	t1,11
      98:	00628463          	beq	t0,t1,a0 <skip_init_args>
      9c:	34102573          	csrr	a0,mepc

000000a0 <skip_init_args>:
      a0:	258000ef          	jal	2f8 <handle_exception>
      a4:	341022f3          	csrr	t0,mepc
      a8:	00428293          	addi	t0,t0,4
      ac:	34129073          	csrw	mepc,t0
      b0:	0180006f          	j	c8 <restore>

000000b4 <external_irq>:
      b4:	800002b7          	lui	t0,0x80000
      b8:	fff28293          	addi	t0,t0,-1 # 7fffffff <_stack_end+0x7fef7063>
      bc:	34202373          	csrr	t1,mcause
      c0:	0062f533          	and	a0,t0,t1
      c4:	2e5020ef          	jal	2ba8 <handle_interrupt>

000000c8 <restore>:
      c8:	00012083          	lw	ra,0(sp)
      cc:	00812183          	lw	gp,8(sp)
      d0:	00c12203          	lw	tp,12(sp)
      d4:	01012283          	lw	t0,16(sp)
      d8:	01412303          	lw	t1,20(sp)
      dc:	01812383          	lw	t2,24(sp)
      e0:	01c12403          	lw	s0,28(sp)
      e4:	02012483          	lw	s1,32(sp)
      e8:	02412503          	lw	a0,36(sp)
      ec:	02812583          	lw	a1,40(sp)
      f0:	02c12603          	lw	a2,44(sp)
      f4:	03012683          	lw	a3,48(sp)
      f8:	03412703          	lw	a4,52(sp)
      fc:	03812783          	lw	a5,56(sp)
     100:	03c12803          	lw	a6,60(sp)
     104:	04012883          	lw	a7,64(sp)
     108:	04412903          	lw	s2,68(sp)
     10c:	04812983          	lw	s3,72(sp)
     110:	04c12a03          	lw	s4,76(sp)
     114:	05012a83          	lw	s5,80(sp)
     118:	05412b03          	lw	s6,84(sp)
     11c:	05812b83          	lw	s7,88(sp)
     120:	05c12c03          	lw	s8,92(sp)
     124:	06012c83          	lw	s9,96(sp)
     128:	06412d03          	lw	s10,100(sp)
     12c:	06812d83          	lw	s11,104(sp)
     130:	06c12e03          	lw	t3,108(sp)
     134:	07012e83          	lw	t4,112(sp)
     138:	07412f03          	lw	t5,116(sp)
     13c:	07812f83          	lw	t6,120(sp)
     140:	08010113          	addi	sp,sp,128
     144:	30200073          	mret

00000148 <_start>:
     148:	30401073          	csrw	mie,zero
     14c:	00109117          	auipc	sp,0x109
     150:	e5010113          	addi	sp,sp,-432 # 108f9c <_stack_end>
     154:	00003197          	auipc	gp,0x3
     158:	68818193          	addi	gp,gp,1672 # 37dc <__global_pointer>
     15c:	00003517          	auipc	a0,0x3
     160:	bbc50513          	addi	a0,a0,-1092 # 2d18 <welcome_msg>
     164:	00400893          	li	a7,4
     168:	00000073          	ecall
     16c:	27d020ef          	jal	2be8 <main>

00000170 <loop>:
     170:	0000006f          	j	170 <loop>

00000174 <enable_interrupt>:
     174:	30486073          	csrsi	mie,16
     178:	30496073          	csrsi	mie,18
     17c:	3001e073          	csrsi	mstatus,3
     180:	00008067          	ret

00000184 <printc>:
     184:	04000737          	lui	a4,0x4000
     188:	04470713          	addi	a4,a4,68 # 4000044 <_stack_end+0x3ef70a8>
     18c:	000106b7          	lui	a3,0x10
     190:	00072783          	lw	a5,0(a4)
     194:	fed7eee3          	bltu	a5,a3,190 <printc+0xc>
     198:	040007b7          	lui	a5,0x4000
     19c:	04a7a023          	sw	a0,64(a5) # 4000040 <_stack_end+0x3ef70a4>
     1a0:	00008067          	ret

000001a4 <print>:
     1a4:	00054603          	lbu	a2,0(a0)
     1a8:	02060863          	beqz	a2,1d8 <print+0x34>
     1ac:	04000737          	lui	a4,0x4000
     1b0:	040005b7          	lui	a1,0x4000
     1b4:	04470713          	addi	a4,a4,68 # 4000044 <_stack_end+0x3ef70a8>
     1b8:	04058593          	addi	a1,a1,64 # 4000040 <_stack_end+0x3ef70a4>
     1bc:	000106b7          	lui	a3,0x10
     1c0:	00072783          	lw	a5,0(a4)
     1c4:	fed7eee3          	bltu	a5,a3,1c0 <print+0x1c>
     1c8:	00c5a023          	sw	a2,0(a1)
     1cc:	00154603          	lbu	a2,1(a0)
     1d0:	00150513          	addi	a0,a0,1
     1d4:	fe0616e3          	bnez	a2,1c0 <print+0x1c>
     1d8:	00008067          	ret

000001dc <print_dec>:
     1dc:	3b9ad737          	lui	a4,0x3b9ad
     1e0:	040006b7          	lui	a3,0x4000
     1e4:	04000337          	lui	t1,0x4000
     1e8:	ccccd8b7          	lui	a7,0xccccd
     1ec:	a0070713          	addi	a4,a4,-1536 # 3b9aca00 <_stack_end+0x3b8a3a64>
     1f0:	04468693          	addi	a3,a3,68 # 4000044 <_stack_end+0x3ef70a8>
     1f4:	04030313          	addi	t1,t1,64 # 4000040 <_stack_end+0x3ef70a4>
     1f8:	ccd88893          	addi	a7,a7,-819 # cccccccd <_stack_end+0xccbc3d31>
     1fc:	00a00593          	li	a1,10
     200:	00000793          	li	a5,0
     204:	00010637          	lui	a2,0x10
     208:	04e57663          	bgeu	a0,a4,254 <print_dec+0x78>
     20c:	00078813          	mv	a6,a5
     210:	00000793          	li	a5,0
     214:	04081063          	bnez	a6,254 <print_dec+0x78>
     218:	03173833          	mulhu	a6,a4,a7
     21c:	fff58593          	addi	a1,a1,-1
     220:	02e57533          	remu	a0,a0,a4
     224:	00385713          	srli	a4,a6,0x3
     228:	fe0590e3          	bnez	a1,208 <print_dec+0x2c>
     22c:	02079263          	bnez	a5,250 <print_dec+0x74>
     230:	04000737          	lui	a4,0x4000
     234:	04470713          	addi	a4,a4,68 # 4000044 <_stack_end+0x3ef70a8>
     238:	000106b7          	lui	a3,0x10
     23c:	00072783          	lw	a5,0(a4)
     240:	fed7eee3          	bltu	a5,a3,23c <print_dec+0x60>
     244:	040007b7          	lui	a5,0x4000
     248:	03000713          	li	a4,48
     24c:	04e7a023          	sw	a4,64(a5) # 4000040 <_stack_end+0x3ef70a4>
     250:	00008067          	ret
     254:	02e55833          	divu	a6,a0,a4
     258:	03080813          	addi	a6,a6,48
     25c:	0ff87813          	zext.b	a6,a6
     260:	0006a783          	lw	a5,0(a3) # 10000 <timeoutcount+0x70f0>
     264:	fec7eee3          	bltu	a5,a2,260 <print_dec+0x84>
     268:	01032023          	sw	a6,0(t1)
     26c:	00100793          	li	a5,1
     270:	fa9ff06f          	j	218 <print_dec+0x3c>

00000274 <print_hex32>:
     274:	04000737          	lui	a4,0x4000
     278:	04470713          	addi	a4,a4,68 # 4000044 <_stack_end+0x3ef70a8>
     27c:	000106b7          	lui	a3,0x10
     280:	00072783          	lw	a5,0(a4)
     284:	fed7eee3          	bltu	a5,a3,280 <print_hex32+0xc>
     288:	040007b7          	lui	a5,0x4000
     28c:	03000693          	li	a3,48
     290:	04d7a023          	sw	a3,64(a5) # 4000040 <_stack_end+0x3ef70a4>
     294:	04478713          	addi	a4,a5,68
     298:	000106b7          	lui	a3,0x10
     29c:	00072783          	lw	a5,0(a4)
     2a0:	fed7eee3          	bltu	a5,a3,29c <print_hex32+0x28>
     2a4:	04000837          	lui	a6,0x4000
     2a8:	04080813          	addi	a6,a6,64 # 4000040 <_stack_end+0x3ef70a4>
     2ac:	07800793          	li	a5,120
     2b0:	04000737          	lui	a4,0x4000
     2b4:	00f82023          	sw	a5,0(a6)
     2b8:	04470713          	addi	a4,a4,68 # 4000044 <_stack_end+0x3ef70a8>
     2bc:	01c00613          	li	a2,28
     2c0:	00900313          	li	t1,9
     2c4:	000106b7          	lui	a3,0x10
     2c8:	ffc00893          	li	a7,-4
     2cc:	00c557b3          	srl	a5,a0,a2
     2d0:	00f7f793          	andi	a5,a5,15
     2d4:	03778593          	addi	a1,a5,55
     2d8:	00f36463          	bltu	t1,a5,2e0 <print_hex32+0x6c>
     2dc:	03078593          	addi	a1,a5,48
     2e0:	00072783          	lw	a5,0(a4)
     2e4:	fed7eee3          	bltu	a5,a3,2e0 <print_hex32+0x6c>
     2e8:	00b82023          	sw	a1,0(a6)
     2ec:	ffc60613          	addi	a2,a2,-4 # fffc <timeoutcount+0x70ec>
     2f0:	fd161ee3          	bne	a2,a7,2cc <print_hex32+0x58>
     2f4:	00008067          	ret

000002f8 <handle_exception>:
     2f8:	00200793          	li	a5,2
     2fc:	1af80463          	beq	a6,a5,4a4 <handle_exception+0x1ac>
     300:	00b00793          	li	a5,11
     304:	12f80663          	beq	a6,a5,430 <handle_exception+0x138>
     308:	14081c63          	bnez	a6,460 <handle_exception+0x168>
     30c:	00009637          	lui	a2,0x9
     310:	000098b7          	lui	a7,0x9
     314:	04000737          	lui	a4,0x4000
     318:	04000837          	lui	a6,0x4000
     31c:	f1460613          	addi	a2,a2,-236 # 8f14 <timeoutcount+0x4>
     320:	f4388893          	addi	a7,a7,-189 # 8f43 <timeoutcount+0x33>
     324:	04470713          	addi	a4,a4,68 # 4000044 <_stack_end+0x3ef70a8>
     328:	04080813          	addi	a6,a6,64 # 4000040 <_stack_end+0x3ef70a4>
     32c:	00a00593          	li	a1,10
     330:	000106b7          	lui	a3,0x10
     334:	00072783          	lw	a5,0(a4)
     338:	fed7eee3          	bltu	a5,a3,334 <handle_exception+0x3c>
     33c:	00b82023          	sw	a1,0(a6)
     340:	00160613          	addi	a2,a2,1
     344:	00064583          	lbu	a1,0(a2)
     348:	ff1616e3          	bne	a2,a7,334 <handle_exception+0x3c>
     34c:	00009637          	lui	a2,0x9
     350:	000098b7          	lui	a7,0x9
     354:	04000737          	lui	a4,0x4000
     358:	04000837          	lui	a6,0x4000
     35c:	f8860613          	addi	a2,a2,-120 # 8f88 <timeoutcount+0x78>
     360:	f9b88893          	addi	a7,a7,-101 # 8f9b <timeoutcount+0x8b>
     364:	04470713          	addi	a4,a4,68 # 4000044 <_stack_end+0x3ef70a8>
     368:	04080813          	addi	a6,a6,64 # 4000040 <_stack_end+0x3ef70a4>
     36c:	04500593          	li	a1,69
     370:	000106b7          	lui	a3,0x10
     374:	00072783          	lw	a5,0(a4)
     378:	fed7eee3          	bltu	a5,a3,374 <handle_exception+0x7c>
     37c:	00b82023          	sw	a1,0(a6)
     380:	00160613          	addi	a2,a2,1
     384:	00064583          	lbu	a1,0(a2)
     388:	ff1616e3          	bne	a2,a7,374 <handle_exception+0x7c>
     38c:	04000737          	lui	a4,0x4000
     390:	04470713          	addi	a4,a4,68 # 4000044 <_stack_end+0x3ef70a8>
     394:	000106b7          	lui	a3,0x10
     398:	00072783          	lw	a5,0(a4)
     39c:	fed7eee3          	bltu	a5,a3,398 <handle_exception+0xa0>
     3a0:	040007b7          	lui	a5,0x4000
     3a4:	03000693          	li	a3,48
     3a8:	04d7a023          	sw	a3,64(a5) # 4000040 <_stack_end+0x3ef70a4>
     3ac:	04478713          	addi	a4,a5,68
     3b0:	000106b7          	lui	a3,0x10
     3b4:	00072783          	lw	a5,0(a4)
     3b8:	fed7eee3          	bltu	a5,a3,3b4 <handle_exception+0xbc>
     3bc:	04000837          	lui	a6,0x4000
     3c0:	04080813          	addi	a6,a6,64 # 4000040 <_stack_end+0x3ef70a4>
     3c4:	07800793          	li	a5,120
     3c8:	04000737          	lui	a4,0x4000
     3cc:	00f82023          	sw	a5,0(a6)
     3d0:	04470713          	addi	a4,a4,68 # 4000044 <_stack_end+0x3ef70a8>
     3d4:	01c00613          	li	a2,28
     3d8:	00900313          	li	t1,9
     3dc:	000106b7          	lui	a3,0x10
     3e0:	ffc00893          	li	a7,-4
     3e4:	00c557b3          	srl	a5,a0,a2
     3e8:	00f7f793          	andi	a5,a5,15
     3ec:	03778593          	addi	a1,a5,55
     3f0:	00f36463          	bltu	t1,a5,3f8 <handle_exception+0x100>
     3f4:	03078593          	addi	a1,a5,48
     3f8:	00072783          	lw	a5,0(a4)
     3fc:	fed7eee3          	bltu	a5,a3,3f8 <handle_exception+0x100>
     400:	00b82023          	sw	a1,0(a6)
     404:	ffc60613          	addi	a2,a2,-4
     408:	fd161ee3          	bne	a2,a7,3e4 <handle_exception+0xec>
     40c:	04000737          	lui	a4,0x4000
     410:	04470713          	addi	a4,a4,68 # 4000044 <_stack_end+0x3ef70a8>
     414:	000106b7          	lui	a3,0x10
     418:	00072783          	lw	a5,0(a4)
     41c:	fed7eee3          	bltu	a5,a3,418 <handle_exception+0x120>
     420:	040007b7          	lui	a5,0x4000
     424:	00a00713          	li	a4,10
     428:	04e7a023          	sw	a4,64(a5) # 4000040 <_stack_end+0x3ef70a4>
     42c:	0000006f          	j	42c <handle_exception+0x134>
     430:	00400793          	li	a5,4
     434:	0af88a63          	beq	a7,a5,4e8 <handle_exception+0x1f0>
     438:	0f089463          	bne	a7,a6,520 <handle_exception+0x228>
     43c:	04000737          	lui	a4,0x4000
     440:	04470713          	addi	a4,a4,68 # 4000044 <_stack_end+0x3ef70a8>
     444:	000106b7          	lui	a3,0x10
     448:	00072783          	lw	a5,0(a4)
     44c:	fed7eee3          	bltu	a5,a3,448 <handle_exception+0x150>
     450:	040007b7          	lui	a5,0x4000
     454:	0ff57513          	zext.b	a0,a0
     458:	04a7a023          	sw	a0,64(a5) # 4000040 <_stack_end+0x3ef70a4>
     45c:	00008067          	ret
     460:	00009637          	lui	a2,0x9
     464:	000098b7          	lui	a7,0x9
     468:	04000737          	lui	a4,0x4000
     46c:	04000837          	lui	a6,0x4000
     470:	f6860613          	addi	a2,a2,-152 # 8f68 <timeoutcount+0x58>
     474:	f8488893          	addi	a7,a7,-124 # 8f84 <timeoutcount+0x74>
     478:	04470713          	addi	a4,a4,68 # 4000044 <_stack_end+0x3ef70a8>
     47c:	04080813          	addi	a6,a6,64 # 4000040 <_stack_end+0x3ef70a4>
     480:	00a00593          	li	a1,10
     484:	000106b7          	lui	a3,0x10
     488:	00072783          	lw	a5,0(a4)
     48c:	fed7eee3          	bltu	a5,a3,488 <handle_exception+0x190>
     490:	00b82023          	sw	a1,0(a6)
     494:	00160613          	addi	a2,a2,1
     498:	00064583          	lbu	a1,0(a2)
     49c:	ff1616e3          	bne	a2,a7,488 <handle_exception+0x190>
     4a0:	eadff06f          	j	34c <handle_exception+0x54>
     4a4:	00009637          	lui	a2,0x9
     4a8:	000098b7          	lui	a7,0x9
     4ac:	04000737          	lui	a4,0x4000
     4b0:	04000837          	lui	a6,0x4000
     4b4:	f4460613          	addi	a2,a2,-188 # 8f44 <timeoutcount+0x34>
     4b8:	f6688893          	addi	a7,a7,-154 # 8f66 <timeoutcount+0x56>
     4bc:	04470713          	addi	a4,a4,68 # 4000044 <_stack_end+0x3ef70a8>
     4c0:	04080813          	addi	a6,a6,64 # 4000040 <_stack_end+0x3ef70a4>
     4c4:	00a00593          	li	a1,10
     4c8:	000106b7          	lui	a3,0x10
     4cc:	00072783          	lw	a5,0(a4)
     4d0:	fed7eee3          	bltu	a5,a3,4cc <handle_exception+0x1d4>
     4d4:	00b82023          	sw	a1,0(a6)
     4d8:	00160613          	addi	a2,a2,1
     4dc:	00064583          	lbu	a1,0(a2)
     4e0:	ff1616e3          	bne	a2,a7,4cc <handle_exception+0x1d4>
     4e4:	e69ff06f          	j	34c <handle_exception+0x54>
     4e8:	00054603          	lbu	a2,0(a0)
     4ec:	02060a63          	beqz	a2,520 <handle_exception+0x228>
     4f0:	04000737          	lui	a4,0x4000
     4f4:	040005b7          	lui	a1,0x4000
     4f8:	04470713          	addi	a4,a4,68 # 4000044 <_stack_end+0x3ef70a8>
     4fc:	04058593          	addi	a1,a1,64 # 4000040 <_stack_end+0x3ef70a4>
     500:	000106b7          	lui	a3,0x10
     504:	00072783          	lw	a5,0(a4)
     508:	fed7eee3          	bltu	a5,a3,504 <handle_exception+0x20c>
     50c:	00c5a023          	sw	a2,0(a1)
     510:	00154603          	lbu	a2,1(a0)
     514:	00150513          	addi	a0,a0,1
     518:	fe0616e3          	bnez	a2,504 <handle_exception+0x20c>
     51c:	00008067          	ret
     520:	00008067          	ret

00000524 <nextprime>:
     524:	00200793          	li	a5,2
     528:	02a7c063          	blt	a5,a0,548 <nextprime+0x24>
     52c:	00100693          	li	a3,1
     530:	00a05863          	blez	a0,540 <nextprime+0x1c>
     534:	fff50793          	addi	a5,a0,-1
     538:	00f037b3          	snez	a5,a5
     53c:	00278693          	addi	a3,a5,2
     540:	00068513          	mv	a0,a3
     544:	00008067          	ret
     548:	00150513          	addi	a0,a0,1
     54c:	00156693          	ori	a3,a0,1
     550:	00300793          	li	a5,3
     554:	02f6e733          	rem	a4,a3,a5
     558:	4016d613          	srai	a2,a3,0x1
     55c:	00260613          	addi	a2,a2,2
     560:	00178793          	addi	a5,a5,1
     564:	00070a63          	beqz	a4,578 <nextprime+0x54>
     568:	fcf60ce3          	beq	a2,a5,540 <nextprime+0x1c>
     56c:	02f6e733          	rem	a4,a3,a5
     570:	00178793          	addi	a5,a5,1
     574:	fe071ae3          	bnez	a4,568 <nextprime+0x44>
     578:	00268693          	addi	a3,a3,2 # 10002 <timeoutcount+0x70f2>
     57c:	fd5ff06f          	j	550 <nextprime+0x2c>

00000580 <set_rand_seed>:
     580:	000097b7          	lui	a5,0x9
     584:	f0a7a623          	sw	a0,-244(a5) # 8f0c <seed>
     588:	00008067          	ret

0000058c <rand>:
     58c:	00009737          	lui	a4,0x9
     590:	f0c72683          	lw	a3,-244(a4) # 8f0c <seed>
     594:	00269793          	slli	a5,a3,0x2
     598:	00d787b3          	add	a5,a5,a3
     59c:	00479513          	slli	a0,a5,0x4
     5a0:	40f50533          	sub	a0,a0,a5
     5a4:	0b350513          	addi	a0,a0,179
     5a8:	03f57513          	andi	a0,a0,63
     5ac:	f0a72623          	sw	a0,-244(a4)
     5b0:	00008067          	ret

000005b4 <delay>:
     5b4:	00008067          	ret

000005b8 <spawn_piece>:
     5b8:	00003737          	lui	a4,0x3
     5bc:	fe070713          	addi	a4,a4,-32 # 2fe0 <current_piece>
     5c0:	05050693          	addi	a3,a0,80
     5c4:	00070793          	mv	a5,a4
     5c8:	00852603          	lw	a2,8(a0)
     5cc:	00052803          	lw	a6,0(a0)
     5d0:	00452583          	lw	a1,4(a0)
     5d4:	00c7a423          	sw	a2,8(a5)
     5d8:	0107a023          	sw	a6,0(a5)
     5dc:	00b7a223          	sw	a1,4(a5)
     5e0:	00c52603          	lw	a2,12(a0)
     5e4:	01050513          	addi	a0,a0,16
     5e8:	01078793          	addi	a5,a5,16
     5ec:	fec7ae23          	sw	a2,-4(a5)
     5f0:	fcd51ce3          	bne	a0,a3,5c8 <spawn_piece+0x10>
     5f4:	00300793          	li	a5,3
     5f8:	00072423          	sw	zero,8(a4)
     5fc:	00f72223          	sw	a5,4(a4)
     600:	00008067          	ret

00000604 <spawn_next>:
     604:	000036b7          	lui	a3,0x3
     608:	fe068693          	addi	a3,a3,-32 # 2fe0 <current_piece>
     60c:	05068793          	addi	a5,a3,80
     610:	00068713          	mv	a4,a3
     614:	0a068613          	addi	a2,a3,160
     618:	0087a583          	lw	a1,8(a5)
     61c:	0007a803          	lw	a6,0(a5)
     620:	0047a503          	lw	a0,4(a5)
     624:	00b72423          	sw	a1,8(a4)
     628:	01072023          	sw	a6,0(a4)
     62c:	00a72223          	sw	a0,4(a4)
     630:	00c7a583          	lw	a1,12(a5)
     634:	01078793          	addi	a5,a5,16
     638:	01070713          	addi	a4,a4,16
     63c:	feb72e23          	sw	a1,-4(a4)
     640:	fcc79ce3          	bne	a5,a2,618 <spawn_next+0x14>
     644:	00009537          	lui	a0,0x9
     648:	f0c52603          	lw	a2,-244(a0) # 8f0c <seed>
     64c:	24925737          	lui	a4,0x24925
     650:	92570713          	addi	a4,a4,-1755 # 24924925 <_stack_end+0x2481b989>
     654:	00261793          	slli	a5,a2,0x2
     658:	00c787b3          	add	a5,a5,a2
     65c:	00479593          	slli	a1,a5,0x4
     660:	40f585b3          	sub	a1,a1,a5
     664:	0b358593          	addi	a1,a1,179
     668:	03f5f593          	andi	a1,a1,63
     66c:	0ff5f613          	zext.b	a2,a1
     670:	02e63733          	mulhu	a4,a2,a4
     674:	f0b52623          	sw	a1,-244(a0)
     678:	000037b7          	lui	a5,0x3
     67c:	dac78793          	addi	a5,a5,-596 # 2dac <pieces>
     680:	05068593          	addi	a1,a3,80
     684:	40e60533          	sub	a0,a2,a4
     688:	00155513          	srli	a0,a0,0x1
     68c:	00a70733          	add	a4,a4,a0
     690:	00275713          	srli	a4,a4,0x2
     694:	00371513          	slli	a0,a4,0x3
     698:	40e50733          	sub	a4,a0,a4
     69c:	40e60633          	sub	a2,a2,a4
     6a0:	0ff67613          	zext.b	a2,a2
     6a4:	00261713          	slli	a4,a2,0x2
     6a8:	00c70733          	add	a4,a4,a2
     6ac:	00471713          	slli	a4,a4,0x4
     6b0:	00e787b3          	add	a5,a5,a4
     6b4:	05078713          	addi	a4,a5,80
     6b8:	0087a603          	lw	a2,8(a5)
     6bc:	0007a803          	lw	a6,0(a5)
     6c0:	0047a503          	lw	a0,4(a5)
     6c4:	00c5a423          	sw	a2,8(a1)
     6c8:	0105a023          	sw	a6,0(a1)
     6cc:	00a5a223          	sw	a0,4(a1)
     6d0:	00c7a603          	lw	a2,12(a5)
     6d4:	01078793          	addi	a5,a5,16
     6d8:	01058593          	addi	a1,a1,16
     6dc:	fec5ae23          	sw	a2,-4(a1)
     6e0:	fce79ce3          	bne	a5,a4,6b8 <spawn_next+0xb4>
     6e4:	00300793          	li	a5,3
     6e8:	0006a423          	sw	zero,8(a3)
     6ec:	00f6a223          	sw	a5,4(a3)
     6f0:	00008067          	ret

000006f4 <labinit>:
     6f4:	ffffc6b7          	lui	a3,0xffffc
     6f8:	040007b7          	lui	a5,0x4000
     6fc:	6bf68693          	addi	a3,a3,1727 # ffffc6bf <_stack_end+0xffef3723>
     700:	02d79423          	sh	a3,40(a5) # 4000028 <_stack_end+0x3ef708c>
     704:	02d00693          	li	a3,45
     708:	02d79623          	sh	a3,44(a5)
     70c:	00700693          	li	a3,7
     710:	02d79223          	sh	a3,36(a5)
     714:	00100693          	li	a3,1
     718:	0cd7ac23          	sw	a3,216(a5)
     71c:	0cd7ae23          	sw	a3,220(a5)
     720:	a55ff06f          	j	174 <enable_interrupt>

00000724 <get_btn>:
     724:	040007b7          	lui	a5,0x4000
     728:	0d07a503          	lw	a0,208(a5) # 40000d0 <_stack_end+0x3ef7134>
     72c:	00157513          	andi	a0,a0,1
     730:	00008067          	ret

00000734 <get_sw>:
     734:	040007b7          	lui	a5,0x4000
     738:	0107a503          	lw	a0,16(a5) # 4000010 <_stack_end+0x3ef7074>
     73c:	3ff57513          	andi	a0,a0,1023
     740:	00008067          	ret

00000744 <draw_grid>:
     744:	000037b7          	lui	a5,0x3
     748:	fe078793          	addi	a5,a5,-32 # 2fe0 <current_piece>
     74c:	00003eb7          	lui	t4,0x3
     750:	0a078f93          	addi	t6,a5,160
     754:	16878f13          	addi	t5,a5,360
     758:	2c8e8e93          	addi	t4,t4,712 # 32c8 <locked_pieces+0x180>
     75c:	01200713          	li	a4,18
     760:	08100313          	li	t1,129
     764:	00800813          	li	a6,8
     768:	fb0e8e13          	addi	t3,t4,-80
     76c:	000f8593          	mv	a1,t6
     770:	0005c883          	lbu	a7,0(a1)
     774:	00089463          	bnez	a7,77c <draw_grid+0x38>
     778:	01200893          	li	a7,18
     77c:	01c507b3          	add	a5,a0,t3
     780:	08100613          	li	a2,129
     784:	00000693          	li	a3,0
     788:	0600006f          	j	7e8 <draw_grid+0xa4>
     78c:	0005c603          	lbu	a2,0(a1)
     790:	0c061863          	bnez	a2,860 <__heap_size+0x60>
     794:	000780a3          	sb	zero,1(a5)
     798:	0005c603          	lbu	a2,0(a1)
     79c:	0a061e63          	bnez	a2,858 <__heap_size+0x58>
     7a0:	00078123          	sb	zero,2(a5)
     7a4:	0005c603          	lbu	a2,0(a1)
     7a8:	0a061463          	bnez	a2,850 <__heap_size+0x50>
     7ac:	000781a3          	sb	zero,3(a5)
     7b0:	0005c603          	lbu	a2,0(a1)
     7b4:	08061a63          	bnez	a2,848 <__heap_size+0x48>
     7b8:	00078223          	sb	zero,4(a5)
     7bc:	0005c603          	lbu	a2,0(a1)
     7c0:	08061063          	bnez	a2,840 <__heap_size+0x40>
     7c4:	000782a3          	sb	zero,5(a5)
     7c8:	0005c603          	lbu	a2,0(a1)
     7cc:	06061663          	bnez	a2,838 <__heap_size+0x38>
     7d0:	00078323          	sb	zero,6(a5)
     7d4:	00e783a3          	sb	a4,7(a5)
     7d8:	00168693          	addi	a3,a3,1
     7dc:	03068e63          	beq	a3,a6,818 <__heap_size+0x18>
     7e0:	14078793          	addi	a5,a5,320
     7e4:	00d35633          	srl	a2,t1,a3
     7e8:	00e78023          	sb	a4,0(a5)
     7ec:	00167613          	andi	a2,a2,1
     7f0:	f8060ee3          	beqz	a2,78c <draw_grid+0x48>
     7f4:	00e780a3          	sb	a4,1(a5)
     7f8:	00e78123          	sb	a4,2(a5)
     7fc:	00e781a3          	sb	a4,3(a5)
     800:	00e78223          	sb	a4,4(a5)
     804:	00e782a3          	sb	a4,5(a5)
     808:	00e78323          	sb	a4,6(a5)
     80c:	00e783a3          	sb	a4,7(a5)
     810:	00168693          	addi	a3,a3,1
     814:	fd0696e3          	bne	a3,a6,7e0 <draw_grid+0x9c>
     818:	008e0e13          	addi	t3,t3,8
     81c:	00158593          	addi	a1,a1,1
     820:	f5de18e3          	bne	t3,t4,770 <draw_grid+0x2c>
     824:	7ffe0e93          	addi	t4,t3,2047
     828:	00af8f93          	addi	t6,t6,10
     82c:	201e8e93          	addi	t4,t4,513
     830:	f3ef9ce3          	bne	t6,t5,768 <draw_grid+0x24>
     834:	00008067          	ret
     838:	01178323          	sb	a7,6(a5)
     83c:	f99ff06f          	j	7d4 <draw_grid+0x90>
     840:	011782a3          	sb	a7,5(a5)
     844:	f85ff06f          	j	7c8 <draw_grid+0x84>
     848:	01178223          	sb	a7,4(a5)
     84c:	f71ff06f          	j	7bc <draw_grid+0x78>
     850:	011781a3          	sb	a7,3(a5)
     854:	f5dff06f          	j	7b0 <draw_grid+0x6c>
     858:	01178123          	sb	a7,2(a5)
     85c:	f49ff06f          	j	7a4 <draw_grid+0x60>
     860:	011780a3          	sb	a7,1(a5)
     864:	f35ff06f          	j	798 <draw_grid+0x54>

00000868 <draw_shape>:
     868:	00000893          	li	a7,0
     86c:	00400313          	li	t1,4
     870:	00489693          	slli	a3,a7,0x4
     874:	00d586b3          	add	a3,a1,a3
     878:	00000713          	li	a4,0
     87c:	0106a783          	lw	a5,16(a3)
     880:	00079e63          	bnez	a5,89c <draw_shape+0x34>
     884:	00170713          	addi	a4,a4,1
     888:	00468693          	addi	a3,a3,4
     88c:	fe6718e3          	bne	a4,t1,87c <draw_shape+0x14>
     890:	00188893          	addi	a7,a7,1
     894:	fce89ee3          	bne	a7,a4,870 <draw_shape+0x8>
     898:	00008067          	ret
     89c:	0085a603          	lw	a2,8(a1)
     8a0:	0045a803          	lw	a6,4(a1)
     8a4:	00c5ce03          	lbu	t3,12(a1)
     8a8:	00c88633          	add	a2,a7,a2
     8ac:	00560613          	addi	a2,a2,5
     8b0:	00261793          	slli	a5,a2,0x2
     8b4:	00c787b3          	add	a5,a5,a2
     8b8:	01070633          	add	a2,a4,a6
     8bc:	00f60613          	addi	a2,a2,15
     8c0:	00679793          	slli	a5,a5,0x6
     8c4:	00c787b3          	add	a5,a5,a2
     8c8:	00379793          	slli	a5,a5,0x3
     8cc:	00f50833          	add	a6,a0,a5
     8d0:	00178613          	addi	a2,a5,1
     8d4:	01c80023          	sb	t3,0(a6)
     8d8:	00c50633          	add	a2,a0,a2
     8dc:	01c60023          	sb	t3,0(a2)
     8e0:	00c5ce03          	lbu	t3,12(a1)
     8e4:	00278813          	addi	a6,a5,2
     8e8:	01050833          	add	a6,a0,a6
     8ec:	00378613          	addi	a2,a5,3
     8f0:	01c80023          	sb	t3,0(a6)
     8f4:	00c50633          	add	a2,a0,a2
     8f8:	01c60023          	sb	t3,0(a2)
     8fc:	00c5ce03          	lbu	t3,12(a1)
     900:	00478813          	addi	a6,a5,4
     904:	01050833          	add	a6,a0,a6
     908:	00578613          	addi	a2,a5,5
     90c:	01c80023          	sb	t3,0(a6)
     910:	00c50633          	add	a2,a0,a2
     914:	01c60023          	sb	t3,0(a2)
     918:	00c5ce03          	lbu	t3,12(a1)
     91c:	00678813          	addi	a6,a5,6
     920:	01050833          	add	a6,a0,a6
     924:	00778613          	addi	a2,a5,7
     928:	01c80023          	sb	t3,0(a6)
     92c:	00c50633          	add	a2,a0,a2
     930:	01c60023          	sb	t3,0(a2)
     934:	00c5ce03          	lbu	t3,12(a1)
     938:	14078813          	addi	a6,a5,320
     93c:	01050833          	add	a6,a0,a6
     940:	14178613          	addi	a2,a5,321
     944:	01c80023          	sb	t3,0(a6)
     948:	00c50633          	add	a2,a0,a2
     94c:	01c60023          	sb	t3,0(a2)
     950:	00c5ce03          	lbu	t3,12(a1)
     954:	14278813          	addi	a6,a5,322
     958:	01050833          	add	a6,a0,a6
     95c:	14378613          	addi	a2,a5,323
     960:	01c80023          	sb	t3,0(a6)
     964:	00c50633          	add	a2,a0,a2
     968:	01c60023          	sb	t3,0(a2)
     96c:	00c5ce03          	lbu	t3,12(a1)
     970:	14478813          	addi	a6,a5,324
     974:	01050833          	add	a6,a0,a6
     978:	14578613          	addi	a2,a5,325
     97c:	01c80023          	sb	t3,0(a6)
     980:	00c50633          	add	a2,a0,a2
     984:	01c60023          	sb	t3,0(a2)
     988:	00c5ce03          	lbu	t3,12(a1)
     98c:	14678813          	addi	a6,a5,326
     990:	01050833          	add	a6,a0,a6
     994:	14778613          	addi	a2,a5,327
     998:	01c80023          	sb	t3,0(a6)
     99c:	00c50633          	add	a2,a0,a2
     9a0:	01c60023          	sb	t3,0(a2)
     9a4:	00c5ce03          	lbu	t3,12(a1)
     9a8:	28078813          	addi	a6,a5,640
     9ac:	01050833          	add	a6,a0,a6
     9b0:	28178613          	addi	a2,a5,641
     9b4:	01c80023          	sb	t3,0(a6)
     9b8:	00c50633          	add	a2,a0,a2
     9bc:	01c60023          	sb	t3,0(a2)
     9c0:	00c5ce03          	lbu	t3,12(a1)
     9c4:	28278813          	addi	a6,a5,642
     9c8:	01050833          	add	a6,a0,a6
     9cc:	28378613          	addi	a2,a5,643
     9d0:	01c80023          	sb	t3,0(a6)
     9d4:	00c50633          	add	a2,a0,a2
     9d8:	01c60023          	sb	t3,0(a2)
     9dc:	00c5ce03          	lbu	t3,12(a1)
     9e0:	28478813          	addi	a6,a5,644
     9e4:	01050833          	add	a6,a0,a6
     9e8:	28578613          	addi	a2,a5,645
     9ec:	01c80023          	sb	t3,0(a6)
     9f0:	00c50633          	add	a2,a0,a2
     9f4:	01c60023          	sb	t3,0(a2)
     9f8:	00c5ce03          	lbu	t3,12(a1)
     9fc:	28678813          	addi	a6,a5,646
     a00:	01050833          	add	a6,a0,a6
     a04:	28778613          	addi	a2,a5,647
     a08:	01c80023          	sb	t3,0(a6)
     a0c:	00c50633          	add	a2,a0,a2
     a10:	01c60023          	sb	t3,0(a2)
     a14:	00c5ce03          	lbu	t3,12(a1)
     a18:	3c078813          	addi	a6,a5,960
     a1c:	01050833          	add	a6,a0,a6
     a20:	3c178613          	addi	a2,a5,961
     a24:	01c80023          	sb	t3,0(a6)
     a28:	00c50633          	add	a2,a0,a2
     a2c:	01c60023          	sb	t3,0(a2)
     a30:	00c5ce03          	lbu	t3,12(a1)
     a34:	3c278813          	addi	a6,a5,962
     a38:	01050833          	add	a6,a0,a6
     a3c:	3c378613          	addi	a2,a5,963
     a40:	01c80023          	sb	t3,0(a6)
     a44:	00c50633          	add	a2,a0,a2
     a48:	01c60023          	sb	t3,0(a2)
     a4c:	00c5ce03          	lbu	t3,12(a1)
     a50:	3c478813          	addi	a6,a5,964
     a54:	01050833          	add	a6,a0,a6
     a58:	3c578613          	addi	a2,a5,965
     a5c:	01c80023          	sb	t3,0(a6)
     a60:	00c50633          	add	a2,a0,a2
     a64:	01c60023          	sb	t3,0(a2)
     a68:	00c5ce03          	lbu	t3,12(a1)
     a6c:	3c678813          	addi	a6,a5,966
     a70:	01050833          	add	a6,a0,a6
     a74:	3c778613          	addi	a2,a5,967
     a78:	01c80023          	sb	t3,0(a6)
     a7c:	00c50633          	add	a2,a0,a2
     a80:	01c60023          	sb	t3,0(a2)
     a84:	00c5ce03          	lbu	t3,12(a1)
     a88:	50078813          	addi	a6,a5,1280
     a8c:	01050833          	add	a6,a0,a6
     a90:	50178613          	addi	a2,a5,1281
     a94:	01c80023          	sb	t3,0(a6)
     a98:	00c50633          	add	a2,a0,a2
     a9c:	01c60023          	sb	t3,0(a2)
     aa0:	00c5ce03          	lbu	t3,12(a1)
     aa4:	50278813          	addi	a6,a5,1282
     aa8:	01050833          	add	a6,a0,a6
     aac:	50378613          	addi	a2,a5,1283
     ab0:	01c80023          	sb	t3,0(a6)
     ab4:	00c50633          	add	a2,a0,a2
     ab8:	01c60023          	sb	t3,0(a2)
     abc:	00c5ce03          	lbu	t3,12(a1)
     ac0:	50478813          	addi	a6,a5,1284
     ac4:	01050833          	add	a6,a0,a6
     ac8:	50578613          	addi	a2,a5,1285
     acc:	01c80023          	sb	t3,0(a6)
     ad0:	00c50633          	add	a2,a0,a2
     ad4:	01c60023          	sb	t3,0(a2)
     ad8:	00c5ce03          	lbu	t3,12(a1)
     adc:	50678813          	addi	a6,a5,1286
     ae0:	01050833          	add	a6,a0,a6
     ae4:	50778613          	addi	a2,a5,1287
     ae8:	01c80023          	sb	t3,0(a6)
     aec:	00c50633          	add	a2,a0,a2
     af0:	01c60023          	sb	t3,0(a2)
     af4:	00c5ce03          	lbu	t3,12(a1)
     af8:	64078813          	addi	a6,a5,1600
     afc:	01050833          	add	a6,a0,a6
     b00:	64178613          	addi	a2,a5,1601
     b04:	01c80023          	sb	t3,0(a6)
     b08:	00c50633          	add	a2,a0,a2
     b0c:	01c60023          	sb	t3,0(a2)
     b10:	00c5ce03          	lbu	t3,12(a1)
     b14:	64278813          	addi	a6,a5,1602
     b18:	01050833          	add	a6,a0,a6
     b1c:	64378613          	addi	a2,a5,1603
     b20:	01c80023          	sb	t3,0(a6)
     b24:	00c50633          	add	a2,a0,a2
     b28:	01c60023          	sb	t3,0(a2)
     b2c:	00c5ce03          	lbu	t3,12(a1)
     b30:	64478813          	addi	a6,a5,1604
     b34:	01050833          	add	a6,a0,a6
     b38:	64578613          	addi	a2,a5,1605
     b3c:	01c80023          	sb	t3,0(a6)
     b40:	00c50633          	add	a2,a0,a2
     b44:	01c60023          	sb	t3,0(a2)
     b48:	00c5ce03          	lbu	t3,12(a1)
     b4c:	64678813          	addi	a6,a5,1606
     b50:	01050833          	add	a6,a0,a6
     b54:	64778613          	addi	a2,a5,1607
     b58:	01c80023          	sb	t3,0(a6)
     b5c:	00c50633          	add	a2,a0,a2
     b60:	01c60023          	sb	t3,0(a2)
     b64:	00c5ce03          	lbu	t3,12(a1)
     b68:	78078813          	addi	a6,a5,1920
     b6c:	01050833          	add	a6,a0,a6
     b70:	78178613          	addi	a2,a5,1921
     b74:	01c80023          	sb	t3,0(a6)
     b78:	00c50633          	add	a2,a0,a2
     b7c:	01c60023          	sb	t3,0(a2)
     b80:	00c5ce03          	lbu	t3,12(a1)
     b84:	78278813          	addi	a6,a5,1922
     b88:	01050833          	add	a6,a0,a6
     b8c:	78378613          	addi	a2,a5,1923
     b90:	01c80023          	sb	t3,0(a6)
     b94:	00c50633          	add	a2,a0,a2
     b98:	01c60023          	sb	t3,0(a2)
     b9c:	00c5ce03          	lbu	t3,12(a1)
     ba0:	78478813          	addi	a6,a5,1924
     ba4:	01050833          	add	a6,a0,a6
     ba8:	78578613          	addi	a2,a5,1925
     bac:	01c80023          	sb	t3,0(a6)
     bb0:	00c50633          	add	a2,a0,a2
     bb4:	01c60023          	sb	t3,0(a2)
     bb8:	00c5ce03          	lbu	t3,12(a1)
     bbc:	78678813          	addi	a6,a5,1926
     bc0:	01050833          	add	a6,a0,a6
     bc4:	78778613          	addi	a2,a5,1927
     bc8:	01c80023          	sb	t3,0(a6)
     bcc:	00c50633          	add	a2,a0,a2
     bd0:	01c60023          	sb	t3,0(a2)
     bd4:	00c5ce03          	lbu	t3,12(a1)
     bd8:	7ff78813          	addi	a6,a5,2047
     bdc:	7ff78613          	addi	a2,a5,2047
     be0:	0c180813          	addi	a6,a6,193
     be4:	01050833          	add	a6,a0,a6
     be8:	0c260613          	addi	a2,a2,194
     bec:	01c80023          	sb	t3,0(a6)
     bf0:	00c50633          	add	a2,a0,a2
     bf4:	01c60023          	sb	t3,0(a2)
     bf8:	00c5ce03          	lbu	t3,12(a1)
     bfc:	7ff78813          	addi	a6,a5,2047
     c00:	7ff78613          	addi	a2,a5,2047
     c04:	0c380813          	addi	a6,a6,195
     c08:	01050833          	add	a6,a0,a6
     c0c:	0c460613          	addi	a2,a2,196
     c10:	01c80023          	sb	t3,0(a6)
     c14:	00c50633          	add	a2,a0,a2
     c18:	01c60023          	sb	t3,0(a2)
     c1c:	00c5ce03          	lbu	t3,12(a1)
     c20:	7ff78813          	addi	a6,a5,2047
     c24:	7ff78613          	addi	a2,a5,2047
     c28:	0c580813          	addi	a6,a6,197
     c2c:	01050833          	add	a6,a0,a6
     c30:	0c660613          	addi	a2,a2,198
     c34:	01c80023          	sb	t3,0(a6)
     c38:	00c50633          	add	a2,a0,a2
     c3c:	01c60023          	sb	t3,0(a2)
     c40:	00c5c803          	lbu	a6,12(a1)
     c44:	7ff78613          	addi	a2,a5,2047
     c48:	0c760613          	addi	a2,a2,199
     c4c:	7ff78793          	addi	a5,a5,2047
     c50:	00c50633          	add	a2,a0,a2
     c54:	0c878793          	addi	a5,a5,200
     c58:	01060023          	sb	a6,0(a2)
     c5c:	00f507b3          	add	a5,a0,a5
     c60:	01078023          	sb	a6,0(a5)
     c64:	c21ff06f          	j	884 <draw_shape+0x1c>

00000c68 <draw_next_piece>:
     c68:	00003637          	lui	a2,0x3
     c6c:	20060613          	addi	a2,a2,512 # 3200 <locked_pieces+0xb8>
     c70:	fc010113          	addi	sp,sp,-64
     c74:	40c50833          	sub	a6,a0,a2
     c78:	00003737          	lui	a4,0x3
     c7c:	00003537          	lui	a0,0x3
     c80:	000037b7          	lui	a5,0x3
     c84:	03412623          	sw	s4,44(sp)
     c88:	03512423          	sw	s5,40(sp)
     c8c:	03612223          	sw	s6,36(sp)
     c90:	03712023          	sw	s7,32(sp)
     c94:	01812e23          	sw	s8,28(sp)
     c98:	01912c23          	sw	s9,24(sp)
     c9c:	01a12a23          	sw	s10,20(sp)
     ca0:	01b12823          	sw	s11,16(sp)
     ca4:	00003d37          	lui	s10,0x3
     ca8:	00003db7          	lui	s11,0x3
     cac:	00003cb7          	lui	s9,0x3
     cb0:	00003c37          	lui	s8,0x3
     cb4:	00003bb7          	lui	s7,0x3
     cb8:	00003b37          	lui	s6,0x3
     cbc:	00003ab7          	lui	s5,0x3
     cc0:	00003a37          	lui	s4,0x3
     cc4:	44450513          	addi	a0,a0,1092 # 3444 <locked_pieces+0x2fc>
     cc8:	44570713          	addi	a4,a4,1093 # 3445 <locked_pieces+0x2fd>
     ccc:	44678793          	addi	a5,a5,1094 # 3446 <locked_pieces+0x2fe>
     cd0:	02812e23          	sw	s0,60(sp)
     cd4:	02912c23          	sw	s1,56(sp)
     cd8:	03212a23          	sw	s2,52(sp)
     cdc:	03312823          	sw	s3,48(sp)
     ce0:	01058693          	addi	a3,a1,16
     ce4:	304d8d93          	addi	s11,s11,772 # 3304 <locked_pieces+0x1bc>
     ce8:	305d0d13          	addi	s10,s10,773 # 3305 <locked_pieces+0x1bd>
     cec:	306c8c93          	addi	s9,s9,774 # 3306 <locked_pieces+0x1be>
     cf0:	307c0c13          	addi	s8,s8,775 # 3307 <locked_pieces+0x1bf>
     cf4:	308b8b93          	addi	s7,s7,776 # 3308 <locked_pieces+0x1c0>
     cf8:	309b0b13          	addi	s6,s6,777 # 3309 <locked_pieces+0x1c1>
     cfc:	30aa8a93          	addi	s5,s5,778 # 330a <locked_pieces+0x1c2>
     d00:	30ba0a13          	addi	s4,s4,779 # 330b <locked_pieces+0x1c3>
     d04:	00a12223          	sw	a0,4(sp)
     d08:	00e12423          	sw	a4,8(sp)
     d0c:	00f12623          	sw	a5,12(sp)
     d10:	00003437          	lui	s0,0x3
     d14:	00003937          	lui	s2,0x3
     d18:	000034b7          	lui	s1,0x3
     d1c:	44a40393          	addi	t2,s0,1098 # 344a <locked_pieces+0x302>
     d20:	44b40293          	addi	t0,s0,1099
     d24:	58440f93          	addi	t6,s0,1412
     d28:	58540f13          	addi	t5,s0,1413
     d2c:	58640e93          	addi	t4,s0,1414
     d30:	58740e13          	addi	t3,s0,1415
     d34:	58840313          	addi	t1,s0,1416
     d38:	58940893          	addi	a7,s0,1417
     d3c:	44790913          	addi	s2,s2,1095 # 3447 <locked_pieces+0x2ff>
     d40:	44848493          	addi	s1,s1,1096 # 3448 <locked_pieces+0x300>
     d44:	44940413          	addi	s0,s0,1097
     d48:	ff068713          	addi	a4,a3,-16
     d4c:	00c807b3          	add	a5,a6,a2
     d50:	00c12023          	sw	a2,0(sp)
     d54:	01072603          	lw	a2,16(a4)
     d58:	06061263          	bnez	a2,dbc <draw_next_piece+0x154>
     d5c:	00470713          	addi	a4,a4,4
     d60:	00878793          	addi	a5,a5,8
     d64:	fee698e3          	bne	a3,a4,d54 <draw_next_piece+0xec>
     d68:	00012603          	lw	a2,0(sp)
     d6c:	000067b7          	lui	a5,0x6
     d70:	a0078793          	addi	a5,a5,-1536 # 5a00 <__global_pointer+0x2224>
     d74:	7ff60613          	addi	a2,a2,2047
     d78:	20160613          	addi	a2,a2,513
     d7c:	01068693          	addi	a3,a3,16
     d80:	f8f618e3          	bne	a2,a5,d10 <draw_next_piece+0xa8>
     d84:	03c12403          	lw	s0,60(sp)
     d88:	03812483          	lw	s1,56(sp)
     d8c:	03412903          	lw	s2,52(sp)
     d90:	03012983          	lw	s3,48(sp)
     d94:	02c12a03          	lw	s4,44(sp)
     d98:	02812a83          	lw	s5,40(sp)
     d9c:	02412b03          	lw	s6,36(sp)
     da0:	02012b83          	lw	s7,32(sp)
     da4:	01c12c03          	lw	s8,28(sp)
     da8:	01812c83          	lw	s9,24(sp)
     dac:	01412d03          	lw	s10,20(sp)
     db0:	01012d83          	lw	s11,16(sp)
     db4:	04010113          	addi	sp,sp,64
     db8:	00008067          	ret
     dbc:	00c5c983          	lbu	s3,12(a1)
     dc0:	01b78533          	add	a0,a5,s11
     dc4:	01a78633          	add	a2,a5,s10
     dc8:	01350023          	sb	s3,0(a0)
     dcc:	01360023          	sb	s3,0(a2)
     dd0:	00c5c983          	lbu	s3,12(a1)
     dd4:	01978533          	add	a0,a5,s9
     dd8:	01878633          	add	a2,a5,s8
     ddc:	01350023          	sb	s3,0(a0)
     de0:	01360023          	sb	s3,0(a2)
     de4:	00c5c983          	lbu	s3,12(a1)
     de8:	01778533          	add	a0,a5,s7
     dec:	01678633          	add	a2,a5,s6
     df0:	01350023          	sb	s3,0(a0)
     df4:	01360023          	sb	s3,0(a2)
     df8:	00c5c983          	lbu	s3,12(a1)
     dfc:	01578533          	add	a0,a5,s5
     e00:	01478633          	add	a2,a5,s4
     e04:	01350023          	sb	s3,0(a0)
     e08:	01360023          	sb	s3,0(a2)
     e0c:	00412603          	lw	a2,4(sp)
     e10:	00c5c983          	lbu	s3,12(a1)
     e14:	00c78533          	add	a0,a5,a2
     e18:	00812603          	lw	a2,8(sp)
     e1c:	01350023          	sb	s3,0(a0)
     e20:	00c78633          	add	a2,a5,a2
     e24:	01360023          	sb	s3,0(a2)
     e28:	00c12603          	lw	a2,12(sp)
     e2c:	00c5c983          	lbu	s3,12(a1)
     e30:	00c78533          	add	a0,a5,a2
     e34:	01350023          	sb	s3,0(a0)
     e38:	01278633          	add	a2,a5,s2
     e3c:	01360023          	sb	s3,0(a2)
     e40:	00c5c983          	lbu	s3,12(a1)
     e44:	00978533          	add	a0,a5,s1
     e48:	00878633          	add	a2,a5,s0
     e4c:	01350023          	sb	s3,0(a0)
     e50:	01360023          	sb	s3,0(a2)
     e54:	00c5c983          	lbu	s3,12(a1)
     e58:	00778533          	add	a0,a5,t2
     e5c:	00578633          	add	a2,a5,t0
     e60:	01350023          	sb	s3,0(a0)
     e64:	01360023          	sb	s3,0(a2)
     e68:	00c5c983          	lbu	s3,12(a1)
     e6c:	01f78533          	add	a0,a5,t6
     e70:	01e78633          	add	a2,a5,t5
     e74:	01350023          	sb	s3,0(a0)
     e78:	01360023          	sb	s3,0(a2)
     e7c:	00c5c983          	lbu	s3,12(a1)
     e80:	01d78533          	add	a0,a5,t4
     e84:	01c78633          	add	a2,a5,t3
     e88:	01350023          	sb	s3,0(a0)
     e8c:	01360023          	sb	s3,0(a2)
     e90:	00c5c983          	lbu	s3,12(a1)
     e94:	00678533          	add	a0,a5,t1
     e98:	01178633          	add	a2,a5,a7
     e9c:	01350023          	sb	s3,0(a0)
     ea0:	01360023          	sb	s3,0(a2)
     ea4:	00c5c503          	lbu	a0,12(a1)
     ea8:	00003637          	lui	a2,0x3
     eac:	58a60613          	addi	a2,a2,1418 # 358a <locked_pieces+0x442>
     eb0:	00c78633          	add	a2,a5,a2
     eb4:	00a60023          	sb	a0,0(a2)
     eb8:	00003637          	lui	a2,0x3
     ebc:	58b60613          	addi	a2,a2,1419 # 358b <locked_pieces+0x443>
     ec0:	00c78633          	add	a2,a5,a2
     ec4:	00a60023          	sb	a0,0(a2)
     ec8:	00c5c503          	lbu	a0,12(a1)
     ecc:	00003637          	lui	a2,0x3
     ed0:	6c460613          	addi	a2,a2,1732 # 36c4 <locked_pieces+0x57c>
     ed4:	00c78633          	add	a2,a5,a2
     ed8:	00a60023          	sb	a0,0(a2)
     edc:	00003637          	lui	a2,0x3
     ee0:	6c560613          	addi	a2,a2,1733 # 36c5 <locked_pieces+0x57d>
     ee4:	00c78633          	add	a2,a5,a2
     ee8:	00a60023          	sb	a0,0(a2)
     eec:	00c5c503          	lbu	a0,12(a1)
     ef0:	00003637          	lui	a2,0x3
     ef4:	6c660613          	addi	a2,a2,1734 # 36c6 <locked_pieces+0x57e>
     ef8:	00c78633          	add	a2,a5,a2
     efc:	00a60023          	sb	a0,0(a2)
     f00:	00003637          	lui	a2,0x3
     f04:	6c760613          	addi	a2,a2,1735 # 36c7 <locked_pieces+0x57f>
     f08:	00c78633          	add	a2,a5,a2
     f0c:	00a60023          	sb	a0,0(a2)
     f10:	00c5c503          	lbu	a0,12(a1)
     f14:	00003637          	lui	a2,0x3
     f18:	6c860613          	addi	a2,a2,1736 # 36c8 <locked_pieces+0x580>
     f1c:	00c78633          	add	a2,a5,a2
     f20:	00a60023          	sb	a0,0(a2)
     f24:	00003637          	lui	a2,0x3
     f28:	6c960613          	addi	a2,a2,1737 # 36c9 <locked_pieces+0x581>
     f2c:	00c78633          	add	a2,a5,a2
     f30:	00a60023          	sb	a0,0(a2)
     f34:	00c5c503          	lbu	a0,12(a1)
     f38:	00003637          	lui	a2,0x3
     f3c:	6ca60613          	addi	a2,a2,1738 # 36ca <locked_pieces+0x582>
     f40:	00c78633          	add	a2,a5,a2
     f44:	00a60023          	sb	a0,0(a2)
     f48:	00003637          	lui	a2,0x3
     f4c:	6cb60613          	addi	a2,a2,1739 # 36cb <locked_pieces+0x583>
     f50:	00c78633          	add	a2,a5,a2
     f54:	00a60023          	sb	a0,0(a2)
     f58:	00c5c503          	lbu	a0,12(a1)
     f5c:	00004637          	lui	a2,0x4
     f60:	80460613          	addi	a2,a2,-2044 # 3804 <__global_pointer+0x28>
     f64:	00c78633          	add	a2,a5,a2
     f68:	00a60023          	sb	a0,0(a2)
     f6c:	00004637          	lui	a2,0x4
     f70:	80560613          	addi	a2,a2,-2043 # 3805 <__global_pointer+0x29>
     f74:	00c78633          	add	a2,a5,a2
     f78:	00a60023          	sb	a0,0(a2)
     f7c:	00c5c503          	lbu	a0,12(a1)
     f80:	00004637          	lui	a2,0x4
     f84:	80660613          	addi	a2,a2,-2042 # 3806 <__global_pointer+0x2a>
     f88:	00c78633          	add	a2,a5,a2
     f8c:	00a60023          	sb	a0,0(a2)
     f90:	00004637          	lui	a2,0x4
     f94:	80760613          	addi	a2,a2,-2041 # 3807 <__global_pointer+0x2b>
     f98:	00c78633          	add	a2,a5,a2
     f9c:	00a60023          	sb	a0,0(a2)
     fa0:	00c5c503          	lbu	a0,12(a1)
     fa4:	00004637          	lui	a2,0x4
     fa8:	80860613          	addi	a2,a2,-2040 # 3808 <__global_pointer+0x2c>
     fac:	00c78633          	add	a2,a5,a2
     fb0:	00a60023          	sb	a0,0(a2)
     fb4:	00004637          	lui	a2,0x4
     fb8:	80960613          	addi	a2,a2,-2039 # 3809 <__global_pointer+0x2d>
     fbc:	00c78633          	add	a2,a5,a2
     fc0:	00a60023          	sb	a0,0(a2)
     fc4:	00c5c503          	lbu	a0,12(a1)
     fc8:	00004637          	lui	a2,0x4
     fcc:	80a60613          	addi	a2,a2,-2038 # 380a <__global_pointer+0x2e>
     fd0:	00c78633          	add	a2,a5,a2
     fd4:	00a60023          	sb	a0,0(a2)
     fd8:	00004637          	lui	a2,0x4
     fdc:	80b60613          	addi	a2,a2,-2037 # 380b <__global_pointer+0x2f>
     fe0:	00c78633          	add	a2,a5,a2
     fe4:	00a60023          	sb	a0,0(a2)
     fe8:	00c5c503          	lbu	a0,12(a1)
     fec:	00004637          	lui	a2,0x4
     ff0:	94460613          	addi	a2,a2,-1724 # 3944 <__global_pointer+0x168>
     ff4:	00c78633          	add	a2,a5,a2
     ff8:	00a60023          	sb	a0,0(a2)
     ffc:	00004637          	lui	a2,0x4
    1000:	94560613          	addi	a2,a2,-1723 # 3945 <__global_pointer+0x169>
    1004:	00c78633          	add	a2,a5,a2
    1008:	00a60023          	sb	a0,0(a2)
    100c:	00c5c503          	lbu	a0,12(a1)
    1010:	00004637          	lui	a2,0x4
    1014:	94660613          	addi	a2,a2,-1722 # 3946 <__global_pointer+0x16a>
    1018:	00c78633          	add	a2,a5,a2
    101c:	00a60023          	sb	a0,0(a2)
    1020:	00004637          	lui	a2,0x4
    1024:	94760613          	addi	a2,a2,-1721 # 3947 <__global_pointer+0x16b>
    1028:	00c78633          	add	a2,a5,a2
    102c:	00a60023          	sb	a0,0(a2)
    1030:	00c5c503          	lbu	a0,12(a1)
    1034:	00004637          	lui	a2,0x4
    1038:	94860613          	addi	a2,a2,-1720 # 3948 <__global_pointer+0x16c>
    103c:	00c78633          	add	a2,a5,a2
    1040:	00a60023          	sb	a0,0(a2)
    1044:	00004637          	lui	a2,0x4
    1048:	94960613          	addi	a2,a2,-1719 # 3949 <__global_pointer+0x16d>
    104c:	00c78633          	add	a2,a5,a2
    1050:	00a60023          	sb	a0,0(a2)
    1054:	00c5c503          	lbu	a0,12(a1)
    1058:	00004637          	lui	a2,0x4
    105c:	94a60613          	addi	a2,a2,-1718 # 394a <__global_pointer+0x16e>
    1060:	00c78633          	add	a2,a5,a2
    1064:	00a60023          	sb	a0,0(a2)
    1068:	00004637          	lui	a2,0x4
    106c:	94b60613          	addi	a2,a2,-1717 # 394b <__global_pointer+0x16f>
    1070:	00c78633          	add	a2,a5,a2
    1074:	00a60023          	sb	a0,0(a2)
    1078:	00c5c503          	lbu	a0,12(a1)
    107c:	00004637          	lui	a2,0x4
    1080:	a8460613          	addi	a2,a2,-1404 # 3a84 <__global_pointer+0x2a8>
    1084:	00c78633          	add	a2,a5,a2
    1088:	00a60023          	sb	a0,0(a2)
    108c:	00004637          	lui	a2,0x4
    1090:	a8560613          	addi	a2,a2,-1403 # 3a85 <__global_pointer+0x2a9>
    1094:	00c78633          	add	a2,a5,a2
    1098:	00a60023          	sb	a0,0(a2)
    109c:	00c5c503          	lbu	a0,12(a1)
    10a0:	00004637          	lui	a2,0x4
    10a4:	a8660613          	addi	a2,a2,-1402 # 3a86 <__global_pointer+0x2aa>
    10a8:	00c78633          	add	a2,a5,a2
    10ac:	00a60023          	sb	a0,0(a2)
    10b0:	00004637          	lui	a2,0x4
    10b4:	a8760613          	addi	a2,a2,-1401 # 3a87 <__global_pointer+0x2ab>
    10b8:	00c78633          	add	a2,a5,a2
    10bc:	00a60023          	sb	a0,0(a2)
    10c0:	00c5c503          	lbu	a0,12(a1)
    10c4:	00004637          	lui	a2,0x4
    10c8:	a8860613          	addi	a2,a2,-1400 # 3a88 <__global_pointer+0x2ac>
    10cc:	00c78633          	add	a2,a5,a2
    10d0:	00a60023          	sb	a0,0(a2)
    10d4:	00004637          	lui	a2,0x4
    10d8:	a8960613          	addi	a2,a2,-1399 # 3a89 <__global_pointer+0x2ad>
    10dc:	00c78633          	add	a2,a5,a2
    10e0:	00a60023          	sb	a0,0(a2)
    10e4:	00c5c503          	lbu	a0,12(a1)
    10e8:	00004637          	lui	a2,0x4
    10ec:	a8a60613          	addi	a2,a2,-1398 # 3a8a <__global_pointer+0x2ae>
    10f0:	00c78633          	add	a2,a5,a2
    10f4:	00a60023          	sb	a0,0(a2)
    10f8:	00004637          	lui	a2,0x4
    10fc:	a8b60613          	addi	a2,a2,-1397 # 3a8b <__global_pointer+0x2af>
    1100:	00c78633          	add	a2,a5,a2
    1104:	00a60023          	sb	a0,0(a2)
    1108:	00c5c503          	lbu	a0,12(a1)
    110c:	00004637          	lui	a2,0x4
    1110:	bc460613          	addi	a2,a2,-1084 # 3bc4 <__global_pointer+0x3e8>
    1114:	00c78633          	add	a2,a5,a2
    1118:	00a60023          	sb	a0,0(a2)
    111c:	00004637          	lui	a2,0x4
    1120:	bc560613          	addi	a2,a2,-1083 # 3bc5 <__global_pointer+0x3e9>
    1124:	00c78633          	add	a2,a5,a2
    1128:	00a60023          	sb	a0,0(a2)
    112c:	00c5c503          	lbu	a0,12(a1)
    1130:	00004637          	lui	a2,0x4
    1134:	bc660613          	addi	a2,a2,-1082 # 3bc6 <__global_pointer+0x3ea>
    1138:	00c78633          	add	a2,a5,a2
    113c:	00a60023          	sb	a0,0(a2)
    1140:	00004637          	lui	a2,0x4
    1144:	bc760613          	addi	a2,a2,-1081 # 3bc7 <__global_pointer+0x3eb>
    1148:	00c78633          	add	a2,a5,a2
    114c:	00a60023          	sb	a0,0(a2)
    1150:	00c5c503          	lbu	a0,12(a1)
    1154:	00004637          	lui	a2,0x4
    1158:	bc860613          	addi	a2,a2,-1080 # 3bc8 <__global_pointer+0x3ec>
    115c:	00c78633          	add	a2,a5,a2
    1160:	00a60023          	sb	a0,0(a2)
    1164:	00004637          	lui	a2,0x4
    1168:	bc960613          	addi	a2,a2,-1079 # 3bc9 <__global_pointer+0x3ed>
    116c:	00c78633          	add	a2,a5,a2
    1170:	00a60023          	sb	a0,0(a2)
    1174:	00c5c503          	lbu	a0,12(a1)
    1178:	00004637          	lui	a2,0x4
    117c:	bca60613          	addi	a2,a2,-1078 # 3bca <__global_pointer+0x3ee>
    1180:	00c78633          	add	a2,a5,a2
    1184:	00a60023          	sb	a0,0(a2)
    1188:	00004637          	lui	a2,0x4
    118c:	bcb60613          	addi	a2,a2,-1077 # 3bcb <__global_pointer+0x3ef>
    1190:	00c78633          	add	a2,a5,a2
    1194:	00a60023          	sb	a0,0(a2)
    1198:	bc5ff06f          	j	d5c <draw_next_piece+0xf4>

0000119c <clear_shape>:
    119c:	fc010113          	addi	sp,sp,-64
    11a0:	00003637          	lui	a2,0x3
    11a4:	000037b7          	lui	a5,0x3
    11a8:	03212a23          	sw	s2,52(sp)
    11ac:	03312823          	sw	s3,48(sp)
    11b0:	03412623          	sw	s4,44(sp)
    11b4:	03512423          	sw	s5,40(sp)
    11b8:	03612223          	sw	s6,36(sp)
    11bc:	03712023          	sw	s7,32(sp)
    11c0:	01812e23          	sw	s8,28(sp)
    11c4:	01912c23          	sw	s9,24(sp)
    11c8:	01a12a23          	sw	s10,20(sp)
    11cc:	01b12823          	sw	s11,16(sp)
    11d0:	20060613          	addi	a2,a2,512 # 3200 <locked_pieces+0xb8>
    11d4:	00003db7          	lui	s11,0x3
    11d8:	00003d37          	lui	s10,0x3
    11dc:	00003cb7          	lui	s9,0x3
    11e0:	00003c37          	lui	s8,0x3
    11e4:	00003bb7          	lui	s7,0x3
    11e8:	00003b37          	lui	s6,0x3
    11ec:	00003ab7          	lui	s5,0x3
    11f0:	00003a37          	lui	s4,0x3
    11f4:	000039b7          	lui	s3,0x3
    11f8:	00003937          	lui	s2,0x3
    11fc:	44678793          	addi	a5,a5,1094 # 3446 <locked_pieces+0x2fe>
    1200:	02812e23          	sw	s0,60(sp)
    1204:	02912c23          	sw	s1,56(sp)
    1208:	01058693          	addi	a3,a1,16
    120c:	40c50533          	sub	a0,a0,a2
    1210:	304d8d93          	addi	s11,s11,772 # 3304 <locked_pieces+0x1bc>
    1214:	305d0d13          	addi	s10,s10,773 # 3305 <locked_pieces+0x1bd>
    1218:	306c8c93          	addi	s9,s9,774 # 3306 <locked_pieces+0x1be>
    121c:	307c0c13          	addi	s8,s8,775 # 3307 <locked_pieces+0x1bf>
    1220:	308b8b93          	addi	s7,s7,776 # 3308 <locked_pieces+0x1c0>
    1224:	309b0b13          	addi	s6,s6,777 # 3309 <locked_pieces+0x1c1>
    1228:	30aa8a93          	addi	s5,s5,778 # 330a <locked_pieces+0x1c2>
    122c:	30ba0a13          	addi	s4,s4,779 # 330b <locked_pieces+0x1c3>
    1230:	44498993          	addi	s3,s3,1092 # 3444 <locked_pieces+0x2fc>
    1234:	44590913          	addi	s2,s2,1093 # 3445 <locked_pieces+0x2fd>
    1238:	00f12623          	sw	a5,12(sp)
    123c:	00003437          	lui	s0,0x3
    1240:	000034b7          	lui	s1,0x3
    1244:	44940393          	addi	t2,s0,1097 # 3449 <locked_pieces+0x301>
    1248:	44a40293          	addi	t0,s0,1098
    124c:	44b40f93          	addi	t6,s0,1099
    1250:	58440f13          	addi	t5,s0,1412
    1254:	58540e93          	addi	t4,s0,1413
    1258:	58640e13          	addi	t3,s0,1414
    125c:	58740313          	addi	t1,s0,1415
    1260:	58840893          	addi	a7,s0,1416
    1264:	58940813          	addi	a6,s0,1417
    1268:	44748493          	addi	s1,s1,1095 # 3447 <locked_pieces+0x2ff>
    126c:	44840413          	addi	s0,s0,1096
    1270:	ff068713          	addi	a4,a3,-16
    1274:	00c507b3          	add	a5,a0,a2
    1278:	00c12423          	sw	a2,8(sp)
    127c:	01072603          	lw	a2,16(a4)
    1280:	06061263          	bnez	a2,12e4 <clear_shape+0x148>
    1284:	00470713          	addi	a4,a4,4
    1288:	00878793          	addi	a5,a5,8
    128c:	fee698e3          	bne	a3,a4,127c <clear_shape+0xe0>
    1290:	00812603          	lw	a2,8(sp)
    1294:	000067b7          	lui	a5,0x6
    1298:	a0078793          	addi	a5,a5,-1536 # 5a00 <__global_pointer+0x2224>
    129c:	7ff60613          	addi	a2,a2,2047
    12a0:	20160613          	addi	a2,a2,513
    12a4:	01068693          	addi	a3,a3,16
    12a8:	f8f61ae3          	bne	a2,a5,123c <clear_shape+0xa0>
    12ac:	03c12403          	lw	s0,60(sp)
    12b0:	03812483          	lw	s1,56(sp)
    12b4:	03412903          	lw	s2,52(sp)
    12b8:	03012983          	lw	s3,48(sp)
    12bc:	02c12a03          	lw	s4,44(sp)
    12c0:	02812a83          	lw	s5,40(sp)
    12c4:	02412b03          	lw	s6,36(sp)
    12c8:	02012b83          	lw	s7,32(sp)
    12cc:	01c12c03          	lw	s8,28(sp)
    12d0:	01812c83          	lw	s9,24(sp)
    12d4:	01412d03          	lw	s10,20(sp)
    12d8:	01012d83          	lw	s11,16(sp)
    12dc:	04010113          	addi	sp,sp,64
    12e0:	00008067          	ret
    12e4:	01b78633          	add	a2,a5,s11
    12e8:	00060023          	sb	zero,0(a2)
    12ec:	01a78633          	add	a2,a5,s10
    12f0:	00060023          	sb	zero,0(a2)
    12f4:	01978633          	add	a2,a5,s9
    12f8:	00060023          	sb	zero,0(a2)
    12fc:	01878633          	add	a2,a5,s8
    1300:	00060023          	sb	zero,0(a2)
    1304:	01778633          	add	a2,a5,s7
    1308:	00060023          	sb	zero,0(a2)
    130c:	01678633          	add	a2,a5,s6
    1310:	00060023          	sb	zero,0(a2)
    1314:	01578633          	add	a2,a5,s5
    1318:	00060023          	sb	zero,0(a2)
    131c:	01478633          	add	a2,a5,s4
    1320:	00060023          	sb	zero,0(a2)
    1324:	01378633          	add	a2,a5,s3
    1328:	00060023          	sb	zero,0(a2)
    132c:	01278633          	add	a2,a5,s2
    1330:	00060023          	sb	zero,0(a2)
    1334:	00c12603          	lw	a2,12(sp)
    1338:	000035b7          	lui	a1,0x3
    133c:	58a58593          	addi	a1,a1,1418 # 358a <locked_pieces+0x442>
    1340:	00c78633          	add	a2,a5,a2
    1344:	00060023          	sb	zero,0(a2)
    1348:	00978633          	add	a2,a5,s1
    134c:	00060023          	sb	zero,0(a2)
    1350:	00878633          	add	a2,a5,s0
    1354:	00060023          	sb	zero,0(a2)
    1358:	00778633          	add	a2,a5,t2
    135c:	00060023          	sb	zero,0(a2)
    1360:	00578633          	add	a2,a5,t0
    1364:	00060023          	sb	zero,0(a2)
    1368:	01f78633          	add	a2,a5,t6
    136c:	00060023          	sb	zero,0(a2)
    1370:	01e78633          	add	a2,a5,t5
    1374:	00060023          	sb	zero,0(a2)
    1378:	01d78633          	add	a2,a5,t4
    137c:	00060023          	sb	zero,0(a2)
    1380:	01c78633          	add	a2,a5,t3
    1384:	00060023          	sb	zero,0(a2)
    1388:	00678633          	add	a2,a5,t1
    138c:	00060023          	sb	zero,0(a2)
    1390:	01178633          	add	a2,a5,a7
    1394:	00060023          	sb	zero,0(a2)
    1398:	01078633          	add	a2,a5,a6
    139c:	00060023          	sb	zero,0(a2)
    13a0:	00003637          	lui	a2,0x3
    13a4:	00b785b3          	add	a1,a5,a1
    13a8:	58b60613          	addi	a2,a2,1419 # 358b <locked_pieces+0x443>
    13ac:	00058023          	sb	zero,0(a1)
    13b0:	00c78633          	add	a2,a5,a2
    13b4:	000035b7          	lui	a1,0x3
    13b8:	00060023          	sb	zero,0(a2)
    13bc:	6c458593          	addi	a1,a1,1732 # 36c4 <locked_pieces+0x57c>
    13c0:	00003637          	lui	a2,0x3
    13c4:	00b785b3          	add	a1,a5,a1
    13c8:	6c560613          	addi	a2,a2,1733 # 36c5 <locked_pieces+0x57d>
    13cc:	00058023          	sb	zero,0(a1)
    13d0:	00c78633          	add	a2,a5,a2
    13d4:	000035b7          	lui	a1,0x3
    13d8:	00060023          	sb	zero,0(a2)
    13dc:	6c658593          	addi	a1,a1,1734 # 36c6 <locked_pieces+0x57e>
    13e0:	00003637          	lui	a2,0x3
    13e4:	00b785b3          	add	a1,a5,a1
    13e8:	6c760613          	addi	a2,a2,1735 # 36c7 <locked_pieces+0x57f>
    13ec:	00058023          	sb	zero,0(a1)
    13f0:	00c78633          	add	a2,a5,a2
    13f4:	000035b7          	lui	a1,0x3
    13f8:	00060023          	sb	zero,0(a2)
    13fc:	6c858593          	addi	a1,a1,1736 # 36c8 <locked_pieces+0x580>
    1400:	00003637          	lui	a2,0x3
    1404:	00b785b3          	add	a1,a5,a1
    1408:	6c960613          	addi	a2,a2,1737 # 36c9 <locked_pieces+0x581>
    140c:	00058023          	sb	zero,0(a1)
    1410:	00c78633          	add	a2,a5,a2
    1414:	000035b7          	lui	a1,0x3
    1418:	00060023          	sb	zero,0(a2)
    141c:	6ca58593          	addi	a1,a1,1738 # 36ca <locked_pieces+0x582>
    1420:	00003637          	lui	a2,0x3
    1424:	00b785b3          	add	a1,a5,a1
    1428:	6cb60613          	addi	a2,a2,1739 # 36cb <locked_pieces+0x583>
    142c:	00058023          	sb	zero,0(a1)
    1430:	00c78633          	add	a2,a5,a2
    1434:	000045b7          	lui	a1,0x4
    1438:	00060023          	sb	zero,0(a2)
    143c:	80458593          	addi	a1,a1,-2044 # 3804 <__global_pointer+0x28>
    1440:	00004637          	lui	a2,0x4
    1444:	00b785b3          	add	a1,a5,a1
    1448:	80560613          	addi	a2,a2,-2043 # 3805 <__global_pointer+0x29>
    144c:	00058023          	sb	zero,0(a1)
    1450:	00c78633          	add	a2,a5,a2
    1454:	000045b7          	lui	a1,0x4
    1458:	00060023          	sb	zero,0(a2)
    145c:	80658593          	addi	a1,a1,-2042 # 3806 <__global_pointer+0x2a>
    1460:	00004637          	lui	a2,0x4
    1464:	00b785b3          	add	a1,a5,a1
    1468:	80760613          	addi	a2,a2,-2041 # 3807 <__global_pointer+0x2b>
    146c:	00058023          	sb	zero,0(a1)
    1470:	00c78633          	add	a2,a5,a2
    1474:	000045b7          	lui	a1,0x4
    1478:	00060023          	sb	zero,0(a2)
    147c:	80858593          	addi	a1,a1,-2040 # 3808 <__global_pointer+0x2c>
    1480:	00004637          	lui	a2,0x4
    1484:	00b785b3          	add	a1,a5,a1
    1488:	80960613          	addi	a2,a2,-2039 # 3809 <__global_pointer+0x2d>
    148c:	00058023          	sb	zero,0(a1)
    1490:	00c78633          	add	a2,a5,a2
    1494:	000045b7          	lui	a1,0x4
    1498:	00060023          	sb	zero,0(a2)
    149c:	80a58593          	addi	a1,a1,-2038 # 380a <__global_pointer+0x2e>
    14a0:	00004637          	lui	a2,0x4
    14a4:	00b785b3          	add	a1,a5,a1
    14a8:	80b60613          	addi	a2,a2,-2037 # 380b <__global_pointer+0x2f>
    14ac:	00058023          	sb	zero,0(a1)
    14b0:	00c78633          	add	a2,a5,a2
    14b4:	000045b7          	lui	a1,0x4
    14b8:	00060023          	sb	zero,0(a2)
    14bc:	94458593          	addi	a1,a1,-1724 # 3944 <__global_pointer+0x168>
    14c0:	00004637          	lui	a2,0x4
    14c4:	00b785b3          	add	a1,a5,a1
    14c8:	94560613          	addi	a2,a2,-1723 # 3945 <__global_pointer+0x169>
    14cc:	00058023          	sb	zero,0(a1)
    14d0:	00c78633          	add	a2,a5,a2
    14d4:	000045b7          	lui	a1,0x4
    14d8:	00060023          	sb	zero,0(a2)
    14dc:	94658593          	addi	a1,a1,-1722 # 3946 <__global_pointer+0x16a>
    14e0:	00004637          	lui	a2,0x4
    14e4:	00b785b3          	add	a1,a5,a1
    14e8:	94760613          	addi	a2,a2,-1721 # 3947 <__global_pointer+0x16b>
    14ec:	00058023          	sb	zero,0(a1)
    14f0:	00c78633          	add	a2,a5,a2
    14f4:	000045b7          	lui	a1,0x4
    14f8:	00060023          	sb	zero,0(a2)
    14fc:	94858593          	addi	a1,a1,-1720 # 3948 <__global_pointer+0x16c>
    1500:	00004637          	lui	a2,0x4
    1504:	00b785b3          	add	a1,a5,a1
    1508:	94960613          	addi	a2,a2,-1719 # 3949 <__global_pointer+0x16d>
    150c:	00058023          	sb	zero,0(a1)
    1510:	00c78633          	add	a2,a5,a2
    1514:	000045b7          	lui	a1,0x4
    1518:	00060023          	sb	zero,0(a2)
    151c:	94a58593          	addi	a1,a1,-1718 # 394a <__global_pointer+0x16e>
    1520:	00004637          	lui	a2,0x4
    1524:	00b785b3          	add	a1,a5,a1
    1528:	94b60613          	addi	a2,a2,-1717 # 394b <__global_pointer+0x16f>
    152c:	00058023          	sb	zero,0(a1)
    1530:	00c78633          	add	a2,a5,a2
    1534:	000045b7          	lui	a1,0x4
    1538:	00060023          	sb	zero,0(a2)
    153c:	a8458593          	addi	a1,a1,-1404 # 3a84 <__global_pointer+0x2a8>
    1540:	00004637          	lui	a2,0x4
    1544:	00b785b3          	add	a1,a5,a1
    1548:	a8560613          	addi	a2,a2,-1403 # 3a85 <__global_pointer+0x2a9>
    154c:	00058023          	sb	zero,0(a1)
    1550:	00c78633          	add	a2,a5,a2
    1554:	000045b7          	lui	a1,0x4
    1558:	00060023          	sb	zero,0(a2)
    155c:	a8658593          	addi	a1,a1,-1402 # 3a86 <__global_pointer+0x2aa>
    1560:	00004637          	lui	a2,0x4
    1564:	00b785b3          	add	a1,a5,a1
    1568:	a8760613          	addi	a2,a2,-1401 # 3a87 <__global_pointer+0x2ab>
    156c:	00058023          	sb	zero,0(a1)
    1570:	00c78633          	add	a2,a5,a2
    1574:	000045b7          	lui	a1,0x4
    1578:	00060023          	sb	zero,0(a2)
    157c:	a8858593          	addi	a1,a1,-1400 # 3a88 <__global_pointer+0x2ac>
    1580:	00004637          	lui	a2,0x4
    1584:	00b785b3          	add	a1,a5,a1
    1588:	a8960613          	addi	a2,a2,-1399 # 3a89 <__global_pointer+0x2ad>
    158c:	00058023          	sb	zero,0(a1)
    1590:	00c78633          	add	a2,a5,a2
    1594:	000045b7          	lui	a1,0x4
    1598:	00060023          	sb	zero,0(a2)
    159c:	a8a58593          	addi	a1,a1,-1398 # 3a8a <__global_pointer+0x2ae>
    15a0:	00004637          	lui	a2,0x4
    15a4:	00b785b3          	add	a1,a5,a1
    15a8:	a8b60613          	addi	a2,a2,-1397 # 3a8b <__global_pointer+0x2af>
    15ac:	00058023          	sb	zero,0(a1)
    15b0:	00c78633          	add	a2,a5,a2
    15b4:	000045b7          	lui	a1,0x4
    15b8:	00060023          	sb	zero,0(a2)
    15bc:	bc458593          	addi	a1,a1,-1084 # 3bc4 <__global_pointer+0x3e8>
    15c0:	00004637          	lui	a2,0x4
    15c4:	00b785b3          	add	a1,a5,a1
    15c8:	bc560613          	addi	a2,a2,-1083 # 3bc5 <__global_pointer+0x3e9>
    15cc:	00058023          	sb	zero,0(a1)
    15d0:	00c78633          	add	a2,a5,a2
    15d4:	000045b7          	lui	a1,0x4
    15d8:	00060023          	sb	zero,0(a2)
    15dc:	bc658593          	addi	a1,a1,-1082 # 3bc6 <__global_pointer+0x3ea>
    15e0:	00004637          	lui	a2,0x4
    15e4:	00b785b3          	add	a1,a5,a1
    15e8:	bc760613          	addi	a2,a2,-1081 # 3bc7 <__global_pointer+0x3eb>
    15ec:	00058023          	sb	zero,0(a1)
    15f0:	00c78633          	add	a2,a5,a2
    15f4:	000045b7          	lui	a1,0x4
    15f8:	00060023          	sb	zero,0(a2)
    15fc:	bc858593          	addi	a1,a1,-1080 # 3bc8 <__global_pointer+0x3ec>
    1600:	00004637          	lui	a2,0x4
    1604:	00b785b3          	add	a1,a5,a1
    1608:	bc960613          	addi	a2,a2,-1079 # 3bc9 <__global_pointer+0x3ed>
    160c:	00058023          	sb	zero,0(a1)
    1610:	00c78633          	add	a2,a5,a2
    1614:	000045b7          	lui	a1,0x4
    1618:	00060023          	sb	zero,0(a2)
    161c:	bca58593          	addi	a1,a1,-1078 # 3bca <__global_pointer+0x3ee>
    1620:	00004637          	lui	a2,0x4
    1624:	00b785b3          	add	a1,a5,a1
    1628:	bcb60613          	addi	a2,a2,-1077 # 3bcb <__global_pointer+0x3ef>
    162c:	00058023          	sb	zero,0(a1)
    1630:	00c78633          	add	a2,a5,a2
    1634:	00060023          	sb	zero,0(a2)
    1638:	c4dff06f          	j	1284 <clear_shape+0xe8>

0000163c <rotate_piece>:
    163c:	01052703          	lw	a4,16(a0)
    1640:	04052603          	lw	a2,64(a0)
    1644:	01c52783          	lw	a5,28(a0)
    1648:	04c52283          	lw	t0,76(a0)
    164c:	01452f03          	lw	t5,20(a0)
    1650:	03052f83          	lw	t6,48(a0)
    1654:	02c52e83          	lw	t4,44(a0)
    1658:	04852e03          	lw	t3,72(a0)
    165c:	01852883          	lw	a7,24(a0)
    1660:	02052303          	lw	t1,32(a0)
    1664:	03c52803          	lw	a6,60(a0)
    1668:	04452583          	lw	a1,68(a0)
    166c:	02452683          	lw	a3,36(a0)
    1670:	00c52823          	sw	a2,16(a0)
    1674:	00e52e23          	sw	a4,28(a0)
    1678:	03452603          	lw	a2,52(a0)
    167c:	02852703          	lw	a4,40(a0)
    1680:	04f52623          	sw	a5,76(a0)
    1684:	03852783          	lw	a5,56(a0)
    1688:	04552023          	sw	t0,64(a0)
    168c:	01f52a23          	sw	t6,20(a0)
    1690:	03e52623          	sw	t5,44(a0)
    1694:	05d52423          	sw	t4,72(a0)
    1698:	03c52823          	sw	t3,48(a0)
    169c:	00652c23          	sw	t1,24(a0)
    16a0:	03152e23          	sw	a7,60(a0)
    16a4:	05052223          	sw	a6,68(a0)
    16a8:	02b52023          	sw	a1,32(a0)
    16ac:	02c52223          	sw	a2,36(a0)
    16b0:	02d52423          	sw	a3,40(a0)
    16b4:	02e52c23          	sw	a4,56(a0)
    16b8:	02f52a23          	sw	a5,52(a0)
    16bc:	00008067          	ret

000016c0 <tick>:
    16c0:	040007b7          	lui	a5,0x4000
    16c4:	0d078793          	addi	a5,a5,208 # 40000d0 <_stack_end+0x3ef7134>
    16c8:	0007a783          	lw	a5,0(a5)
    16cc:	f9010113          	addi	sp,sp,-112
    16d0:	06812423          	sw	s0,104(sp)
    16d4:	0017f793          	andi	a5,a5,1
    16d8:	02f12623          	sw	a5,44(sp)
    16dc:	02c12783          	lw	a5,44(sp)
    16e0:	05412c23          	sw	s4,88(sp)
    16e4:	00003437          	lui	s0,0x3
    16e8:	06112623          	sw	ra,108(sp)
    16ec:	06912223          	sw	s1,100(sp)
    16f0:	00050a13          	mv	s4,a0
    16f4:	fe040413          	addi	s0,s0,-32 # 2fe0 <current_piece>
    16f8:	00078463          	beqz	a5,1700 <tick+0x40>
    16fc:	0300106f          	j	272c <tick+0x106c>
    1700:	01042683          	lw	a3,16(s0)
    1704:	01442703          	lw	a4,20(s0)
    1708:	00100793          	li	a5,1
    170c:	00069a63          	bnez	a3,1720 <tick+0x60>
    1710:	01842683          	lw	a3,24(s0)
    1714:	00d76733          	or	a4,a4,a3
    1718:	00071463          	bnez	a4,1720 <tick+0x60>
    171c:	0940106f          	j	27b0 <tick+0x10f0>
    1720:	02042683          	lw	a3,32(s0)
    1724:	02442703          	lw	a4,36(s0)
    1728:	00069463          	bnez	a3,1730 <tick+0x70>
    172c:	46070a63          	beqz	a4,1ba0 <tick+0x4e0>
    1730:	00200793          	li	a5,2
    1734:	03042683          	lw	a3,48(s0)
    1738:	03442703          	lw	a4,52(s0)
    173c:	00069463          	bnez	a3,1744 <tick+0x84>
    1740:	44070663          	beqz	a4,1b8c <tick+0x4cc>
    1744:	00300793          	li	a5,3
    1748:	04042683          	lw	a3,64(s0)
    174c:	04442703          	lw	a4,68(s0)
    1750:	00069463          	bnez	a3,1758 <tick+0x98>
    1754:	42070263          	beqz	a4,1b78 <tick+0x4b8>
    1758:	00400793          	li	a5,4
    175c:	00842703          	lw	a4,8(s0)
    1760:	01300693          	li	a3,19
    1764:	00f707b3          	add	a5,a4,a5
    1768:	7af6de63          	bge	a3,a5,1f24 <tick+0x864>
    176c:	000094b7          	lui	s1,0x9
    1770:	f084a703          	lw	a4,-248(s1) # 8f08 <num_locked>
    1774:	07212023          	sw	s2,96(sp)
    1778:	05312e23          	sw	s3,92(sp)
    177c:	05512a23          	sw	s5,84(sp)
    1780:	05612823          	sw	s6,80(sp)
    1784:	05712623          	sw	s7,76(sp)
    1788:	05812423          	sw	s8,72(sp)
    178c:	05912223          	sw	s9,68(sp)
    1790:	05a12023          	sw	s10,64(sp)
    1794:	03b12e23          	sw	s11,60(sp)
    1798:	12b00793          	li	a5,299
    179c:	38e7d263          	bge	a5,a4,1b20 <tick+0x460>
    17a0:	00003737          	lui	a4,0x3
    17a4:	03070713          	addi	a4,a4,48 # 3030 <next_piece>
    17a8:	00003537          	lui	a0,0x3
    17ac:	30950513          	addi	a0,a0,777 # 3309 <locked_pieces+0x1c1>
    17b0:	00a12223          	sw	a0,4(sp)
    17b4:	00003537          	lui	a0,0x3
    17b8:	30a50513          	addi	a0,a0,778 # 330a <locked_pieces+0x1c2>
    17bc:	00a12423          	sw	a0,8(sp)
    17c0:	00003537          	lui	a0,0x3
    17c4:	30b50513          	addi	a0,a0,779 # 330b <locked_pieces+0x1c3>
    17c8:	00a12623          	sw	a0,12(sp)
    17cc:	00003537          	lui	a0,0x3
    17d0:	44450513          	addi	a0,a0,1092 # 3444 <locked_pieces+0x2fc>
    17d4:	00a12823          	sw	a0,16(sp)
    17d8:	00003537          	lui	a0,0x3
    17dc:	44550513          	addi	a0,a0,1093 # 3445 <locked_pieces+0x2fd>
    17e0:	00003637          	lui	a2,0x3
    17e4:	20060613          	addi	a2,a2,512 # 3200 <locked_pieces+0xb8>
    17e8:	06040693          	addi	a3,s0,96
    17ec:	00003f37          	lui	t5,0x3
    17f0:	00003eb7          	lui	t4,0x3
    17f4:	00003e37          	lui	t3,0x3
    17f8:	00003337          	lui	t1,0x3
    17fc:	00003db7          	lui	s11,0x3
    1800:	00a12a23          	sw	a0,20(sp)
    1804:	00003537          	lui	a0,0x3
    1808:	40ca08b3          	sub	a7,s4,a2
    180c:	00068593          	mv	a1,a3
    1810:	304f0f13          	addi	t5,t5,772 # 3304 <locked_pieces+0x1bc>
    1814:	305e8e93          	addi	t4,t4,773 # 3305 <locked_pieces+0x1bd>
    1818:	306e0e13          	addi	t3,t3,774 # 3306 <locked_pieces+0x1be>
    181c:	30730313          	addi	t1,t1,775 # 3307 <locked_pieces+0x1bf>
    1820:	308d8d93          	addi	s11,s11,776 # 3308 <locked_pieces+0x1c0>
    1824:	44650513          	addi	a0,a0,1094 # 3446 <locked_pieces+0x2fe>
    1828:	00003837          	lui	a6,0x3
    182c:	000037b7          	lui	a5,0x3
    1830:	58880813          	addi	a6,a6,1416 # 3588 <locked_pieces+0x440>
    1834:	58978793          	addi	a5,a5,1417 # 3589 <locked_pieces+0x441>
    1838:	00003d37          	lui	s10,0x3
    183c:	00003cb7          	lui	s9,0x3
    1840:	00003c37          	lui	s8,0x3
    1844:	00003bb7          	lui	s7,0x3
    1848:	00003b37          	lui	s6,0x3
    184c:	00003ab7          	lui	s5,0x3
    1850:	000039b7          	lui	s3,0x3
    1854:	00003937          	lui	s2,0x3
    1858:	000033b7          	lui	t2,0x3
    185c:	01012c23          	sw	a6,24(sp)
    1860:	00f12e23          	sw	a5,28(sp)
    1864:	447d0d13          	addi	s10,s10,1095 # 3447 <locked_pieces+0x2ff>
    1868:	448c8c93          	addi	s9,s9,1096 # 3448 <locked_pieces+0x300>
    186c:	449c0c13          	addi	s8,s8,1097 # 3449 <locked_pieces+0x301>
    1870:	44ab8b93          	addi	s7,s7,1098 # 344a <locked_pieces+0x302>
    1874:	44bb0b13          	addi	s6,s6,1099 # 344b <locked_pieces+0x303>
    1878:	584a8a93          	addi	s5,s5,1412 # 3584 <locked_pieces+0x43c>
    187c:	58598993          	addi	s3,s3,1413 # 3585 <locked_pieces+0x43d>
    1880:	58690913          	addi	s2,s2,1414 # 3586 <locked_pieces+0x43e>
    1884:	58738393          	addi	t2,t2,1415 # 3587 <locked_pieces+0x43f>
    1888:	ff058813          	addi	a6,a1,-16
    188c:	011607b3          	add	a5,a2,a7
    1890:	01082f83          	lw	t6,16(a6)
    1894:	320f9063          	bnez	t6,1bb4 <tick+0x4f4>
    1898:	00480813          	addi	a6,a6,4
    189c:	00878793          	addi	a5,a5,8
    18a0:	ff0598e3          	bne	a1,a6,1890 <tick+0x1d0>
    18a4:	7ff60613          	addi	a2,a2,2047
    18a8:	000067b7          	lui	a5,0x6
    18ac:	20160613          	addi	a2,a2,513
    18b0:	a0078793          	addi	a5,a5,-1536 # 5a00 <__global_pointer+0x2224>
    18b4:	01058593          	addi	a1,a1,16
    18b8:	f6f618e3          	bne	a2,a5,1828 <tick+0x168>
    18bc:	00070793          	mv	a5,a4
    18c0:	00040613          	mv	a2,s0
    18c4:	0a040593          	addi	a1,s0,160
    18c8:	0087a503          	lw	a0,8(a5)
    18cc:	0007a303          	lw	t1,0(a5)
    18d0:	0047a803          	lw	a6,4(a5)
    18d4:	00a62423          	sw	a0,8(a2)
    18d8:	00662023          	sw	t1,0(a2)
    18dc:	01062223          	sw	a6,4(a2)
    18e0:	00c7a503          	lw	a0,12(a5)
    18e4:	01078793          	addi	a5,a5,16
    18e8:	01060613          	addi	a2,a2,16
    18ec:	fea62e23          	sw	a0,-4(a2)
    18f0:	fcb79ce3          	bne	a5,a1,18c8 <tick+0x208>
    18f4:	00009337          	lui	t1,0x9
    18f8:	f0c32583          	lw	a1,-244(t1) # 8f0c <seed>
    18fc:	24925637          	lui	a2,0x24925
    1900:	92560613          	addi	a2,a2,-1755 # 24924925 <_stack_end+0x2481b989>
    1904:	00259793          	slli	a5,a1,0x2
    1908:	00b787b3          	add	a5,a5,a1
    190c:	00479813          	slli	a6,a5,0x4
    1910:	40f80833          	sub	a6,a6,a5
    1914:	0b380813          	addi	a6,a6,179
    1918:	03f87813          	andi	a6,a6,63
    191c:	0ff87593          	zext.b	a1,a6
    1920:	02c5b633          	mulhu	a2,a1,a2
    1924:	f1032623          	sw	a6,-244(t1)
    1928:	000037b7          	lui	a5,0x3
    192c:	dac78793          	addi	a5,a5,-596 # 2dac <pieces>
    1930:	40c58833          	sub	a6,a1,a2
    1934:	00185813          	srli	a6,a6,0x1
    1938:	01060633          	add	a2,a2,a6
    193c:	00265613          	srli	a2,a2,0x2
    1940:	00361813          	slli	a6,a2,0x3
    1944:	40c80633          	sub	a2,a6,a2
    1948:	40c58633          	sub	a2,a1,a2
    194c:	0ff67613          	zext.b	a2,a2
    1950:	00261593          	slli	a1,a2,0x2
    1954:	00c58633          	add	a2,a1,a2
    1958:	00461613          	slli	a2,a2,0x4
    195c:	00c787b3          	add	a5,a5,a2
    1960:	05078613          	addi	a2,a5,80
    1964:	0087a583          	lw	a1,8(a5)
    1968:	0007a803          	lw	a6,0(a5)
    196c:	0047a503          	lw	a0,4(a5)
    1970:	00b72423          	sw	a1,8(a4)
    1974:	01072023          	sw	a6,0(a4)
    1978:	00a72223          	sw	a0,4(a4)
    197c:	00c7a583          	lw	a1,12(a5)
    1980:	01078793          	addi	a5,a5,16
    1984:	01070713          	addi	a4,a4,16
    1988:	feb72e23          	sw	a1,-4(a4)
    198c:	fcc79ce3          	bne	a5,a2,1964 <tick+0x2a4>
    1990:	00003537          	lui	a0,0x3
    1994:	30950513          	addi	a0,a0,777 # 3309 <locked_pieces+0x1c1>
    1998:	00a12223          	sw	a0,4(sp)
    199c:	00003537          	lui	a0,0x3
    19a0:	30a50513          	addi	a0,a0,778 # 330a <locked_pieces+0x1c2>
    19a4:	00a12423          	sw	a0,8(sp)
    19a8:	00003537          	lui	a0,0x3
    19ac:	30b50513          	addi	a0,a0,779 # 330b <locked_pieces+0x1c3>
    19b0:	00a12623          	sw	a0,12(sp)
    19b4:	00003537          	lui	a0,0x3
    19b8:	44450513          	addi	a0,a0,1092 # 3444 <locked_pieces+0x2fc>
    19bc:	00003737          	lui	a4,0x3
    19c0:	00300793          	li	a5,3
    19c4:	00003637          	lui	a2,0x3
    19c8:	00003eb7          	lui	t4,0x3
    19cc:	00003e37          	lui	t3,0x3
    19d0:	00003337          	lui	t1,0x3
    19d4:	00003837          	lui	a6,0x3
    19d8:	000035b7          	lui	a1,0x3
    19dc:	00a12823          	sw	a0,16(sp)
    19e0:	44570713          	addi	a4,a4,1093 # 3445 <locked_pieces+0x2fd>
    19e4:	00003537          	lui	a0,0x3
    19e8:	00f42223          	sw	a5,4(s0)
    19ec:	00042423          	sw	zero,8(s0)
    19f0:	20060613          	addi	a2,a2,512 # 3200 <locked_pieces+0xb8>
    19f4:	304e8e93          	addi	t4,t4,772 # 3304 <locked_pieces+0x1bc>
    19f8:	305e0e13          	addi	t3,t3,773 # 3305 <locked_pieces+0x1bd>
    19fc:	30630313          	addi	t1,t1,774 # 3306 <locked_pieces+0x1be>
    1a00:	30780813          	addi	a6,a6,775 # 3307 <locked_pieces+0x1bf>
    1a04:	30858593          	addi	a1,a1,776 # 3308 <locked_pieces+0x1c0>
    1a08:	00e12a23          	sw	a4,20(sp)
    1a0c:	44650513          	addi	a0,a0,1094 # 3446 <locked_pieces+0x2fe>
    1a10:	000037b7          	lui	a5,0x3
    1a14:	58978793          	addi	a5,a5,1417 # 3589 <locked_pieces+0x441>
    1a18:	00003c37          	lui	s8,0x3
    1a1c:	00003bb7          	lui	s7,0x3
    1a20:	00003b37          	lui	s6,0x3
    1a24:	00003ab7          	lui	s5,0x3
    1a28:	000039b7          	lui	s3,0x3
    1a2c:	00003937          	lui	s2,0x3
    1a30:	000033b7          	lui	t2,0x3
    1a34:	000032b7          	lui	t0,0x3
    1a38:	00003fb7          	lui	t6,0x3
    1a3c:	00003f37          	lui	t5,0x3
    1a40:	00f12c23          	sw	a5,24(sp)
    1a44:	447c0c13          	addi	s8,s8,1095 # 3447 <locked_pieces+0x2ff>
    1a48:	448b8b93          	addi	s7,s7,1096 # 3448 <locked_pieces+0x300>
    1a4c:	449b0b13          	addi	s6,s6,1097 # 3449 <locked_pieces+0x301>
    1a50:	44aa8a93          	addi	s5,s5,1098 # 344a <locked_pieces+0x302>
    1a54:	44b98993          	addi	s3,s3,1099 # 344b <locked_pieces+0x303>
    1a58:	58490913          	addi	s2,s2,1412 # 3584 <locked_pieces+0x43c>
    1a5c:	58538393          	addi	t2,t2,1413 # 3585 <locked_pieces+0x43d>
    1a60:	58628293          	addi	t0,t0,1414 # 3586 <locked_pieces+0x43e>
    1a64:	587f8f93          	addi	t6,t6,1415 # 3587 <locked_pieces+0x43f>
    1a68:	588f0f13          	addi	t5,t5,1416 # 3588 <locked_pieces+0x440>
    1a6c:	ff068713          	addi	a4,a3,-16
    1a70:	011607b3          	add	a5,a2,a7
    1a74:	01072c83          	lw	s9,16(a4)
    1a78:	540c92e3          	bnez	s9,27bc <tick+0x10fc>
    1a7c:	00470713          	addi	a4,a4,4
    1a80:	00878793          	addi	a5,a5,8
    1a84:	fee698e3          	bne	a3,a4,1a74 <tick+0x3b4>
    1a88:	7ff60613          	addi	a2,a2,2047
    1a8c:	000067b7          	lui	a5,0x6
    1a90:	20160613          	addi	a2,a2,513
    1a94:	a0078793          	addi	a5,a5,-1536 # 5a00 <__global_pointer+0x2224>
    1a98:	01068693          	addi	a3,a3,16
    1a9c:	f6f61ae3          	bne	a2,a5,1a10 <tick+0x350>
    1aa0:	000a0513          	mv	a0,s4
    1aa4:	06012903          	lw	s2,96(sp)
    1aa8:	05c12983          	lw	s3,92(sp)
    1aac:	05412a83          	lw	s5,84(sp)
    1ab0:	05012b03          	lw	s6,80(sp)
    1ab4:	04c12b83          	lw	s7,76(sp)
    1ab8:	04812c03          	lw	s8,72(sp)
    1abc:	04412c83          	lw	s9,68(sp)
    1ac0:	04012d03          	lw	s10,64(sp)
    1ac4:	03c12d83          	lw	s11,60(sp)
    1ac8:	c7dfe0ef          	jal	744 <draw_grid>
    1acc:	f084a783          	lw	a5,-248(s1)
    1ad0:	46f04863          	bgtz	a5,1f40 <tick+0x880>
    1ad4:	00040313          	mv	t1,s0
    1ad8:	00000893          	li	a7,0
    1adc:	00400613          	li	a2,4
    1ae0:	00030693          	mv	a3,t1
    1ae4:	00000713          	li	a4,0
    1ae8:	0106a783          	lw	a5,16(a3)
    1aec:	06079ae3          	bnez	a5,2360 <tick+0xca0>
    1af0:	00170713          	addi	a4,a4,1
    1af4:	00468693          	addi	a3,a3,4
    1af8:	fec718e3          	bne	a4,a2,1ae8 <tick+0x428>
    1afc:	00188893          	addi	a7,a7,1
    1b00:	01030313          	addi	t1,t1,16
    1b04:	fce89ee3          	bne	a7,a4,1ae0 <tick+0x420>
    1b08:	06c12083          	lw	ra,108(sp)
    1b0c:	06812403          	lw	s0,104(sp)
    1b10:	06412483          	lw	s1,100(sp)
    1b14:	05812a03          	lw	s4,88(sp)
    1b18:	07010113          	addi	sp,sp,112
    1b1c:	00008067          	ret
    1b20:	00271693          	slli	a3,a4,0x2
    1b24:	00e686b3          	add	a3,a3,a4
    1b28:	000037b7          	lui	a5,0x3
    1b2c:	00469693          	slli	a3,a3,0x4
    1b30:	00170713          	addi	a4,a4,1
    1b34:	14878793          	addi	a5,a5,328 # 3148 <locked_pieces>
    1b38:	f0e4a423          	sw	a4,-248(s1)
    1b3c:	00d787b3          	add	a5,a5,a3
    1b40:	05040713          	addi	a4,s0,80
    1b44:	00040693          	mv	a3,s0
    1b48:	0086a603          	lw	a2,8(a3)
    1b4c:	0006a503          	lw	a0,0(a3)
    1b50:	0046a583          	lw	a1,4(a3)
    1b54:	00c7a423          	sw	a2,8(a5)
    1b58:	00a7a023          	sw	a0,0(a5)
    1b5c:	00b7a223          	sw	a1,4(a5)
    1b60:	00c6a603          	lw	a2,12(a3)
    1b64:	01068693          	addi	a3,a3,16
    1b68:	01078793          	addi	a5,a5,16
    1b6c:	fec7ae23          	sw	a2,-4(a5)
    1b70:	fce69ce3          	bne	a3,a4,1b48 <tick+0x488>
    1b74:	c35ff06f          	j	17a8 <tick+0xe8>
    1b78:	04842703          	lw	a4,72(s0)
    1b7c:	bc071ee3          	bnez	a4,1758 <tick+0x98>
    1b80:	04c42703          	lw	a4,76(s0)
    1b84:	bc071ae3          	bnez	a4,1758 <tick+0x98>
    1b88:	bd5ff06f          	j	175c <tick+0x9c>
    1b8c:	03842703          	lw	a4,56(s0)
    1b90:	ba071ae3          	bnez	a4,1744 <tick+0x84>
    1b94:	03c42703          	lw	a4,60(s0)
    1b98:	ba0716e3          	bnez	a4,1744 <tick+0x84>
    1b9c:	badff06f          	j	1748 <tick+0x88>
    1ba0:	02842703          	lw	a4,40(s0)
    1ba4:	b80716e3          	bnez	a4,1730 <tick+0x70>
    1ba8:	02c42703          	lw	a4,44(s0)
    1bac:	b80712e3          	bnez	a4,1730 <tick+0x70>
    1bb0:	b85ff06f          	j	1734 <tick+0x74>
    1bb4:	01e78fb3          	add	t6,a5,t5
    1bb8:	000f8023          	sb	zero,0(t6)
    1bbc:	01d78fb3          	add	t6,a5,t4
    1bc0:	000f8023          	sb	zero,0(t6)
    1bc4:	01c78fb3          	add	t6,a5,t3
    1bc8:	000f8023          	sb	zero,0(t6)
    1bcc:	00678fb3          	add	t6,a5,t1
    1bd0:	000f8023          	sb	zero,0(t6)
    1bd4:	01b78fb3          	add	t6,a5,s11
    1bd8:	000f8023          	sb	zero,0(t6)
    1bdc:	00412f83          	lw	t6,4(sp)
    1be0:	000032b7          	lui	t0,0x3
    1be4:	58a28293          	addi	t0,t0,1418 # 358a <locked_pieces+0x442>
    1be8:	01f78fb3          	add	t6,a5,t6
    1bec:	000f8023          	sb	zero,0(t6)
    1bf0:	00812f83          	lw	t6,8(sp)
    1bf4:	005782b3          	add	t0,a5,t0
    1bf8:	01f78fb3          	add	t6,a5,t6
    1bfc:	000f8023          	sb	zero,0(t6)
    1c00:	00c12f83          	lw	t6,12(sp)
    1c04:	01f78fb3          	add	t6,a5,t6
    1c08:	000f8023          	sb	zero,0(t6)
    1c0c:	01012f83          	lw	t6,16(sp)
    1c10:	01f78fb3          	add	t6,a5,t6
    1c14:	000f8023          	sb	zero,0(t6)
    1c18:	01412f83          	lw	t6,20(sp)
    1c1c:	01f78fb3          	add	t6,a5,t6
    1c20:	000f8023          	sb	zero,0(t6)
    1c24:	00a78fb3          	add	t6,a5,a0
    1c28:	000f8023          	sb	zero,0(t6)
    1c2c:	01a78fb3          	add	t6,a5,s10
    1c30:	000f8023          	sb	zero,0(t6)
    1c34:	01978fb3          	add	t6,a5,s9
    1c38:	000f8023          	sb	zero,0(t6)
    1c3c:	01878fb3          	add	t6,a5,s8
    1c40:	000f8023          	sb	zero,0(t6)
    1c44:	01778fb3          	add	t6,a5,s7
    1c48:	000f8023          	sb	zero,0(t6)
    1c4c:	01678fb3          	add	t6,a5,s6
    1c50:	000f8023          	sb	zero,0(t6)
    1c54:	01578fb3          	add	t6,a5,s5
    1c58:	000f8023          	sb	zero,0(t6)
    1c5c:	01378fb3          	add	t6,a5,s3
    1c60:	000f8023          	sb	zero,0(t6)
    1c64:	01278fb3          	add	t6,a5,s2
    1c68:	000f8023          	sb	zero,0(t6)
    1c6c:	00778fb3          	add	t6,a5,t2
    1c70:	000f8023          	sb	zero,0(t6)
    1c74:	01812f83          	lw	t6,24(sp)
    1c78:	01f78fb3          	add	t6,a5,t6
    1c7c:	000f8023          	sb	zero,0(t6)
    1c80:	01c12f83          	lw	t6,28(sp)
    1c84:	01f78fb3          	add	t6,a5,t6
    1c88:	000f8023          	sb	zero,0(t6)
    1c8c:	00003fb7          	lui	t6,0x3
    1c90:	58bf8f93          	addi	t6,t6,1419 # 358b <locked_pieces+0x443>
    1c94:	00028023          	sb	zero,0(t0)
    1c98:	01f78fb3          	add	t6,a5,t6
    1c9c:	000032b7          	lui	t0,0x3
    1ca0:	000f8023          	sb	zero,0(t6)
    1ca4:	6c428293          	addi	t0,t0,1732 # 36c4 <locked_pieces+0x57c>
    1ca8:	00003fb7          	lui	t6,0x3
    1cac:	005782b3          	add	t0,a5,t0
    1cb0:	6c5f8f93          	addi	t6,t6,1733 # 36c5 <locked_pieces+0x57d>
    1cb4:	00028023          	sb	zero,0(t0)
    1cb8:	01f78fb3          	add	t6,a5,t6
    1cbc:	000032b7          	lui	t0,0x3
    1cc0:	000f8023          	sb	zero,0(t6)
    1cc4:	6c628293          	addi	t0,t0,1734 # 36c6 <locked_pieces+0x57e>
    1cc8:	00003fb7          	lui	t6,0x3
    1ccc:	005782b3          	add	t0,a5,t0
    1cd0:	6c7f8f93          	addi	t6,t6,1735 # 36c7 <locked_pieces+0x57f>
    1cd4:	00028023          	sb	zero,0(t0)
    1cd8:	01f78fb3          	add	t6,a5,t6
    1cdc:	000032b7          	lui	t0,0x3
    1ce0:	000f8023          	sb	zero,0(t6)
    1ce4:	6c828293          	addi	t0,t0,1736 # 36c8 <locked_pieces+0x580>
    1ce8:	00003fb7          	lui	t6,0x3
    1cec:	005782b3          	add	t0,a5,t0
    1cf0:	6c9f8f93          	addi	t6,t6,1737 # 36c9 <locked_pieces+0x581>
    1cf4:	00028023          	sb	zero,0(t0)
    1cf8:	01f78fb3          	add	t6,a5,t6
    1cfc:	000032b7          	lui	t0,0x3
    1d00:	000f8023          	sb	zero,0(t6)
    1d04:	6ca28293          	addi	t0,t0,1738 # 36ca <locked_pieces+0x582>
    1d08:	00003fb7          	lui	t6,0x3
    1d0c:	005782b3          	add	t0,a5,t0
    1d10:	6cbf8f93          	addi	t6,t6,1739 # 36cb <locked_pieces+0x583>
    1d14:	00028023          	sb	zero,0(t0)
    1d18:	01f78fb3          	add	t6,a5,t6
    1d1c:	000042b7          	lui	t0,0x4
    1d20:	000f8023          	sb	zero,0(t6)
    1d24:	80428293          	addi	t0,t0,-2044 # 3804 <__global_pointer+0x28>
    1d28:	00004fb7          	lui	t6,0x4
    1d2c:	005782b3          	add	t0,a5,t0
    1d30:	805f8f93          	addi	t6,t6,-2043 # 3805 <__global_pointer+0x29>
    1d34:	00028023          	sb	zero,0(t0)
    1d38:	01f78fb3          	add	t6,a5,t6
    1d3c:	000042b7          	lui	t0,0x4
    1d40:	000f8023          	sb	zero,0(t6)
    1d44:	80628293          	addi	t0,t0,-2042 # 3806 <__global_pointer+0x2a>
    1d48:	00004fb7          	lui	t6,0x4
    1d4c:	005782b3          	add	t0,a5,t0
    1d50:	807f8f93          	addi	t6,t6,-2041 # 3807 <__global_pointer+0x2b>
    1d54:	00028023          	sb	zero,0(t0)
    1d58:	01f78fb3          	add	t6,a5,t6
    1d5c:	000042b7          	lui	t0,0x4
    1d60:	000f8023          	sb	zero,0(t6)
    1d64:	80828293          	addi	t0,t0,-2040 # 3808 <__global_pointer+0x2c>
    1d68:	00004fb7          	lui	t6,0x4
    1d6c:	005782b3          	add	t0,a5,t0
    1d70:	809f8f93          	addi	t6,t6,-2039 # 3809 <__global_pointer+0x2d>
    1d74:	00028023          	sb	zero,0(t0)
    1d78:	01f78fb3          	add	t6,a5,t6
    1d7c:	000042b7          	lui	t0,0x4
    1d80:	000f8023          	sb	zero,0(t6)
    1d84:	80a28293          	addi	t0,t0,-2038 # 380a <__global_pointer+0x2e>
    1d88:	00004fb7          	lui	t6,0x4
    1d8c:	005782b3          	add	t0,a5,t0
    1d90:	80bf8f93          	addi	t6,t6,-2037 # 380b <__global_pointer+0x2f>
    1d94:	00028023          	sb	zero,0(t0)
    1d98:	01f78fb3          	add	t6,a5,t6
    1d9c:	000042b7          	lui	t0,0x4
    1da0:	000f8023          	sb	zero,0(t6)
    1da4:	94428293          	addi	t0,t0,-1724 # 3944 <__global_pointer+0x168>
    1da8:	00004fb7          	lui	t6,0x4
    1dac:	005782b3          	add	t0,a5,t0
    1db0:	945f8f93          	addi	t6,t6,-1723 # 3945 <__global_pointer+0x169>
    1db4:	00028023          	sb	zero,0(t0)
    1db8:	01f78fb3          	add	t6,a5,t6
    1dbc:	000042b7          	lui	t0,0x4
    1dc0:	000f8023          	sb	zero,0(t6)
    1dc4:	94628293          	addi	t0,t0,-1722 # 3946 <__global_pointer+0x16a>
    1dc8:	00004fb7          	lui	t6,0x4
    1dcc:	005782b3          	add	t0,a5,t0
    1dd0:	947f8f93          	addi	t6,t6,-1721 # 3947 <__global_pointer+0x16b>
    1dd4:	00028023          	sb	zero,0(t0)
    1dd8:	01f78fb3          	add	t6,a5,t6
    1ddc:	000042b7          	lui	t0,0x4
    1de0:	000f8023          	sb	zero,0(t6)
    1de4:	94828293          	addi	t0,t0,-1720 # 3948 <__global_pointer+0x16c>
    1de8:	00004fb7          	lui	t6,0x4
    1dec:	005782b3          	add	t0,a5,t0
    1df0:	949f8f93          	addi	t6,t6,-1719 # 3949 <__global_pointer+0x16d>
    1df4:	00028023          	sb	zero,0(t0)
    1df8:	01f78fb3          	add	t6,a5,t6
    1dfc:	000042b7          	lui	t0,0x4
    1e00:	000f8023          	sb	zero,0(t6)
    1e04:	94a28293          	addi	t0,t0,-1718 # 394a <__global_pointer+0x16e>
    1e08:	00004fb7          	lui	t6,0x4
    1e0c:	005782b3          	add	t0,a5,t0
    1e10:	94bf8f93          	addi	t6,t6,-1717 # 394b <__global_pointer+0x16f>
    1e14:	00028023          	sb	zero,0(t0)
    1e18:	01f78fb3          	add	t6,a5,t6
    1e1c:	000042b7          	lui	t0,0x4
    1e20:	000f8023          	sb	zero,0(t6)
    1e24:	a8428293          	addi	t0,t0,-1404 # 3a84 <__global_pointer+0x2a8>
    1e28:	00004fb7          	lui	t6,0x4
    1e2c:	005782b3          	add	t0,a5,t0
    1e30:	a85f8f93          	addi	t6,t6,-1403 # 3a85 <__global_pointer+0x2a9>
    1e34:	00028023          	sb	zero,0(t0)
    1e38:	01f78fb3          	add	t6,a5,t6
    1e3c:	000042b7          	lui	t0,0x4
    1e40:	000f8023          	sb	zero,0(t6)
    1e44:	a8628293          	addi	t0,t0,-1402 # 3a86 <__global_pointer+0x2aa>
    1e48:	00004fb7          	lui	t6,0x4
    1e4c:	005782b3          	add	t0,a5,t0
    1e50:	a87f8f93          	addi	t6,t6,-1401 # 3a87 <__global_pointer+0x2ab>
    1e54:	00028023          	sb	zero,0(t0)
    1e58:	01f78fb3          	add	t6,a5,t6
    1e5c:	000042b7          	lui	t0,0x4
    1e60:	000f8023          	sb	zero,0(t6)
    1e64:	a8828293          	addi	t0,t0,-1400 # 3a88 <__global_pointer+0x2ac>
    1e68:	00004fb7          	lui	t6,0x4
    1e6c:	005782b3          	add	t0,a5,t0
    1e70:	a89f8f93          	addi	t6,t6,-1399 # 3a89 <__global_pointer+0x2ad>
    1e74:	00028023          	sb	zero,0(t0)
    1e78:	01f78fb3          	add	t6,a5,t6
    1e7c:	000042b7          	lui	t0,0x4
    1e80:	000f8023          	sb	zero,0(t6)
    1e84:	a8a28293          	addi	t0,t0,-1398 # 3a8a <__global_pointer+0x2ae>
    1e88:	00004fb7          	lui	t6,0x4
    1e8c:	005782b3          	add	t0,a5,t0
    1e90:	a8bf8f93          	addi	t6,t6,-1397 # 3a8b <__global_pointer+0x2af>
    1e94:	00028023          	sb	zero,0(t0)
    1e98:	01f78fb3          	add	t6,a5,t6
    1e9c:	000042b7          	lui	t0,0x4
    1ea0:	000f8023          	sb	zero,0(t6)
    1ea4:	bc428293          	addi	t0,t0,-1084 # 3bc4 <__global_pointer+0x3e8>
    1ea8:	00004fb7          	lui	t6,0x4
    1eac:	005782b3          	add	t0,a5,t0
    1eb0:	bc5f8f93          	addi	t6,t6,-1083 # 3bc5 <__global_pointer+0x3e9>
    1eb4:	00028023          	sb	zero,0(t0)
    1eb8:	01f78fb3          	add	t6,a5,t6
    1ebc:	000042b7          	lui	t0,0x4
    1ec0:	000f8023          	sb	zero,0(t6)
    1ec4:	bc628293          	addi	t0,t0,-1082 # 3bc6 <__global_pointer+0x3ea>
    1ec8:	00004fb7          	lui	t6,0x4
    1ecc:	005782b3          	add	t0,a5,t0
    1ed0:	bc7f8f93          	addi	t6,t6,-1081 # 3bc7 <__global_pointer+0x3eb>
    1ed4:	00028023          	sb	zero,0(t0)
    1ed8:	01f78fb3          	add	t6,a5,t6
    1edc:	000042b7          	lui	t0,0x4
    1ee0:	000f8023          	sb	zero,0(t6)
    1ee4:	bc828293          	addi	t0,t0,-1080 # 3bc8 <__global_pointer+0x3ec>
    1ee8:	00004fb7          	lui	t6,0x4
    1eec:	005782b3          	add	t0,a5,t0
    1ef0:	bc9f8f93          	addi	t6,t6,-1079 # 3bc9 <__global_pointer+0x3ed>
    1ef4:	00028023          	sb	zero,0(t0)
    1ef8:	01f78fb3          	add	t6,a5,t6
    1efc:	000042b7          	lui	t0,0x4
    1f00:	000f8023          	sb	zero,0(t6)
    1f04:	bca28293          	addi	t0,t0,-1078 # 3bca <__global_pointer+0x3ee>
    1f08:	00004fb7          	lui	t6,0x4
    1f0c:	005782b3          	add	t0,a5,t0
    1f10:	bcbf8f93          	addi	t6,t6,-1077 # 3bcb <__global_pointer+0x3ef>
    1f14:	00028023          	sb	zero,0(t0)
    1f18:	01f78fb3          	add	t6,a5,t6
    1f1c:	000f8023          	sb	zero,0(t6)
    1f20:	979ff06f          	j	1898 <tick+0x1d8>
    1f24:	00170713          	addi	a4,a4,1
    1f28:	000a0513          	mv	a0,s4
    1f2c:	00e42423          	sw	a4,8(s0)
    1f30:	000094b7          	lui	s1,0x9
    1f34:	811fe0ef          	jal	744 <draw_grid>
    1f38:	f084a783          	lw	a5,-248(s1) # 8f08 <num_locked>
    1f3c:	b8f05ce3          	blez	a5,1ad4 <tick+0x414>
    1f40:	00003737          	lui	a4,0x3
    1f44:	14870713          	addi	a4,a4,328 # 3148 <locked_pieces>
    1f48:	00000e93          	li	t4,0
    1f4c:	00400893          	li	a7,4
    1f50:	00070313          	mv	t1,a4
    1f54:	00000813          	li	a6,0
    1f58:	00030613          	mv	a2,t1
    1f5c:	00000693          	li	a3,0
    1f60:	01062783          	lw	a5,16(a2)
    1f64:	02079863          	bnez	a5,1f94 <tick+0x8d4>
    1f68:	00168693          	addi	a3,a3,1
    1f6c:	00460613          	addi	a2,a2,4
    1f70:	ff1698e3          	bne	a3,a7,1f60 <tick+0x8a0>
    1f74:	00180813          	addi	a6,a6,1
    1f78:	01030313          	addi	t1,t1,16
    1f7c:	fd181ee3          	bne	a6,a7,1f58 <tick+0x898>
    1f80:	f084a783          	lw	a5,-248(s1)
    1f84:	001e8e93          	addi	t4,t4,1
    1f88:	05070713          	addi	a4,a4,80
    1f8c:	fcfec2e3          	blt	t4,a5,1f50 <tick+0x890>
    1f90:	b45ff06f          	j	1ad4 <tick+0x414>
    1f94:	00872583          	lw	a1,8(a4)
    1f98:	00472503          	lw	a0,4(a4)
    1f9c:	00c74e03          	lbu	t3,12(a4)
    1fa0:	00b805b3          	add	a1,a6,a1
    1fa4:	00558593          	addi	a1,a1,5
    1fa8:	00259793          	slli	a5,a1,0x2
    1fac:	00b787b3          	add	a5,a5,a1
    1fb0:	00a685b3          	add	a1,a3,a0
    1fb4:	00f58593          	addi	a1,a1,15
    1fb8:	00679793          	slli	a5,a5,0x6
    1fbc:	00b787b3          	add	a5,a5,a1
    1fc0:	00379793          	slli	a5,a5,0x3
    1fc4:	00fa0533          	add	a0,s4,a5
    1fc8:	00178593          	addi	a1,a5,1
    1fcc:	01c50023          	sb	t3,0(a0)
    1fd0:	00ba05b3          	add	a1,s4,a1
    1fd4:	01c58023          	sb	t3,0(a1)
    1fd8:	00c74e03          	lbu	t3,12(a4)
    1fdc:	00278513          	addi	a0,a5,2
    1fe0:	00aa0533          	add	a0,s4,a0
    1fe4:	00378593          	addi	a1,a5,3
    1fe8:	01c50023          	sb	t3,0(a0)
    1fec:	00ba05b3          	add	a1,s4,a1
    1ff0:	01c58023          	sb	t3,0(a1)
    1ff4:	00c74e03          	lbu	t3,12(a4)
    1ff8:	00478513          	addi	a0,a5,4
    1ffc:	00aa0533          	add	a0,s4,a0
    2000:	00578593          	addi	a1,a5,5
    2004:	01c50023          	sb	t3,0(a0)
    2008:	00ba05b3          	add	a1,s4,a1
    200c:	01c58023          	sb	t3,0(a1)
    2010:	00c74e03          	lbu	t3,12(a4)
    2014:	00678513          	addi	a0,a5,6
    2018:	00aa0533          	add	a0,s4,a0
    201c:	00778593          	addi	a1,a5,7
    2020:	01c50023          	sb	t3,0(a0)
    2024:	00ba05b3          	add	a1,s4,a1
    2028:	01c58023          	sb	t3,0(a1)
    202c:	00c74e03          	lbu	t3,12(a4)
    2030:	14078513          	addi	a0,a5,320
    2034:	00aa0533          	add	a0,s4,a0
    2038:	14178593          	addi	a1,a5,321
    203c:	01c50023          	sb	t3,0(a0)
    2040:	00ba05b3          	add	a1,s4,a1
    2044:	01c58023          	sb	t3,0(a1)
    2048:	00c74e03          	lbu	t3,12(a4)
    204c:	14278513          	addi	a0,a5,322
    2050:	00aa0533          	add	a0,s4,a0
    2054:	14378593          	addi	a1,a5,323
    2058:	01c50023          	sb	t3,0(a0)
    205c:	00ba05b3          	add	a1,s4,a1
    2060:	01c58023          	sb	t3,0(a1)
    2064:	00c74e03          	lbu	t3,12(a4)
    2068:	14478513          	addi	a0,a5,324
    206c:	00aa0533          	add	a0,s4,a0
    2070:	14578593          	addi	a1,a5,325
    2074:	01c50023          	sb	t3,0(a0)
    2078:	00ba05b3          	add	a1,s4,a1
    207c:	01c58023          	sb	t3,0(a1)
    2080:	00c74e03          	lbu	t3,12(a4)
    2084:	14678513          	addi	a0,a5,326
    2088:	00aa0533          	add	a0,s4,a0
    208c:	14778593          	addi	a1,a5,327
    2090:	01c50023          	sb	t3,0(a0)
    2094:	00ba05b3          	add	a1,s4,a1
    2098:	01c58023          	sb	t3,0(a1)
    209c:	00c74e03          	lbu	t3,12(a4)
    20a0:	28078513          	addi	a0,a5,640
    20a4:	00aa0533          	add	a0,s4,a0
    20a8:	28178593          	addi	a1,a5,641
    20ac:	01c50023          	sb	t3,0(a0)
    20b0:	00ba05b3          	add	a1,s4,a1
    20b4:	01c58023          	sb	t3,0(a1)
    20b8:	00c74e03          	lbu	t3,12(a4)
    20bc:	28278513          	addi	a0,a5,642
    20c0:	00aa0533          	add	a0,s4,a0
    20c4:	28378593          	addi	a1,a5,643
    20c8:	01c50023          	sb	t3,0(a0)
    20cc:	00ba05b3          	add	a1,s4,a1
    20d0:	01c58023          	sb	t3,0(a1)
    20d4:	00c74e03          	lbu	t3,12(a4)
    20d8:	28478513          	addi	a0,a5,644
    20dc:	00aa0533          	add	a0,s4,a0
    20e0:	28578593          	addi	a1,a5,645
    20e4:	01c50023          	sb	t3,0(a0)
    20e8:	00ba05b3          	add	a1,s4,a1
    20ec:	01c58023          	sb	t3,0(a1)
    20f0:	00c74e03          	lbu	t3,12(a4)
    20f4:	28678513          	addi	a0,a5,646
    20f8:	00aa0533          	add	a0,s4,a0
    20fc:	28778593          	addi	a1,a5,647
    2100:	01c50023          	sb	t3,0(a0)
    2104:	00ba05b3          	add	a1,s4,a1
    2108:	01c58023          	sb	t3,0(a1)
    210c:	00c74e03          	lbu	t3,12(a4)
    2110:	3c078513          	addi	a0,a5,960
    2114:	00aa0533          	add	a0,s4,a0
    2118:	3c178593          	addi	a1,a5,961
    211c:	01c50023          	sb	t3,0(a0)
    2120:	00ba05b3          	add	a1,s4,a1
    2124:	01c58023          	sb	t3,0(a1)
    2128:	00c74e03          	lbu	t3,12(a4)
    212c:	3c278513          	addi	a0,a5,962
    2130:	00aa0533          	add	a0,s4,a0
    2134:	3c378593          	addi	a1,a5,963
    2138:	01c50023          	sb	t3,0(a0)
    213c:	00ba05b3          	add	a1,s4,a1
    2140:	01c58023          	sb	t3,0(a1)
    2144:	00c74e03          	lbu	t3,12(a4)
    2148:	3c478513          	addi	a0,a5,964
    214c:	00aa0533          	add	a0,s4,a0
    2150:	3c578593          	addi	a1,a5,965
    2154:	01c50023          	sb	t3,0(a0)
    2158:	00ba05b3          	add	a1,s4,a1
    215c:	01c58023          	sb	t3,0(a1)
    2160:	00c74e03          	lbu	t3,12(a4)
    2164:	3c678513          	addi	a0,a5,966
    2168:	00aa0533          	add	a0,s4,a0
    216c:	3c778593          	addi	a1,a5,967
    2170:	01c50023          	sb	t3,0(a0)
    2174:	00ba05b3          	add	a1,s4,a1
    2178:	01c58023          	sb	t3,0(a1)
    217c:	00c74e03          	lbu	t3,12(a4)
    2180:	50078513          	addi	a0,a5,1280
    2184:	00aa0533          	add	a0,s4,a0
    2188:	50178593          	addi	a1,a5,1281
    218c:	01c50023          	sb	t3,0(a0)
    2190:	00ba05b3          	add	a1,s4,a1
    2194:	01c58023          	sb	t3,0(a1)
    2198:	00c74e03          	lbu	t3,12(a4)
    219c:	50278513          	addi	a0,a5,1282
    21a0:	00aa0533          	add	a0,s4,a0
    21a4:	50378593          	addi	a1,a5,1283
    21a8:	01c50023          	sb	t3,0(a0)
    21ac:	00ba05b3          	add	a1,s4,a1
    21b0:	01c58023          	sb	t3,0(a1)
    21b4:	00c74e03          	lbu	t3,12(a4)
    21b8:	50478513          	addi	a0,a5,1284
    21bc:	00aa0533          	add	a0,s4,a0
    21c0:	50578593          	addi	a1,a5,1285
    21c4:	01c50023          	sb	t3,0(a0)
    21c8:	00ba05b3          	add	a1,s4,a1
    21cc:	01c58023          	sb	t3,0(a1)
    21d0:	00c74e03          	lbu	t3,12(a4)
    21d4:	50678513          	addi	a0,a5,1286
    21d8:	00aa0533          	add	a0,s4,a0
    21dc:	50778593          	addi	a1,a5,1287
    21e0:	01c50023          	sb	t3,0(a0)
    21e4:	00ba05b3          	add	a1,s4,a1
    21e8:	01c58023          	sb	t3,0(a1)
    21ec:	00c74e03          	lbu	t3,12(a4)
    21f0:	64078513          	addi	a0,a5,1600
    21f4:	00aa0533          	add	a0,s4,a0
    21f8:	64178593          	addi	a1,a5,1601
    21fc:	01c50023          	sb	t3,0(a0)
    2200:	00ba05b3          	add	a1,s4,a1
    2204:	01c58023          	sb	t3,0(a1)
    2208:	00c74e03          	lbu	t3,12(a4)
    220c:	64278513          	addi	a0,a5,1602
    2210:	00aa0533          	add	a0,s4,a0
    2214:	64378593          	addi	a1,a5,1603
    2218:	01c50023          	sb	t3,0(a0)
    221c:	00ba05b3          	add	a1,s4,a1
    2220:	01c58023          	sb	t3,0(a1)
    2224:	00c74e03          	lbu	t3,12(a4)
    2228:	64478513          	addi	a0,a5,1604
    222c:	00aa0533          	add	a0,s4,a0
    2230:	64578593          	addi	a1,a5,1605
    2234:	01c50023          	sb	t3,0(a0)
    2238:	00ba05b3          	add	a1,s4,a1
    223c:	01c58023          	sb	t3,0(a1)
    2240:	00c74e03          	lbu	t3,12(a4)
    2244:	64678513          	addi	a0,a5,1606
    2248:	00aa0533          	add	a0,s4,a0
    224c:	64778593          	addi	a1,a5,1607
    2250:	01c50023          	sb	t3,0(a0)
    2254:	00ba05b3          	add	a1,s4,a1
    2258:	01c58023          	sb	t3,0(a1)
    225c:	00c74e03          	lbu	t3,12(a4)
    2260:	78078513          	addi	a0,a5,1920
    2264:	00aa0533          	add	a0,s4,a0
    2268:	78178593          	addi	a1,a5,1921
    226c:	01c50023          	sb	t3,0(a0)
    2270:	00ba05b3          	add	a1,s4,a1
    2274:	01c58023          	sb	t3,0(a1)
    2278:	00c74e03          	lbu	t3,12(a4)
    227c:	78278513          	addi	a0,a5,1922
    2280:	00aa0533          	add	a0,s4,a0
    2284:	78378593          	addi	a1,a5,1923
    2288:	01c50023          	sb	t3,0(a0)
    228c:	00ba05b3          	add	a1,s4,a1
    2290:	01c58023          	sb	t3,0(a1)
    2294:	00c74e03          	lbu	t3,12(a4)
    2298:	78478513          	addi	a0,a5,1924
    229c:	00aa0533          	add	a0,s4,a0
    22a0:	78578593          	addi	a1,a5,1925
    22a4:	01c50023          	sb	t3,0(a0)
    22a8:	00ba05b3          	add	a1,s4,a1
    22ac:	01c58023          	sb	t3,0(a1)
    22b0:	00c74e03          	lbu	t3,12(a4)
    22b4:	78678513          	addi	a0,a5,1926
    22b8:	00aa0533          	add	a0,s4,a0
    22bc:	78778593          	addi	a1,a5,1927
    22c0:	01c50023          	sb	t3,0(a0)
    22c4:	00ba05b3          	add	a1,s4,a1
    22c8:	01c58023          	sb	t3,0(a1)
    22cc:	00c74e03          	lbu	t3,12(a4)
    22d0:	7ff78513          	addi	a0,a5,2047
    22d4:	7ff78593          	addi	a1,a5,2047
    22d8:	0c150513          	addi	a0,a0,193
    22dc:	00aa0533          	add	a0,s4,a0
    22e0:	0c258593          	addi	a1,a1,194
    22e4:	01c50023          	sb	t3,0(a0)
    22e8:	00ba05b3          	add	a1,s4,a1
    22ec:	01c58023          	sb	t3,0(a1)
    22f0:	00c74e03          	lbu	t3,12(a4)
    22f4:	7ff78513          	addi	a0,a5,2047
    22f8:	7ff78593          	addi	a1,a5,2047
    22fc:	0c350513          	addi	a0,a0,195
    2300:	00aa0533          	add	a0,s4,a0
    2304:	0c458593          	addi	a1,a1,196
    2308:	01c50023          	sb	t3,0(a0)
    230c:	00ba05b3          	add	a1,s4,a1
    2310:	01c58023          	sb	t3,0(a1)
    2314:	00c74e03          	lbu	t3,12(a4)
    2318:	7ff78513          	addi	a0,a5,2047
    231c:	7ff78593          	addi	a1,a5,2047
    2320:	0c550513          	addi	a0,a0,197
    2324:	00aa0533          	add	a0,s4,a0
    2328:	0c658593          	addi	a1,a1,198
    232c:	01c50023          	sb	t3,0(a0)
    2330:	00ba05b3          	add	a1,s4,a1
    2334:	01c58023          	sb	t3,0(a1)
    2338:	00c74503          	lbu	a0,12(a4)
    233c:	7ff78593          	addi	a1,a5,2047
    2340:	0c758593          	addi	a1,a1,199
    2344:	7ff78793          	addi	a5,a5,2047
    2348:	00ba05b3          	add	a1,s4,a1
    234c:	0c878793          	addi	a5,a5,200
    2350:	00a58023          	sb	a0,0(a1)
    2354:	00fa07b3          	add	a5,s4,a5
    2358:	00a78023          	sb	a0,0(a5)
    235c:	c0dff06f          	j	1f68 <tick+0x8a8>
    2360:	00842583          	lw	a1,8(s0)
    2364:	00442503          	lw	a0,4(s0)
    2368:	00c44803          	lbu	a6,12(s0)
    236c:	00b885b3          	add	a1,a7,a1
    2370:	00558593          	addi	a1,a1,5
    2374:	00259793          	slli	a5,a1,0x2
    2378:	00b787b3          	add	a5,a5,a1
    237c:	00a705b3          	add	a1,a4,a0
    2380:	00f58593          	addi	a1,a1,15
    2384:	00679793          	slli	a5,a5,0x6
    2388:	00b787b3          	add	a5,a5,a1
    238c:	00379793          	slli	a5,a5,0x3
    2390:	00fa0533          	add	a0,s4,a5
    2394:	00178593          	addi	a1,a5,1
    2398:	01050023          	sb	a6,0(a0)
    239c:	00ba05b3          	add	a1,s4,a1
    23a0:	01058023          	sb	a6,0(a1)
    23a4:	00c44803          	lbu	a6,12(s0)
    23a8:	00278513          	addi	a0,a5,2
    23ac:	00aa0533          	add	a0,s4,a0
    23b0:	00378593          	addi	a1,a5,3
    23b4:	01050023          	sb	a6,0(a0)
    23b8:	00ba05b3          	add	a1,s4,a1
    23bc:	01058023          	sb	a6,0(a1)
    23c0:	00c44803          	lbu	a6,12(s0)
    23c4:	00478513          	addi	a0,a5,4
    23c8:	00aa0533          	add	a0,s4,a0
    23cc:	00578593          	addi	a1,a5,5
    23d0:	01050023          	sb	a6,0(a0)
    23d4:	00ba05b3          	add	a1,s4,a1
    23d8:	01058023          	sb	a6,0(a1)
    23dc:	00c44803          	lbu	a6,12(s0)
    23e0:	00678513          	addi	a0,a5,6
    23e4:	00aa0533          	add	a0,s4,a0
    23e8:	00778593          	addi	a1,a5,7
    23ec:	01050023          	sb	a6,0(a0)
    23f0:	00ba05b3          	add	a1,s4,a1
    23f4:	01058023          	sb	a6,0(a1)
    23f8:	00c44803          	lbu	a6,12(s0)
    23fc:	14078513          	addi	a0,a5,320
    2400:	00aa0533          	add	a0,s4,a0
    2404:	14178593          	addi	a1,a5,321
    2408:	01050023          	sb	a6,0(a0)
    240c:	00ba05b3          	add	a1,s4,a1
    2410:	01058023          	sb	a6,0(a1)
    2414:	00c44803          	lbu	a6,12(s0)
    2418:	14278513          	addi	a0,a5,322
    241c:	00aa0533          	add	a0,s4,a0
    2420:	14378593          	addi	a1,a5,323
    2424:	01050023          	sb	a6,0(a0)
    2428:	00ba05b3          	add	a1,s4,a1
    242c:	01058023          	sb	a6,0(a1)
    2430:	00c44803          	lbu	a6,12(s0)
    2434:	14478513          	addi	a0,a5,324
    2438:	00aa0533          	add	a0,s4,a0
    243c:	14578593          	addi	a1,a5,325
    2440:	01050023          	sb	a6,0(a0)
    2444:	00ba05b3          	add	a1,s4,a1
    2448:	01058023          	sb	a6,0(a1)
    244c:	00c44803          	lbu	a6,12(s0)
    2450:	14678513          	addi	a0,a5,326
    2454:	00aa0533          	add	a0,s4,a0
    2458:	14778593          	addi	a1,a5,327
    245c:	01050023          	sb	a6,0(a0)
    2460:	00ba05b3          	add	a1,s4,a1
    2464:	01058023          	sb	a6,0(a1)
    2468:	00c44803          	lbu	a6,12(s0)
    246c:	28078513          	addi	a0,a5,640
    2470:	00aa0533          	add	a0,s4,a0
    2474:	28178593          	addi	a1,a5,641
    2478:	01050023          	sb	a6,0(a0)
    247c:	00ba05b3          	add	a1,s4,a1
    2480:	01058023          	sb	a6,0(a1)
    2484:	00c44803          	lbu	a6,12(s0)
    2488:	28278513          	addi	a0,a5,642
    248c:	00aa0533          	add	a0,s4,a0
    2490:	28378593          	addi	a1,a5,643
    2494:	01050023          	sb	a6,0(a0)
    2498:	00ba05b3          	add	a1,s4,a1
    249c:	01058023          	sb	a6,0(a1)
    24a0:	00c44803          	lbu	a6,12(s0)
    24a4:	28478513          	addi	a0,a5,644
    24a8:	00aa0533          	add	a0,s4,a0
    24ac:	28578593          	addi	a1,a5,645
    24b0:	01050023          	sb	a6,0(a0)
    24b4:	00ba05b3          	add	a1,s4,a1
    24b8:	01058023          	sb	a6,0(a1)
    24bc:	00c44803          	lbu	a6,12(s0)
    24c0:	28678513          	addi	a0,a5,646
    24c4:	00aa0533          	add	a0,s4,a0
    24c8:	28778593          	addi	a1,a5,647
    24cc:	01050023          	sb	a6,0(a0)
    24d0:	00ba05b3          	add	a1,s4,a1
    24d4:	01058023          	sb	a6,0(a1)
    24d8:	00c44803          	lbu	a6,12(s0)
    24dc:	3c078513          	addi	a0,a5,960
    24e0:	00aa0533          	add	a0,s4,a0
    24e4:	3c178593          	addi	a1,a5,961
    24e8:	01050023          	sb	a6,0(a0)
    24ec:	00ba05b3          	add	a1,s4,a1
    24f0:	01058023          	sb	a6,0(a1)
    24f4:	00c44803          	lbu	a6,12(s0)
    24f8:	3c278513          	addi	a0,a5,962
    24fc:	00aa0533          	add	a0,s4,a0
    2500:	3c378593          	addi	a1,a5,963
    2504:	01050023          	sb	a6,0(a0)
    2508:	00ba05b3          	add	a1,s4,a1
    250c:	01058023          	sb	a6,0(a1)
    2510:	00c44803          	lbu	a6,12(s0)
    2514:	3c478513          	addi	a0,a5,964
    2518:	00aa0533          	add	a0,s4,a0
    251c:	3c578593          	addi	a1,a5,965
    2520:	01050023          	sb	a6,0(a0)
    2524:	00ba05b3          	add	a1,s4,a1
    2528:	01058023          	sb	a6,0(a1)
    252c:	00c44803          	lbu	a6,12(s0)
    2530:	3c678513          	addi	a0,a5,966
    2534:	00aa0533          	add	a0,s4,a0
    2538:	3c778593          	addi	a1,a5,967
    253c:	01050023          	sb	a6,0(a0)
    2540:	00ba05b3          	add	a1,s4,a1
    2544:	01058023          	sb	a6,0(a1)
    2548:	00c44803          	lbu	a6,12(s0)
    254c:	50078513          	addi	a0,a5,1280
    2550:	00aa0533          	add	a0,s4,a0
    2554:	50178593          	addi	a1,a5,1281
    2558:	01050023          	sb	a6,0(a0)
    255c:	00ba05b3          	add	a1,s4,a1
    2560:	01058023          	sb	a6,0(a1)
    2564:	00c44803          	lbu	a6,12(s0)
    2568:	50278513          	addi	a0,a5,1282
    256c:	00aa0533          	add	a0,s4,a0
    2570:	50378593          	addi	a1,a5,1283
    2574:	01050023          	sb	a6,0(a0)
    2578:	00ba05b3          	add	a1,s4,a1
    257c:	01058023          	sb	a6,0(a1)
    2580:	00c44803          	lbu	a6,12(s0)
    2584:	50478513          	addi	a0,a5,1284
    2588:	00aa0533          	add	a0,s4,a0
    258c:	50578593          	addi	a1,a5,1285
    2590:	01050023          	sb	a6,0(a0)
    2594:	00ba05b3          	add	a1,s4,a1
    2598:	01058023          	sb	a6,0(a1)
    259c:	00c44803          	lbu	a6,12(s0)
    25a0:	50678513          	addi	a0,a5,1286
    25a4:	00aa0533          	add	a0,s4,a0
    25a8:	50778593          	addi	a1,a5,1287
    25ac:	01050023          	sb	a6,0(a0)
    25b0:	00ba05b3          	add	a1,s4,a1
    25b4:	01058023          	sb	a6,0(a1)
    25b8:	00c44803          	lbu	a6,12(s0)
    25bc:	64078513          	addi	a0,a5,1600
    25c0:	00aa0533          	add	a0,s4,a0
    25c4:	64178593          	addi	a1,a5,1601
    25c8:	01050023          	sb	a6,0(a0)
    25cc:	00ba05b3          	add	a1,s4,a1
    25d0:	01058023          	sb	a6,0(a1)
    25d4:	00c44803          	lbu	a6,12(s0)
    25d8:	64278513          	addi	a0,a5,1602
    25dc:	00aa0533          	add	a0,s4,a0
    25e0:	64378593          	addi	a1,a5,1603
    25e4:	01050023          	sb	a6,0(a0)
    25e8:	00ba05b3          	add	a1,s4,a1
    25ec:	01058023          	sb	a6,0(a1)
    25f0:	00c44803          	lbu	a6,12(s0)
    25f4:	64478513          	addi	a0,a5,1604
    25f8:	00aa0533          	add	a0,s4,a0
    25fc:	64578593          	addi	a1,a5,1605
    2600:	01050023          	sb	a6,0(a0)
    2604:	00ba05b3          	add	a1,s4,a1
    2608:	01058023          	sb	a6,0(a1)
    260c:	00c44803          	lbu	a6,12(s0)
    2610:	64678513          	addi	a0,a5,1606
    2614:	00aa0533          	add	a0,s4,a0
    2618:	64778593          	addi	a1,a5,1607
    261c:	01050023          	sb	a6,0(a0)
    2620:	00ba05b3          	add	a1,s4,a1
    2624:	01058023          	sb	a6,0(a1)
    2628:	00c44803          	lbu	a6,12(s0)
    262c:	78078513          	addi	a0,a5,1920
    2630:	00aa0533          	add	a0,s4,a0
    2634:	78178593          	addi	a1,a5,1921
    2638:	01050023          	sb	a6,0(a0)
    263c:	00ba05b3          	add	a1,s4,a1
    2640:	01058023          	sb	a6,0(a1)
    2644:	00c44803          	lbu	a6,12(s0)
    2648:	78278513          	addi	a0,a5,1922
    264c:	00aa0533          	add	a0,s4,a0
    2650:	78378593          	addi	a1,a5,1923
    2654:	01050023          	sb	a6,0(a0)
    2658:	00ba05b3          	add	a1,s4,a1
    265c:	01058023          	sb	a6,0(a1)
    2660:	00c44803          	lbu	a6,12(s0)
    2664:	78478513          	addi	a0,a5,1924
    2668:	00aa0533          	add	a0,s4,a0
    266c:	78578593          	addi	a1,a5,1925
    2670:	01050023          	sb	a6,0(a0)
    2674:	00ba05b3          	add	a1,s4,a1
    2678:	01058023          	sb	a6,0(a1)
    267c:	00c44803          	lbu	a6,12(s0)
    2680:	78678513          	addi	a0,a5,1926
    2684:	00aa0533          	add	a0,s4,a0
    2688:	78778593          	addi	a1,a5,1927
    268c:	01050023          	sb	a6,0(a0)
    2690:	00ba05b3          	add	a1,s4,a1
    2694:	01058023          	sb	a6,0(a1)
    2698:	00c44803          	lbu	a6,12(s0)
    269c:	7ff78513          	addi	a0,a5,2047
    26a0:	7ff78593          	addi	a1,a5,2047
    26a4:	0c150513          	addi	a0,a0,193
    26a8:	00aa0533          	add	a0,s4,a0
    26ac:	0c258593          	addi	a1,a1,194
    26b0:	01050023          	sb	a6,0(a0)
    26b4:	00ba05b3          	add	a1,s4,a1
    26b8:	01058023          	sb	a6,0(a1)
    26bc:	00c44803          	lbu	a6,12(s0)
    26c0:	7ff78513          	addi	a0,a5,2047
    26c4:	7ff78593          	addi	a1,a5,2047
    26c8:	0c350513          	addi	a0,a0,195
    26cc:	00aa0533          	add	a0,s4,a0
    26d0:	0c458593          	addi	a1,a1,196
    26d4:	01050023          	sb	a6,0(a0)
    26d8:	00ba05b3          	add	a1,s4,a1
    26dc:	01058023          	sb	a6,0(a1)
    26e0:	00c44803          	lbu	a6,12(s0)
    26e4:	7ff78513          	addi	a0,a5,2047
    26e8:	7ff78593          	addi	a1,a5,2047
    26ec:	0c550513          	addi	a0,a0,197
    26f0:	00aa0533          	add	a0,s4,a0
    26f4:	0c658593          	addi	a1,a1,198
    26f8:	01050023          	sb	a6,0(a0)
    26fc:	00ba05b3          	add	a1,s4,a1
    2700:	01058023          	sb	a6,0(a1)
    2704:	00c44503          	lbu	a0,12(s0)
    2708:	7ff78593          	addi	a1,a5,2047
    270c:	0c758593          	addi	a1,a1,199
    2710:	7ff78793          	addi	a5,a5,2047
    2714:	00ba05b3          	add	a1,s4,a1
    2718:	0c878793          	addi	a5,a5,200
    271c:	00a58023          	sb	a0,0(a1)
    2720:	00fa07b3          	add	a5,s4,a5
    2724:	00a78023          	sb	a0,0(a5)
    2728:	bc8ff06f          	j	1af0 <tick+0x430>
    272c:	01042603          	lw	a2,16(s0)
    2730:	04042683          	lw	a3,64(s0)
    2734:	01c42703          	lw	a4,28(s0)
    2738:	04c42783          	lw	a5,76(s0)
    273c:	01442f03          	lw	t5,20(s0)
    2740:	03042f83          	lw	t6,48(s0)
    2744:	02c42e83          	lw	t4,44(s0)
    2748:	04842e03          	lw	t3,72(s0)
    274c:	01842883          	lw	a7,24(s0)
    2750:	02042303          	lw	t1,32(s0)
    2754:	03c42803          	lw	a6,60(s0)
    2758:	04442583          	lw	a1,68(s0)
    275c:	00d42823          	sw	a3,16(s0)
    2760:	00c42e23          	sw	a2,28(s0)
    2764:	02442683          	lw	a3,36(s0)
    2768:	03442603          	lw	a2,52(s0)
    276c:	04e42623          	sw	a4,76(s0)
    2770:	04f42023          	sw	a5,64(s0)
    2774:	02842703          	lw	a4,40(s0)
    2778:	03842783          	lw	a5,56(s0)
    277c:	01f42a23          	sw	t6,20(s0)
    2780:	03e42623          	sw	t5,44(s0)
    2784:	05d42423          	sw	t4,72(s0)
    2788:	03c42823          	sw	t3,48(s0)
    278c:	00642c23          	sw	t1,24(s0)
    2790:	03142e23          	sw	a7,60(s0)
    2794:	05042223          	sw	a6,68(s0)
    2798:	02b42023          	sw	a1,32(s0)
    279c:	02c42223          	sw	a2,36(s0)
    27a0:	02d42423          	sw	a3,40(s0)
    27a4:	02e42c23          	sw	a4,56(s0)
    27a8:	02f42a23          	sw	a5,52(s0)
    27ac:	f55fe06f          	j	1700 <tick+0x40>
    27b0:	01c42783          	lw	a5,28(s0)
    27b4:	00f037b3          	snez	a5,a5
    27b8:	f69fe06f          	j	1720 <tick+0x60>
    27bc:	05c44d03          	lbu	s10,92(s0)
    27c0:	01d78db3          	add	s11,a5,t4
    27c4:	01c78cb3          	add	s9,a5,t3
    27c8:	01ad8023          	sb	s10,0(s11)
    27cc:	01ac8023          	sb	s10,0(s9)
    27d0:	05c44d03          	lbu	s10,92(s0)
    27d4:	00678db3          	add	s11,a5,t1
    27d8:	01078cb3          	add	s9,a5,a6
    27dc:	01ad8023          	sb	s10,0(s11)
    27e0:	01ac8023          	sb	s10,0(s9)
    27e4:	05c44d03          	lbu	s10,92(s0)
    27e8:	00412c83          	lw	s9,4(sp)
    27ec:	00b78db3          	add	s11,a5,a1
    27f0:	01ad8023          	sb	s10,0(s11)
    27f4:	01978cb3          	add	s9,a5,s9
    27f8:	01ac8023          	sb	s10,0(s9)
    27fc:	00812c83          	lw	s9,8(sp)
    2800:	05c44d03          	lbu	s10,92(s0)
    2804:	01978db3          	add	s11,a5,s9
    2808:	00c12c83          	lw	s9,12(sp)
    280c:	01ad8023          	sb	s10,0(s11)
    2810:	01978cb3          	add	s9,a5,s9
    2814:	01ac8023          	sb	s10,0(s9)
    2818:	01012c83          	lw	s9,16(sp)
    281c:	05c44d03          	lbu	s10,92(s0)
    2820:	01978db3          	add	s11,a5,s9
    2824:	01412c83          	lw	s9,20(sp)
    2828:	01ad8023          	sb	s10,0(s11)
    282c:	00a78db3          	add	s11,a5,a0
    2830:	01978cb3          	add	s9,a5,s9
    2834:	01ac8023          	sb	s10,0(s9)
    2838:	05c44d03          	lbu	s10,92(s0)
    283c:	01878cb3          	add	s9,a5,s8
    2840:	01ad8023          	sb	s10,0(s11)
    2844:	01ac8023          	sb	s10,0(s9)
    2848:	05c44d03          	lbu	s10,92(s0)
    284c:	01778db3          	add	s11,a5,s7
    2850:	01678cb3          	add	s9,a5,s6
    2854:	01ad8023          	sb	s10,0(s11)
    2858:	01ac8023          	sb	s10,0(s9)
    285c:	05c44d03          	lbu	s10,92(s0)
    2860:	01578db3          	add	s11,a5,s5
    2864:	01378cb3          	add	s9,a5,s3
    2868:	01ad8023          	sb	s10,0(s11)
    286c:	01ac8023          	sb	s10,0(s9)
    2870:	05c44d03          	lbu	s10,92(s0)
    2874:	01278db3          	add	s11,a5,s2
    2878:	00778cb3          	add	s9,a5,t2
    287c:	01ad8023          	sb	s10,0(s11)
    2880:	01ac8023          	sb	s10,0(s9)
    2884:	05c44d03          	lbu	s10,92(s0)
    2888:	00578db3          	add	s11,a5,t0
    288c:	01f78cb3          	add	s9,a5,t6
    2890:	01ad8023          	sb	s10,0(s11)
    2894:	01ac8023          	sb	s10,0(s9)
    2898:	05c44d03          	lbu	s10,92(s0)
    289c:	01812c83          	lw	s9,24(sp)
    28a0:	01e78db3          	add	s11,a5,t5
    28a4:	01ad8023          	sb	s10,0(s11)
    28a8:	01978cb3          	add	s9,a5,s9
    28ac:	01ac8023          	sb	s10,0(s9)
    28b0:	05c44d03          	lbu	s10,92(s0)
    28b4:	00003cb7          	lui	s9,0x3
    28b8:	58ac8c93          	addi	s9,s9,1418 # 358a <locked_pieces+0x442>
    28bc:	01978cb3          	add	s9,a5,s9
    28c0:	01ac8023          	sb	s10,0(s9)
    28c4:	00003cb7          	lui	s9,0x3
    28c8:	58bc8c93          	addi	s9,s9,1419 # 358b <locked_pieces+0x443>
    28cc:	01978cb3          	add	s9,a5,s9
    28d0:	01ac8023          	sb	s10,0(s9)
    28d4:	05c44d03          	lbu	s10,92(s0)
    28d8:	00003cb7          	lui	s9,0x3
    28dc:	6c4c8c93          	addi	s9,s9,1732 # 36c4 <locked_pieces+0x57c>
    28e0:	01978cb3          	add	s9,a5,s9
    28e4:	01ac8023          	sb	s10,0(s9)
    28e8:	00003cb7          	lui	s9,0x3
    28ec:	6c5c8c93          	addi	s9,s9,1733 # 36c5 <locked_pieces+0x57d>
    28f0:	01978cb3          	add	s9,a5,s9
    28f4:	01ac8023          	sb	s10,0(s9)
    28f8:	05c44d03          	lbu	s10,92(s0)
    28fc:	00003cb7          	lui	s9,0x3
    2900:	6c6c8c93          	addi	s9,s9,1734 # 36c6 <locked_pieces+0x57e>
    2904:	01978cb3          	add	s9,a5,s9
    2908:	01ac8023          	sb	s10,0(s9)
    290c:	00003cb7          	lui	s9,0x3
    2910:	6c7c8c93          	addi	s9,s9,1735 # 36c7 <locked_pieces+0x57f>
    2914:	01978cb3          	add	s9,a5,s9
    2918:	01ac8023          	sb	s10,0(s9)
    291c:	05c44d03          	lbu	s10,92(s0)
    2920:	00003cb7          	lui	s9,0x3
    2924:	6c8c8c93          	addi	s9,s9,1736 # 36c8 <locked_pieces+0x580>
    2928:	01978cb3          	add	s9,a5,s9
    292c:	01ac8023          	sb	s10,0(s9)
    2930:	00003cb7          	lui	s9,0x3
    2934:	6c9c8c93          	addi	s9,s9,1737 # 36c9 <locked_pieces+0x581>
    2938:	01978cb3          	add	s9,a5,s9
    293c:	01ac8023          	sb	s10,0(s9)
    2940:	05c44d03          	lbu	s10,92(s0)
    2944:	00003cb7          	lui	s9,0x3
    2948:	6cac8c93          	addi	s9,s9,1738 # 36ca <locked_pieces+0x582>
    294c:	01978cb3          	add	s9,a5,s9
    2950:	01ac8023          	sb	s10,0(s9)
    2954:	00003cb7          	lui	s9,0x3
    2958:	6cbc8c93          	addi	s9,s9,1739 # 36cb <locked_pieces+0x583>
    295c:	01978cb3          	add	s9,a5,s9
    2960:	01ac8023          	sb	s10,0(s9)
    2964:	05c44d03          	lbu	s10,92(s0)
    2968:	00004cb7          	lui	s9,0x4
    296c:	804c8c93          	addi	s9,s9,-2044 # 3804 <__global_pointer+0x28>
    2970:	01978cb3          	add	s9,a5,s9
    2974:	01ac8023          	sb	s10,0(s9)
    2978:	00004cb7          	lui	s9,0x4
    297c:	805c8c93          	addi	s9,s9,-2043 # 3805 <__global_pointer+0x29>
    2980:	01978cb3          	add	s9,a5,s9
    2984:	01ac8023          	sb	s10,0(s9)
    2988:	05c44d03          	lbu	s10,92(s0)
    298c:	00004cb7          	lui	s9,0x4
    2990:	806c8c93          	addi	s9,s9,-2042 # 3806 <__global_pointer+0x2a>
    2994:	01978cb3          	add	s9,a5,s9
    2998:	01ac8023          	sb	s10,0(s9)
    299c:	00004cb7          	lui	s9,0x4
    29a0:	807c8c93          	addi	s9,s9,-2041 # 3807 <__global_pointer+0x2b>
    29a4:	01978cb3          	add	s9,a5,s9
    29a8:	01ac8023          	sb	s10,0(s9)
    29ac:	05c44d03          	lbu	s10,92(s0)
    29b0:	00004cb7          	lui	s9,0x4
    29b4:	808c8c93          	addi	s9,s9,-2040 # 3808 <__global_pointer+0x2c>
    29b8:	01978cb3          	add	s9,a5,s9
    29bc:	01ac8023          	sb	s10,0(s9)
    29c0:	00004cb7          	lui	s9,0x4
    29c4:	809c8c93          	addi	s9,s9,-2039 # 3809 <__global_pointer+0x2d>
    29c8:	01978cb3          	add	s9,a5,s9
    29cc:	01ac8023          	sb	s10,0(s9)
    29d0:	05c44d03          	lbu	s10,92(s0)
    29d4:	00004cb7          	lui	s9,0x4
    29d8:	80ac8c93          	addi	s9,s9,-2038 # 380a <__global_pointer+0x2e>
    29dc:	01978cb3          	add	s9,a5,s9
    29e0:	01ac8023          	sb	s10,0(s9)
    29e4:	00004cb7          	lui	s9,0x4
    29e8:	80bc8c93          	addi	s9,s9,-2037 # 380b <__global_pointer+0x2f>
    29ec:	01978cb3          	add	s9,a5,s9
    29f0:	01ac8023          	sb	s10,0(s9)
    29f4:	05c44d03          	lbu	s10,92(s0)
    29f8:	00004cb7          	lui	s9,0x4
    29fc:	944c8c93          	addi	s9,s9,-1724 # 3944 <__global_pointer+0x168>
    2a00:	01978cb3          	add	s9,a5,s9
    2a04:	01ac8023          	sb	s10,0(s9)
    2a08:	00004cb7          	lui	s9,0x4
    2a0c:	945c8c93          	addi	s9,s9,-1723 # 3945 <__global_pointer+0x169>
    2a10:	01978cb3          	add	s9,a5,s9
    2a14:	01ac8023          	sb	s10,0(s9)
    2a18:	05c44d03          	lbu	s10,92(s0)
    2a1c:	00004cb7          	lui	s9,0x4
    2a20:	946c8c93          	addi	s9,s9,-1722 # 3946 <__global_pointer+0x16a>
    2a24:	01978cb3          	add	s9,a5,s9
    2a28:	01ac8023          	sb	s10,0(s9)
    2a2c:	00004cb7          	lui	s9,0x4
    2a30:	947c8c93          	addi	s9,s9,-1721 # 3947 <__global_pointer+0x16b>
    2a34:	01978cb3          	add	s9,a5,s9
    2a38:	01ac8023          	sb	s10,0(s9)
    2a3c:	05c44d03          	lbu	s10,92(s0)
    2a40:	00004cb7          	lui	s9,0x4
    2a44:	948c8c93          	addi	s9,s9,-1720 # 3948 <__global_pointer+0x16c>
    2a48:	01978cb3          	add	s9,a5,s9
    2a4c:	01ac8023          	sb	s10,0(s9)
    2a50:	00004cb7          	lui	s9,0x4
    2a54:	949c8c93          	addi	s9,s9,-1719 # 3949 <__global_pointer+0x16d>
    2a58:	01978cb3          	add	s9,a5,s9
    2a5c:	01ac8023          	sb	s10,0(s9)
    2a60:	05c44d03          	lbu	s10,92(s0)
    2a64:	00004cb7          	lui	s9,0x4
    2a68:	94ac8c93          	addi	s9,s9,-1718 # 394a <__global_pointer+0x16e>
    2a6c:	01978cb3          	add	s9,a5,s9
    2a70:	01ac8023          	sb	s10,0(s9)
    2a74:	00004cb7          	lui	s9,0x4
    2a78:	94bc8c93          	addi	s9,s9,-1717 # 394b <__global_pointer+0x16f>
    2a7c:	01978cb3          	add	s9,a5,s9
    2a80:	01ac8023          	sb	s10,0(s9)
    2a84:	05c44d03          	lbu	s10,92(s0)
    2a88:	00004cb7          	lui	s9,0x4
    2a8c:	a84c8c93          	addi	s9,s9,-1404 # 3a84 <__global_pointer+0x2a8>
    2a90:	01978cb3          	add	s9,a5,s9
    2a94:	01ac8023          	sb	s10,0(s9)
    2a98:	00004cb7          	lui	s9,0x4
    2a9c:	a85c8c93          	addi	s9,s9,-1403 # 3a85 <__global_pointer+0x2a9>
    2aa0:	01978cb3          	add	s9,a5,s9
    2aa4:	01ac8023          	sb	s10,0(s9)
    2aa8:	05c44d03          	lbu	s10,92(s0)
    2aac:	00004cb7          	lui	s9,0x4
    2ab0:	a86c8c93          	addi	s9,s9,-1402 # 3a86 <__global_pointer+0x2aa>
    2ab4:	01978cb3          	add	s9,a5,s9
    2ab8:	01ac8023          	sb	s10,0(s9)
    2abc:	00004cb7          	lui	s9,0x4
    2ac0:	a87c8c93          	addi	s9,s9,-1401 # 3a87 <__global_pointer+0x2ab>
    2ac4:	01978cb3          	add	s9,a5,s9
    2ac8:	01ac8023          	sb	s10,0(s9)
    2acc:	05c44d03          	lbu	s10,92(s0)
    2ad0:	00004cb7          	lui	s9,0x4
    2ad4:	a88c8c93          	addi	s9,s9,-1400 # 3a88 <__global_pointer+0x2ac>
    2ad8:	01978cb3          	add	s9,a5,s9
    2adc:	01ac8023          	sb	s10,0(s9)
    2ae0:	00004cb7          	lui	s9,0x4
    2ae4:	a89c8c93          	addi	s9,s9,-1399 # 3a89 <__global_pointer+0x2ad>
    2ae8:	01978cb3          	add	s9,a5,s9
    2aec:	01ac8023          	sb	s10,0(s9)
    2af0:	05c44d03          	lbu	s10,92(s0)
    2af4:	00004cb7          	lui	s9,0x4
    2af8:	a8ac8c93          	addi	s9,s9,-1398 # 3a8a <__global_pointer+0x2ae>
    2afc:	01978cb3          	add	s9,a5,s9
    2b00:	01ac8023          	sb	s10,0(s9)
    2b04:	00004cb7          	lui	s9,0x4
    2b08:	a8bc8c93          	addi	s9,s9,-1397 # 3a8b <__global_pointer+0x2af>
    2b0c:	01978cb3          	add	s9,a5,s9
    2b10:	01ac8023          	sb	s10,0(s9)
    2b14:	05c44d03          	lbu	s10,92(s0)
    2b18:	00004cb7          	lui	s9,0x4
    2b1c:	bc4c8c93          	addi	s9,s9,-1084 # 3bc4 <__global_pointer+0x3e8>
    2b20:	01978cb3          	add	s9,a5,s9
    2b24:	01ac8023          	sb	s10,0(s9)
    2b28:	00004cb7          	lui	s9,0x4
    2b2c:	bc5c8c93          	addi	s9,s9,-1083 # 3bc5 <__global_pointer+0x3e9>
    2b30:	01978cb3          	add	s9,a5,s9
    2b34:	01ac8023          	sb	s10,0(s9)
    2b38:	05c44d03          	lbu	s10,92(s0)
    2b3c:	00004cb7          	lui	s9,0x4
    2b40:	bc6c8c93          	addi	s9,s9,-1082 # 3bc6 <__global_pointer+0x3ea>
    2b44:	01978cb3          	add	s9,a5,s9
    2b48:	01ac8023          	sb	s10,0(s9)
    2b4c:	00004cb7          	lui	s9,0x4
    2b50:	bc7c8c93          	addi	s9,s9,-1081 # 3bc7 <__global_pointer+0x3eb>
    2b54:	01978cb3          	add	s9,a5,s9
    2b58:	01ac8023          	sb	s10,0(s9)
    2b5c:	05c44d03          	lbu	s10,92(s0)
    2b60:	00004cb7          	lui	s9,0x4
    2b64:	bc8c8c93          	addi	s9,s9,-1080 # 3bc8 <__global_pointer+0x3ec>
    2b68:	01978cb3          	add	s9,a5,s9
    2b6c:	01ac8023          	sb	s10,0(s9)
    2b70:	00004cb7          	lui	s9,0x4
    2b74:	bc9c8c93          	addi	s9,s9,-1079 # 3bc9 <__global_pointer+0x3ed>
    2b78:	01978cb3          	add	s9,a5,s9
    2b7c:	01ac8023          	sb	s10,0(s9)
    2b80:	05c44d03          	lbu	s10,92(s0)
    2b84:	00004cb7          	lui	s9,0x4
    2b88:	bcac8c93          	addi	s9,s9,-1078 # 3bca <__global_pointer+0x3ee>
    2b8c:	01978cb3          	add	s9,a5,s9
    2b90:	01ac8023          	sb	s10,0(s9)
    2b94:	00004cb7          	lui	s9,0x4
    2b98:	bcbc8c93          	addi	s9,s9,-1077 # 3bcb <__global_pointer+0x3ef>
    2b9c:	01978cb3          	add	s9,a5,s9
    2ba0:	01ac8023          	sb	s10,0(s9)
    2ba4:	ed9fe06f          	j	1a7c <tick+0x3bc>

00002ba8 <handle_interrupt>:
    2ba8:	01000793          	li	a5,16
    2bac:	00f50463          	beq	a0,a5,2bb4 <handle_interrupt+0xc>
    2bb0:	00008067          	ret
    2bb4:	040007b7          	lui	a5,0x4000
    2bb8:	00009737          	lui	a4,0x9
    2bbc:	02079023          	sh	zero,32(a5) # 4000020 <_stack_end+0x3ef7084>
    2bc0:	f1072783          	lw	a5,-240(a4) # 8f10 <timeoutcount>
    2bc4:	00a00693          	li	a3,10
    2bc8:	00178793          	addi	a5,a5,1
    2bcc:	00d78663          	beq	a5,a3,2bd8 <handle_interrupt+0x30>
    2bd0:	f0f72823          	sw	a5,-240(a4)
    2bd4:	00008067          	ret
    2bd8:	000037b7          	lui	a5,0x3
    2bdc:	fdc7a503          	lw	a0,-36(a5) # 2fdc <VGA>
    2be0:	f0072823          	sw	zero,-240(a4)
    2be4:	addfe06f          	j	16c0 <tick>

00002be8 <main>:
    2be8:	ff010113          	addi	sp,sp,-16
    2bec:	ffffc737          	lui	a4,0xffffc
    2bf0:	00112623          	sw	ra,12(sp)
    2bf4:	00812423          	sw	s0,8(sp)
    2bf8:	040007b7          	lui	a5,0x4000
    2bfc:	6bf70713          	addi	a4,a4,1727 # ffffc6bf <_stack_end+0xffef3723>
    2c00:	02e79423          	sh	a4,40(a5) # 4000028 <_stack_end+0x3ef708c>
    2c04:	040007b7          	lui	a5,0x4000
    2c08:	02d00713          	li	a4,45
    2c0c:	02e79623          	sh	a4,44(a5) # 400002c <_stack_end+0x3ef7090>
    2c10:	040007b7          	lui	a5,0x4000
    2c14:	00700713          	li	a4,7
    2c18:	02e79223          	sh	a4,36(a5) # 4000024 <_stack_end+0x3ef7088>
    2c1c:	00100713          	li	a4,1
    2c20:	040007b7          	lui	a5,0x4000
    2c24:	0ce7ac23          	sw	a4,216(a5) # 40000d8 <_stack_end+0x3ef713c>
    2c28:	040007b7          	lui	a5,0x4000
    2c2c:	0ce7ae23          	sw	a4,220(a5) # 40000dc <_stack_end+0x3ef7140>
    2c30:	d44fd0ef          	jal	174 <enable_interrupt>
    2c34:	040007b7          	lui	a5,0x4000
    2c38:	0107a683          	lw	a3,16(a5) # 4000010 <_stack_end+0x3ef7074>
    2c3c:	24925737          	lui	a4,0x24925
    2c40:	92570713          	addi	a4,a4,-1755 # 24924925 <_stack_end+0x2481b989>
    2c44:	0ff6f693          	zext.b	a3,a3
    2c48:	00269793          	slli	a5,a3,0x2
    2c4c:	00d787b3          	add	a5,a5,a3
    2c50:	00479613          	slli	a2,a5,0x4
    2c54:	40f60633          	sub	a2,a2,a5
    2c58:	0b360613          	addi	a2,a2,179
    2c5c:	03f67613          	andi	a2,a2,63
    2c60:	0ff67693          	zext.b	a3,a2
    2c64:	02e6b733          	mulhu	a4,a3,a4
    2c68:	00009537          	lui	a0,0x9
    2c6c:	f0c52623          	sw	a2,-244(a0) # 8f0c <seed>
    2c70:	000037b7          	lui	a5,0x3
    2c74:	000035b7          	lui	a1,0x3
    2c78:	dac78793          	addi	a5,a5,-596 # 2dac <pieces>
    2c7c:	fe058593          	addi	a1,a1,-32 # 2fe0 <current_piece>
    2c80:	05058613          	addi	a2,a1,80
    2c84:	40e68533          	sub	a0,a3,a4
    2c88:	00155513          	srli	a0,a0,0x1
    2c8c:	00a70733          	add	a4,a4,a0
    2c90:	00275713          	srli	a4,a4,0x2
    2c94:	00371513          	slli	a0,a4,0x3
    2c98:	40e50733          	sub	a4,a0,a4
    2c9c:	40e68733          	sub	a4,a3,a4
    2ca0:	0ff77713          	zext.b	a4,a4
    2ca4:	00271693          	slli	a3,a4,0x2
    2ca8:	00e68733          	add	a4,a3,a4
    2cac:	00471713          	slli	a4,a4,0x4
    2cb0:	00e787b3          	add	a5,a5,a4
    2cb4:	05078713          	addi	a4,a5,80
    2cb8:	0087a683          	lw	a3,8(a5)
    2cbc:	0007a883          	lw	a7,0(a5)
    2cc0:	0047a503          	lw	a0,4(a5)
    2cc4:	00d62423          	sw	a3,8(a2)
    2cc8:	01162023          	sw	a7,0(a2)
    2ccc:	00a62223          	sw	a0,4(a2)
    2cd0:	00c7a683          	lw	a3,12(a5)
    2cd4:	01078793          	addi	a5,a5,16
    2cd8:	01060613          	addi	a2,a2,16
    2cdc:	fed62e23          	sw	a3,-4(a2)
    2ce0:	fce79ce3          	bne	a5,a4,2cb8 <main+0xd0>
    2ce4:	921fd0ef          	jal	604 <spawn_next>
    2ce8:	00003437          	lui	s0,0x3
    2cec:	fdc42503          	lw	a0,-36(s0) # 2fdc <VGA>
    2cf0:	a55fd0ef          	jal	744 <draw_grid>
    2cf4:	fdc42503          	lw	a0,-36(s0)
    2cf8:	000037b7          	lui	a5,0x3
    2cfc:	fe078593          	addi	a1,a5,-32 # 2fe0 <current_piece>
    2d00:	b69fd0ef          	jal	868 <draw_shape>
    2d04:	fdc42503          	lw	a0,-36(s0)
    2d08:	000037b7          	lui	a5,0x3
    2d0c:	03078593          	addi	a1,a5,48 # 3030 <next_piece>
    2d10:	f59fd0ef          	jal	c68 <draw_next_piece>
    2d14:	0000006f          	j	2d14 <main+0x12c>

Disassembly of section .data:

00002d18 <welcome_msg>:
    2d18:	3d3d                	.insn	2, 0x3d3d
    2d1a:	3d3d                	.insn	2, 0x3d3d
    2d1c:	3d3d                	.insn	2, 0x3d3d
    2d1e:	3d3d                	.insn	2, 0x3d3d
    2d20:	3d3d                	.insn	2, 0x3d3d
    2d22:	3d3d                	.insn	2, 0x3d3d
    2d24:	3d3d                	.insn	2, 0x3d3d
    2d26:	3d3d                	.insn	2, 0x3d3d
    2d28:	3d3d                	.insn	2, 0x3d3d
    2d2a:	3d3d                	.insn	2, 0x3d3d
    2d2c:	3d3d                	.insn	2, 0x3d3d
    2d2e:	3d3d                	.insn	2, 0x3d3d
    2d30:	3d3d                	.insn	2, 0x3d3d
    2d32:	3d3d                	.insn	2, 0x3d3d
    2d34:	3d3d                	.insn	2, 0x3d3d
    2d36:	3d3d                	.insn	2, 0x3d3d
    2d38:	3d3d                	.insn	2, 0x3d3d
    2d3a:	3d3d                	.insn	2, 0x3d3d
    2d3c:	3d3d                	.insn	2, 0x3d3d
    2d3e:	3d3d                	.insn	2, 0x3d3d
    2d40:	3d3d                	.insn	2, 0x3d3d
    2d42:	3d3d                	.insn	2, 0x3d3d
    2d44:	3d3d                	.insn	2, 0x3d3d
    2d46:	3d3d                	.insn	2, 0x3d3d
    2d48:	3d0a                	.insn	2, 0x3d0a
    2d4a:	3d3d                	.insn	2, 0x3d3d
    2d4c:	3d3d                	.insn	2, 0x3d3d
    2d4e:	5220                	.insn	2, 0x5220
    2d50:	5349                	.insn	2, 0x5349
    2d52:	20562d43          	.insn	4, 0x20562d43
    2d56:	6f42                	.insn	2, 0x6f42
    2d58:	552d746f          	jal	s0,da2aa <timeoutcount+0xd139a>
    2d5c:	2070                	.insn	2, 0x2070
    2d5e:	7250                	.insn	2, 0x7250
    2d60:	7365636f          	jal	t1,59496 <timeoutcount+0x50586>
    2d64:	6f4e2073          	csrs	0x6f4,t3
    2d68:	6f432077          	.insn	4, 0x6f432077
    2d6c:	706d                	.insn	2, 0x706d
    2d6e:	656c                	.insn	2, 0x656c
    2d70:	6574                	.insn	2, 0x6574
    2d72:	3d20                	.insn	2, 0x3d20
    2d74:	3d3d                	.insn	2, 0x3d3d
    2d76:	3d3d                	.insn	2, 0x3d3d
    2d78:	0a3d                	.insn	2, 0x0a3d
    2d7a:	3d3d                	.insn	2, 0x3d3d
    2d7c:	3d3d                	.insn	2, 0x3d3d
    2d7e:	3d3d                	.insn	2, 0x3d3d
    2d80:	3d3d                	.insn	2, 0x3d3d
    2d82:	3d3d                	.insn	2, 0x3d3d
    2d84:	3d3d                	.insn	2, 0x3d3d
    2d86:	3d3d                	.insn	2, 0x3d3d
    2d88:	3d3d                	.insn	2, 0x3d3d
    2d8a:	3d3d                	.insn	2, 0x3d3d
    2d8c:	3d3d                	.insn	2, 0x3d3d
    2d8e:	3d3d                	.insn	2, 0x3d3d
    2d90:	3d3d                	.insn	2, 0x3d3d
    2d92:	3d3d                	.insn	2, 0x3d3d
    2d94:	3d3d                	.insn	2, 0x3d3d
    2d96:	3d3d                	.insn	2, 0x3d3d
    2d98:	3d3d                	.insn	2, 0x3d3d
    2d9a:	3d3d                	.insn	2, 0x3d3d
    2d9c:	3d3d                	.insn	2, 0x3d3d
    2d9e:	3d3d                	.insn	2, 0x3d3d
    2da0:	3d3d                	.insn	2, 0x3d3d
    2da2:	3d3d                	.insn	2, 0x3d3d
    2da4:	3d3d                	.insn	2, 0x3d3d
    2da6:	3d3d                	.insn	2, 0x3d3d
    2da8:	3d3d                	.insn	2, 0x3d3d
    2daa:	000a                	.insn	2, 0x000a

00002dac <pieces>:
	...
    2db8:	001f 0000 0001      	.insn	6, 0x00010000001f
	...
    2dca:	0000                	.insn	2, 0x0000
    2dcc:	0001                	.insn	2, 0x0001
	...
    2dda:	0000                	.insn	2, 0x0000
    2ddc:	0001                	.insn	2, 0x0001
	...
    2dea:	0000                	.insn	2, 0x0000
    2dec:	0001                	.insn	2, 0x0001
	...
    2dfa:	0000                	.insn	2, 0x0000
    2dfc:	0001                	.insn	2, 0x0001
	...
    2e06:	0000                	.insn	2, 0x0000
    2e08:	00000003          	lb	zero,0(zero) # 0 <_isr_handler>
    2e0c:	0000                	.insn	2, 0x0000
    2e0e:	0000                	.insn	2, 0x0000
    2e10:	0001                	.insn	2, 0x0001
	...
    2e1e:	0000                	.insn	2, 0x0000
    2e20:	0001                	.insn	2, 0x0001
	...
    2e2a:	0000                	.insn	2, 0x0000
    2e2c:	0001                	.insn	2, 0x0001
    2e2e:	0000                	.insn	2, 0x0000
    2e30:	0001                	.insn	2, 0x0001
	...
    2e4a:	0000                	.insn	2, 0x0000
    2e4c:	0002                	.insn	2, 0x0002
	...
    2e56:	0000                	.insn	2, 0x0000
    2e58:	00ec                	.insn	2, 0x00ec
    2e5a:	0000                	.insn	2, 0x0000
    2e5c:	0001                	.insn	2, 0x0001
	...
    2e6a:	0000                	.insn	2, 0x0000
    2e6c:	0001                	.insn	2, 0x0001
	...
    2e7a:	0000                	.insn	2, 0x0000
    2e7c:	0001                	.insn	2, 0x0001
    2e7e:	0000                	.insn	2, 0x0000
    2e80:	0001                	.insn	2, 0x0001
	...
    2e9a:	0000                	.insn	2, 0x0000
    2e9c:	00000003          	lb	zero,0(zero) # 0 <_isr_handler>
	...
    2ea8:	00fc                	.insn	2, 0x00fc
    2eaa:	0000                	.insn	2, 0x0000
    2eac:	0001                	.insn	2, 0x0001
    2eae:	0000                	.insn	2, 0x0000
    2eb0:	0001                	.insn	2, 0x0001
	...
    2eba:	0000                	.insn	2, 0x0000
    2ebc:	0001                	.insn	2, 0x0001
    2ebe:	0000                	.insn	2, 0x0000
    2ec0:	0001                	.insn	2, 0x0001
	...
    2eea:	0000                	.insn	2, 0x0000
    2eec:	0004                	.insn	2, 0x0004
	...
    2ef6:	0000                	.insn	2, 0x0000
    2ef8:	001c                	.insn	2, 0x001c
    2efa:	0000                	.insn	2, 0x0000
    2efc:	0001                	.insn	2, 0x0001
	...
    2f0a:	0000                	.insn	2, 0x0000
    2f0c:	0001                	.insn	2, 0x0001
    2f0e:	0000                	.insn	2, 0x0000
    2f10:	0001                	.insn	2, 0x0001
	...
    2f1e:	0000                	.insn	2, 0x0000
    2f20:	0001                	.insn	2, 0x0001
	...
    2f3a:	0000                	.insn	2, 0x0000
    2f3c:	0005                	.insn	2, 0x0005
	...
    2f46:	0000                	.insn	2, 0x0000
    2f48:	00000063          	beqz	zero,2f48 <pieces+0x19c>
    2f4c:	0000                	.insn	2, 0x0000
    2f4e:	0000                	.insn	2, 0x0000
    2f50:	0001                	.insn	2, 0x0001
	...
    2f5a:	0000                	.insn	2, 0x0000
    2f5c:	0001                	.insn	2, 0x0001
    2f5e:	0000                	.insn	2, 0x0000
    2f60:	0001                	.insn	2, 0x0001
    2f62:	0000                	.insn	2, 0x0000
    2f64:	0001                	.insn	2, 0x0001
	...
    2f8a:	0000                	.insn	2, 0x0000
    2f8c:	0006                	.insn	2, 0x0006
	...
    2f96:	0000                	.insn	2, 0x0000
    2f98:	00e0                	.insn	2, 0x00e0
    2f9a:	0000                	.insn	2, 0x0000
    2f9c:	0001                	.insn	2, 0x0001
    2f9e:	0000                	.insn	2, 0x0000
    2fa0:	0001                	.insn	2, 0x0001
	...
    2fae:	0000                	.insn	2, 0x0000
    2fb0:	0001                	.insn	2, 0x0001
    2fb2:	0000                	.insn	2, 0x0000
    2fb4:	0001                	.insn	2, 0x0001
	...

00002fdc <VGA>:
    2fdc:	0000                	.insn	2, 0x0000
    2fde:	0800                	.insn	2, 0x0800

Disassembly of section .rodata.str1.4:

00008f14 <.rodata.str1.4>:
    8f14:	5b0a                	.insn	2, 0x5b0a
    8f16:	5845                	.insn	2, 0x5845
    8f18:	54504543          	.insn	4, 0x54504543
    8f1c:	4f49                	.insn	2, 0x4f49
    8f1e:	5d4e                	.insn	2, 0x5d4e
    8f20:	4920                	.insn	2, 0x4920
    8f22:	736e                	.insn	2, 0x736e
    8f24:	7274                	.insn	2, 0x7274
    8f26:	6375                	.insn	2, 0x6375
    8f28:	6974                	.insn	2, 0x6974
    8f2a:	61206e6f          	jal	t3,f53c <timeoutcount+0x662c>
    8f2e:	6464                	.insn	2, 0x6464
    8f30:	6572                	.insn	2, 0x6572
    8f32:	6d207373          	csrrci	t1,0x6d2,0
    8f36:	7369                	.insn	2, 0x7369
    8f38:	6c61                	.insn	2, 0x6c61
    8f3a:	6769                	.insn	2, 0x6769
    8f3c:	6d6e                	.insn	2, 0x6d6e
    8f3e:	6e65                	.insn	2, 0x6e65
    8f40:	2e74                	.insn	2, 0x2e74
    8f42:	0020                	.insn	2, 0x0020
    8f44:	5b0a                	.insn	2, 0x5b0a
    8f46:	5845                	.insn	2, 0x5845
    8f48:	54504543          	.insn	4, 0x54504543
    8f4c:	4f49                	.insn	2, 0x4f49
    8f4e:	5d4e                	.insn	2, 0x5d4e
    8f50:	4920                	.insn	2, 0x4920
    8f52:	6c6c                	.insn	2, 0x6c6c
    8f54:	6765                	.insn	2, 0x6765
    8f56:	6c61                	.insn	2, 0x6c61
    8f58:	6920                	.insn	2, 0x6920
    8f5a:	736e                	.insn	2, 0x736e
    8f5c:	7274                	.insn	2, 0x7274
    8f5e:	6375                	.insn	2, 0x6375
    8f60:	6974                	.insn	2, 0x6974
    8f62:	202e6e6f          	jal	t3,ef164 <timeoutcount+0xe6254>
    8f66:	0000                	.insn	2, 0x0000
    8f68:	5b0a                	.insn	2, 0x5b0a
    8f6a:	5845                	.insn	2, 0x5845
    8f6c:	54504543          	.insn	4, 0x54504543
    8f70:	4f49                	.insn	2, 0x4f49
    8f72:	5d4e                	.insn	2, 0x5d4e
    8f74:	5520                	.insn	2, 0x5520
    8f76:	6b6e                	.insn	2, 0x6b6e
    8f78:	6f6e                	.insn	2, 0x6f6e
    8f7a:	65206e77          	.insn	4, 0x65206e77
    8f7e:	7272                	.insn	2, 0x7272
    8f80:	202e726f          	jal	tp,f0182 <timeoutcount+0xe7272>
    8f84:	0000                	.insn	2, 0x0000
    8f86:	0000                	.insn	2, 0x0000
    8f88:	7845                	.insn	2, 0x7845
    8f8a:	74706563          	bltu	zero,t2,96d4 <timeoutcount+0x7c4>
    8f8e:	6f69                	.insn	2, 0x6f69
    8f90:	206e                	.insn	2, 0x206e
    8f92:	6441                	.insn	2, 0x6441
    8f94:	7264                	.insn	2, 0x7264
    8f96:	7365                	.insn	2, 0x7365
    8f98:	00203a73          	csrrc	s4,frm,zero

Disassembly of section .comment:

00000000 <.comment>:
   0:	3a434347          	.insn	4, 0x3a434347
   4:	2820                	.insn	2, 0x2820
   6:	2029                	.insn	2, 0x2029
   8:	3531                	.insn	2, 0x3531
   a:	312e                	.insn	2, 0x312e
   c:	302e                	.insn	2, 0x302e
	...

Disassembly of section .riscv.attributes:

00000000 <.riscv.attributes>:
   0:	3641                	.insn	2, 0x3641
   2:	0000                	.insn	2, 0x0000
   4:	7200                	.insn	2, 0x7200
   6:	7369                	.insn	2, 0x7369
   8:	01007663          	bgeu	zero,a6,14 <_isr_routine+0xc>
   c:	002c                	.insn	2, 0x002c
   e:	0000                	.insn	2, 0x0000
  10:	1004                	.insn	2, 0x1004
  12:	7205                	.insn	2, 0x7205
  14:	3376                	.insn	2, 0x3376
  16:	6932                	.insn	2, 0x6932
  18:	7032                	.insn	2, 0x7032
  1a:	5f31                	.insn	2, 0x5f31
  1c:	326d                	.insn	2, 0x326d
  1e:	3070                	.insn	2, 0x3070
  20:	7a5f 6369 7273      	.insn	6, 0x727363697a5f
  26:	7032                	.insn	2, 0x7032
  28:	5f30                	.insn	2, 0x5f30
  2a:	6d7a                	.insn	2, 0x6d7a
  2c:	756d                	.insn	2, 0x756d
  2e:	316c                	.insn	2, 0x316c
  30:	3070                	.insn	2, 0x3070
  32:	0800                	.insn	2, 0x0800
  34:	0a01                	.insn	2, 0x0a01
  36:	0b                	.byte	0x0b
