
main.elf:     file format elf32-littleriscv


Disassembly of section .text:

00000000 <_isr_handler>:
       0:	0080006f          	j	8 <_isr_routine>
       4:	1440006f          	j	148 <_start>

00000008 <_isr_routine>:
       8:	f8010113          	addi	sp,sp,-128
       c:	00112023          	sw	ra,0(sp)
      10:	00312423          	sw	gp,8(sp)
      14:	00412623          	sw	tp,12(sp)
      18:	00512823          	sw	t0,16(sp)
      1c:	00612a23          	sw	t1,20(sp)
      20:	00712c23          	sw	t2,24(sp)
      24:	00812e23          	sw	s0,28(sp)
      28:	02912023          	sw	s1,32(sp)
      2c:	02a12223          	sw	a0,36(sp)
      30:	02b12423          	sw	a1,40(sp)
      34:	02c12623          	sw	a2,44(sp)
      38:	02d12823          	sw	a3,48(sp)
      3c:	02e12a23          	sw	a4,52(sp)
      40:	02f12c23          	sw	a5,56(sp)
      44:	03012e23          	sw	a6,60(sp)
      48:	05112023          	sw	a7,64(sp)
      4c:	05212223          	sw	s2,68(sp)
      50:	05312423          	sw	s3,72(sp)
      54:	05412623          	sw	s4,76(sp)
      58:	05512823          	sw	s5,80(sp)
      5c:	05612a23          	sw	s6,84(sp)
      60:	05712c23          	sw	s7,88(sp)
      64:	05812e23          	sw	s8,92(sp)
      68:	07912023          	sw	s9,96(sp)
      6c:	07a12223          	sw	s10,100(sp)
      70:	07b12423          	sw	s11,104(sp)
      74:	07c12623          	sw	t3,108(sp)
      78:	07d12823          	sw	t4,112(sp)
      7c:	07e12a23          	sw	t5,116(sp)
      80:	07f12c23          	sw	t6,120(sp)
      84:	342022f3          	csrr	t0,mcause
      88:	80000337          	lui	t1,0x80000
      8c:	02536463          	bltu	t1,t0,b4 <external_irq>
      90:	00028833          	add	a6,t0,zero
      94:	00b00313          	li	t1,11
      98:	00628463          	beq	t0,t1,a0 <skip_init_args>
      9c:	34102573          	csrr	a0,mepc

000000a0 <skip_init_args>:
      a0:	258000ef          	jal	2f8 <handle_exception>
      a4:	341022f3          	csrr	t0,mepc
      a8:	00428293          	addi	t0,t0,4
      ac:	34129073          	csrw	mepc,t0
      b0:	0180006f          	j	c8 <restore>

000000b4 <external_irq>:
      b4:	800002b7          	lui	t0,0x80000
      b8:	fff28293          	addi	t0,t0,-1 # 7fffffff <_stack_end+0x7fefa7cf>
      bc:	34202373          	csrr	t1,mcause
      c0:	0062f533          	and	a0,t0,t1
      c4:	569040ef          	jal	4e2c <handle_interrupt>

000000c8 <restore>:
      c8:	00012083          	lw	ra,0(sp)
      cc:	00812183          	lw	gp,8(sp)
      d0:	00c12203          	lw	tp,12(sp)
      d4:	01012283          	lw	t0,16(sp)
      d8:	01412303          	lw	t1,20(sp)
      dc:	01812383          	lw	t2,24(sp)
      e0:	01c12403          	lw	s0,28(sp)
      e4:	02012483          	lw	s1,32(sp)
      e8:	02412503          	lw	a0,36(sp)
      ec:	02812583          	lw	a1,40(sp)
      f0:	02c12603          	lw	a2,44(sp)
      f4:	03012683          	lw	a3,48(sp)
      f8:	03412703          	lw	a4,52(sp)
      fc:	03812783          	lw	a5,56(sp)
     100:	03c12803          	lw	a6,60(sp)
     104:	04012883          	lw	a7,64(sp)
     108:	04412903          	lw	s2,68(sp)
     10c:	04812983          	lw	s3,72(sp)
     110:	04c12a03          	lw	s4,76(sp)
     114:	05012a83          	lw	s5,80(sp)
     118:	05412b03          	lw	s6,84(sp)
     11c:	05812b83          	lw	s7,88(sp)
     120:	05c12c03          	lw	s8,92(sp)
     124:	06012c83          	lw	s9,96(sp)
     128:	06412d03          	lw	s10,100(sp)
     12c:	06812d83          	lw	s11,104(sp)
     130:	06c12e03          	lw	t3,108(sp)
     134:	07012e83          	lw	t4,112(sp)
     138:	07412f03          	lw	t5,116(sp)
     13c:	07812f83          	lw	t6,120(sp)
     140:	08010113          	addi	sp,sp,128
     144:	30200073          	mret

00000148 <_start>:
     148:	30401073          	csrw	mie,zero
     14c:	00105117          	auipc	sp,0x105
     150:	6e410113          	addi	sp,sp,1764 # 105830 <_stack_end>
     154:	00005197          	auipc	gp,0x5
     158:	7dc18193          	addi	gp,gp,2012 # 5930 <__global_pointer>
     15c:	00005517          	auipc	a0,0x5
     160:	d1050513          	addi	a0,a0,-752 # 4e6c <welcome_msg>
     164:	00400893          	li	a7,4
     168:	00000073          	ecall
     16c:	580000ef          	jal	6ec <main>

00000170 <loop>:
     170:	0000006f          	j	170 <loop>

00000174 <enable_interrupt>:
     174:	30486073          	csrsi	mie,16
     178:	30496073          	csrsi	mie,18
     17c:	3001e073          	csrsi	mstatus,3
     180:	00008067          	ret

00000184 <printc>:
     184:	04000737          	lui	a4,0x4000
     188:	04470713          	addi	a4,a4,68 # 4000044 <_stack_end+0x3efa814>
     18c:	000106b7          	lui	a3,0x10
     190:	00072783          	lw	a5,0(a4)
     194:	fed7eee3          	bltu	a5,a3,190 <printc+0xc>
     198:	040007b7          	lui	a5,0x4000
     19c:	04a7a023          	sw	a0,64(a5) # 4000040 <_stack_end+0x3efa810>
     1a0:	00008067          	ret

000001a4 <print>:
     1a4:	00054603          	lbu	a2,0(a0)
     1a8:	02060863          	beqz	a2,1d8 <print+0x34>
     1ac:	04000737          	lui	a4,0x4000
     1b0:	040005b7          	lui	a1,0x4000
     1b4:	04470713          	addi	a4,a4,68 # 4000044 <_stack_end+0x3efa814>
     1b8:	04058593          	addi	a1,a1,64 # 4000040 <_stack_end+0x3efa810>
     1bc:	000106b7          	lui	a3,0x10
     1c0:	00072783          	lw	a5,0(a4)
     1c4:	fed7eee3          	bltu	a5,a3,1c0 <print+0x1c>
     1c8:	00c5a023          	sw	a2,0(a1)
     1cc:	00154603          	lbu	a2,1(a0)
     1d0:	00150513          	addi	a0,a0,1
     1d4:	fe0616e3          	bnez	a2,1c0 <print+0x1c>
     1d8:	00008067          	ret

000001dc <print_dec>:
     1dc:	3b9ad737          	lui	a4,0x3b9ad
     1e0:	040006b7          	lui	a3,0x4000
     1e4:	04000337          	lui	t1,0x4000
     1e8:	ccccd8b7          	lui	a7,0xccccd
     1ec:	a0070713          	addi	a4,a4,-1536 # 3b9aca00 <_stack_end+0x3b8a71d0>
     1f0:	04468693          	addi	a3,a3,68 # 4000044 <_stack_end+0x3efa814>
     1f4:	04030313          	addi	t1,t1,64 # 4000040 <_stack_end+0x3efa810>
     1f8:	ccd88893          	addi	a7,a7,-819 # cccccccd <_stack_end+0xccbc749d>
     1fc:	00a00593          	li	a1,10
     200:	00000793          	li	a5,0
     204:	00010637          	lui	a2,0x10
     208:	04e57663          	bgeu	a0,a4,254 <print_dec+0x78>
     20c:	00078813          	mv	a6,a5
     210:	00000793          	li	a5,0
     214:	04081063          	bnez	a6,254 <print_dec+0x78>
     218:	03173833          	mulhu	a6,a4,a7
     21c:	fff58593          	addi	a1,a1,-1
     220:	02e57533          	remu	a0,a0,a4
     224:	00385713          	srli	a4,a6,0x3
     228:	fe0590e3          	bnez	a1,208 <print_dec+0x2c>
     22c:	02079263          	bnez	a5,250 <print_dec+0x74>
     230:	04000737          	lui	a4,0x4000
     234:	04470713          	addi	a4,a4,68 # 4000044 <_stack_end+0x3efa814>
     238:	000106b7          	lui	a3,0x10
     23c:	00072783          	lw	a5,0(a4)
     240:	fed7eee3          	bltu	a5,a3,23c <print_dec+0x60>
     244:	040007b7          	lui	a5,0x4000
     248:	03000713          	li	a4,48
     24c:	04e7a023          	sw	a4,64(a5) # 4000040 <_stack_end+0x3efa810>
     250:	00008067          	ret
     254:	02e55833          	divu	a6,a0,a4
     258:	03080813          	addi	a6,a6,48
     25c:	0ff87813          	zext.b	a6,a6
     260:	0006a783          	lw	a5,0(a3) # 10000 <__global_pointer+0xa6d0>
     264:	fec7eee3          	bltu	a5,a2,260 <print_dec+0x84>
     268:	01032023          	sw	a6,0(t1)
     26c:	00100793          	li	a5,1
     270:	fa9ff06f          	j	218 <print_dec+0x3c>

00000274 <print_hex32>:
     274:	04000737          	lui	a4,0x4000
     278:	04470713          	addi	a4,a4,68 # 4000044 <_stack_end+0x3efa814>
     27c:	000106b7          	lui	a3,0x10
     280:	00072783          	lw	a5,0(a4)
     284:	fed7eee3          	bltu	a5,a3,280 <print_hex32+0xc>
     288:	040007b7          	lui	a5,0x4000
     28c:	03000693          	li	a3,48
     290:	04d7a023          	sw	a3,64(a5) # 4000040 <_stack_end+0x3efa810>
     294:	04478713          	addi	a4,a5,68
     298:	000106b7          	lui	a3,0x10
     29c:	00072783          	lw	a5,0(a4)
     2a0:	fed7eee3          	bltu	a5,a3,29c <print_hex32+0x28>
     2a4:	04000837          	lui	a6,0x4000
     2a8:	04080813          	addi	a6,a6,64 # 4000040 <_stack_end+0x3efa810>
     2ac:	07800793          	li	a5,120
     2b0:	04000737          	lui	a4,0x4000
     2b4:	00f82023          	sw	a5,0(a6)
     2b8:	04470713          	addi	a4,a4,68 # 4000044 <_stack_end+0x3efa814>
     2bc:	01c00613          	li	a2,28
     2c0:	00900313          	li	t1,9
     2c4:	000106b7          	lui	a3,0x10
     2c8:	ffc00893          	li	a7,-4
     2cc:	00c557b3          	srl	a5,a0,a2
     2d0:	00f7f793          	andi	a5,a5,15
     2d4:	03778593          	addi	a1,a5,55
     2d8:	00f36463          	bltu	t1,a5,2e0 <print_hex32+0x6c>
     2dc:	03078593          	addi	a1,a5,48
     2e0:	00072783          	lw	a5,0(a4)
     2e4:	fed7eee3          	bltu	a5,a3,2e0 <print_hex32+0x6c>
     2e8:	00b82023          	sw	a1,0(a6)
     2ec:	ffc60613          	addi	a2,a2,-4 # fffc <__global_pointer+0xa6cc>
     2f0:	fd161ee3          	bne	a2,a7,2cc <print_hex32+0x58>
     2f4:	00008067          	ret

000002f8 <handle_exception>:
     2f8:	00200793          	li	a5,2
     2fc:	1af80463          	beq	a6,a5,4a4 <handle_exception+0x1ac>
     300:	00b00793          	li	a5,11
     304:	12f80663          	beq	a6,a5,430 <handle_exception+0x138>
     308:	14081c63          	bnez	a6,460 <handle_exception+0x168>
     30c:	00005637          	lui	a2,0x5
     310:	000058b7          	lui	a7,0x5
     314:	04000737          	lui	a4,0x4000
     318:	04000837          	lui	a6,0x4000
     31c:	65460613          	addi	a2,a2,1620 # 5654 <font5x7+0xb4>
     320:	68388893          	addi	a7,a7,1667 # 5683 <font5x7+0xe3>
     324:	04470713          	addi	a4,a4,68 # 4000044 <_stack_end+0x3efa814>
     328:	04080813          	addi	a6,a6,64 # 4000040 <_stack_end+0x3efa810>
     32c:	00a00593          	li	a1,10
     330:	000106b7          	lui	a3,0x10
     334:	00072783          	lw	a5,0(a4)
     338:	fed7eee3          	bltu	a5,a3,334 <handle_exception+0x3c>
     33c:	00b82023          	sw	a1,0(a6)
     340:	00160613          	addi	a2,a2,1
     344:	00064583          	lbu	a1,0(a2)
     348:	ff1616e3          	bne	a2,a7,334 <handle_exception+0x3c>
     34c:	00005637          	lui	a2,0x5
     350:	000058b7          	lui	a7,0x5
     354:	04000737          	lui	a4,0x4000
     358:	04000837          	lui	a6,0x4000
     35c:	6cc60613          	addi	a2,a2,1740 # 56cc <font5x7+0x12c>
     360:	6df88893          	addi	a7,a7,1759 # 56df <font5x7+0x13f>
     364:	04470713          	addi	a4,a4,68 # 4000044 <_stack_end+0x3efa814>
     368:	04080813          	addi	a6,a6,64 # 4000040 <_stack_end+0x3efa810>
     36c:	04500593          	li	a1,69
     370:	000106b7          	lui	a3,0x10
     374:	00072783          	lw	a5,0(a4)
     378:	fed7eee3          	bltu	a5,a3,374 <handle_exception+0x7c>
     37c:	00b82023          	sw	a1,0(a6)
     380:	00160613          	addi	a2,a2,1
     384:	00064583          	lbu	a1,0(a2)
     388:	ff1616e3          	bne	a2,a7,374 <handle_exception+0x7c>
     38c:	04000737          	lui	a4,0x4000
     390:	04470713          	addi	a4,a4,68 # 4000044 <_stack_end+0x3efa814>
     394:	000106b7          	lui	a3,0x10
     398:	00072783          	lw	a5,0(a4)
     39c:	fed7eee3          	bltu	a5,a3,398 <handle_exception+0xa0>
     3a0:	040007b7          	lui	a5,0x4000
     3a4:	03000693          	li	a3,48
     3a8:	04d7a023          	sw	a3,64(a5) # 4000040 <_stack_end+0x3efa810>
     3ac:	04478713          	addi	a4,a5,68
     3b0:	000106b7          	lui	a3,0x10
     3b4:	00072783          	lw	a5,0(a4)
     3b8:	fed7eee3          	bltu	a5,a3,3b4 <handle_exception+0xbc>
     3bc:	04000837          	lui	a6,0x4000
     3c0:	04080813          	addi	a6,a6,64 # 4000040 <_stack_end+0x3efa810>
     3c4:	07800793          	li	a5,120
     3c8:	04000737          	lui	a4,0x4000
     3cc:	00f82023          	sw	a5,0(a6)
     3d0:	04470713          	addi	a4,a4,68 # 4000044 <_stack_end+0x3efa814>
     3d4:	01c00613          	li	a2,28
     3d8:	00900313          	li	t1,9
     3dc:	000106b7          	lui	a3,0x10
     3e0:	ffc00893          	li	a7,-4
     3e4:	00c557b3          	srl	a5,a0,a2
     3e8:	00f7f793          	andi	a5,a5,15
     3ec:	03778593          	addi	a1,a5,55
     3f0:	00f36463          	bltu	t1,a5,3f8 <handle_exception+0x100>
     3f4:	03078593          	addi	a1,a5,48
     3f8:	00072783          	lw	a5,0(a4)
     3fc:	fed7eee3          	bltu	a5,a3,3f8 <handle_exception+0x100>
     400:	00b82023          	sw	a1,0(a6)
     404:	ffc60613          	addi	a2,a2,-4
     408:	fd161ee3          	bne	a2,a7,3e4 <handle_exception+0xec>
     40c:	04000737          	lui	a4,0x4000
     410:	04470713          	addi	a4,a4,68 # 4000044 <_stack_end+0x3efa814>
     414:	000106b7          	lui	a3,0x10
     418:	00072783          	lw	a5,0(a4)
     41c:	fed7eee3          	bltu	a5,a3,418 <handle_exception+0x120>
     420:	040007b7          	lui	a5,0x4000
     424:	00a00713          	li	a4,10
     428:	04e7a023          	sw	a4,64(a5) # 4000040 <_stack_end+0x3efa810>
     42c:	0000006f          	j	42c <handle_exception+0x134>
     430:	00400793          	li	a5,4
     434:	0af88a63          	beq	a7,a5,4e8 <handle_exception+0x1f0>
     438:	0f089463          	bne	a7,a6,520 <handle_exception+0x228>
     43c:	04000737          	lui	a4,0x4000
     440:	04470713          	addi	a4,a4,68 # 4000044 <_stack_end+0x3efa814>
     444:	000106b7          	lui	a3,0x10
     448:	00072783          	lw	a5,0(a4)
     44c:	fed7eee3          	bltu	a5,a3,448 <handle_exception+0x150>
     450:	040007b7          	lui	a5,0x4000
     454:	0ff57513          	zext.b	a0,a0
     458:	04a7a023          	sw	a0,64(a5) # 4000040 <_stack_end+0x3efa810>
     45c:	00008067          	ret
     460:	00005637          	lui	a2,0x5
     464:	000058b7          	lui	a7,0x5
     468:	04000737          	lui	a4,0x4000
     46c:	04000837          	lui	a6,0x4000
     470:	6ac60613          	addi	a2,a2,1708 # 56ac <font5x7+0x10c>
     474:	6c888893          	addi	a7,a7,1736 # 56c8 <font5x7+0x128>
     478:	04470713          	addi	a4,a4,68 # 4000044 <_stack_end+0x3efa814>
     47c:	04080813          	addi	a6,a6,64 # 4000040 <_stack_end+0x3efa810>
     480:	00a00593          	li	a1,10
     484:	000106b7          	lui	a3,0x10
     488:	00072783          	lw	a5,0(a4)
     48c:	fed7eee3          	bltu	a5,a3,488 <handle_exception+0x190>
     490:	00b82023          	sw	a1,0(a6)
     494:	00160613          	addi	a2,a2,1
     498:	00064583          	lbu	a1,0(a2)
     49c:	ff1616e3          	bne	a2,a7,488 <handle_exception+0x190>
     4a0:	eadff06f          	j	34c <handle_exception+0x54>
     4a4:	00005637          	lui	a2,0x5
     4a8:	000058b7          	lui	a7,0x5
     4ac:	04000737          	lui	a4,0x4000
     4b0:	04000837          	lui	a6,0x4000
     4b4:	68460613          	addi	a2,a2,1668 # 5684 <font5x7+0xe4>
     4b8:	6a688893          	addi	a7,a7,1702 # 56a6 <font5x7+0x106>
     4bc:	04470713          	addi	a4,a4,68 # 4000044 <_stack_end+0x3efa814>
     4c0:	04080813          	addi	a6,a6,64 # 4000040 <_stack_end+0x3efa810>
     4c4:	00a00593          	li	a1,10
     4c8:	000106b7          	lui	a3,0x10
     4cc:	00072783          	lw	a5,0(a4)
     4d0:	fed7eee3          	bltu	a5,a3,4cc <handle_exception+0x1d4>
     4d4:	00b82023          	sw	a1,0(a6)
     4d8:	00160613          	addi	a2,a2,1
     4dc:	00064583          	lbu	a1,0(a2)
     4e0:	ff1616e3          	bne	a2,a7,4cc <handle_exception+0x1d4>
     4e4:	e69ff06f          	j	34c <handle_exception+0x54>
     4e8:	00054603          	lbu	a2,0(a0)
     4ec:	02060a63          	beqz	a2,520 <handle_exception+0x228>
     4f0:	04000737          	lui	a4,0x4000
     4f4:	040005b7          	lui	a1,0x4000
     4f8:	04470713          	addi	a4,a4,68 # 4000044 <_stack_end+0x3efa814>
     4fc:	04058593          	addi	a1,a1,64 # 4000040 <_stack_end+0x3efa810>
     500:	000106b7          	lui	a3,0x10
     504:	00072783          	lw	a5,0(a4)
     508:	fed7eee3          	bltu	a5,a3,504 <handle_exception+0x20c>
     50c:	00c5a023          	sw	a2,0(a1)
     510:	00154603          	lbu	a2,1(a0)
     514:	00150513          	addi	a0,a0,1
     518:	fe0616e3          	bnez	a2,504 <handle_exception+0x20c>
     51c:	00008067          	ret
     520:	00008067          	ret

00000524 <nextprime>:
     524:	00200793          	li	a5,2
     528:	02a7c063          	blt	a5,a0,548 <nextprime+0x24>
     52c:	00100693          	li	a3,1
     530:	00a05863          	blez	a0,540 <nextprime+0x1c>
     534:	fff50793          	addi	a5,a0,-1
     538:	00f037b3          	snez	a5,a5
     53c:	00278693          	addi	a3,a5,2
     540:	00068513          	mv	a0,a3
     544:	00008067          	ret
     548:	00150513          	addi	a0,a0,1
     54c:	00156693          	ori	a3,a0,1
     550:	00300793          	li	a5,3
     554:	02f6e733          	rem	a4,a3,a5
     558:	4016d613          	srai	a2,a3,0x1
     55c:	00260613          	addi	a2,a2,2
     560:	00178793          	addi	a5,a5,1
     564:	00070a63          	beqz	a4,578 <nextprime+0x54>
     568:	fcf60ce3          	beq	a2,a5,540 <nextprime+0x1c>
     56c:	02f6e733          	rem	a4,a3,a5
     570:	00178793          	addi	a5,a5,1
     574:	fe071ae3          	bnez	a4,568 <nextprime+0x44>
     578:	00268693          	addi	a3,a3,2 # 10002 <__global_pointer+0xa6d2>
     57c:	fd5ff06f          	j	550 <nextprime+0x2c>

00000580 <measure_performance>:
     580:	00005537          	lui	a0,0x5
     584:	fc010113          	addi	sp,sp,-64
     588:	6e050513          	addi	a0,a0,1760 # 56e0 <font5x7+0x140>
     58c:	02112e23          	sw	ra,60(sp)
     590:	02812c23          	sw	s0,56(sp)
     594:	02912a23          	sw	s1,52(sp)
     598:	c0dff0ef          	jal	1a4 <print>
     59c:	00005537          	lui	a0,0x5
     5a0:	70850513          	addi	a0,a0,1800 # 5708 <font5x7+0x168>
     5a4:	c01ff0ef          	jal	1a4 <print>
     5a8:	01e00413          	li	s0,30
     5ac:	5f8000ef          	jal	ba4 <performance_start>
     5b0:	000054b7          	lui	s1,0x5
     5b4:	1304a503          	lw	a0,304(s1) # 5130 <VGA>
     5b8:	fff40413          	addi	s0,s0,-1
     5bc:	160040ef          	jal	471c <tick>
     5c0:	fe041ae3          	bnez	s0,5b4 <measure_performance+0x34>
     5c4:	00c10513          	addi	a0,sp,12
     5c8:	604000ef          	jal	bcc <performance_stop>
     5cc:	00005537          	lui	a0,0x5
     5d0:	73c50513          	addi	a0,a0,1852 # 573c <font5x7+0x19c>
     5d4:	bd1ff0ef          	jal	1a4 <print>
     5d8:	00005537          	lui	a0,0x5
     5dc:	75850513          	addi	a0,a0,1880 # 5758 <font5x7+0x1b8>
     5e0:	bc5ff0ef          	jal	1a4 <print>
     5e4:	00c12503          	lw	a0,12(sp)
     5e8:	00005437          	lui	s0,0x5
     5ec:	bf1ff0ef          	jal	1dc <print_dec>
     5f0:	76440513          	addi	a0,s0,1892 # 5764 <font5x7+0x1c4>
     5f4:	bb1ff0ef          	jal	1a4 <print>
     5f8:	00005537          	lui	a0,0x5
     5fc:	76850513          	addi	a0,a0,1896 # 5768 <font5x7+0x1c8>
     600:	ba5ff0ef          	jal	1a4 <print>
     604:	01012503          	lw	a0,16(sp)
     608:	bd5ff0ef          	jal	1dc <print_dec>
     60c:	76440513          	addi	a0,s0,1892
     610:	b95ff0ef          	jal	1a4 <print>
     614:	00005537          	lui	a0,0x5
     618:	77850513          	addi	a0,a0,1912 # 5778 <font5x7+0x1d8>
     61c:	b89ff0ef          	jal	1a4 <print>
     620:	01412503          	lw	a0,20(sp)
     624:	bb9ff0ef          	jal	1dc <print_dec>
     628:	76440513          	addi	a0,s0,1892
     62c:	b79ff0ef          	jal	1a4 <print>
     630:	00005537          	lui	a0,0x5
     634:	79050513          	addi	a0,a0,1936 # 5790 <font5x7+0x1f0>
     638:	b6dff0ef          	jal	1a4 <print>
     63c:	01812503          	lw	a0,24(sp)
     640:	b9dff0ef          	jal	1dc <print_dec>
     644:	76440513          	addi	a0,s0,1892
     648:	b5dff0ef          	jal	1a4 <print>
     64c:	00005537          	lui	a0,0x5
     650:	7a450513          	addi	a0,a0,1956 # 57a4 <font5x7+0x204>
     654:	b51ff0ef          	jal	1a4 <print>
     658:	01c12503          	lw	a0,28(sp)
     65c:	b81ff0ef          	jal	1dc <print_dec>
     660:	76440513          	addi	a0,s0,1892
     664:	b41ff0ef          	jal	1a4 <print>
     668:	00005537          	lui	a0,0x5
     66c:	7b850513          	addi	a0,a0,1976 # 57b8 <font5x7+0x218>
     670:	b35ff0ef          	jal	1a4 <print>
     674:	02012503          	lw	a0,32(sp)
     678:	b65ff0ef          	jal	1dc <print_dec>
     67c:	76440513          	addi	a0,s0,1892
     680:	b25ff0ef          	jal	1a4 <print>
     684:	00005537          	lui	a0,0x5
     688:	7cc50513          	addi	a0,a0,1996 # 57cc <font5x7+0x22c>
     68c:	b19ff0ef          	jal	1a4 <print>
     690:	02412503          	lw	a0,36(sp)
     694:	b49ff0ef          	jal	1dc <print_dec>
     698:	76440513          	addi	a0,s0,1892
     69c:	b09ff0ef          	jal	1a4 <print>
     6a0:	00005537          	lui	a0,0x5
     6a4:	7e050513          	addi	a0,a0,2016 # 57e0 <font5x7+0x240>
     6a8:	afdff0ef          	jal	1a4 <print>
     6ac:	02812503          	lw	a0,40(sp)
     6b0:	b2dff0ef          	jal	1dc <print_dec>
     6b4:	76440513          	addi	a0,s0,1892
     6b8:	aedff0ef          	jal	1a4 <print>
     6bc:	00005537          	lui	a0,0x5
     6c0:	7f850513          	addi	a0,a0,2040 # 57f8 <font5x7+0x258>
     6c4:	ae1ff0ef          	jal	1a4 <print>
     6c8:	02c12503          	lw	a0,44(sp)
     6cc:	b11ff0ef          	jal	1dc <print_dec>
     6d0:	76440513          	addi	a0,s0,1892
     6d4:	ad1ff0ef          	jal	1a4 <print>
     6d8:	03c12083          	lw	ra,60(sp)
     6dc:	03812403          	lw	s0,56(sp)
     6e0:	03412483          	lw	s1,52(sp)
     6e4:	04010113          	addi	sp,sp,64
     6e8:	00008067          	ret

000006ec <main>:
     6ec:	ff010113          	addi	sp,sp,-16
     6f0:	00112623          	sw	ra,12(sp)
     6f4:	00812423          	sw	s0,8(sp)
     6f8:	00912223          	sw	s1,4(sp)
     6fc:	554000ef          	jal	c50 <joystick_init>
     700:	00005737          	lui	a4,0x5
     704:	13470793          	addi	a5,a4,308 # 5134 <grid>
     708:	0037f693          	andi	a3,a5,3
     70c:	46069063          	bnez	a3,b6c <__heap_size+0x36c>
     710:	12070ba3          	sb	zero,311(a4)
     714:	12070b23          	sb	zero,310(a4)
     718:	12070aa3          	sb	zero,309(a4)
     71c:	12070a23          	sb	zero,308(a4)
     720:	00078223          	sb	zero,4(a5)
     724:	000782a3          	sb	zero,5(a5)
     728:	00078323          	sb	zero,6(a5)
     72c:	000783a3          	sb	zero,7(a5)
     730:	00078423          	sb	zero,8(a5)
     734:	000784a3          	sb	zero,9(a5)
     738:	00078523          	sb	zero,10(a5)
     73c:	000785a3          	sb	zero,11(a5)
     740:	00078623          	sb	zero,12(a5)
     744:	000786a3          	sb	zero,13(a5)
     748:	00078723          	sb	zero,14(a5)
     74c:	000787a3          	sb	zero,15(a5)
     750:	00078823          	sb	zero,16(a5)
     754:	000788a3          	sb	zero,17(a5)
     758:	00078923          	sb	zero,18(a5)
     75c:	000789a3          	sb	zero,19(a5)
     760:	00078a23          	sb	zero,20(a5)
     764:	00078aa3          	sb	zero,21(a5)
     768:	00078b23          	sb	zero,22(a5)
     76c:	00078ba3          	sb	zero,23(a5)
     770:	00078c23          	sb	zero,24(a5)
     774:	00078ca3          	sb	zero,25(a5)
     778:	00078d23          	sb	zero,26(a5)
     77c:	00078da3          	sb	zero,27(a5)
     780:	00078e23          	sb	zero,28(a5)
     784:	00078ea3          	sb	zero,29(a5)
     788:	00078f23          	sb	zero,30(a5)
     78c:	00078fa3          	sb	zero,31(a5)
     790:	02078023          	sb	zero,32(a5)
     794:	020780a3          	sb	zero,33(a5)
     798:	02078123          	sb	zero,34(a5)
     79c:	020781a3          	sb	zero,35(a5)
     7a0:	02078223          	sb	zero,36(a5)
     7a4:	020782a3          	sb	zero,37(a5)
     7a8:	02078323          	sb	zero,38(a5)
     7ac:	020783a3          	sb	zero,39(a5)
     7b0:	02078423          	sb	zero,40(a5)
     7b4:	020784a3          	sb	zero,41(a5)
     7b8:	02078523          	sb	zero,42(a5)
     7bc:	020785a3          	sb	zero,43(a5)
     7c0:	02078623          	sb	zero,44(a5)
     7c4:	020786a3          	sb	zero,45(a5)
     7c8:	02078723          	sb	zero,46(a5)
     7cc:	020787a3          	sb	zero,47(a5)
     7d0:	02078823          	sb	zero,48(a5)
     7d4:	020788a3          	sb	zero,49(a5)
     7d8:	02078923          	sb	zero,50(a5)
     7dc:	020789a3          	sb	zero,51(a5)
     7e0:	02078a23          	sb	zero,52(a5)
     7e4:	02078aa3          	sb	zero,53(a5)
     7e8:	02078b23          	sb	zero,54(a5)
     7ec:	02078ba3          	sb	zero,55(a5)
     7f0:	02078c23          	sb	zero,56(a5)
     7f4:	02078ca3          	sb	zero,57(a5)
     7f8:	02078d23          	sb	zero,58(a5)
     7fc:	02078da3          	sb	zero,59(a5)
     800:	02078e23          	sb	zero,60(a5)
     804:	02078ea3          	sb	zero,61(a5)
     808:	02078f23          	sb	zero,62(a5)
     80c:	02078fa3          	sb	zero,63(a5)
     810:	04078023          	sb	zero,64(a5)
     814:	040780a3          	sb	zero,65(a5)
     818:	04078123          	sb	zero,66(a5)
     81c:	040781a3          	sb	zero,67(a5)
     820:	04078223          	sb	zero,68(a5)
     824:	040782a3          	sb	zero,69(a5)
     828:	04078323          	sb	zero,70(a5)
     82c:	040783a3          	sb	zero,71(a5)
     830:	04078423          	sb	zero,72(a5)
     834:	040784a3          	sb	zero,73(a5)
     838:	04078523          	sb	zero,74(a5)
     83c:	040785a3          	sb	zero,75(a5)
     840:	04078623          	sb	zero,76(a5)
     844:	040786a3          	sb	zero,77(a5)
     848:	04078723          	sb	zero,78(a5)
     84c:	040787a3          	sb	zero,79(a5)
     850:	04078823          	sb	zero,80(a5)
     854:	040788a3          	sb	zero,81(a5)
     858:	04078923          	sb	zero,82(a5)
     85c:	040789a3          	sb	zero,83(a5)
     860:	04078a23          	sb	zero,84(a5)
     864:	04078aa3          	sb	zero,85(a5)
     868:	04078b23          	sb	zero,86(a5)
     86c:	04078ba3          	sb	zero,87(a5)
     870:	04078c23          	sb	zero,88(a5)
     874:	04078ca3          	sb	zero,89(a5)
     878:	04078d23          	sb	zero,90(a5)
     87c:	04078da3          	sb	zero,91(a5)
     880:	04078e23          	sb	zero,92(a5)
     884:	04078ea3          	sb	zero,93(a5)
     888:	04078f23          	sb	zero,94(a5)
     88c:	04078fa3          	sb	zero,95(a5)
     890:	06078023          	sb	zero,96(a5)
     894:	060780a3          	sb	zero,97(a5)
     898:	06078123          	sb	zero,98(a5)
     89c:	060781a3          	sb	zero,99(a5)
     8a0:	06078223          	sb	zero,100(a5)
     8a4:	060782a3          	sb	zero,101(a5)
     8a8:	06078323          	sb	zero,102(a5)
     8ac:	060783a3          	sb	zero,103(a5)
     8b0:	06078423          	sb	zero,104(a5)
     8b4:	060784a3          	sb	zero,105(a5)
     8b8:	06078523          	sb	zero,106(a5)
     8bc:	060785a3          	sb	zero,107(a5)
     8c0:	06078623          	sb	zero,108(a5)
     8c4:	060786a3          	sb	zero,109(a5)
     8c8:	06078723          	sb	zero,110(a5)
     8cc:	060787a3          	sb	zero,111(a5)
     8d0:	06078823          	sb	zero,112(a5)
     8d4:	060788a3          	sb	zero,113(a5)
     8d8:	06078923          	sb	zero,114(a5)
     8dc:	060789a3          	sb	zero,115(a5)
     8e0:	06078a23          	sb	zero,116(a5)
     8e4:	06078aa3          	sb	zero,117(a5)
     8e8:	06078b23          	sb	zero,118(a5)
     8ec:	06078ba3          	sb	zero,119(a5)
     8f0:	06078c23          	sb	zero,120(a5)
     8f4:	06078ca3          	sb	zero,121(a5)
     8f8:	06078d23          	sb	zero,122(a5)
     8fc:	06078da3          	sb	zero,123(a5)
     900:	06078e23          	sb	zero,124(a5)
     904:	06078ea3          	sb	zero,125(a5)
     908:	06078f23          	sb	zero,126(a5)
     90c:	06078fa3          	sb	zero,127(a5)
     910:	08078023          	sb	zero,128(a5)
     914:	080780a3          	sb	zero,129(a5)
     918:	08078123          	sb	zero,130(a5)
     91c:	080781a3          	sb	zero,131(a5)
     920:	08078223          	sb	zero,132(a5)
     924:	080782a3          	sb	zero,133(a5)
     928:	08078323          	sb	zero,134(a5)
     92c:	080783a3          	sb	zero,135(a5)
     930:	08078423          	sb	zero,136(a5)
     934:	080784a3          	sb	zero,137(a5)
     938:	08078523          	sb	zero,138(a5)
     93c:	080785a3          	sb	zero,139(a5)
     940:	08078623          	sb	zero,140(a5)
     944:	080786a3          	sb	zero,141(a5)
     948:	08078723          	sb	zero,142(a5)
     94c:	080787a3          	sb	zero,143(a5)
     950:	08078823          	sb	zero,144(a5)
     954:	080788a3          	sb	zero,145(a5)
     958:	08078923          	sb	zero,146(a5)
     95c:	080789a3          	sb	zero,147(a5)
     960:	08078a23          	sb	zero,148(a5)
     964:	08078aa3          	sb	zero,149(a5)
     968:	08078b23          	sb	zero,150(a5)
     96c:	08078ba3          	sb	zero,151(a5)
     970:	08078c23          	sb	zero,152(a5)
     974:	08078ca3          	sb	zero,153(a5)
     978:	08078d23          	sb	zero,154(a5)
     97c:	08078da3          	sb	zero,155(a5)
     980:	08078e23          	sb	zero,156(a5)
     984:	08078ea3          	sb	zero,157(a5)
     988:	08078f23          	sb	zero,158(a5)
     98c:	08078fa3          	sb	zero,159(a5)
     990:	0a078023          	sb	zero,160(a5)
     994:	0a0780a3          	sb	zero,161(a5)
     998:	0a078123          	sb	zero,162(a5)
     99c:	0a0781a3          	sb	zero,163(a5)
     9a0:	0a078223          	sb	zero,164(a5)
     9a4:	0a0782a3          	sb	zero,165(a5)
     9a8:	0a078323          	sb	zero,166(a5)
     9ac:	0a0783a3          	sb	zero,167(a5)
     9b0:	0a078423          	sb	zero,168(a5)
     9b4:	0a0784a3          	sb	zero,169(a5)
     9b8:	0a078523          	sb	zero,170(a5)
     9bc:	0a0785a3          	sb	zero,171(a5)
     9c0:	0a078623          	sb	zero,172(a5)
     9c4:	0a0786a3          	sb	zero,173(a5)
     9c8:	0a078723          	sb	zero,174(a5)
     9cc:	0a0787a3          	sb	zero,175(a5)
     9d0:	0a078823          	sb	zero,176(a5)
     9d4:	0a0788a3          	sb	zero,177(a5)
     9d8:	0a078923          	sb	zero,178(a5)
     9dc:	0a0789a3          	sb	zero,179(a5)
     9e0:	0a078a23          	sb	zero,180(a5)
     9e4:	0a078aa3          	sb	zero,181(a5)
     9e8:	0a078b23          	sb	zero,182(a5)
     9ec:	0a078ba3          	sb	zero,183(a5)
     9f0:	0a078c23          	sb	zero,184(a5)
     9f4:	0a078ca3          	sb	zero,185(a5)
     9f8:	0a078d23          	sb	zero,186(a5)
     9fc:	0a078da3          	sb	zero,187(a5)
     a00:	0a078e23          	sb	zero,188(a5)
     a04:	0a078ea3          	sb	zero,189(a5)
     a08:	0a078f23          	sb	zero,190(a5)
     a0c:	0a078fa3          	sb	zero,191(a5)
     a10:	0c078023          	sb	zero,192(a5)
     a14:	0c0780a3          	sb	zero,193(a5)
     a18:	0c078123          	sb	zero,194(a5)
     a1c:	0c0781a3          	sb	zero,195(a5)
     a20:	0c078223          	sb	zero,196(a5)
     a24:	0c0782a3          	sb	zero,197(a5)
     a28:	0c078323          	sb	zero,198(a5)
     a2c:	0c0783a3          	sb	zero,199(a5)
     a30:	6c1010ef          	jal	28f0 <start>
     a34:	000054b7          	lui	s1,0x5
     a38:	1304a503          	lw	a0,304(s1) # 5130 <VGA>
     a3c:	00005437          	lui	s0,0x5
     a40:	24c40413          	addi	s0,s0,588 # 524c <next_piece>
     a44:	1b1000ef          	jal	13f4 <draw_grid>
     a48:	244000ef          	jal	c8c <labinit>
     a4c:	264000ef          	jal	cb0 <get_sw>
     a50:	0ff57513          	zext.b	a0,a0
     a54:	1c4000ef          	jal	c18 <set_rand_seed>
     a58:	1cc000ef          	jal	c24 <rand>
     a5c:	249257b7          	lui	a5,0x24925
     a60:	92578793          	addi	a5,a5,-1755 # 24924925 <_stack_end+0x2481f0f5>
     a64:	02f537b3          	mulhu	a5,a0,a5
     a68:	000056b7          	lui	a3,0x5
     a6c:	f0068693          	addi	a3,a3,-256 # 4f00 <pieces>
     a70:	40f50733          	sub	a4,a0,a5
     a74:	00175713          	srli	a4,a4,0x1
     a78:	00e787b3          	add	a5,a5,a4
     a7c:	0027d793          	srli	a5,a5,0x2
     a80:	00379713          	slli	a4,a5,0x3
     a84:	40f707b3          	sub	a5,a4,a5
     a88:	40f50733          	sub	a4,a0,a5
     a8c:	0ff77713          	zext.b	a4,a4
     a90:	00271793          	slli	a5,a4,0x2
     a94:	00e787b3          	add	a5,a5,a4
     a98:	00479793          	slli	a5,a5,0x4
     a9c:	00f68733          	add	a4,a3,a5
     aa0:	00074603          	lbu	a2,0(a4)
     aa4:	00c74703          	lbu	a4,12(a4)
     aa8:	01078793          	addi	a5,a5,16
     aac:	00d787b3          	add	a5,a5,a3
     ab0:	00e40623          	sb	a4,12(s0)
     ab4:	00c40023          	sb	a2,0(s0)
     ab8:	0007a583          	lw	a1,0(a5)
     abc:	0047a603          	lw	a2,4(a5)
     ac0:	0087a683          	lw	a3,8(a5)
     ac4:	00c7a703          	lw	a4,12(a5)
     ac8:	0107af03          	lw	t5,16(a5)
     acc:	0147ae83          	lw	t4,20(a5)
     ad0:	0187ae03          	lw	t3,24(a5)
     ad4:	01c7a303          	lw	t1,28(a5)
     ad8:	0207a883          	lw	a7,32(a5)
     adc:	0247a803          	lw	a6,36(a5)
     ae0:	0287a503          	lw	a0,40(a5)
     ae4:	00b42823          	sw	a1,16(s0)
     ae8:	02c7a583          	lw	a1,44(a5)
     aec:	00c42a23          	sw	a2,20(s0)
     af0:	00d42c23          	sw	a3,24(s0)
     af4:	0307a603          	lw	a2,48(a5)
     af8:	0347a683          	lw	a3,52(a5)
     afc:	00e42e23          	sw	a4,28(s0)
     b00:	0387a703          	lw	a4,56(a5)
     b04:	03c7a783          	lw	a5,60(a5)
     b08:	03e42023          	sw	t5,32(s0)
     b0c:	03d42223          	sw	t4,36(s0)
     b10:	03c42423          	sw	t3,40(s0)
     b14:	02642623          	sw	t1,44(s0)
     b18:	03142823          	sw	a7,48(s0)
     b1c:	03042a23          	sw	a6,52(s0)
     b20:	02a42c23          	sw	a0,56(s0)
     b24:	02b42e23          	sw	a1,60(s0)
     b28:	04c42023          	sw	a2,64(s0)
     b2c:	04d42223          	sw	a3,68(s0)
     b30:	04e42423          	sw	a4,72(s0)
     b34:	04f42623          	sw	a5,76(s0)
     b38:	2c9010ef          	jal	2600 <spawn_next>
     b3c:	1304a503          	lw	a0,304(s1)
     b40:	000055b7          	lui	a1,0x5
     b44:	1fc58593          	addi	a1,a1,508 # 51fc <current_piece>
     b48:	279000ef          	jal	15c0 <draw_shape>
     b4c:	1304a503          	lw	a0,304(s1)
     b50:	00040593          	mv	a1,s0
     b54:	4e9000ef          	jal	183c <clear_next_shape>
     b58:	1304a503          	lw	a0,304(s1)
     b5c:	00040593          	mv	a1,s0
     b60:	32d000ef          	jal	168c <draw_next_piece>
     b64:	a1dff0ef          	jal	580 <measure_performance>
     b68:	0000006f          	j	b68 <__heap_size+0x368>
     b6c:	0c878713          	addi	a4,a5,200
     b70:	00078023          	sb	zero,0(a5)
     b74:	000780a3          	sb	zero,1(a5)
     b78:	00078123          	sb	zero,2(a5)
     b7c:	000781a3          	sb	zero,3(a5)
     b80:	00078223          	sb	zero,4(a5)
     b84:	000782a3          	sb	zero,5(a5)
     b88:	00078323          	sb	zero,6(a5)
     b8c:	000783a3          	sb	zero,7(a5)
     b90:	00078423          	sb	zero,8(a5)
     b94:	000784a3          	sb	zero,9(a5)
     b98:	00a78793          	addi	a5,a5,10
     b9c:	fcf71ae3          	bne	a4,a5,b70 <__heap_size+0x370>
     ba0:	e91ff06f          	j	a30 <__heap_size+0x230>

00000ba4 <performance_start>:
     ba4:	b0001073          	csrw	mcycle,zero
     ba8:	b0201073          	csrw	minstret,zero
     bac:	b0301073          	csrw	mhpmcounter3,zero
     bb0:	b0401073          	csrw	mhpmcounter4,zero
     bb4:	b0501073          	csrw	mhpmcounter5,zero
     bb8:	b0601073          	csrw	mhpmcounter6,zero
     bbc:	b0701073          	csrw	mhpmcounter7,zero
     bc0:	b0801073          	csrw	mhpmcounter8,zero
     bc4:	b0901073          	csrw	mhpmcounter9,zero
     bc8:	00008067          	ret

00000bcc <performance_stop>:
     bcc:	b0002773          	csrr	a4,mcycle
     bd0:	b02027f3          	csrr	a5,minstret
     bd4:	00e52023          	sw	a4,0(a0)
     bd8:	00f52223          	sw	a5,4(a0)
     bdc:	b0302773          	csrr	a4,mhpmcounter3
     be0:	b04027f3          	csrr	a5,mhpmcounter4
     be4:	00e52423          	sw	a4,8(a0)
     be8:	00f52623          	sw	a5,12(a0)
     bec:	b0502773          	csrr	a4,mhpmcounter5
     bf0:	b06027f3          	csrr	a5,mhpmcounter6
     bf4:	00e52823          	sw	a4,16(a0)
     bf8:	00f52a23          	sw	a5,20(a0)
     bfc:	b0702773          	csrr	a4,mhpmcounter7
     c00:	b08027f3          	csrr	a5,mhpmcounter8
     c04:	00e52c23          	sw	a4,24(a0)
     c08:	00f52e23          	sw	a5,28(a0)
     c0c:	b09027f3          	csrr	a5,mhpmcounter9
     c10:	02f52023          	sw	a5,32(a0)
     c14:	00008067          	ret

00000c18 <set_rand_seed>:
     c18:	000057b7          	lui	a5,0x5
     c1c:	28a7ae23          	sw	a0,668(a5) # 529c <seed>
     c20:	00008067          	ret

00000c24 <rand>:
     c24:	00005737          	lui	a4,0x5
     c28:	29c72683          	lw	a3,668(a4) # 529c <seed>
     c2c:	00269793          	slli	a5,a3,0x2
     c30:	00d787b3          	add	a5,a5,a3
     c34:	00479513          	slli	a0,a5,0x4
     c38:	40f50533          	sub	a0,a0,a5
     c3c:	0b350513          	addi	a0,a0,179
     c40:	03f57513          	andi	a0,a0,63
     c44:	28a72e23          	sw	a0,668(a4)
     c48:	00008067          	ret

00000c4c <delay>:
     c4c:	00008067          	ret

00000c50 <joystick_init>:
     c50:	040007b7          	lui	a5,0x4000
     c54:	0e07a223          	sw	zero,228(a5) # 40000e4 <_stack_end+0x3efa8b4>
     c58:	00008067          	ret

00000c5c <get_joystick_data>:
     c5c:	040007b7          	lui	a5,0x4000
     c60:	0e07a503          	lw	a0,224(a5) # 40000e0 <_stack_end+0x3efa8b0>
     c64:	00008067          	ret

00000c68 <joystick_left>:
     c68:	040007b7          	lui	a5,0x4000
     c6c:	0e07a503          	lw	a0,224(a5) # 40000e0 <_stack_end+0x3efa8b0>
     c70:	00157513          	andi	a0,a0,1
     c74:	00008067          	ret

00000c78 <joystick_right>:
     c78:	040007b7          	lui	a5,0x4000
     c7c:	0e07a503          	lw	a0,224(a5) # 40000e0 <_stack_end+0x3efa8b0>
     c80:	00155513          	srli	a0,a0,0x1
     c84:	00157513          	andi	a0,a0,1
     c88:	00008067          	ret

00000c8c <labinit>:
     c8c:	ffffc6b7          	lui	a3,0xffffc
     c90:	040007b7          	lui	a5,0x4000
     c94:	6bf68693          	addi	a3,a3,1727 # ffffc6bf <_stack_end+0xffef6e8f>
     c98:	02d79423          	sh	a3,40(a5) # 4000028 <_stack_end+0x3efa7f8>
     c9c:	02d00693          	li	a3,45
     ca0:	02d79623          	sh	a3,44(a5)
     ca4:	00700713          	li	a4,7
     ca8:	02e79223          	sh	a4,36(a5)
     cac:	cc8ff06f          	j	174 <enable_interrupt>

00000cb0 <get_sw>:
     cb0:	040007b7          	lui	a5,0x4000
     cb4:	0107a503          	lw	a0,16(a5) # 4000010 <_stack_end+0x3efa7e0>
     cb8:	3ff57513          	andi	a0,a0,1023
     cbc:	00008067          	ret

00000cc0 <set_displays>:
     cc0:	004007b7          	lui	a5,0x400
     cc4:	00578793          	addi	a5,a5,5 # 400005 <_stack_end+0x2fa7d5>
     cc8:	00f50533          	add	a0,a0,a5
     ccc:	00900793          	li	a5,9
     cd0:	00451513          	slli	a0,a0,0x4
     cd4:	02b7e263          	bltu	a5,a1,cf8 <set_displays+0x38>
     cd8:	000057b7          	lui	a5,0x5
     cdc:	2a878793          	addi	a5,a5,680 # 52a8 <timeoutcount+0x4>
     ce0:	00259593          	slli	a1,a1,0x2
     ce4:	00f585b3          	add	a1,a1,a5
     ce8:	0005a783          	lw	a5,0(a1)
     cec:	00078067          	jr	a5
     cf0:	09000793          	li	a5,144
     cf4:	00f52023          	sw	a5,0(a0)
     cf8:	00008067          	ret
     cfc:	08000793          	li	a5,128
     d00:	00f52023          	sw	a5,0(a0)
     d04:	00008067          	ret
     d08:	0c000793          	li	a5,192
     d0c:	00f52023          	sw	a5,0(a0)
     d10:	00008067          	ret
     d14:	0f900793          	li	a5,249
     d18:	00f52023          	sw	a5,0(a0)
     d1c:	00008067          	ret
     d20:	0a400793          	li	a5,164
     d24:	00f52023          	sw	a5,0(a0)
     d28:	00008067          	ret
     d2c:	0b000793          	li	a5,176
     d30:	00f52023          	sw	a5,0(a0)
     d34:	00008067          	ret
     d38:	09900793          	li	a5,153
     d3c:	00f52023          	sw	a5,0(a0)
     d40:	00008067          	ret
     d44:	09200793          	li	a5,146
     d48:	00f52023          	sw	a5,0(a0)
     d4c:	00008067          	ret
     d50:	08200793          	li	a5,130
     d54:	00f52023          	sw	a5,0(a0)
     d58:	00008067          	ret
     d5c:	0f800793          	li	a5,248
     d60:	00f52023          	sw	a5,0(a0)
     d64:	00008067          	ret

00000d68 <show_score>:
     d68:	666667b7          	lui	a5,0x66666
     d6c:	66778793          	addi	a5,a5,1639 # 66666667 <_stack_end+0x66560e37>
     d70:	02f51e33          	mulh	t3,a0,a5
     d74:	14f8b6b7          	lui	a3,0x14f8b
     d78:	58968693          	addi	a3,a3,1417 # 14f8b589 <_stack_end+0x14e85d59>
     d7c:	41f55713          	srai	a4,a0,0x1f
     d80:	68db95b7          	lui	a1,0x68db9
     d84:	10625337          	lui	t1,0x10625
     d88:	51eb8837          	lui	a6,0x51eb8
     d8c:	51f80813          	addi	a6,a6,1311 # 51eb851f <_stack_end+0x51db2cef>
     d90:	bad58593          	addi	a1,a1,-1107 # 68db8bad <_stack_end+0x68cb337d>
     d94:	dd330313          	addi	t1,t1,-557 # 10624dd3 <_stack_end+0x1051f5a3>
     d98:	02d516b3          	mulh	a3,a0,a3
     d9c:	402e5e13          	srai	t3,t3,0x2
     da0:	40ee0e33          	sub	t3,t3,a4
     da4:	002e1893          	slli	a7,t3,0x2
     da8:	01c888b3          	add	a7,a7,t3
     dac:	00189893          	slli	a7,a7,0x1
     db0:	411508b3          	sub	a7,a0,a7
     db4:	41fe5293          	srai	t0,t3,0x1f
     db8:	00900e93          	li	t4,9
     dbc:	40d6d693          	srai	a3,a3,0xd
     dc0:	40e686b3          	sub	a3,a3,a4
     dc4:	02b515b3          	mulh	a1,a0,a1
     dc8:	41f6d613          	srai	a2,a3,0x1f
     dcc:	02651333          	mulh	t1,a0,t1
     dd0:	40c5d593          	srai	a1,a1,0xc
     dd4:	40e585b3          	sub	a1,a1,a4
     dd8:	41f5d393          	srai	t2,a1,0x1f
     ddc:	03051533          	mulh	a0,a0,a6
     de0:	40635313          	srai	t1,t1,0x6
     de4:	40e30333          	sub	t1,t1,a4
     de8:	41f35f93          	srai	t6,t1,0x1f
     dec:	02f69833          	mulh	a6,a3,a5
     df0:	40555513          	srai	a0,a0,0x5
     df4:	40e50533          	sub	a0,a0,a4
     df8:	41f55f13          	srai	t5,a0,0x1f
     dfc:	40285813          	srai	a6,a6,0x2
     e00:	40c80833          	sub	a6,a6,a2
     e04:	02fe1633          	mulh	a2,t3,a5
     e08:	00281713          	slli	a4,a6,0x2
     e0c:	01070733          	add	a4,a4,a6
     e10:	00171713          	slli	a4,a4,0x1
     e14:	40e68833          	sub	a6,a3,a4
     e18:	40265613          	srai	a2,a2,0x2
     e1c:	40560633          	sub	a2,a2,t0
     e20:	02f59733          	mulh	a4,a1,a5
     e24:	00261693          	slli	a3,a2,0x2
     e28:	00c686b3          	add	a3,a3,a2
     e2c:	00169693          	slli	a3,a3,0x1
     e30:	40de0633          	sub	a2,t3,a3
     e34:	02f316b3          	mulh	a3,t1,a5
     e38:	40275713          	srai	a4,a4,0x2
     e3c:	40770733          	sub	a4,a4,t2
     e40:	00271e13          	slli	t3,a4,0x2
     e44:	00ee0733          	add	a4,t3,a4
     e48:	00171713          	slli	a4,a4,0x1
     e4c:	40e58733          	sub	a4,a1,a4
     e50:	02f517b3          	mulh	a5,a0,a5
     e54:	4026d693          	srai	a3,a3,0x2
     e58:	41f686b3          	sub	a3,a3,t6
     e5c:	00269593          	slli	a1,a3,0x2
     e60:	00d586b3          	add	a3,a1,a3
     e64:	00169693          	slli	a3,a3,0x1
     e68:	40d306b3          	sub	a3,t1,a3
     e6c:	4027d793          	srai	a5,a5,0x2
     e70:	41e787b3          	sub	a5,a5,t5
     e74:	00279593          	slli	a1,a5,0x2
     e78:	00f587b3          	add	a5,a1,a5
     e7c:	00179793          	slli	a5,a5,0x1
     e80:	40f507b3          	sub	a5,a0,a5
     e84:	031ee463          	bltu	t4,a7,eac <show_score+0x144>
     e88:	000055b7          	lui	a1,0x5
     e8c:	2d058593          	addi	a1,a1,720 # 52d0 <timeoutcount+0x2c>
     e90:	00289893          	slli	a7,a7,0x2
     e94:	00b888b3          	add	a7,a7,a1
     e98:	0008a583          	lw	a1,0(a7)
     e9c:	00058067          	jr	a1
     ea0:	040005b7          	lui	a1,0x4000
     ea4:	09000513          	li	a0,144
     ea8:	04a5a823          	sw	a0,80(a1) # 4000050 <_stack_end+0x3efa820>
     eac:	00900593          	li	a1,9
     eb0:	02c5e463          	bltu	a1,a2,ed8 <show_score+0x170>
     eb4:	000055b7          	lui	a1,0x5
     eb8:	00261613          	slli	a2,a2,0x2
     ebc:	2f858593          	addi	a1,a1,760 # 52f8 <timeoutcount+0x54>
     ec0:	00b60633          	add	a2,a2,a1
     ec4:	00062603          	lw	a2,0(a2)
     ec8:	00060067          	jr	a2
     ecc:	04000637          	lui	a2,0x4000
     ed0:	09000593          	li	a1,144
     ed4:	06b62023          	sw	a1,96(a2) # 4000060 <_stack_end+0x3efa830>
     ed8:	00900613          	li	a2,9
     edc:	02f66463          	bltu	a2,a5,f04 <show_score+0x19c>
     ee0:	000055b7          	lui	a1,0x5
     ee4:	00279613          	slli	a2,a5,0x2
     ee8:	32058793          	addi	a5,a1,800 # 5320 <timeoutcount+0x7c>
     eec:	00f60633          	add	a2,a2,a5
     ef0:	00062783          	lw	a5,0(a2)
     ef4:	00078067          	jr	a5
     ef8:	040007b7          	lui	a5,0x4000
     efc:	09000613          	li	a2,144
     f00:	06c7a823          	sw	a2,112(a5) # 4000070 <_stack_end+0x3efa840>
     f04:	00900793          	li	a5,9
     f08:	02d7e463          	bltu	a5,a3,f30 <show_score+0x1c8>
     f0c:	000057b7          	lui	a5,0x5
     f10:	34878793          	addi	a5,a5,840 # 5348 <timeoutcount+0xa4>
     f14:	00269693          	slli	a3,a3,0x2
     f18:	00f686b3          	add	a3,a3,a5
     f1c:	0006a783          	lw	a5,0(a3)
     f20:	00078067          	jr	a5
     f24:	040007b7          	lui	a5,0x4000
     f28:	09000693          	li	a3,144
     f2c:	08d7a023          	sw	a3,128(a5) # 4000080 <_stack_end+0x3efa850>
     f30:	00900793          	li	a5,9
     f34:	02e7e463          	bltu	a5,a4,f5c <show_score+0x1f4>
     f38:	000057b7          	lui	a5,0x5
     f3c:	37078793          	addi	a5,a5,880 # 5370 <timeoutcount+0xcc>
     f40:	00271713          	slli	a4,a4,0x2
     f44:	00f70733          	add	a4,a4,a5
     f48:	00072783          	lw	a5,0(a4)
     f4c:	00078067          	jr	a5
     f50:	040007b7          	lui	a5,0x4000
     f54:	09000713          	li	a4,144
     f58:	08e7a823          	sw	a4,144(a5) # 4000090 <_stack_end+0x3efa860>
     f5c:	00900793          	li	a5,9
     f60:	0307e463          	bltu	a5,a6,f88 <show_score+0x220>
     f64:	00005737          	lui	a4,0x5
     f68:	00281793          	slli	a5,a6,0x2
     f6c:	39870713          	addi	a4,a4,920 # 5398 <timeoutcount+0xf4>
     f70:	00e787b3          	add	a5,a5,a4
     f74:	0007a783          	lw	a5,0(a5)
     f78:	00078067          	jr	a5
     f7c:	040007b7          	lui	a5,0x4000
     f80:	09000713          	li	a4,144
     f84:	0ae7a023          	sw	a4,160(a5) # 40000a0 <_stack_end+0x3efa870>
     f88:	00008067          	ret
     f8c:	040007b7          	lui	a5,0x4000
     f90:	08000713          	li	a4,128
     f94:	0ae7a023          	sw	a4,160(a5) # 40000a0 <_stack_end+0x3efa870>
     f98:	00008067          	ret
     f9c:	040005b7          	lui	a1,0x4000
     fa0:	0c000513          	li	a0,192
     fa4:	04a5a823          	sw	a0,80(a1) # 4000050 <_stack_end+0x3efa820>
     fa8:	f05ff06f          	j	eac <show_score+0x144>
     fac:	040005b7          	lui	a1,0x4000
     fb0:	0f900513          	li	a0,249
     fb4:	04a5a823          	sw	a0,80(a1) # 4000050 <_stack_end+0x3efa820>
     fb8:	ef5ff06f          	j	eac <show_score+0x144>
     fbc:	040005b7          	lui	a1,0x4000
     fc0:	0a400513          	li	a0,164
     fc4:	04a5a823          	sw	a0,80(a1) # 4000050 <_stack_end+0x3efa820>
     fc8:	ee5ff06f          	j	eac <show_score+0x144>
     fcc:	040005b7          	lui	a1,0x4000
     fd0:	0b000513          	li	a0,176
     fd4:	04a5a823          	sw	a0,80(a1) # 4000050 <_stack_end+0x3efa820>
     fd8:	ed5ff06f          	j	eac <show_score+0x144>
     fdc:	040005b7          	lui	a1,0x4000
     fe0:	09900513          	li	a0,153
     fe4:	04a5a823          	sw	a0,80(a1) # 4000050 <_stack_end+0x3efa820>
     fe8:	ec5ff06f          	j	eac <show_score+0x144>
     fec:	040005b7          	lui	a1,0x4000
     ff0:	09200513          	li	a0,146
     ff4:	04a5a823          	sw	a0,80(a1) # 4000050 <_stack_end+0x3efa820>
     ff8:	eb5ff06f          	j	eac <show_score+0x144>
     ffc:	040005b7          	lui	a1,0x4000
    1000:	08200513          	li	a0,130
    1004:	04a5a823          	sw	a0,80(a1) # 4000050 <_stack_end+0x3efa820>
    1008:	ea5ff06f          	j	eac <show_score+0x144>
    100c:	040005b7          	lui	a1,0x4000
    1010:	0f800513          	li	a0,248
    1014:	04a5a823          	sw	a0,80(a1) # 4000050 <_stack_end+0x3efa820>
    1018:	e95ff06f          	j	eac <show_score+0x144>
    101c:	040005b7          	lui	a1,0x4000
    1020:	08000513          	li	a0,128
    1024:	04a5a823          	sw	a0,80(a1) # 4000050 <_stack_end+0x3efa820>
    1028:	e85ff06f          	j	eac <show_score+0x144>
    102c:	04000637          	lui	a2,0x4000
    1030:	0c000593          	li	a1,192
    1034:	06b62023          	sw	a1,96(a2) # 4000060 <_stack_end+0x3efa830>
    1038:	ea1ff06f          	j	ed8 <show_score+0x170>
    103c:	04000637          	lui	a2,0x4000
    1040:	0f900593          	li	a1,249
    1044:	06b62023          	sw	a1,96(a2) # 4000060 <_stack_end+0x3efa830>
    1048:	e91ff06f          	j	ed8 <show_score+0x170>
    104c:	04000637          	lui	a2,0x4000
    1050:	0a400593          	li	a1,164
    1054:	06b62023          	sw	a1,96(a2) # 4000060 <_stack_end+0x3efa830>
    1058:	e81ff06f          	j	ed8 <show_score+0x170>
    105c:	04000637          	lui	a2,0x4000
    1060:	0b000593          	li	a1,176
    1064:	06b62023          	sw	a1,96(a2) # 4000060 <_stack_end+0x3efa830>
    1068:	e71ff06f          	j	ed8 <show_score+0x170>
    106c:	04000637          	lui	a2,0x4000
    1070:	09900593          	li	a1,153
    1074:	06b62023          	sw	a1,96(a2) # 4000060 <_stack_end+0x3efa830>
    1078:	e61ff06f          	j	ed8 <show_score+0x170>
    107c:	04000637          	lui	a2,0x4000
    1080:	09200593          	li	a1,146
    1084:	06b62023          	sw	a1,96(a2) # 4000060 <_stack_end+0x3efa830>
    1088:	e51ff06f          	j	ed8 <show_score+0x170>
    108c:	04000637          	lui	a2,0x4000
    1090:	08200593          	li	a1,130
    1094:	06b62023          	sw	a1,96(a2) # 4000060 <_stack_end+0x3efa830>
    1098:	e41ff06f          	j	ed8 <show_score+0x170>
    109c:	04000637          	lui	a2,0x4000
    10a0:	0f800593          	li	a1,248
    10a4:	06b62023          	sw	a1,96(a2) # 4000060 <_stack_end+0x3efa830>
    10a8:	e31ff06f          	j	ed8 <show_score+0x170>
    10ac:	04000637          	lui	a2,0x4000
    10b0:	08000593          	li	a1,128
    10b4:	06b62023          	sw	a1,96(a2) # 4000060 <_stack_end+0x3efa830>
    10b8:	e21ff06f          	j	ed8 <show_score+0x170>
    10bc:	040007b7          	lui	a5,0x4000
    10c0:	0c000613          	li	a2,192
    10c4:	06c7a823          	sw	a2,112(a5) # 4000070 <_stack_end+0x3efa840>
    10c8:	e3dff06f          	j	f04 <show_score+0x19c>
    10cc:	040007b7          	lui	a5,0x4000
    10d0:	0f900613          	li	a2,249
    10d4:	06c7a823          	sw	a2,112(a5) # 4000070 <_stack_end+0x3efa840>
    10d8:	e2dff06f          	j	f04 <show_score+0x19c>
    10dc:	040007b7          	lui	a5,0x4000
    10e0:	0a400613          	li	a2,164
    10e4:	06c7a823          	sw	a2,112(a5) # 4000070 <_stack_end+0x3efa840>
    10e8:	e1dff06f          	j	f04 <show_score+0x19c>
    10ec:	040007b7          	lui	a5,0x4000
    10f0:	0b000613          	li	a2,176
    10f4:	06c7a823          	sw	a2,112(a5) # 4000070 <_stack_end+0x3efa840>
    10f8:	e0dff06f          	j	f04 <show_score+0x19c>
    10fc:	040007b7          	lui	a5,0x4000
    1100:	09900613          	li	a2,153
    1104:	06c7a823          	sw	a2,112(a5) # 4000070 <_stack_end+0x3efa840>
    1108:	dfdff06f          	j	f04 <show_score+0x19c>
    110c:	040007b7          	lui	a5,0x4000
    1110:	09200613          	li	a2,146
    1114:	06c7a823          	sw	a2,112(a5) # 4000070 <_stack_end+0x3efa840>
    1118:	dedff06f          	j	f04 <show_score+0x19c>
    111c:	040007b7          	lui	a5,0x4000
    1120:	08200613          	li	a2,130
    1124:	06c7a823          	sw	a2,112(a5) # 4000070 <_stack_end+0x3efa840>
    1128:	dddff06f          	j	f04 <show_score+0x19c>
    112c:	040007b7          	lui	a5,0x4000
    1130:	0f800613          	li	a2,248
    1134:	06c7a823          	sw	a2,112(a5) # 4000070 <_stack_end+0x3efa840>
    1138:	dcdff06f          	j	f04 <show_score+0x19c>
    113c:	040007b7          	lui	a5,0x4000
    1140:	08000613          	li	a2,128
    1144:	06c7a823          	sw	a2,112(a5) # 4000070 <_stack_end+0x3efa840>
    1148:	dbdff06f          	j	f04 <show_score+0x19c>
    114c:	040007b7          	lui	a5,0x4000
    1150:	0c000693          	li	a3,192
    1154:	08d7a023          	sw	a3,128(a5) # 4000080 <_stack_end+0x3efa850>
    1158:	dd9ff06f          	j	f30 <show_score+0x1c8>
    115c:	040007b7          	lui	a5,0x4000
    1160:	0f900693          	li	a3,249
    1164:	08d7a023          	sw	a3,128(a5) # 4000080 <_stack_end+0x3efa850>
    1168:	dc9ff06f          	j	f30 <show_score+0x1c8>
    116c:	040007b7          	lui	a5,0x4000
    1170:	0a400693          	li	a3,164
    1174:	08d7a023          	sw	a3,128(a5) # 4000080 <_stack_end+0x3efa850>
    1178:	db9ff06f          	j	f30 <show_score+0x1c8>
    117c:	040007b7          	lui	a5,0x4000
    1180:	0b000693          	li	a3,176
    1184:	08d7a023          	sw	a3,128(a5) # 4000080 <_stack_end+0x3efa850>
    1188:	da9ff06f          	j	f30 <show_score+0x1c8>
    118c:	040007b7          	lui	a5,0x4000
    1190:	09900693          	li	a3,153
    1194:	08d7a023          	sw	a3,128(a5) # 4000080 <_stack_end+0x3efa850>
    1198:	d99ff06f          	j	f30 <show_score+0x1c8>
    119c:	040007b7          	lui	a5,0x4000
    11a0:	09200693          	li	a3,146
    11a4:	08d7a023          	sw	a3,128(a5) # 4000080 <_stack_end+0x3efa850>
    11a8:	d89ff06f          	j	f30 <show_score+0x1c8>
    11ac:	040007b7          	lui	a5,0x4000
    11b0:	08200693          	li	a3,130
    11b4:	08d7a023          	sw	a3,128(a5) # 4000080 <_stack_end+0x3efa850>
    11b8:	d79ff06f          	j	f30 <show_score+0x1c8>
    11bc:	040007b7          	lui	a5,0x4000
    11c0:	0f800693          	li	a3,248
    11c4:	08d7a023          	sw	a3,128(a5) # 4000080 <_stack_end+0x3efa850>
    11c8:	d69ff06f          	j	f30 <show_score+0x1c8>
    11cc:	040007b7          	lui	a5,0x4000
    11d0:	08000693          	li	a3,128
    11d4:	08d7a023          	sw	a3,128(a5) # 4000080 <_stack_end+0x3efa850>
    11d8:	d59ff06f          	j	f30 <show_score+0x1c8>
    11dc:	040007b7          	lui	a5,0x4000
    11e0:	0c000713          	li	a4,192
    11e4:	08e7a823          	sw	a4,144(a5) # 4000090 <_stack_end+0x3efa860>
    11e8:	d75ff06f          	j	f5c <show_score+0x1f4>
    11ec:	040007b7          	lui	a5,0x4000
    11f0:	0f900713          	li	a4,249
    11f4:	08e7a823          	sw	a4,144(a5) # 4000090 <_stack_end+0x3efa860>
    11f8:	d65ff06f          	j	f5c <show_score+0x1f4>
    11fc:	040007b7          	lui	a5,0x4000
    1200:	0a400713          	li	a4,164
    1204:	08e7a823          	sw	a4,144(a5) # 4000090 <_stack_end+0x3efa860>
    1208:	d55ff06f          	j	f5c <show_score+0x1f4>
    120c:	040007b7          	lui	a5,0x4000
    1210:	0b000713          	li	a4,176
    1214:	08e7a823          	sw	a4,144(a5) # 4000090 <_stack_end+0x3efa860>
    1218:	d45ff06f          	j	f5c <show_score+0x1f4>
    121c:	040007b7          	lui	a5,0x4000
    1220:	09900713          	li	a4,153
    1224:	08e7a823          	sw	a4,144(a5) # 4000090 <_stack_end+0x3efa860>
    1228:	d35ff06f          	j	f5c <show_score+0x1f4>
    122c:	040007b7          	lui	a5,0x4000
    1230:	09200713          	li	a4,146
    1234:	08e7a823          	sw	a4,144(a5) # 4000090 <_stack_end+0x3efa860>
    1238:	d25ff06f          	j	f5c <show_score+0x1f4>
    123c:	040007b7          	lui	a5,0x4000
    1240:	08200713          	li	a4,130
    1244:	08e7a823          	sw	a4,144(a5) # 4000090 <_stack_end+0x3efa860>
    1248:	d15ff06f          	j	f5c <show_score+0x1f4>
    124c:	040007b7          	lui	a5,0x4000
    1250:	0f800713          	li	a4,248
    1254:	08e7a823          	sw	a4,144(a5) # 4000090 <_stack_end+0x3efa860>
    1258:	d05ff06f          	j	f5c <show_score+0x1f4>
    125c:	040007b7          	lui	a5,0x4000
    1260:	08000713          	li	a4,128
    1264:	08e7a823          	sw	a4,144(a5) # 4000090 <_stack_end+0x3efa860>
    1268:	cf5ff06f          	j	f5c <show_score+0x1f4>
    126c:	040007b7          	lui	a5,0x4000
    1270:	0c000713          	li	a4,192
    1274:	0ae7a023          	sw	a4,160(a5) # 40000a0 <_stack_end+0x3efa870>
    1278:	00008067          	ret
    127c:	040007b7          	lui	a5,0x4000
    1280:	0f900713          	li	a4,249
    1284:	0ae7a023          	sw	a4,160(a5) # 40000a0 <_stack_end+0x3efa870>
    1288:	00008067          	ret
    128c:	040007b7          	lui	a5,0x4000
    1290:	0a400713          	li	a4,164
    1294:	0ae7a023          	sw	a4,160(a5) # 40000a0 <_stack_end+0x3efa870>
    1298:	00008067          	ret
    129c:	040007b7          	lui	a5,0x4000
    12a0:	0b000713          	li	a4,176
    12a4:	0ae7a023          	sw	a4,160(a5) # 40000a0 <_stack_end+0x3efa870>
    12a8:	00008067          	ret
    12ac:	040007b7          	lui	a5,0x4000
    12b0:	09900713          	li	a4,153
    12b4:	0ae7a023          	sw	a4,160(a5) # 40000a0 <_stack_end+0x3efa870>
    12b8:	00008067          	ret
    12bc:	040007b7          	lui	a5,0x4000
    12c0:	09200713          	li	a4,146
    12c4:	0ae7a023          	sw	a4,160(a5) # 40000a0 <_stack_end+0x3efa870>
    12c8:	00008067          	ret
    12cc:	040007b7          	lui	a5,0x4000
    12d0:	08200713          	li	a4,130
    12d4:	0ae7a023          	sw	a4,160(a5) # 40000a0 <_stack_end+0x3efa870>
    12d8:	00008067          	ret
    12dc:	040007b7          	lui	a5,0x4000
    12e0:	0f800713          	li	a4,248
    12e4:	0ae7a023          	sw	a4,160(a5) # 40000a0 <_stack_end+0x3efa870>
    12e8:	00008067          	ret

000012ec <draw_char>:
    12ec:	fd060793          	addi	a5,a2,-48
    12f0:	0ff7f813          	zext.b	a6,a5
    12f4:	00900713          	li	a4,9
    12f8:	0d076863          	bltu	a4,a6,13c8 <draw_char+0xdc>
    12fc:	00005837          	lui	a6,0x5
    1300:	00279713          	slli	a4,a5,0x2
    1304:	5a080813          	addi	a6,a6,1440 # 55a0 <font5x7>
    1308:	00f707b3          	add	a5,a4,a5
    130c:	00f80833          	add	a6,a6,a5
    1310:	00259793          	slli	a5,a1,0x2
    1314:	00b787b3          	add	a5,a5,a1
    1318:	00679793          	slli	a5,a5,0x6
    131c:	00a78533          	add	a0,a5,a0
    1320:	00580593          	addi	a1,a6,5
    1324:	00005737          	lui	a4,0x5
    1328:	00084783          	lbu	a5,0(a6)
    132c:	0017f613          	andi	a2,a5,1
    1330:	00060863          	beqz	a2,1340 <draw_char+0x54>
    1334:	13072603          	lw	a2,304(a4) # 5130 <VGA>
    1338:	00a60633          	add	a2,a2,a0
    133c:	00d60023          	sb	a3,0(a2)
    1340:	0027f613          	andi	a2,a5,2
    1344:	00060863          	beqz	a2,1354 <draw_char+0x68>
    1348:	13072603          	lw	a2,304(a4)
    134c:	00a60633          	add	a2,a2,a0
    1350:	14d60023          	sb	a3,320(a2)
    1354:	0047f613          	andi	a2,a5,4
    1358:	00060863          	beqz	a2,1368 <draw_char+0x7c>
    135c:	13072603          	lw	a2,304(a4)
    1360:	00a60633          	add	a2,a2,a0
    1364:	28d60023          	sb	a3,640(a2)
    1368:	0087f613          	andi	a2,a5,8
    136c:	00060863          	beqz	a2,137c <draw_char+0x90>
    1370:	13072603          	lw	a2,304(a4)
    1374:	00a60633          	add	a2,a2,a0
    1378:	3cd60023          	sb	a3,960(a2)
    137c:	0107f613          	andi	a2,a5,16
    1380:	00060863          	beqz	a2,1390 <draw_char+0xa4>
    1384:	13072603          	lw	a2,304(a4)
    1388:	00a60633          	add	a2,a2,a0
    138c:	50d60023          	sb	a3,1280(a2)
    1390:	0207f613          	andi	a2,a5,32
    1394:	00060863          	beqz	a2,13a4 <draw_char+0xb8>
    1398:	13072603          	lw	a2,304(a4)
    139c:	00a60633          	add	a2,a2,a0
    13a0:	64d60023          	sb	a3,1600(a2)
    13a4:	0407f793          	andi	a5,a5,64
    13a8:	00078863          	beqz	a5,13b8 <draw_char+0xcc>
    13ac:	13072783          	lw	a5,304(a4)
    13b0:	00a787b3          	add	a5,a5,a0
    13b4:	78d78023          	sb	a3,1920(a5)
    13b8:	00180813          	addi	a6,a6,1
    13bc:	00150513          	addi	a0,a0,1
    13c0:	f70594e3          	bne	a1,a6,1328 <draw_char+0x3c>
    13c4:	00008067          	ret
    13c8:	fbf60793          	addi	a5,a2,-65
    13cc:	0ff7f793          	zext.b	a5,a5
    13d0:	01900713          	li	a4,25
    13d4:	fef768e3          	bltu	a4,a5,13c4 <draw_char+0xd8>
    13d8:	fc960613          	addi	a2,a2,-55
    13dc:	00261793          	slli	a5,a2,0x2
    13e0:	00005837          	lui	a6,0x5
    13e4:	00c787b3          	add	a5,a5,a2
    13e8:	5a080813          	addi	a6,a6,1440 # 55a0 <font5x7>
    13ec:	00f80833          	add	a6,a6,a5
    13f0:	f21ff06f          	j	1310 <draw_char+0x24>

000013f4 <draw_grid>:
    13f4:	fe010113          	addi	sp,sp,-32
    13f8:	00002737          	lui	a4,0x2
    13fc:	000117b7          	lui	a5,0x11
    1400:	3da78793          	addi	a5,a5,986 # 113da <__global_pointer+0xbaaa>
    1404:	01312823          	sw	s3,16(sp)
    1408:	9da70713          	addi	a4,a4,-1574 # 19da <update_cell+0x11e>
    140c:	000059b7          	lui	s3,0x5
    1410:	00812e23          	sw	s0,28(sp)
    1414:	00912c23          	sw	s1,24(sp)
    1418:	01212a23          	sw	s2,20(sp)
    141c:	01412623          	sw	s4,12(sp)
    1420:	00e50933          	add	s2,a0,a4
    1424:	00f50a33          	add	s4,a0,a5
    1428:	13498993          	addi	s3,s3,308 # 5134 <grid>
    142c:	01200793          	li	a5,18
    1430:	20100493          	li	s1,513
    1434:	00a00413          	li	s0,10
    1438:	f9c90293          	addi	t0,s2,-100
    143c:	00098f93          	mv	t6,s3
    1440:	000fc383          	lbu	t2,0(t6)
    1444:	00039463          	bnez	t2,144c <draw_grid+0x58>
    1448:	01200393          	li	t2,18
    144c:	ff828613          	addi	a2,t0,-8
    1450:	fff28f13          	addi	t5,t0,-1
    1454:	ffe28e93          	addi	t4,t0,-2
    1458:	ffd28e13          	addi	t3,t0,-3
    145c:	ffc28313          	addi	t1,t0,-4
    1460:	ffb28893          	addi	a7,t0,-5
    1464:	ffa28813          	addi	a6,t0,-6
    1468:	ff928513          	addi	a0,t0,-7
    146c:	00028593          	mv	a1,t0
    1470:	20100693          	li	a3,513
    1474:	00000713          	li	a4,0
    1478:	0980006f          	j	1510 <draw_grid+0x11c>
    147c:	000fc683          	lbu	a3,0(t6)
    1480:	12069c63          	bnez	a3,15b8 <draw_grid+0x1c4>
    1484:	00050023          	sb	zero,0(a0)
    1488:	000fc683          	lbu	a3,0(t6)
    148c:	12069263          	bnez	a3,15b0 <draw_grid+0x1bc>
    1490:	00080023          	sb	zero,0(a6)
    1494:	000fc683          	lbu	a3,0(t6)
    1498:	10069863          	bnez	a3,15a8 <draw_grid+0x1b4>
    149c:	00088023          	sb	zero,0(a7)
    14a0:	000fc683          	lbu	a3,0(t6)
    14a4:	0e069e63          	bnez	a3,15a0 <draw_grid+0x1ac>
    14a8:	00030023          	sb	zero,0(t1)
    14ac:	000fc683          	lbu	a3,0(t6)
    14b0:	0e069463          	bnez	a3,1598 <draw_grid+0x1a4>
    14b4:	000e0023          	sb	zero,0(t3)
    14b8:	000fc683          	lbu	a3,0(t6)
    14bc:	0c069a63          	bnez	a3,1590 <draw_grid+0x19c>
    14c0:	000e8023          	sb	zero,0(t4)
    14c4:	000fc683          	lbu	a3,0(t6)
    14c8:	0c069063          	bnez	a3,1588 <draw_grid+0x194>
    14cc:	000f0023          	sb	zero,0(t5)
    14d0:	000fc683          	lbu	a3,0(t6)
    14d4:	0a069663          	bnez	a3,1580 <draw_grid+0x18c>
    14d8:	00058023          	sb	zero,0(a1)
    14dc:	00f604a3          	sb	a5,9(a2)
    14e0:	00170713          	addi	a4,a4,1
    14e4:	06870263          	beq	a4,s0,1548 <draw_grid+0x154>
    14e8:	14060613          	addi	a2,a2,320
    14ec:	14058593          	addi	a1,a1,320
    14f0:	140f0f13          	addi	t5,t5,320
    14f4:	140e8e93          	addi	t4,t4,320
    14f8:	140e0e13          	addi	t3,t3,320
    14fc:	14030313          	addi	t1,t1,320
    1500:	14088893          	addi	a7,a7,320
    1504:	14080813          	addi	a6,a6,320
    1508:	14050513          	addi	a0,a0,320
    150c:	00e4d6b3          	srl	a3,s1,a4
    1510:	00f60023          	sb	a5,0(a2)
    1514:	0016f693          	andi	a3,a3,1
    1518:	f60682e3          	beqz	a3,147c <draw_grid+0x88>
    151c:	00f50023          	sb	a5,0(a0)
    1520:	00f80023          	sb	a5,0(a6)
    1524:	00f88023          	sb	a5,0(a7)
    1528:	00f30023          	sb	a5,0(t1)
    152c:	00fe0023          	sb	a5,0(t3)
    1530:	00fe8023          	sb	a5,0(t4)
    1534:	00ff0023          	sb	a5,0(t5)
    1538:	00f58023          	sb	a5,0(a1)
    153c:	00f604a3          	sb	a5,9(a2)
    1540:	00170713          	addi	a4,a4,1
    1544:	fa8712e3          	bne	a4,s0,14e8 <draw_grid+0xf4>
    1548:	00a28293          	addi	t0,t0,10
    154c:	001f8f93          	addi	t6,t6,1
    1550:	ef2298e3          	bne	t0,s2,1440 <draw_grid+0x4c>
    1554:	7ff28913          	addi	s2,t0,2047
    1558:	48190913          	addi	s2,s2,1153
    155c:	00a98993          	addi	s3,s3,10
    1560:	ed491ce3          	bne	s2,s4,1438 <draw_grid+0x44>
    1564:	01c12403          	lw	s0,28(sp)
    1568:	01812483          	lw	s1,24(sp)
    156c:	01412903          	lw	s2,20(sp)
    1570:	01012983          	lw	s3,16(sp)
    1574:	00c12a03          	lw	s4,12(sp)
    1578:	02010113          	addi	sp,sp,32
    157c:	00008067          	ret
    1580:	00758023          	sb	t2,0(a1)
    1584:	f59ff06f          	j	14dc <draw_grid+0xe8>
    1588:	007f0023          	sb	t2,0(t5)
    158c:	f45ff06f          	j	14d0 <draw_grid+0xdc>
    1590:	007e8023          	sb	t2,0(t4)
    1594:	f31ff06f          	j	14c4 <draw_grid+0xd0>
    1598:	007e0023          	sb	t2,0(t3)
    159c:	f1dff06f          	j	14b8 <draw_grid+0xc4>
    15a0:	00730023          	sb	t2,0(t1)
    15a4:	f09ff06f          	j	14ac <draw_grid+0xb8>
    15a8:	00788023          	sb	t2,0(a7)
    15ac:	ef5ff06f          	j	14a0 <draw_grid+0xac>
    15b0:	00780023          	sb	t2,0(a6)
    15b4:	ee1ff06f          	j	1494 <draw_grid+0xa0>
    15b8:	00750023          	sb	t2,0(a0)
    15bc:	ecdff06f          	j	1488 <draw_grid+0x94>

000015c0 <draw_shape>:
    15c0:	7ff50313          	addi	t1,a0,2047
    15c4:	48130313          	addi	t1,t1,1153
    15c8:	00000893          	li	a7,0
    15cc:	00400e13          	li	t3,4
    15d0:	00489813          	slli	a6,a7,0x4
    15d4:	01058833          	add	a6,a1,a6
    15d8:	00000613          	li	a2,0
    15dc:	01082783          	lw	a5,16(a6)
    15e0:	00079e63          	bnez	a5,15fc <draw_shape+0x3c>
    15e4:	00160613          	addi	a2,a2,1
    15e8:	00480813          	addi	a6,a6,4
    15ec:	ffc618e3          	bne	a2,t3,15dc <draw_shape+0x1c>
    15f0:	00188893          	addi	a7,a7,1
    15f4:	fcc89ee3          	bne	a7,a2,15d0 <draw_shape+0x10>
    15f8:	00008067          	ret
    15fc:	0085a703          	lw	a4,8(a1)
    1600:	0045ae83          	lw	t4,4(a1)
    1604:	00e88733          	add	a4,a7,a4
    1608:	00271793          	slli	a5,a4,0x2
    160c:	00e787b3          	add	a5,a5,a4
    1610:	01d60eb3          	add	t4,a2,t4
    1614:	00179793          	slli	a5,a5,0x1
    1618:	01478793          	addi	a5,a5,20
    161c:	002e9713          	slli	a4,t4,0x2
    1620:	00279693          	slli	a3,a5,0x2
    1624:	01d70733          	add	a4,a4,t4
    1628:	00f686b3          	add	a3,a3,a5
    162c:	00171793          	slli	a5,a4,0x1
    1630:	06e78793          	addi	a5,a5,110
    1634:	00669693          	slli	a3,a3,0x6
    1638:	00f686b3          	add	a3,a3,a5
    163c:	00d507b3          	add	a5,a0,a3
    1640:	00d306b3          	add	a3,t1,a3
    1644:	00c5c703          	lbu	a4,12(a1)
    1648:	14078793          	addi	a5,a5,320
    164c:	ece78023          	sb	a4,-320(a5)
    1650:	ece780a3          	sb	a4,-319(a5)
    1654:	00c5c703          	lbu	a4,12(a1)
    1658:	ece78123          	sb	a4,-318(a5)
    165c:	ece781a3          	sb	a4,-317(a5)
    1660:	00c5c703          	lbu	a4,12(a1)
    1664:	ece78223          	sb	a4,-316(a5)
    1668:	ece782a3          	sb	a4,-315(a5)
    166c:	00c5c703          	lbu	a4,12(a1)
    1670:	ece78323          	sb	a4,-314(a5)
    1674:	ece783a3          	sb	a4,-313(a5)
    1678:	00c5c703          	lbu	a4,12(a1)
    167c:	ece78423          	sb	a4,-312(a5)
    1680:	ece784a3          	sb	a4,-311(a5)
    1684:	fcf690e3          	bne	a3,a5,1644 <draw_shape+0x84>
    1688:	f5dff06f          	j	15e4 <draw_shape+0x24>

0000168c <draw_next_piece>:
    168c:	000047b7          	lui	a5,0x4
    1690:	f8478793          	addi	a5,a5,-124 # 3f84 <move_piece+0xc10>
    1694:	00f50833          	add	a6,a0,a5
    1698:	05058893          	addi	a7,a1,80
    169c:	01058513          	addi	a0,a1,16
    16a0:	ff050613          	addi	a2,a0,-16
    16a4:	00080693          	mv	a3,a6
    16a8:	01062783          	lw	a5,16(a2)
    16ac:	14079063          	bnez	a5,17ec <draw_next_piece+0x160>
    16b0:	00460613          	addi	a2,a2,4
    16b4:	00a68693          	addi	a3,a3,10
    16b8:	fec518e3          	bne	a0,a2,16a8 <draw_next_piece+0x1c>
    16bc:	7ff80813          	addi	a6,a6,2047
    16c0:	01050513          	addi	a0,a0,16
    16c4:	48180813          	addi	a6,a6,1153
    16c8:	fca89ce3          	bne	a7,a0,16a0 <draw_next_piece+0x14>
    16cc:	00006337          	lui	t1,0x6
    16d0:	00005fb7          	lui	t6,0x5
    16d4:	00007f37          	lui	t5,0x7
    16d8:	80830313          	addi	t1,t1,-2040 # 5808 <font5x7+0x268>
    16dc:	1c0f0f13          	addi	t5,t5,448 # 71c0 <__global_pointer+0x1890>
    16e0:	5a0f8f93          	addi	t6,t6,1440 # 55a0 <font5x7>
    16e4:	0f000893          	li	a7,240
    16e8:	00900e93          	li	t4,9
    16ec:	000055b7          	lui	a1,0x5
    16f0:	01c00613          	li	a2,28
    16f4:	01900293          	li	t0,25
    16f8:	14000e13          	li	t3,320
    16fc:	00034783          	lbu	a5,0(t1)
    1700:	fd078713          	addi	a4,a5,-48
    1704:	0ff77693          	zext.b	a3,a4
    1708:	0cdee263          	bltu	t4,a3,17cc <draw_next_piece+0x140>
    170c:	00271693          	slli	a3,a4,0x2
    1710:	00e686b3          	add	a3,a3,a4
    1714:	00df86b3          	add	a3,t6,a3
    1718:	00568813          	addi	a6,a3,5
    171c:	01e88733          	add	a4,a7,t5
    1720:	0006c783          	lbu	a5,0(a3)
    1724:	0017f513          	andi	a0,a5,1
    1728:	00050863          	beqz	a0,1738 <draw_next_piece+0xac>
    172c:	1305a503          	lw	a0,304(a1) # 5130 <VGA>
    1730:	00e50533          	add	a0,a0,a4
    1734:	88c50023          	sb	a2,-1920(a0)
    1738:	0027f513          	andi	a0,a5,2
    173c:	00050863          	beqz	a0,174c <draw_next_piece+0xc0>
    1740:	1305a503          	lw	a0,304(a1)
    1744:	00e50533          	add	a0,a0,a4
    1748:	9cc50023          	sb	a2,-1600(a0)
    174c:	0047f513          	andi	a0,a5,4
    1750:	00050863          	beqz	a0,1760 <draw_next_piece+0xd4>
    1754:	1305a503          	lw	a0,304(a1)
    1758:	00e50533          	add	a0,a0,a4
    175c:	b0c50023          	sb	a2,-1280(a0)
    1760:	0087f513          	andi	a0,a5,8
    1764:	00050863          	beqz	a0,1774 <draw_next_piece+0xe8>
    1768:	1305a503          	lw	a0,304(a1)
    176c:	00e50533          	add	a0,a0,a4
    1770:	c4c50023          	sb	a2,-960(a0)
    1774:	0107f513          	andi	a0,a5,16
    1778:	00050863          	beqz	a0,1788 <draw_next_piece+0xfc>
    177c:	1305a503          	lw	a0,304(a1)
    1780:	00e50533          	add	a0,a0,a4
    1784:	d8c50023          	sb	a2,-640(a0)
    1788:	0207f513          	andi	a0,a5,32
    178c:	00050863          	beqz	a0,179c <draw_next_piece+0x110>
    1790:	1305a503          	lw	a0,304(a1)
    1794:	00e50533          	add	a0,a0,a4
    1798:	ecc50023          	sb	a2,-320(a0)
    179c:	0407f793          	andi	a5,a5,64
    17a0:	00078863          	beqz	a5,17b0 <draw_next_piece+0x124>
    17a4:	1305a783          	lw	a5,304(a1)
    17a8:	00e787b3          	add	a5,a5,a4
    17ac:	00c78023          	sb	a2,0(a5)
    17b0:	00168693          	addi	a3,a3,1
    17b4:	00170713          	addi	a4,a4,1
    17b8:	f6d814e3          	bne	a6,a3,1720 <draw_next_piece+0x94>
    17bc:	00888893          	addi	a7,a7,8
    17c0:	00130313          	addi	t1,t1,1
    17c4:	f3c89ce3          	bne	a7,t3,16fc <draw_next_piece+0x70>
    17c8:	00008067          	ret
    17cc:	fbf78713          	addi	a4,a5,-65
    17d0:	0ff77713          	zext.b	a4,a4
    17d4:	fee2e4e3          	bltu	t0,a4,17bc <draw_next_piece+0x130>
    17d8:	fc978793          	addi	a5,a5,-55
    17dc:	00279693          	slli	a3,a5,0x2
    17e0:	00f686b3          	add	a3,a3,a5
    17e4:	00df86b3          	add	a3,t6,a3
    17e8:	f31ff06f          	j	1718 <draw_next_piece+0x8c>
    17ec:	80068793          	addi	a5,a3,-2048
    17f0:	b8078793          	addi	a5,a5,-1152
    17f4:	00c5c703          	lbu	a4,12(a1)
    17f8:	14078793          	addi	a5,a5,320
    17fc:	ece78023          	sb	a4,-320(a5)
    1800:	ece780a3          	sb	a4,-319(a5)
    1804:	00c5c703          	lbu	a4,12(a1)
    1808:	ece78123          	sb	a4,-318(a5)
    180c:	ece781a3          	sb	a4,-317(a5)
    1810:	00c5c703          	lbu	a4,12(a1)
    1814:	ece78223          	sb	a4,-316(a5)
    1818:	ece782a3          	sb	a4,-315(a5)
    181c:	00c5c703          	lbu	a4,12(a1)
    1820:	ece78323          	sb	a4,-314(a5)
    1824:	ece783a3          	sb	a4,-313(a5)
    1828:	00c5c703          	lbu	a4,12(a1)
    182c:	ece78423          	sb	a4,-312(a5)
    1830:	ece784a3          	sb	a4,-311(a5)
    1834:	fcf690e3          	bne	a3,a5,17f4 <draw_next_piece+0x168>
    1838:	e79ff06f          	j	16b0 <draw_next_piece+0x24>

0000183c <clear_next_shape>:
    183c:	000047b7          	lui	a5,0x4
    1840:	f8478793          	addi	a5,a5,-124 # 3f84 <move_piece+0xc10>
    1844:	01058613          	addi	a2,a1,16
    1848:	00f50533          	add	a0,a0,a5
    184c:	05058593          	addi	a1,a1,80
    1850:	ff060693          	addi	a3,a2,-16
    1854:	00050713          	mv	a4,a0
    1858:	0106a783          	lw	a5,16(a3)
    185c:	02079263          	bnez	a5,1880 <clear_next_shape+0x44>
    1860:	00468693          	addi	a3,a3,4
    1864:	00a70713          	addi	a4,a4,10
    1868:	fed618e3          	bne	a2,a3,1858 <clear_next_shape+0x1c>
    186c:	7ff50513          	addi	a0,a0,2047
    1870:	01060613          	addi	a2,a2,16
    1874:	48150513          	addi	a0,a0,1153
    1878:	fcc59ce3          	bne	a1,a2,1850 <clear_next_shape+0x14>
    187c:	00008067          	ret
    1880:	80070793          	addi	a5,a4,-2048
    1884:	b8078793          	addi	a5,a5,-1152
    1888:	00078023          	sb	zero,0(a5)
    188c:	000780a3          	sb	zero,1(a5)
    1890:	00078123          	sb	zero,2(a5)
    1894:	000781a3          	sb	zero,3(a5)
    1898:	00078223          	sb	zero,4(a5)
    189c:	000782a3          	sb	zero,5(a5)
    18a0:	00078323          	sb	zero,6(a5)
    18a4:	000783a3          	sb	zero,7(a5)
    18a8:	00078423          	sb	zero,8(a5)
    18ac:	000784a3          	sb	zero,9(a5)
    18b0:	14078793          	addi	a5,a5,320
    18b4:	fcf71ae3          	bne	a4,a5,1888 <clear_next_shape+0x4c>
    18b8:	fa9ff06f          	j	1860 <clear_next_shape+0x24>

000018bc <update_cell>:
    18bc:	00251793          	slli	a5,a0,0x2
    18c0:	00a787b3          	add	a5,a5,a0
    18c4:	00179793          	slli	a5,a5,0x1
    18c8:	01478793          	addi	a5,a5,20
    18cc:	00279813          	slli	a6,a5,0x2
    18d0:	00259713          	slli	a4,a1,0x2
    18d4:	00f80833          	add	a6,a6,a5
    18d8:	00b70733          	add	a4,a4,a1
    18dc:	000057b7          	lui	a5,0x5
    18e0:	1307a683          	lw	a3,304(a5) # 5130 <VGA>
    18e4:	00171713          	slli	a4,a4,0x1
    18e8:	06e70713          	addi	a4,a4,110
    18ec:	00681813          	slli	a6,a6,0x6
    18f0:	00e80833          	add	a6,a6,a4
    18f4:	ff010113          	addi	sp,sp,-16
    18f8:	00812623          	sw	s0,12(sp)
    18fc:	010686b3          	add	a3,a3,a6
    1900:	01200713          	li	a4,18
    1904:	00e68023          	sb	a4,0(a3)
    1908:	1307a683          	lw	a3,304(a5)
    190c:	00180393          	addi	t2,a6,1
    1910:	00080893          	mv	a7,a6
    1914:	007686b3          	add	a3,a3,t2
    1918:	00e68023          	sb	a4,0(a3)
    191c:	00280293          	addi	t0,a6,2
    1920:	00880693          	addi	a3,a6,8
    1924:	00380f93          	addi	t6,a6,3
    1928:	00480f13          	addi	t5,a6,4
    192c:	00580e93          	addi	t4,a6,5
    1930:	00680e13          	addi	t3,a6,6
    1934:	00780313          	addi	t1,a6,7
    1938:	00000513          	li	a0,0
    193c:	00900413          	li	s0,9
    1940:	1307a583          	lw	a1,304(a5)
    1944:	005585b3          	add	a1,a1,t0
    1948:	00e58023          	sb	a4,0(a1)
    194c:	1307a583          	lw	a1,304(a5)
    1950:	01f585b3          	add	a1,a1,t6
    1954:	00e58023          	sb	a4,0(a1)
    1958:	1307a583          	lw	a1,304(a5)
    195c:	01e585b3          	add	a1,a1,t5
    1960:	00e58023          	sb	a4,0(a1)
    1964:	1307a583          	lw	a1,304(a5)
    1968:	01d585b3          	add	a1,a1,t4
    196c:	00e58023          	sb	a4,0(a1)
    1970:	1307a583          	lw	a1,304(a5)
    1974:	01c585b3          	add	a1,a1,t3
    1978:	00e58023          	sb	a4,0(a1)
    197c:	1307a583          	lw	a1,304(a5)
    1980:	006585b3          	add	a1,a1,t1
    1984:	00e58023          	sb	a4,0(a1)
    1988:	1307a583          	lw	a1,304(a5)
    198c:	00d585b3          	add	a1,a1,a3
    1990:	00e58023          	sb	a4,0(a1)
    1994:	06050a63          	beqz	a0,1a08 <update_cell+0x14c>
    1998:	1307a783          	lw	a5,304(a5)
    199c:	010787b3          	add	a5,a5,a6
    19a0:	00e784a3          	sb	a4,9(a5)
    19a4:	00c12403          	lw	s0,12(sp)
    19a8:	01010113          	addi	sp,sp,16
    19ac:	00008067          	ret
    19b0:	00c58023          	sb	a2,0(a1)
    19b4:	1307a583          	lw	a1,304(a5)
    19b8:	005585b3          	add	a1,a1,t0
    19bc:	00c58023          	sb	a2,0(a1)
    19c0:	1307a583          	lw	a1,304(a5)
    19c4:	01f585b3          	add	a1,a1,t6
    19c8:	00c58023          	sb	a2,0(a1)
    19cc:	1307a583          	lw	a1,304(a5)
    19d0:	01e585b3          	add	a1,a1,t5
    19d4:	00c58023          	sb	a2,0(a1)
    19d8:	1307a583          	lw	a1,304(a5)
    19dc:	01d585b3          	add	a1,a1,t4
    19e0:	00c58023          	sb	a2,0(a1)
    19e4:	1307a583          	lw	a1,304(a5)
    19e8:	01c585b3          	add	a1,a1,t3
    19ec:	00c58023          	sb	a2,0(a1)
    19f0:	1307a583          	lw	a1,304(a5)
    19f4:	006585b3          	add	a1,a1,t1
    19f8:	00c58023          	sb	a2,0(a1)
    19fc:	1307a583          	lw	a1,304(a5)
    1a00:	00d585b3          	add	a1,a1,a3
    1a04:	00c58023          	sb	a2,0(a1)
    1a08:	1307a583          	lw	a1,304(a5)
    1a0c:	14088893          	addi	a7,a7,320
    1a10:	14038393          	addi	t2,t2,320
    1a14:	00d585b3          	add	a1,a1,a3
    1a18:	00e580a3          	sb	a4,1(a1)
    1a1c:	1307a583          	lw	a1,304(a5)
    1a20:	00150513          	addi	a0,a0,1
    1a24:	14028293          	addi	t0,t0,320
    1a28:	011585b3          	add	a1,a1,a7
    1a2c:	00e58023          	sb	a4,0(a1)
    1a30:	1307a583          	lw	a1,304(a5)
    1a34:	140f8f93          	addi	t6,t6,320
    1a38:	140f0f13          	addi	t5,t5,320
    1a3c:	140e8e93          	addi	t4,t4,320
    1a40:	140e0e13          	addi	t3,t3,320
    1a44:	14030313          	addi	t1,t1,320
    1a48:	14068693          	addi	a3,a3,320
    1a4c:	007585b3          	add	a1,a1,t2
    1a50:	f68510e3          	bne	a0,s0,19b0 <update_cell+0xf4>
    1a54:	00e58023          	sb	a4,0(a1)
    1a58:	00088813          	mv	a6,a7
    1a5c:	ee5ff06f          	j	1940 <update_cell+0x84>

00001a60 <update_shape.constprop.1>:
    1a60:	fe010113          	addi	sp,sp,-32
    1a64:	01312623          	sw	s3,12(sp)
    1a68:	000059b7          	lui	s3,0x5
    1a6c:	00812c23          	sw	s0,24(sp)
    1a70:	00912a23          	sw	s1,20(sp)
    1a74:	01212823          	sw	s2,16(sp)
    1a78:	01412423          	sw	s4,8(sp)
    1a7c:	00112e23          	sw	ra,28(sp)
    1a80:	00050913          	mv	s2,a0
    1a84:	01050413          	addi	s0,a0,16
    1a88:	13498993          	addi	s3,s3,308 # 5134 <grid>
    1a8c:	00000493          	li	s1,0
    1a90:	00400a13          	li	s4,4
    1a94:	00042783          	lw	a5,0(s0)
    1a98:	02078e63          	beqz	a5,1ad4 <update_shape.constprop.1+0x74>
    1a9c:	00892503          	lw	a0,8(s2)
    1aa0:	00492583          	lw	a1,4(s2)
    1aa4:	00a48533          	add	a0,s1,a0
    1aa8:	01453793          	sltiu	a5,a0,20
    1aac:	02078463          	beqz	a5,1ad4 <update_shape.constprop.1+0x74>
    1ab0:	00a5b793          	sltiu	a5,a1,10
    1ab4:	02078063          	beqz	a5,1ad4 <update_shape.constprop.1+0x74>
    1ab8:	00251793          	slli	a5,a0,0x2
    1abc:	00a787b3          	add	a5,a5,a0
    1ac0:	00179793          	slli	a5,a5,0x1
    1ac4:	00f987b3          	add	a5,s3,a5
    1ac8:	00b787b3          	add	a5,a5,a1
    1acc:	0007c603          	lbu	a2,0(a5)
    1ad0:	dedff0ef          	jal	18bc <update_cell>
    1ad4:	00442783          	lw	a5,4(s0)
    1ad8:	04078063          	beqz	a5,1b18 <update_shape.constprop.1+0xb8>
    1adc:	00892503          	lw	a0,8(s2)
    1ae0:	00492583          	lw	a1,4(s2)
    1ae4:	00a48533          	add	a0,s1,a0
    1ae8:	01453793          	sltiu	a5,a0,20
    1aec:	00158593          	addi	a1,a1,1
    1af0:	02078463          	beqz	a5,1b18 <update_shape.constprop.1+0xb8>
    1af4:	00a5b793          	sltiu	a5,a1,10
    1af8:	02078063          	beqz	a5,1b18 <update_shape.constprop.1+0xb8>
    1afc:	00251793          	slli	a5,a0,0x2
    1b00:	00a787b3          	add	a5,a5,a0
    1b04:	00179793          	slli	a5,a5,0x1
    1b08:	00f987b3          	add	a5,s3,a5
    1b0c:	00b787b3          	add	a5,a5,a1
    1b10:	0007c603          	lbu	a2,0(a5)
    1b14:	da9ff0ef          	jal	18bc <update_cell>
    1b18:	00842783          	lw	a5,8(s0)
    1b1c:	04078063          	beqz	a5,1b5c <update_shape.constprop.1+0xfc>
    1b20:	00892503          	lw	a0,8(s2)
    1b24:	00492583          	lw	a1,4(s2)
    1b28:	00a48533          	add	a0,s1,a0
    1b2c:	01453793          	sltiu	a5,a0,20
    1b30:	00258593          	addi	a1,a1,2
    1b34:	02078463          	beqz	a5,1b5c <update_shape.constprop.1+0xfc>
    1b38:	00a5b793          	sltiu	a5,a1,10
    1b3c:	02078063          	beqz	a5,1b5c <update_shape.constprop.1+0xfc>
    1b40:	00251793          	slli	a5,a0,0x2
    1b44:	00a787b3          	add	a5,a5,a0
    1b48:	00179793          	slli	a5,a5,0x1
    1b4c:	00f987b3          	add	a5,s3,a5
    1b50:	00b787b3          	add	a5,a5,a1
    1b54:	0007c603          	lbu	a2,0(a5)
    1b58:	d65ff0ef          	jal	18bc <update_cell>
    1b5c:	00c42783          	lw	a5,12(s0)
    1b60:	04078063          	beqz	a5,1ba0 <update_shape.constprop.1+0x140>
    1b64:	00892503          	lw	a0,8(s2)
    1b68:	00492583          	lw	a1,4(s2)
    1b6c:	00a48533          	add	a0,s1,a0
    1b70:	01453793          	sltiu	a5,a0,20
    1b74:	00358593          	addi	a1,a1,3
    1b78:	02078463          	beqz	a5,1ba0 <update_shape.constprop.1+0x140>
    1b7c:	00a5b793          	sltiu	a5,a1,10
    1b80:	02078063          	beqz	a5,1ba0 <update_shape.constprop.1+0x140>
    1b84:	00251793          	slli	a5,a0,0x2
    1b88:	00a787b3          	add	a5,a5,a0
    1b8c:	00179793          	slli	a5,a5,0x1
    1b90:	00f987b3          	add	a5,s3,a5
    1b94:	00b787b3          	add	a5,a5,a1
    1b98:	0007c603          	lbu	a2,0(a5)
    1b9c:	d21ff0ef          	jal	18bc <update_cell>
    1ba0:	00148493          	addi	s1,s1,1
    1ba4:	01040413          	addi	s0,s0,16
    1ba8:	ef4496e3          	bne	s1,s4,1a94 <update_shape.constprop.1+0x34>
    1bac:	01c12083          	lw	ra,28(sp)
    1bb0:	01812403          	lw	s0,24(sp)
    1bb4:	01412483          	lw	s1,20(sp)
    1bb8:	01012903          	lw	s2,16(sp)
    1bbc:	00c12983          	lw	s3,12(sp)
    1bc0:	00812a03          	lw	s4,8(sp)
    1bc4:	02010113          	addi	sp,sp,32
    1bc8:	00008067          	ret

00001bcc <is_filled>:
    1bcc:	01052703          	lw	a4,16(a0)
    1bd0:	00050793          	mv	a5,a0
    1bd4:	00070e63          	beqz	a4,1bf0 <is_filled+0x24>
    1bd8:	00452703          	lw	a4,4(a0)
    1bdc:	00852683          	lw	a3,8(a0)
    1be0:	00a73613          	sltiu	a2,a4,10
    1be4:	00060663          	beqz	a2,1bf0 <is_filled+0x24>
    1be8:	0146b613          	sltiu	a2,a3,20
    1bec:	24061663          	bnez	a2,1e38 <is_filled+0x26c>
    1bf0:	0147a703          	lw	a4,20(a5)
    1bf4:	02070063          	beqz	a4,1c14 <is_filled+0x48>
    1bf8:	0047a683          	lw	a3,4(a5)
    1bfc:	0087a603          	lw	a2,8(a5)
    1c00:	00168713          	addi	a4,a3,1
    1c04:	00a73713          	sltiu	a4,a4,10
    1c08:	00070663          	beqz	a4,1c14 <is_filled+0x48>
    1c0c:	01463713          	sltiu	a4,a2,20
    1c10:	24071a63          	bnez	a4,1e64 <is_filled+0x298>
    1c14:	0187a703          	lw	a4,24(a5)
    1c18:	02070063          	beqz	a4,1c38 <is_filled+0x6c>
    1c1c:	0047a683          	lw	a3,4(a5)
    1c20:	0087a603          	lw	a2,8(a5)
    1c24:	00268713          	addi	a4,a3,2
    1c28:	00a73713          	sltiu	a4,a4,10
    1c2c:	00070663          	beqz	a4,1c38 <is_filled+0x6c>
    1c30:	01463713          	sltiu	a4,a2,20
    1c34:	28071863          	bnez	a4,1ec4 <is_filled+0x2f8>
    1c38:	01c7a703          	lw	a4,28(a5)
    1c3c:	02070063          	beqz	a4,1c5c <is_filled+0x90>
    1c40:	0047a683          	lw	a3,4(a5)
    1c44:	0087a603          	lw	a2,8(a5)
    1c48:	00368713          	addi	a4,a3,3
    1c4c:	00a73713          	sltiu	a4,a4,10
    1c50:	00070663          	beqz	a4,1c5c <is_filled+0x90>
    1c54:	01463713          	sltiu	a4,a2,20
    1c58:	22071e63          	bnez	a4,1e94 <is_filled+0x2c8>
    1c5c:	0207a703          	lw	a4,32(a5)
    1c60:	02070063          	beqz	a4,1c80 <is_filled+0xb4>
    1c64:	0087a703          	lw	a4,8(a5)
    1c68:	0047a603          	lw	a2,4(a5)
    1c6c:	00170713          	addi	a4,a4,1
    1c70:	01473693          	sltiu	a3,a4,20
    1c74:	00068663          	beqz	a3,1c80 <is_filled+0xb4>
    1c78:	00a63693          	sltiu	a3,a2,10
    1c7c:	26069c63          	bnez	a3,1ef4 <is_filled+0x328>
    1c80:	0247a703          	lw	a4,36(a5)
    1c84:	02070263          	beqz	a4,1ca8 <is_filled+0xdc>
    1c88:	0047a603          	lw	a2,4(a5)
    1c8c:	0087a703          	lw	a4,8(a5)
    1c90:	00160693          	addi	a3,a2,1
    1c94:	00a6b693          	sltiu	a3,a3,10
    1c98:	00170713          	addi	a4,a4,1
    1c9c:	00068663          	beqz	a3,1ca8 <is_filled+0xdc>
    1ca0:	01473693          	sltiu	a3,a4,20
    1ca4:	28069063          	bnez	a3,1f24 <is_filled+0x358>
    1ca8:	0287a703          	lw	a4,40(a5)
    1cac:	02070263          	beqz	a4,1cd0 <is_filled+0x104>
    1cb0:	0047a603          	lw	a2,4(a5)
    1cb4:	0087a703          	lw	a4,8(a5)
    1cb8:	00260693          	addi	a3,a2,2
    1cbc:	00a6b693          	sltiu	a3,a3,10
    1cc0:	00170713          	addi	a4,a4,1
    1cc4:	00068663          	beqz	a3,1cd0 <is_filled+0x104>
    1cc8:	01473693          	sltiu	a3,a4,20
    1ccc:	28069463          	bnez	a3,1f54 <is_filled+0x388>
    1cd0:	02c7a703          	lw	a4,44(a5)
    1cd4:	02070263          	beqz	a4,1cf8 <is_filled+0x12c>
    1cd8:	0047a603          	lw	a2,4(a5)
    1cdc:	0087a703          	lw	a4,8(a5)
    1ce0:	00360693          	addi	a3,a2,3
    1ce4:	00a6b693          	sltiu	a3,a3,10
    1ce8:	00170713          	addi	a4,a4,1
    1cec:	00068663          	beqz	a3,1cf8 <is_filled+0x12c>
    1cf0:	01473693          	sltiu	a3,a4,20
    1cf4:	28069863          	bnez	a3,1f84 <is_filled+0x3b8>
    1cf8:	0307a703          	lw	a4,48(a5)
    1cfc:	02070063          	beqz	a4,1d1c <is_filled+0x150>
    1d00:	0087a703          	lw	a4,8(a5)
    1d04:	0047a603          	lw	a2,4(a5)
    1d08:	00270713          	addi	a4,a4,2
    1d0c:	01473693          	sltiu	a3,a4,20
    1d10:	00068663          	beqz	a3,1d1c <is_filled+0x150>
    1d14:	00a63693          	sltiu	a3,a2,10
    1d18:	28069e63          	bnez	a3,1fb4 <is_filled+0x3e8>
    1d1c:	0347a703          	lw	a4,52(a5)
    1d20:	02070263          	beqz	a4,1d44 <is_filled+0x178>
    1d24:	0047a603          	lw	a2,4(a5)
    1d28:	0087a703          	lw	a4,8(a5)
    1d2c:	00160693          	addi	a3,a2,1
    1d30:	00a6b693          	sltiu	a3,a3,10
    1d34:	00270713          	addi	a4,a4,2
    1d38:	00068663          	beqz	a3,1d44 <is_filled+0x178>
    1d3c:	01473693          	sltiu	a3,a4,20
    1d40:	2a069263          	bnez	a3,1fe4 <is_filled+0x418>
    1d44:	0387a703          	lw	a4,56(a5)
    1d48:	02070263          	beqz	a4,1d6c <is_filled+0x1a0>
    1d4c:	0047a603          	lw	a2,4(a5)
    1d50:	0087a703          	lw	a4,8(a5)
    1d54:	00260693          	addi	a3,a2,2
    1d58:	00a6b693          	sltiu	a3,a3,10
    1d5c:	00270713          	addi	a4,a4,2
    1d60:	00068663          	beqz	a3,1d6c <is_filled+0x1a0>
    1d64:	01473693          	sltiu	a3,a4,20
    1d68:	2a069663          	bnez	a3,2014 <is_filled+0x448>
    1d6c:	03c7a703          	lw	a4,60(a5)
    1d70:	02070263          	beqz	a4,1d94 <is_filled+0x1c8>
    1d74:	0047a603          	lw	a2,4(a5)
    1d78:	0087a703          	lw	a4,8(a5)
    1d7c:	00360693          	addi	a3,a2,3
    1d80:	00a6b693          	sltiu	a3,a3,10
    1d84:	00270713          	addi	a4,a4,2
    1d88:	00068663          	beqz	a3,1d94 <is_filled+0x1c8>
    1d8c:	01473693          	sltiu	a3,a4,20
    1d90:	2e069263          	bnez	a3,2074 <is_filled+0x4a8>
    1d94:	0407a703          	lw	a4,64(a5)
    1d98:	02070063          	beqz	a4,1db8 <is_filled+0x1ec>
    1d9c:	0047a683          	lw	a3,4(a5)
    1da0:	0087a703          	lw	a4,8(a5)
    1da4:	00a6b613          	sltiu	a2,a3,10
    1da8:	00370713          	addi	a4,a4,3
    1dac:	00060663          	beqz	a2,1db8 <is_filled+0x1ec>
    1db0:	01473613          	sltiu	a2,a4,20
    1db4:	28061863          	bnez	a2,2044 <is_filled+0x478>
    1db8:	0447a703          	lw	a4,68(a5)
    1dbc:	02070263          	beqz	a4,1de0 <is_filled+0x214>
    1dc0:	0047a603          	lw	a2,4(a5)
    1dc4:	0087a703          	lw	a4,8(a5)
    1dc8:	00160693          	addi	a3,a2,1
    1dcc:	00a6b693          	sltiu	a3,a3,10
    1dd0:	00370713          	addi	a4,a4,3
    1dd4:	00068663          	beqz	a3,1de0 <is_filled+0x214>
    1dd8:	01473693          	sltiu	a3,a4,20
    1ddc:	2e069c63          	bnez	a3,20d4 <is_filled+0x508>
    1de0:	0487a703          	lw	a4,72(a5)
    1de4:	02070263          	beqz	a4,1e08 <is_filled+0x23c>
    1de8:	0047a603          	lw	a2,4(a5)
    1dec:	0087a703          	lw	a4,8(a5)
    1df0:	00260693          	addi	a3,a2,2
    1df4:	00a6b693          	sltiu	a3,a3,10
    1df8:	00370713          	addi	a4,a4,3
    1dfc:	00068663          	beqz	a3,1e08 <is_filled+0x23c>
    1e00:	01473693          	sltiu	a3,a4,20
    1e04:	2a069063          	bnez	a3,20a4 <is_filled+0x4d8>
    1e08:	04c7a503          	lw	a0,76(a5)
    1e0c:	02050463          	beqz	a0,1e34 <is_filled+0x268>
    1e10:	0047a683          	lw	a3,4(a5)
    1e14:	0087a783          	lw	a5,8(a5)
    1e18:	00368713          	addi	a4,a3,3
    1e1c:	00a73713          	sltiu	a4,a4,10
    1e20:	00378793          	addi	a5,a5,3
    1e24:	00070663          	beqz	a4,1e30 <is_filled+0x264>
    1e28:	0147b713          	sltiu	a4,a5,20
    1e2c:	2c071c63          	bnez	a4,2104 <is_filled+0x538>
    1e30:	00000513          	li	a0,0
    1e34:	00008067          	ret
    1e38:	00269613          	slli	a2,a3,0x2
    1e3c:	00d60633          	add	a2,a2,a3
    1e40:	000056b7          	lui	a3,0x5
    1e44:	00161613          	slli	a2,a2,0x1
    1e48:	13468693          	addi	a3,a3,308 # 5134 <grid>
    1e4c:	00c686b3          	add	a3,a3,a2
    1e50:	00e68733          	add	a4,a3,a4
    1e54:	00074703          	lbu	a4,0(a4)
    1e58:	d8070ce3          	beqz	a4,1bf0 <is_filled+0x24>
    1e5c:	00100513          	li	a0,1
    1e60:	00008067          	ret
    1e64:	00261713          	slli	a4,a2,0x2
    1e68:	00c70633          	add	a2,a4,a2
    1e6c:	00005737          	lui	a4,0x5
    1e70:	00161613          	slli	a2,a2,0x1
    1e74:	13470713          	addi	a4,a4,308 # 5134 <grid>
    1e78:	00c70733          	add	a4,a4,a2
    1e7c:	00d70733          	add	a4,a4,a3
    1e80:	00174703          	lbu	a4,1(a4)
    1e84:	fc071ce3          	bnez	a4,1e5c <is_filled+0x290>
    1e88:	0187a703          	lw	a4,24(a5)
    1e8c:	da0706e3          	beqz	a4,1c38 <is_filled+0x6c>
    1e90:	d8dff06f          	j	1c1c <is_filled+0x50>
    1e94:	00261713          	slli	a4,a2,0x2
    1e98:	00c70633          	add	a2,a4,a2
    1e9c:	00005737          	lui	a4,0x5
    1ea0:	00161613          	slli	a2,a2,0x1
    1ea4:	13470713          	addi	a4,a4,308 # 5134 <grid>
    1ea8:	00c70733          	add	a4,a4,a2
    1eac:	00d70733          	add	a4,a4,a3
    1eb0:	00374703          	lbu	a4,3(a4)
    1eb4:	fa0714e3          	bnez	a4,1e5c <is_filled+0x290>
    1eb8:	0207a703          	lw	a4,32(a5)
    1ebc:	dc0702e3          	beqz	a4,1c80 <is_filled+0xb4>
    1ec0:	da5ff06f          	j	1c64 <is_filled+0x98>
    1ec4:	00261713          	slli	a4,a2,0x2
    1ec8:	00c70633          	add	a2,a4,a2
    1ecc:	00005737          	lui	a4,0x5
    1ed0:	00161613          	slli	a2,a2,0x1
    1ed4:	13470713          	addi	a4,a4,308 # 5134 <grid>
    1ed8:	00c70733          	add	a4,a4,a2
    1edc:	00d70733          	add	a4,a4,a3
    1ee0:	00274703          	lbu	a4,2(a4)
    1ee4:	f6071ce3          	bnez	a4,1e5c <is_filled+0x290>
    1ee8:	01c7a703          	lw	a4,28(a5)
    1eec:	d60708e3          	beqz	a4,1c5c <is_filled+0x90>
    1ef0:	d51ff06f          	j	1c40 <is_filled+0x74>
    1ef4:	00271693          	slli	a3,a4,0x2
    1ef8:	00e686b3          	add	a3,a3,a4
    1efc:	00005737          	lui	a4,0x5
    1f00:	00169693          	slli	a3,a3,0x1
    1f04:	13470713          	addi	a4,a4,308 # 5134 <grid>
    1f08:	00d70733          	add	a4,a4,a3
    1f0c:	00c70733          	add	a4,a4,a2
    1f10:	00074703          	lbu	a4,0(a4)
    1f14:	f40714e3          	bnez	a4,1e5c <is_filled+0x290>
    1f18:	0247a703          	lw	a4,36(a5)
    1f1c:	d80706e3          	beqz	a4,1ca8 <is_filled+0xdc>
    1f20:	d69ff06f          	j	1c88 <is_filled+0xbc>
    1f24:	00271693          	slli	a3,a4,0x2
    1f28:	00e686b3          	add	a3,a3,a4
    1f2c:	00005737          	lui	a4,0x5
    1f30:	00169693          	slli	a3,a3,0x1
    1f34:	13470713          	addi	a4,a4,308 # 5134 <grid>
    1f38:	00d70733          	add	a4,a4,a3
    1f3c:	00c70733          	add	a4,a4,a2
    1f40:	00174703          	lbu	a4,1(a4)
    1f44:	f0071ce3          	bnez	a4,1e5c <is_filled+0x290>
    1f48:	0287a703          	lw	a4,40(a5)
    1f4c:	d80702e3          	beqz	a4,1cd0 <is_filled+0x104>
    1f50:	d61ff06f          	j	1cb0 <is_filled+0xe4>
    1f54:	00271693          	slli	a3,a4,0x2
    1f58:	00e686b3          	add	a3,a3,a4
    1f5c:	00005737          	lui	a4,0x5
    1f60:	00169693          	slli	a3,a3,0x1
    1f64:	13470713          	addi	a4,a4,308 # 5134 <grid>
    1f68:	00d70733          	add	a4,a4,a3
    1f6c:	00c70733          	add	a4,a4,a2
    1f70:	00274703          	lbu	a4,2(a4)
    1f74:	ee0714e3          	bnez	a4,1e5c <is_filled+0x290>
    1f78:	02c7a703          	lw	a4,44(a5)
    1f7c:	d6070ee3          	beqz	a4,1cf8 <is_filled+0x12c>
    1f80:	d59ff06f          	j	1cd8 <is_filled+0x10c>
    1f84:	00271693          	slli	a3,a4,0x2
    1f88:	00e686b3          	add	a3,a3,a4
    1f8c:	00005737          	lui	a4,0x5
    1f90:	00169693          	slli	a3,a3,0x1
    1f94:	13470713          	addi	a4,a4,308 # 5134 <grid>
    1f98:	00d70733          	add	a4,a4,a3
    1f9c:	00c70733          	add	a4,a4,a2
    1fa0:	00374703          	lbu	a4,3(a4)
    1fa4:	ea071ce3          	bnez	a4,1e5c <is_filled+0x290>
    1fa8:	0307a703          	lw	a4,48(a5)
    1fac:	d60708e3          	beqz	a4,1d1c <is_filled+0x150>
    1fb0:	d51ff06f          	j	1d00 <is_filled+0x134>
    1fb4:	00271693          	slli	a3,a4,0x2
    1fb8:	00e686b3          	add	a3,a3,a4
    1fbc:	00005737          	lui	a4,0x5
    1fc0:	00169693          	slli	a3,a3,0x1
    1fc4:	13470713          	addi	a4,a4,308 # 5134 <grid>
    1fc8:	00d70733          	add	a4,a4,a3
    1fcc:	00c70733          	add	a4,a4,a2
    1fd0:	00074703          	lbu	a4,0(a4)
    1fd4:	e80714e3          	bnez	a4,1e5c <is_filled+0x290>
    1fd8:	0347a703          	lw	a4,52(a5)
    1fdc:	d60704e3          	beqz	a4,1d44 <is_filled+0x178>
    1fe0:	d45ff06f          	j	1d24 <is_filled+0x158>
    1fe4:	00271693          	slli	a3,a4,0x2
    1fe8:	00e686b3          	add	a3,a3,a4
    1fec:	00005737          	lui	a4,0x5
    1ff0:	00169693          	slli	a3,a3,0x1
    1ff4:	13470713          	addi	a4,a4,308 # 5134 <grid>
    1ff8:	00d70733          	add	a4,a4,a3
    1ffc:	00c70733          	add	a4,a4,a2
    2000:	00174703          	lbu	a4,1(a4)
    2004:	e4071ce3          	bnez	a4,1e5c <is_filled+0x290>
    2008:	0387a703          	lw	a4,56(a5)
    200c:	d60700e3          	beqz	a4,1d6c <is_filled+0x1a0>
    2010:	d3dff06f          	j	1d4c <is_filled+0x180>
    2014:	00271693          	slli	a3,a4,0x2
    2018:	00e686b3          	add	a3,a3,a4
    201c:	00005737          	lui	a4,0x5
    2020:	00169693          	slli	a3,a3,0x1
    2024:	13470713          	addi	a4,a4,308 # 5134 <grid>
    2028:	00d70733          	add	a4,a4,a3
    202c:	00c70733          	add	a4,a4,a2
    2030:	00274703          	lbu	a4,2(a4)
    2034:	e20714e3          	bnez	a4,1e5c <is_filled+0x290>
    2038:	03c7a703          	lw	a4,60(a5)
    203c:	d4070ce3          	beqz	a4,1d94 <is_filled+0x1c8>
    2040:	d35ff06f          	j	1d74 <is_filled+0x1a8>
    2044:	00271613          	slli	a2,a4,0x2
    2048:	00e60633          	add	a2,a2,a4
    204c:	00005737          	lui	a4,0x5
    2050:	00161613          	slli	a2,a2,0x1
    2054:	13470713          	addi	a4,a4,308 # 5134 <grid>
    2058:	00c70733          	add	a4,a4,a2
    205c:	00d70733          	add	a4,a4,a3
    2060:	00074703          	lbu	a4,0(a4)
    2064:	de071ce3          	bnez	a4,1e5c <is_filled+0x290>
    2068:	0447a703          	lw	a4,68(a5)
    206c:	d6070ae3          	beqz	a4,1de0 <is_filled+0x214>
    2070:	d51ff06f          	j	1dc0 <is_filled+0x1f4>
    2074:	00271693          	slli	a3,a4,0x2
    2078:	00e686b3          	add	a3,a3,a4
    207c:	00005737          	lui	a4,0x5
    2080:	00169693          	slli	a3,a3,0x1
    2084:	13470713          	addi	a4,a4,308 # 5134 <grid>
    2088:	00d70733          	add	a4,a4,a3
    208c:	00c70733          	add	a4,a4,a2
    2090:	00374703          	lbu	a4,3(a4)
    2094:	dc0714e3          	bnez	a4,1e5c <is_filled+0x290>
    2098:	0407a703          	lw	a4,64(a5)
    209c:	d0070ee3          	beqz	a4,1db8 <is_filled+0x1ec>
    20a0:	cfdff06f          	j	1d9c <is_filled+0x1d0>
    20a4:	00271693          	slli	a3,a4,0x2
    20a8:	00e686b3          	add	a3,a3,a4
    20ac:	00005737          	lui	a4,0x5
    20b0:	00169693          	slli	a3,a3,0x1
    20b4:	13470713          	addi	a4,a4,308 # 5134 <grid>
    20b8:	00d70733          	add	a4,a4,a3
    20bc:	00c70733          	add	a4,a4,a2
    20c0:	00274703          	lbu	a4,2(a4)
    20c4:	d8071ce3          	bnez	a4,1e5c <is_filled+0x290>
    20c8:	04c7a503          	lw	a0,76(a5)
    20cc:	d60504e3          	beqz	a0,1e34 <is_filled+0x268>
    20d0:	d41ff06f          	j	1e10 <is_filled+0x244>
    20d4:	00271693          	slli	a3,a4,0x2
    20d8:	00e686b3          	add	a3,a3,a4
    20dc:	00005737          	lui	a4,0x5
    20e0:	00169693          	slli	a3,a3,0x1
    20e4:	13470713          	addi	a4,a4,308 # 5134 <grid>
    20e8:	00d70733          	add	a4,a4,a3
    20ec:	00c70733          	add	a4,a4,a2
    20f0:	00174703          	lbu	a4,1(a4)
    20f4:	d60714e3          	bnez	a4,1e5c <is_filled+0x290>
    20f8:	0487a703          	lw	a4,72(a5)
    20fc:	d00706e3          	beqz	a4,1e08 <is_filled+0x23c>
    2100:	ce9ff06f          	j	1de8 <is_filled+0x21c>
    2104:	00279713          	slli	a4,a5,0x2
    2108:	00f70733          	add	a4,a4,a5
    210c:	000057b7          	lui	a5,0x5
    2110:	00171713          	slli	a4,a4,0x1
    2114:	13478793          	addi	a5,a5,308 # 5134 <grid>
    2118:	00e787b3          	add	a5,a5,a4
    211c:	00d787b3          	add	a5,a5,a3
    2120:	0037c503          	lbu	a0,3(a5)
    2124:	00a03533          	snez	a0,a0
    2128:	00008067          	ret

0000212c <game_over>:
    212c:	fd010113          	addi	sp,sp,-48
    2130:	00013637          	lui	a2,0x13
    2134:	02812623          	sw	s0,44(sp)
    2138:	02912423          	sw	s1,40(sp)
    213c:	c0060613          	addi	a2,a2,-1024 # 12c00 <__global_pointer+0xd2d0>
    2140:	00000793          	li	a5,0
    2144:	000056b7          	lui	a3,0x5
    2148:	1306a703          	lw	a4,304(a3) # 5130 <VGA>
    214c:	00f70733          	add	a4,a4,a5
    2150:	00070023          	sb	zero,0(a4)
    2154:	00178793          	addi	a5,a5,1
    2158:	fec798e3          	bne	a5,a2,2148 <game_over+0x1c>
    215c:	00006e37          	lui	t3,0x6
    2160:	00005837          	lui	a6,0x5
    2164:	00009eb7          	lui	t4,0x9
    2168:	814e0e13          	addi	t3,t3,-2028 # 5814 <font5x7+0x274>
    216c:	5a080813          	addi	a6,a6,1440 # 55a0 <font5x7>
    2170:	240e8e93          	addi	t4,t4,576 # 9240 <__global_pointer+0x3910>
    2174:	07c00313          	li	t1,124
    2178:	00900f93          	li	t6,9
    217c:	fe000593          	li	a1,-32
    2180:	01900293          	li	t0,25
    2184:	0c400f13          	li	t5,196
    2188:	000e4783          	lbu	a5,0(t3)
    218c:	fd078713          	addi	a4,a5,-48
    2190:	0ff77613          	zext.b	a2,a4
    2194:	40cfe463          	bltu	t6,a2,259c <game_over+0x470>
    2198:	00271613          	slli	a2,a4,0x2
    219c:	00e60633          	add	a2,a2,a4
    21a0:	00c80633          	add	a2,a6,a2
    21a4:	00560893          	addi	a7,a2,5
    21a8:	01d30733          	add	a4,t1,t4
    21ac:	00064783          	lbu	a5,0(a2)
    21b0:	0017f513          	andi	a0,a5,1
    21b4:	00050863          	beqz	a0,21c4 <game_over+0x98>
    21b8:	1306a503          	lw	a0,304(a3)
    21bc:	00e50533          	add	a0,a0,a4
    21c0:	88b50023          	sb	a1,-1920(a0)
    21c4:	0027f513          	andi	a0,a5,2
    21c8:	00050863          	beqz	a0,21d8 <game_over+0xac>
    21cc:	1306a503          	lw	a0,304(a3)
    21d0:	00e50533          	add	a0,a0,a4
    21d4:	9cb50023          	sb	a1,-1600(a0)
    21d8:	0047f513          	andi	a0,a5,4
    21dc:	00050863          	beqz	a0,21ec <game_over+0xc0>
    21e0:	1306a503          	lw	a0,304(a3)
    21e4:	00e50533          	add	a0,a0,a4
    21e8:	b0b50023          	sb	a1,-1280(a0)
    21ec:	0087f513          	andi	a0,a5,8
    21f0:	00050863          	beqz	a0,2200 <game_over+0xd4>
    21f4:	1306a503          	lw	a0,304(a3)
    21f8:	00e50533          	add	a0,a0,a4
    21fc:	c4b50023          	sb	a1,-960(a0)
    2200:	0107f513          	andi	a0,a5,16
    2204:	00050863          	beqz	a0,2214 <game_over+0xe8>
    2208:	1306a503          	lw	a0,304(a3)
    220c:	00e50533          	add	a0,a0,a4
    2210:	d8b50023          	sb	a1,-640(a0)
    2214:	0207f513          	andi	a0,a5,32
    2218:	00050863          	beqz	a0,2228 <game_over+0xfc>
    221c:	1306a503          	lw	a0,304(a3)
    2220:	00e50533          	add	a0,a0,a4
    2224:	ecb50023          	sb	a1,-320(a0)
    2228:	0407f793          	andi	a5,a5,64
    222c:	00078863          	beqz	a5,223c <game_over+0x110>
    2230:	1306a783          	lw	a5,304(a3)
    2234:	00e787b3          	add	a5,a5,a4
    2238:	00b78023          	sb	a1,0(a5)
    223c:	00160613          	addi	a2,a2,1
    2240:	00170713          	addi	a4,a4,1
    2244:	f6c894e3          	bne	a7,a2,21ac <game_over+0x80>
    2248:	00830313          	addi	t1,t1,8
    224c:	001e0e13          	addi	t3,t3,1
    2250:	f3e31ce3          	bne	t1,t5,2188 <game_over+0x5c>
    2254:	00006e37          	lui	t3,0x6
    2258:	0000aeb7          	lui	t4,0xa
    225c:	820e0e13          	addi	t3,t3,-2016 # 5820 <font5x7+0x280>
    2260:	d80e8e93          	addi	t4,t4,-640 # 9d80 <__global_pointer+0x4450>
    2264:	08c00313          	li	t1,140
    2268:	00900f93          	li	t6,9
    226c:	fe000593          	li	a1,-32
    2270:	01900293          	li	t0,25
    2274:	0b400f13          	li	t5,180
    2278:	000e4783          	lbu	a5,0(t3)
    227c:	fd078713          	addi	a4,a5,-48
    2280:	0ff77613          	zext.b	a2,a4
    2284:	32cfec63          	bltu	t6,a2,25bc <game_over+0x490>
    2288:	00271613          	slli	a2,a4,0x2
    228c:	00e60633          	add	a2,a2,a4
    2290:	00c80633          	add	a2,a6,a2
    2294:	00560893          	addi	a7,a2,5
    2298:	01d30733          	add	a4,t1,t4
    229c:	00064783          	lbu	a5,0(a2)
    22a0:	0017f513          	andi	a0,a5,1
    22a4:	00050863          	beqz	a0,22b4 <game_over+0x188>
    22a8:	1306a503          	lw	a0,304(a3)
    22ac:	00e50533          	add	a0,a0,a4
    22b0:	88b50023          	sb	a1,-1920(a0)
    22b4:	0027f513          	andi	a0,a5,2
    22b8:	00050863          	beqz	a0,22c8 <game_over+0x19c>
    22bc:	1306a503          	lw	a0,304(a3)
    22c0:	00e50533          	add	a0,a0,a4
    22c4:	9cb50023          	sb	a1,-1600(a0)
    22c8:	0047f513          	andi	a0,a5,4
    22cc:	00050863          	beqz	a0,22dc <game_over+0x1b0>
    22d0:	1306a503          	lw	a0,304(a3)
    22d4:	00e50533          	add	a0,a0,a4
    22d8:	b0b50023          	sb	a1,-1280(a0)
    22dc:	0087f513          	andi	a0,a5,8
    22e0:	00050863          	beqz	a0,22f0 <game_over+0x1c4>
    22e4:	1306a503          	lw	a0,304(a3)
    22e8:	00e50533          	add	a0,a0,a4
    22ec:	c4b50023          	sb	a1,-960(a0)
    22f0:	0107f513          	andi	a0,a5,16
    22f4:	00050863          	beqz	a0,2304 <game_over+0x1d8>
    22f8:	1306a503          	lw	a0,304(a3)
    22fc:	00e50533          	add	a0,a0,a4
    2300:	d8b50023          	sb	a1,-640(a0)
    2304:	0207f513          	andi	a0,a5,32
    2308:	00050863          	beqz	a0,2318 <game_over+0x1ec>
    230c:	1306a503          	lw	a0,304(a3)
    2310:	00e50533          	add	a0,a0,a4
    2314:	ecb50023          	sb	a1,-320(a0)
    2318:	0407f793          	andi	a5,a5,64
    231c:	00078863          	beqz	a5,232c <game_over+0x200>
    2320:	1306a783          	lw	a5,304(a3)
    2324:	00e787b3          	add	a5,a5,a4
    2328:	00b78023          	sb	a1,0(a5)
    232c:	00160613          	addi	a2,a2,1
    2330:	00170713          	addi	a4,a4,1
    2334:	f71614e3          	bne	a2,a7,229c <game_over+0x170>
    2338:	00830313          	addi	t1,t1,8
    233c:	001e0e13          	addi	t3,t3,1
    2340:	f3e31ce3          	bne	t1,t5,2278 <game_over+0x14c>
    2344:	000057b7          	lui	a5,0x5
    2348:	2a07a883          	lw	a7,672(a5) # 52a0 <score>
    234c:	14f8b537          	lui	a0,0x14f8b
    2350:	58950513          	addi	a0,a0,1417 # 14f8b589 <_stack_end+0x14e85d59>
    2354:	02a89533          	mulh	a0,a7,a0
    2358:	41f8df93          	srai	t6,a7,0x1f
    235c:	666667b7          	lui	a5,0x66666
    2360:	66778793          	addi	a5,a5,1639 # 66666667 <_stack_end+0x66560e37>
    2364:	68db95b7          	lui	a1,0x68db9
    2368:	bad58593          	addi	a1,a1,-1107 # 68db8bad <_stack_end+0x68cb337d>
    236c:	10625637          	lui	a2,0x10625
    2370:	dd360613          	addi	a2,a2,-557 # 10624dd3 <_stack_end+0x1051f5a3>
    2374:	51eb8737          	lui	a4,0x51eb8
    2378:	51f70713          	addi	a4,a4,1311 # 51eb851f <_stack_end+0x51db2cef>
    237c:	40d55513          	srai	a0,a0,0xd
    2380:	41f50533          	sub	a0,a0,t6
    2384:	02f51f33          	mulh	t5,a0,a5
    2388:	41f55493          	srai	s1,a0,0x1f
    238c:	00810313          	addi	t1,sp,8
    2390:	00000e13          	li	t3,0
    2394:	08800e93          	li	t4,136
    2398:	02b895b3          	mulh	a1,a7,a1
    239c:	402f5f13          	srai	t5,t5,0x2
    23a0:	409f0f33          	sub	t5,t5,s1
    23a4:	002f1493          	slli	s1,t5,0x2
    23a8:	01e48f33          	add	t5,s1,t5
    23ac:	001f1f13          	slli	t5,t5,0x1
    23b0:	41e50533          	sub	a0,a0,t5
    23b4:	00a12423          	sw	a0,8(sp)
    23b8:	40c5d593          	srai	a1,a1,0xc
    23bc:	41f585b3          	sub	a1,a1,t6
    23c0:	02f59533          	mulh	a0,a1,a5
    23c4:	41f5d413          	srai	s0,a1,0x1f
    23c8:	40255513          	srai	a0,a0,0x2
    23cc:	40850533          	sub	a0,a0,s0
    23d0:	00251f13          	slli	t5,a0,0x2
    23d4:	02c89633          	mulh	a2,a7,a2
    23d8:	00af0533          	add	a0,t5,a0
    23dc:	00151513          	slli	a0,a0,0x1
    23e0:	40a585b3          	sub	a1,a1,a0
    23e4:	00b12623          	sw	a1,12(sp)
    23e8:	02f89533          	mulh	a0,a7,a5
    23ec:	40665613          	srai	a2,a2,0x6
    23f0:	41f60633          	sub	a2,a2,t6
    23f4:	41f65393          	srai	t2,a2,0x1f
    23f8:	02e89733          	mulh	a4,a7,a4
    23fc:	40255513          	srai	a0,a0,0x2
    2400:	41f50533          	sub	a0,a0,t6
    2404:	00251593          	slli	a1,a0,0x2
    2408:	00a585b3          	add	a1,a1,a0
    240c:	00159593          	slli	a1,a1,0x1
    2410:	40b885b3          	sub	a1,a7,a1
    2414:	00b12e23          	sw	a1,28(sp)
    2418:	02f61f33          	mulh	t5,a2,a5
    241c:	40575713          	srai	a4,a4,0x5
    2420:	41f70733          	sub	a4,a4,t6
    2424:	41f75293          	srai	t0,a4,0x1f
    2428:	41f55f93          	srai	t6,a0,0x1f
    242c:	02f715b3          	mulh	a1,a4,a5
    2430:	402f5893          	srai	a7,t5,0x2
    2434:	407888b3          	sub	a7,a7,t2
    2438:	00289f13          	slli	t5,a7,0x2
    243c:	011f08b3          	add	a7,t5,a7
    2440:	00189893          	slli	a7,a7,0x1
    2444:	41160633          	sub	a2,a2,a7
    2448:	00c12823          	sw	a2,16(sp)
    244c:	02f517b3          	mulh	a5,a0,a5
    2450:	4025d613          	srai	a2,a1,0x2
    2454:	40560633          	sub	a2,a2,t0
    2458:	00261593          	slli	a1,a2,0x2
    245c:	00c58633          	add	a2,a1,a2
    2460:	00161613          	slli	a2,a2,0x1
    2464:	40c70733          	sub	a4,a4,a2
    2468:	00e12a23          	sw	a4,20(sp)
    246c:	4027d793          	srai	a5,a5,0x2
    2470:	41f787b3          	sub	a5,a5,t6
    2474:	00279713          	slli	a4,a5,0x2
    2478:	00f707b3          	add	a5,a4,a5
    247c:	00179793          	slli	a5,a5,0x1
    2480:	40f507b3          	sub	a5,a0,a5
    2484:	00f12c23          	sw	a5,24(sp)
    2488:	00032783          	lw	a5,0(t1)
    248c:	ffbe0713          	addi	a4,t3,-5
    2490:	02079063          	bnez	a5,24b0 <game_over+0x384>
    2494:	00070e63          	beqz	a4,24b0 <game_over+0x384>
    2498:	00432783          	lw	a5,4(t1)
    249c:	001e0e13          	addi	t3,t3,1
    24a0:	00430313          	addi	t1,t1,4
    24a4:	008e8e93          	addi	t4,t4,8
    24a8:	ffbe0713          	addi	a4,t3,-5
    24ac:	fe0784e3          	beqz	a5,2494 <game_over+0x368>
    24b0:	0000bf37          	lui	t5,0xb
    24b4:	a00f0f13          	addi	t5,t5,-1536 # aa00 <__global_pointer+0x50d0>
    24b8:	00900293          	li	t0,9
    24bc:	fe000593          	li	a1,-32
    24c0:	00600f93          	li	t6,6
    24c4:	00034703          	lbu	a4,0(t1)
    24c8:	03070793          	addi	a5,a4,48
    24cc:	0ff7f793          	zext.b	a5,a5
    24d0:	10e2e663          	bltu	t0,a4,25dc <game_over+0x4b0>
    24d4:	fd078793          	addi	a5,a5,-48
    24d8:	00279613          	slli	a2,a5,0x2
    24dc:	00f60633          	add	a2,a2,a5
    24e0:	00c80633          	add	a2,a6,a2
    24e4:	00560893          	addi	a7,a2,5
    24e8:	01ee8733          	add	a4,t4,t5
    24ec:	00064783          	lbu	a5,0(a2)
    24f0:	0017f513          	andi	a0,a5,1
    24f4:	00050863          	beqz	a0,2504 <game_over+0x3d8>
    24f8:	1306a503          	lw	a0,304(a3)
    24fc:	00e50533          	add	a0,a0,a4
    2500:	88b50023          	sb	a1,-1920(a0)
    2504:	0027f513          	andi	a0,a5,2
    2508:	00050863          	beqz	a0,2518 <game_over+0x3ec>
    250c:	1306a503          	lw	a0,304(a3)
    2510:	00e50533          	add	a0,a0,a4
    2514:	9cb50023          	sb	a1,-1600(a0)
    2518:	0047f513          	andi	a0,a5,4
    251c:	00050863          	beqz	a0,252c <game_over+0x400>
    2520:	1306a503          	lw	a0,304(a3)
    2524:	00e50533          	add	a0,a0,a4
    2528:	b0b50023          	sb	a1,-1280(a0)
    252c:	0087f513          	andi	a0,a5,8
    2530:	00050863          	beqz	a0,2540 <game_over+0x414>
    2534:	1306a503          	lw	a0,304(a3)
    2538:	00e50533          	add	a0,a0,a4
    253c:	c4b50023          	sb	a1,-960(a0)
    2540:	0107f513          	andi	a0,a5,16
    2544:	00050863          	beqz	a0,2554 <game_over+0x428>
    2548:	1306a503          	lw	a0,304(a3)
    254c:	00e50533          	add	a0,a0,a4
    2550:	d8b50023          	sb	a1,-640(a0)
    2554:	0207f513          	andi	a0,a5,32
    2558:	00050863          	beqz	a0,2568 <game_over+0x43c>
    255c:	1306a503          	lw	a0,304(a3)
    2560:	00e50533          	add	a0,a0,a4
    2564:	ecb50023          	sb	a1,-320(a0)
    2568:	0407f793          	andi	a5,a5,64
    256c:	00078863          	beqz	a5,257c <game_over+0x450>
    2570:	1306a783          	lw	a5,304(a3)
    2574:	00e787b3          	add	a5,a5,a4
    2578:	00b78023          	sb	a1,0(a5)
    257c:	00160613          	addi	a2,a2,1
    2580:	00170713          	addi	a4,a4,1
    2584:	f71614e3          	bne	a2,a7,24ec <game_over+0x3c0>
    2588:	001e0e13          	addi	t3,t3,1
    258c:	00430313          	addi	t1,t1,4
    2590:	008e8e93          	addi	t4,t4,8
    2594:	f3fe18e3          	bne	t3,t6,24c4 <game_over+0x398>
    2598:	0000006f          	j	2598 <game_over+0x46c>
    259c:	fbf78713          	addi	a4,a5,-65
    25a0:	0ff77713          	zext.b	a4,a4
    25a4:	cae2e2e3          	bltu	t0,a4,2248 <game_over+0x11c>
    25a8:	fc978793          	addi	a5,a5,-55
    25ac:	00279613          	slli	a2,a5,0x2
    25b0:	00f60633          	add	a2,a2,a5
    25b4:	00c80633          	add	a2,a6,a2
    25b8:	bedff06f          	j	21a4 <game_over+0x78>
    25bc:	fbf78713          	addi	a4,a5,-65
    25c0:	0ff77713          	zext.b	a4,a4
    25c4:	d6e2eae3          	bltu	t0,a4,2338 <game_over+0x20c>
    25c8:	fc978793          	addi	a5,a5,-55
    25cc:	00279613          	slli	a2,a5,0x2
    25d0:	00f60633          	add	a2,a2,a5
    25d4:	00c80633          	add	a2,a6,a2
    25d8:	cbdff06f          	j	2294 <game_over+0x168>
    25dc:	fef70713          	addi	a4,a4,-17
    25e0:	0ff77713          	zext.b	a4,a4
    25e4:	01900613          	li	a2,25
    25e8:	fae660e3          	bltu	a2,a4,2588 <game_over+0x45c>
    25ec:	fc978793          	addi	a5,a5,-55
    25f0:	00279613          	slli	a2,a5,0x2
    25f4:	00f60633          	add	a2,a2,a5
    25f8:	00c80633          	add	a2,a6,a2
    25fc:	ee9ff06f          	j	24e4 <game_over+0x3b8>

00002600 <spawn_next>:
    2600:	fb010113          	addi	sp,sp,-80
    2604:	000057b7          	lui	a5,0x5
    2608:	13478793          	addi	a5,a5,308 # 5134 <grid>
    260c:	04812423          	sw	s0,72(sp)
    2610:	04912223          	sw	s1,68(sp)
    2614:	05212023          	sw	s2,64(sp)
    2618:	03312e23          	sw	s3,60(sp)
    261c:	03412c23          	sw	s4,56(sp)
    2620:	03512a23          	sw	s5,52(sp)
    2624:	03612823          	sw	s6,48(sp)
    2628:	03712623          	sw	s7,44(sp)
    262c:	03812423          	sw	s8,40(sp)
    2630:	03912223          	sw	s9,36(sp)
    2634:	03a12023          	sw	s10,32(sp)
    2638:	01b12e23          	sw	s11,28(sp)
    263c:	04112623          	sw	ra,76(sp)
    2640:	1247c703          	lbu	a4,292(a5)
    2644:	1187c603          	lbu	a2,280(a5)
    2648:	00005437          	lui	s0,0x5
    264c:	0ce78a23          	sb	a4,212(a5)
    2650:	00300713          	li	a4,3
    2654:	0cc78423          	sb	a2,200(a5)
    2658:	0ce7a623          	sw	a4,204(a5)
    265c:	1287a683          	lw	a3,296(a5)
    2660:	12c7a503          	lw	a0,300(a5)
    2664:	1307a583          	lw	a1,304(a5)
    2668:	1347a603          	lw	a2,308(a5)
    266c:	1387a303          	lw	t1,312(a5)
    2670:	13c7a883          	lw	a7,316(a5)
    2674:	1407a803          	lw	a6,320(a5)
    2678:	1447af03          	lw	t5,324(a5)
    267c:	1487ae83          	lw	t4,328(a5)
    2680:	14c7ae03          	lw	t3,332(a5)
    2684:	1507a383          	lw	t2,336(a5)
    2688:	1547a283          	lw	t0,340(a5)
    268c:	1587af83          	lw	t6,344(a5)
    2690:	0c07a823          	sw	zero,208(a5)
    2694:	29c42483          	lw	s1,668(s0) # 529c <seed>
    2698:	24925a37          	lui	s4,0x24925
    269c:	925a0a13          	addi	s4,s4,-1755 # 24924925 <_stack_end+0x2481f0f5>
    26a0:	00249713          	slli	a4,s1,0x2
    26a4:	00970733          	add	a4,a4,s1
    26a8:	00471993          	slli	s3,a4,0x4
    26ac:	40e989b3          	sub	s3,s3,a4
    26b0:	0b398993          	addi	s3,s3,179
    26b4:	03f9f993          	andi	s3,s3,63
    26b8:	29342e23          	sw	s3,668(s0)
    26bc:	0ff9f993          	zext.b	s3,s3
    26c0:	0349ba33          	mulhu	s4,s3,s4
    26c4:	00005737          	lui	a4,0x5
    26c8:	f0070713          	addi	a4,a4,-256 # 4f00 <pieces>
    26cc:	15c7a903          	lw	s2,348(a5)
    26d0:	1607a483          	lw	s1,352(a5)
    26d4:	1647a403          	lw	s0,356(a5)
    26d8:	0ca7ae23          	sw	a0,220(a5)
    26dc:	0eb7a023          	sw	a1,224(a5)
    26e0:	0ec7a223          	sw	a2,228(a5)
    26e4:	0e67a423          	sw	t1,232(a5)
    26e8:	41498ab3          	sub	s5,s3,s4
    26ec:	001ada93          	srli	s5,s5,0x1
    26f0:	015a0a33          	add	s4,s4,s5
    26f4:	002a5a13          	srli	s4,s4,0x2
    26f8:	003a1a93          	slli	s5,s4,0x3
    26fc:	414a8a33          	sub	s4,s5,s4
    2700:	414989b3          	sub	s3,s3,s4
    2704:	0ff9fa13          	zext.b	s4,s3
    2708:	002a1993          	slli	s3,s4,0x2
    270c:	014989b3          	add	s3,s3,s4
    2710:	00499993          	slli	s3,s3,0x4
    2714:	01370a33          	add	s4,a4,s3
    2718:	000a4a83          	lbu	s5,0(s4)
    271c:	00ca4a03          	lbu	s4,12(s4)
    2720:	01098993          	addi	s3,s3,16
    2724:	01370733          	add	a4,a4,s3
    2728:	0f17a623          	sw	a7,236(a5)
    272c:	0f07a823          	sw	a6,240(a5)
    2730:	0fe7aa23          	sw	t5,244(a5)
    2734:	0fd7ac23          	sw	t4,248(a5)
    2738:	0fc7ae23          	sw	t3,252(a5)
    273c:	1077a023          	sw	t2,256(a5)
    2740:	1057a223          	sw	t0,260(a5)
    2744:	11f7a423          	sw	t6,264(a5)
    2748:	1127a623          	sw	s2,268(a5)
    274c:	1097a823          	sw	s1,272(a5)
    2750:	1087aa23          	sw	s0,276(a5)
    2754:	0cd7ac23          	sw	a3,216(a5)
    2758:	13478223          	sb	s4,292(a5)
    275c:	11578c23          	sb	s5,280(a5)
    2760:	00072b03          	lw	s6,0(a4)
    2764:	00c72983          	lw	s3,12(a4)
    2768:	00472a83          	lw	s5,4(a4)
    276c:	00872a03          	lw	s4,8(a4)
    2770:	01072d83          	lw	s11,16(a4)
    2774:	1367a423          	sw	s6,296(a5)
    2778:	01472d03          	lw	s10,20(a4)
    277c:	1357a623          	sw	s5,300(a5)
    2780:	01872c83          	lw	s9,24(a4)
    2784:	01c72c03          	lw	s8,28(a4)
    2788:	1337aa23          	sw	s3,308(a5)
    278c:	03072983          	lw	s3,48(a4)
    2790:	1347a823          	sw	s4,304(a5)
    2794:	02c72a03          	lw	s4,44(a4)
    2798:	01312423          	sw	s3,8(sp)
    279c:	03472983          	lw	s3,52(a4)
    27a0:	02072b83          	lw	s7,32(a4)
    27a4:	02472b03          	lw	s6,36(a4)
    27a8:	02872a83          	lw	s5,40(a4)
    27ac:	01312623          	sw	s3,12(sp)
    27b0:	03872983          	lw	s3,56(a4)
    27b4:	03c72703          	lw	a4,60(a4)
    27b8:	1547aa23          	sw	s4,340(a5)
    27bc:	00812a03          	lw	s4,8(sp)
    27c0:	13b7ac23          	sw	s11,312(a5)
    27c4:	13a7ae23          	sw	s10,316(a5)
    27c8:	1547ac23          	sw	s4,344(a5)
    27cc:	00c12a03          	lw	s4,12(sp)
    27d0:	1597a023          	sw	s9,320(a5)
    27d4:	1587a223          	sw	s8,324(a5)
    27d8:	1577a423          	sw	s7,328(a5)
    27dc:	1567a623          	sw	s6,332(a5)
    27e0:	1557a823          	sw	s5,336(a5)
    27e4:	1547ae23          	sw	s4,348(a5)
    27e8:	1737a023          	sw	s3,352(a5)
    27ec:	16e7a223          	sw	a4,356(a5)
    27f0:	00068663          	beqz	a3,27fc <spawn_next+0x1fc>
    27f4:	0037c703          	lbu	a4,3(a5)
    27f8:	0e071a63          	bnez	a4,28ec <spawn_next+0x2ec>
    27fc:	00050663          	beqz	a0,2808 <spawn_next+0x208>
    2800:	0047c703          	lbu	a4,4(a5)
    2804:	0e071463          	bnez	a4,28ec <spawn_next+0x2ec>
    2808:	00058663          	beqz	a1,2814 <spawn_next+0x214>
    280c:	0057c703          	lbu	a4,5(a5)
    2810:	0c071e63          	bnez	a4,28ec <spawn_next+0x2ec>
    2814:	00060663          	beqz	a2,2820 <spawn_next+0x220>
    2818:	0067c703          	lbu	a4,6(a5)
    281c:	0c071863          	bnez	a4,28ec <spawn_next+0x2ec>
    2820:	00030663          	beqz	t1,282c <spawn_next+0x22c>
    2824:	00d7c703          	lbu	a4,13(a5)
    2828:	0c071263          	bnez	a4,28ec <spawn_next+0x2ec>
    282c:	00088663          	beqz	a7,2838 <spawn_next+0x238>
    2830:	00e7c703          	lbu	a4,14(a5)
    2834:	0a071c63          	bnez	a4,28ec <spawn_next+0x2ec>
    2838:	00080663          	beqz	a6,2844 <spawn_next+0x244>
    283c:	00f7c703          	lbu	a4,15(a5)
    2840:	0a071663          	bnez	a4,28ec <spawn_next+0x2ec>
    2844:	000f0663          	beqz	t5,2850 <spawn_next+0x250>
    2848:	0107c703          	lbu	a4,16(a5)
    284c:	0a071063          	bnez	a4,28ec <spawn_next+0x2ec>
    2850:	000e8663          	beqz	t4,285c <spawn_next+0x25c>
    2854:	0177c703          	lbu	a4,23(a5)
    2858:	08071a63          	bnez	a4,28ec <spawn_next+0x2ec>
    285c:	000e0663          	beqz	t3,2868 <spawn_next+0x268>
    2860:	0187c703          	lbu	a4,24(a5)
    2864:	08071463          	bnez	a4,28ec <spawn_next+0x2ec>
    2868:	00038663          	beqz	t2,2874 <spawn_next+0x274>
    286c:	0197c703          	lbu	a4,25(a5)
    2870:	06071e63          	bnez	a4,28ec <spawn_next+0x2ec>
    2874:	00028663          	beqz	t0,2880 <spawn_next+0x280>
    2878:	01a7c703          	lbu	a4,26(a5)
    287c:	06071863          	bnez	a4,28ec <spawn_next+0x2ec>
    2880:	000f8663          	beqz	t6,288c <spawn_next+0x28c>
    2884:	0217c703          	lbu	a4,33(a5)
    2888:	06071263          	bnez	a4,28ec <spawn_next+0x2ec>
    288c:	00090663          	beqz	s2,2898 <spawn_next+0x298>
    2890:	0227c703          	lbu	a4,34(a5)
    2894:	04071c63          	bnez	a4,28ec <spawn_next+0x2ec>
    2898:	00048663          	beqz	s1,28a4 <spawn_next+0x2a4>
    289c:	0237c703          	lbu	a4,35(a5)
    28a0:	04071663          	bnez	a4,28ec <spawn_next+0x2ec>
    28a4:	00040663          	beqz	s0,28b0 <spawn_next+0x2b0>
    28a8:	0247c783          	lbu	a5,36(a5)
    28ac:	04079063          	bnez	a5,28ec <spawn_next+0x2ec>
    28b0:	04c12083          	lw	ra,76(sp)
    28b4:	04812403          	lw	s0,72(sp)
    28b8:	04412483          	lw	s1,68(sp)
    28bc:	04012903          	lw	s2,64(sp)
    28c0:	03c12983          	lw	s3,60(sp)
    28c4:	03812a03          	lw	s4,56(sp)
    28c8:	03412a83          	lw	s5,52(sp)
    28cc:	03012b03          	lw	s6,48(sp)
    28d0:	02c12b83          	lw	s7,44(sp)
    28d4:	02812c03          	lw	s8,40(sp)
    28d8:	02412c83          	lw	s9,36(sp)
    28dc:	02012d03          	lw	s10,32(sp)
    28e0:	01c12d83          	lw	s11,28(sp)
    28e4:	05010113          	addi	sp,sp,80
    28e8:	00008067          	ret
    28ec:	841ff0ef          	jal	212c <game_over>

000028f0 <start>:
    28f0:	00013637          	lui	a2,0x13
    28f4:	c0060613          	addi	a2,a2,-1024 # 12c00 <__global_pointer+0xd2d0>
    28f8:	00000793          	li	a5,0
    28fc:	000056b7          	lui	a3,0x5
    2900:	1306a703          	lw	a4,304(a3) # 5130 <VGA>
    2904:	00f70733          	add	a4,a4,a5
    2908:	00070023          	sb	zero,0(a4)
    290c:	00178793          	addi	a5,a5,1
    2910:	fec798e3          	bne	a5,a2,2900 <start+0x10>
    2914:	00006337          	lui	t1,0x6
    2918:	00005eb7          	lui	t4,0x5
    291c:	00009e37          	lui	t3,0x9
    2920:	82830313          	addi	t1,t1,-2008 # 5828 <font5x7+0x288>
    2924:	100e0e13          	addi	t3,t3,256 # 9100 <__global_pointer+0x37d0>
    2928:	5a0e8e93          	addi	t4,t4,1440 # 55a0 <font5x7>
    292c:	08800893          	li	a7,136
    2930:	00900f93          	li	t6,9
    2934:	05b00593          	li	a1,91
    2938:	01900293          	li	t0,25
    293c:	0b800f13          	li	t5,184
    2940:	00034783          	lbu	a5,0(t1)
    2944:	fd078713          	addi	a4,a5,-48
    2948:	0ff77613          	zext.b	a2,a4
    294c:	0ecfe263          	bltu	t6,a2,2a30 <start+0x140>
    2950:	00271613          	slli	a2,a4,0x2
    2954:	00e60633          	add	a2,a2,a4
    2958:	00ce8633          	add	a2,t4,a2
    295c:	00560813          	addi	a6,a2,5
    2960:	01c88733          	add	a4,a7,t3
    2964:	00064783          	lbu	a5,0(a2)
    2968:	0017f513          	andi	a0,a5,1
    296c:	00050863          	beqz	a0,297c <start+0x8c>
    2970:	1306a503          	lw	a0,304(a3)
    2974:	00e50533          	add	a0,a0,a4
    2978:	88b50023          	sb	a1,-1920(a0)
    297c:	0027f513          	andi	a0,a5,2
    2980:	00050863          	beqz	a0,2990 <start+0xa0>
    2984:	1306a503          	lw	a0,304(a3)
    2988:	00e50533          	add	a0,a0,a4
    298c:	9cb50023          	sb	a1,-1600(a0)
    2990:	0047f513          	andi	a0,a5,4
    2994:	00050863          	beqz	a0,29a4 <start+0xb4>
    2998:	1306a503          	lw	a0,304(a3)
    299c:	00e50533          	add	a0,a0,a4
    29a0:	b0b50023          	sb	a1,-1280(a0)
    29a4:	0087f513          	andi	a0,a5,8
    29a8:	00050863          	beqz	a0,29b8 <start+0xc8>
    29ac:	1306a503          	lw	a0,304(a3)
    29b0:	00e50533          	add	a0,a0,a4
    29b4:	c4b50023          	sb	a1,-960(a0)
    29b8:	0107f513          	andi	a0,a5,16
    29bc:	00050863          	beqz	a0,29cc <start+0xdc>
    29c0:	1306a503          	lw	a0,304(a3)
    29c4:	00e50533          	add	a0,a0,a4
    29c8:	d8b50023          	sb	a1,-640(a0)
    29cc:	0207f513          	andi	a0,a5,32
    29d0:	00050863          	beqz	a0,29e0 <start+0xf0>
    29d4:	1306a503          	lw	a0,304(a3)
    29d8:	00e50533          	add	a0,a0,a4
    29dc:	ecb50023          	sb	a1,-320(a0)
    29e0:	0407f793          	andi	a5,a5,64
    29e4:	00078863          	beqz	a5,29f4 <start+0x104>
    29e8:	1306a783          	lw	a5,304(a3)
    29ec:	00e787b3          	add	a5,a5,a4
    29f0:	00b78023          	sb	a1,0(a5)
    29f4:	00160613          	addi	a2,a2,1
    29f8:	00170713          	addi	a4,a4,1
    29fc:	f70614e3          	bne	a2,a6,2964 <start+0x74>
    2a00:	00888893          	addi	a7,a7,8
    2a04:	00130313          	addi	t1,t1,1
    2a08:	f3e89ce3          	bne	a7,t5,2940 <start+0x50>
    2a0c:	00013637          	lui	a2,0x13
    2a10:	c0060613          	addi	a2,a2,-1024 # 12c00 <__global_pointer+0xd2d0>
    2a14:	00000793          	li	a5,0
    2a18:	1306a703          	lw	a4,304(a3)
    2a1c:	00f70733          	add	a4,a4,a5
    2a20:	00070023          	sb	zero,0(a4)
    2a24:	00178793          	addi	a5,a5,1
    2a28:	fec798e3          	bne	a5,a2,2a18 <start+0x128>
    2a2c:	00008067          	ret
    2a30:	fbf78713          	addi	a4,a5,-65
    2a34:	0ff77713          	zext.b	a4,a4
    2a38:	fce2e4e3          	bltu	t0,a4,2a00 <start+0x110>
    2a3c:	fc978793          	addi	a5,a5,-55
    2a40:	00279613          	slli	a2,a5,0x2
    2a44:	00f60633          	add	a2,a2,a5
    2a48:	00ce8633          	add	a2,t4,a2
    2a4c:	f11ff06f          	j	295c <start+0x6c>

00002a50 <update_shape>:
    2a50:	fe010113          	addi	sp,sp,-32
    2a54:	00812c23          	sw	s0,24(sp)
    2a58:	00112e23          	sw	ra,28(sp)
    2a5c:	00050413          	mv	s0,a0
    2a60:	0e058463          	beqz	a1,2b48 <update_shape+0xf8>
    2a64:	00100793          	li	a5,1
    2a68:	00058693          	mv	a3,a1
    2a6c:	3cf58e63          	beq	a1,a5,2e48 <update_shape+0x3f8>
    2a70:	01050793          	addi	a5,a0,16
    2a74:	00000713          	li	a4,0
    2a78:	00200813          	li	a6,2
    2a7c:	00400893          	li	a7,4
    2a80:	0007a603          	lw	a2,0(a5)
    2a84:	02060263          	beqz	a2,2aa8 <update_shape+0x58>
    2a88:	00842503          	lw	a0,8(s0)
    2a8c:	00442583          	lw	a1,4(s0)
    2a90:	00a70533          	add	a0,a4,a0
    2a94:	01453613          	sltiu	a2,a0,20
    2a98:	00060863          	beqz	a2,2aa8 <update_shape+0x58>
    2a9c:	00a5b613          	sltiu	a2,a1,10
    2aa0:	00060463          	beqz	a2,2aa8 <update_shape+0x58>
    2aa4:	2d068063          	beq	a3,a6,2d64 <update_shape+0x314>
    2aa8:	0047a603          	lw	a2,4(a5)
    2aac:	02060463          	beqz	a2,2ad4 <update_shape+0x84>
    2ab0:	00442583          	lw	a1,4(s0)
    2ab4:	00842503          	lw	a0,8(s0)
    2ab8:	00158593          	addi	a1,a1,1
    2abc:	00a5b613          	sltiu	a2,a1,10
    2ac0:	00a70533          	add	a0,a4,a0
    2ac4:	00060863          	beqz	a2,2ad4 <update_shape+0x84>
    2ac8:	01453613          	sltiu	a2,a0,20
    2acc:	00060463          	beqz	a2,2ad4 <update_shape+0x84>
    2ad0:	2f068063          	beq	a3,a6,2db0 <update_shape+0x360>
    2ad4:	0087a603          	lw	a2,8(a5)
    2ad8:	02060463          	beqz	a2,2b00 <update_shape+0xb0>
    2adc:	00442583          	lw	a1,4(s0)
    2ae0:	00842503          	lw	a0,8(s0)
    2ae4:	00258593          	addi	a1,a1,2
    2ae8:	00a5b613          	sltiu	a2,a1,10
    2aec:	00a70533          	add	a0,a4,a0
    2af0:	00060863          	beqz	a2,2b00 <update_shape+0xb0>
    2af4:	01453613          	sltiu	a2,a0,20
    2af8:	00060463          	beqz	a2,2b00 <update_shape+0xb0>
    2afc:	31068063          	beq	a3,a6,2dfc <update_shape+0x3ac>
    2b00:	00c7a603          	lw	a2,12(a5)
    2b04:	02060463          	beqz	a2,2b2c <update_shape+0xdc>
    2b08:	00442583          	lw	a1,4(s0)
    2b0c:	00842503          	lw	a0,8(s0)
    2b10:	00358593          	addi	a1,a1,3
    2b14:	00a5b613          	sltiu	a2,a1,10
    2b18:	00a70533          	add	a0,a4,a0
    2b1c:	00060863          	beqz	a2,2b2c <update_shape+0xdc>
    2b20:	01453613          	sltiu	a2,a0,20
    2b24:	00060463          	beqz	a2,2b2c <update_shape+0xdc>
    2b28:	1f068263          	beq	a3,a6,2d0c <update_shape+0x2bc>
    2b2c:	00170713          	addi	a4,a4,1
    2b30:	01078793          	addi	a5,a5,16
    2b34:	f51716e3          	bne	a4,a7,2a80 <update_shape+0x30>
    2b38:	01c12083          	lw	ra,28(sp)
    2b3c:	01812403          	lw	s0,24(sp)
    2b40:	02010113          	addi	sp,sp,32
    2b44:	00008067          	ret
    2b48:	00005837          	lui	a6,0x5
    2b4c:	13480813          	addi	a6,a6,308 # 5134 <grid>
    2b50:	01050793          	addi	a5,a0,16
    2b54:	00000713          	li	a4,0
    2b58:	00400893          	li	a7,4
    2b5c:	0007a683          	lw	a3,0(a5)
    2b60:	06068263          	beqz	a3,2bc4 <update_shape+0x174>
    2b64:	00442583          	lw	a1,4(s0)
    2b68:	00842503          	lw	a0,8(s0)
    2b6c:	00a5b693          	sltiu	a3,a1,10
    2b70:	00a70533          	add	a0,a4,a0
    2b74:	04068863          	beqz	a3,2bc4 <update_shape+0x174>
    2b78:	01453693          	sltiu	a3,a0,20
    2b7c:	04068463          	beqz	a3,2bc4 <update_shape+0x174>
    2b80:	00251613          	slli	a2,a0,0x2
    2b84:	00a60633          	add	a2,a2,a0
    2b88:	000056b7          	lui	a3,0x5
    2b8c:	00161613          	slli	a2,a2,0x1
    2b90:	13468693          	addi	a3,a3,308 # 5134 <grid>
    2b94:	00c686b3          	add	a3,a3,a2
    2b98:	00b686b3          	add	a3,a3,a1
    2b9c:	0006c603          	lbu	a2,0(a3)
    2ba0:	00f12423          	sw	a5,8(sp)
    2ba4:	00e12223          	sw	a4,4(sp)
    2ba8:	40061c63          	bnez	a2,2fc0 <update_shape+0x570>
    2bac:	d11fe0ef          	jal	18bc <update_cell>
    2bb0:	000057b7          	lui	a5,0x5
    2bb4:	13478813          	addi	a6,a5,308 # 5134 <grid>
    2bb8:	00412703          	lw	a4,4(sp)
    2bbc:	00812783          	lw	a5,8(sp)
    2bc0:	00400893          	li	a7,4
    2bc4:	0047a683          	lw	a3,4(a5)
    2bc8:	06068063          	beqz	a3,2c28 <update_shape+0x1d8>
    2bcc:	00442583          	lw	a1,4(s0)
    2bd0:	00842503          	lw	a0,8(s0)
    2bd4:	00158593          	addi	a1,a1,1
    2bd8:	00a5b693          	sltiu	a3,a1,10
    2bdc:	00a70533          	add	a0,a4,a0
    2be0:	04068463          	beqz	a3,2c28 <update_shape+0x1d8>
    2be4:	01453693          	sltiu	a3,a0,20
    2be8:	04068063          	beqz	a3,2c28 <update_shape+0x1d8>
    2bec:	00251693          	slli	a3,a0,0x2
    2bf0:	00a686b3          	add	a3,a3,a0
    2bf4:	00169693          	slli	a3,a3,0x1
    2bf8:	00d806b3          	add	a3,a6,a3
    2bfc:	00b686b3          	add	a3,a3,a1
    2c00:	0006c603          	lbu	a2,0(a3)
    2c04:	00f12423          	sw	a5,8(sp)
    2c08:	00e12223          	sw	a4,4(sp)
    2c0c:	36061e63          	bnez	a2,2f88 <update_shape+0x538>
    2c10:	cadfe0ef          	jal	18bc <update_cell>
    2c14:	000057b7          	lui	a5,0x5
    2c18:	13478813          	addi	a6,a5,308 # 5134 <grid>
    2c1c:	00412703          	lw	a4,4(sp)
    2c20:	00812783          	lw	a5,8(sp)
    2c24:	00400893          	li	a7,4
    2c28:	0087a683          	lw	a3,8(a5)
    2c2c:	06068063          	beqz	a3,2c8c <update_shape+0x23c>
    2c30:	00442583          	lw	a1,4(s0)
    2c34:	00842503          	lw	a0,8(s0)
    2c38:	00258593          	addi	a1,a1,2
    2c3c:	00a5b693          	sltiu	a3,a1,10
    2c40:	00a70533          	add	a0,a4,a0
    2c44:	04068463          	beqz	a3,2c8c <update_shape+0x23c>
    2c48:	01453693          	sltiu	a3,a0,20
    2c4c:	04068063          	beqz	a3,2c8c <update_shape+0x23c>
    2c50:	00251693          	slli	a3,a0,0x2
    2c54:	00a686b3          	add	a3,a3,a0
    2c58:	00169693          	slli	a3,a3,0x1
    2c5c:	00d806b3          	add	a3,a6,a3
    2c60:	00b686b3          	add	a3,a3,a1
    2c64:	0006c603          	lbu	a2,0(a3)
    2c68:	00f12423          	sw	a5,8(sp)
    2c6c:	00e12223          	sw	a4,4(sp)
    2c70:	32061a63          	bnez	a2,2fa4 <update_shape+0x554>
    2c74:	c49fe0ef          	jal	18bc <update_cell>
    2c78:	000057b7          	lui	a5,0x5
    2c7c:	13478813          	addi	a6,a5,308 # 5134 <grid>
    2c80:	00412703          	lw	a4,4(sp)
    2c84:	00812783          	lw	a5,8(sp)
    2c88:	00400893          	li	a7,4
    2c8c:	00c7a683          	lw	a3,12(a5)
    2c90:	06068063          	beqz	a3,2cf0 <update_shape+0x2a0>
    2c94:	00442583          	lw	a1,4(s0)
    2c98:	00842503          	lw	a0,8(s0)
    2c9c:	00358593          	addi	a1,a1,3
    2ca0:	00a5b693          	sltiu	a3,a1,10
    2ca4:	00a70533          	add	a0,a4,a0
    2ca8:	04068463          	beqz	a3,2cf0 <update_shape+0x2a0>
    2cac:	01453693          	sltiu	a3,a0,20
    2cb0:	04068063          	beqz	a3,2cf0 <update_shape+0x2a0>
    2cb4:	00251693          	slli	a3,a0,0x2
    2cb8:	00a686b3          	add	a3,a3,a0
    2cbc:	00169693          	slli	a3,a3,0x1
    2cc0:	00d806b3          	add	a3,a6,a3
    2cc4:	00b686b3          	add	a3,a3,a1
    2cc8:	0006c603          	lbu	a2,0(a3)
    2ccc:	00f12423          	sw	a5,8(sp)
    2cd0:	00e12223          	sw	a4,4(sp)
    2cd4:	28061c63          	bnez	a2,2f6c <update_shape+0x51c>
    2cd8:	be5fe0ef          	jal	18bc <update_cell>
    2cdc:	000057b7          	lui	a5,0x5
    2ce0:	13478813          	addi	a6,a5,308 # 5134 <grid>
    2ce4:	00412703          	lw	a4,4(sp)
    2ce8:	00812783          	lw	a5,8(sp)
    2cec:	00400893          	li	a7,4
    2cf0:	00170713          	addi	a4,a4,1
    2cf4:	01078793          	addi	a5,a5,16
    2cf8:	e71712e3          	bne	a4,a7,2b5c <update_shape+0x10c>
    2cfc:	01c12083          	lw	ra,28(sp)
    2d00:	01812403          	lw	s0,24(sp)
    2d04:	02010113          	addi	sp,sp,32
    2d08:	00008067          	ret
    2d0c:	00251e13          	slli	t3,a0,0x2
    2d10:	00ae0e33          	add	t3,t3,a0
    2d14:	00005337          	lui	t1,0x5
    2d18:	00c44603          	lbu	a2,12(s0)
    2d1c:	001e1e13          	slli	t3,t3,0x1
    2d20:	13430313          	addi	t1,t1,308 # 5134 <grid>
    2d24:	01c30333          	add	t1,t1,t3
    2d28:	00b30333          	add	t1,t1,a1
    2d2c:	00d12623          	sw	a3,12(sp)
    2d30:	00f12423          	sw	a5,8(sp)
    2d34:	00e12223          	sw	a4,4(sp)
    2d38:	00c30023          	sb	a2,0(t1)
    2d3c:	b81fe0ef          	jal	18bc <update_cell>
    2d40:	00412703          	lw	a4,4(sp)
    2d44:	00812783          	lw	a5,8(sp)
    2d48:	00400893          	li	a7,4
    2d4c:	00170713          	addi	a4,a4,1
    2d50:	00c12683          	lw	a3,12(sp)
    2d54:	00200813          	li	a6,2
    2d58:	01078793          	addi	a5,a5,16
    2d5c:	d31712e3          	bne	a4,a7,2a80 <update_shape+0x30>
    2d60:	dd9ff06f          	j	2b38 <update_shape+0xe8>
    2d64:	00251e13          	slli	t3,a0,0x2
    2d68:	00ae0e33          	add	t3,t3,a0
    2d6c:	00005337          	lui	t1,0x5
    2d70:	00c44603          	lbu	a2,12(s0)
    2d74:	001e1e13          	slli	t3,t3,0x1
    2d78:	13430313          	addi	t1,t1,308 # 5134 <grid>
    2d7c:	01c30333          	add	t1,t1,t3
    2d80:	00b30333          	add	t1,t1,a1
    2d84:	00d12623          	sw	a3,12(sp)
    2d88:	00f12423          	sw	a5,8(sp)
    2d8c:	00e12223          	sw	a4,4(sp)
    2d90:	00c30023          	sb	a2,0(t1)
    2d94:	b29fe0ef          	jal	18bc <update_cell>
    2d98:	00c12683          	lw	a3,12(sp)
    2d9c:	00812783          	lw	a5,8(sp)
    2da0:	00412703          	lw	a4,4(sp)
    2da4:	00200813          	li	a6,2
    2da8:	00400893          	li	a7,4
    2dac:	cfdff06f          	j	2aa8 <update_shape+0x58>
    2db0:	00251e13          	slli	t3,a0,0x2
    2db4:	00ae0e33          	add	t3,t3,a0
    2db8:	00005337          	lui	t1,0x5
    2dbc:	00c44603          	lbu	a2,12(s0)
    2dc0:	001e1e13          	slli	t3,t3,0x1
    2dc4:	13430313          	addi	t1,t1,308 # 5134 <grid>
    2dc8:	01c30333          	add	t1,t1,t3
    2dcc:	00b30333          	add	t1,t1,a1
    2dd0:	00d12623          	sw	a3,12(sp)
    2dd4:	00f12423          	sw	a5,8(sp)
    2dd8:	00e12223          	sw	a4,4(sp)
    2ddc:	00c30023          	sb	a2,0(t1)
    2de0:	addfe0ef          	jal	18bc <update_cell>
    2de4:	00c12683          	lw	a3,12(sp)
    2de8:	00812783          	lw	a5,8(sp)
    2dec:	00412703          	lw	a4,4(sp)
    2df0:	00200813          	li	a6,2
    2df4:	00400893          	li	a7,4
    2df8:	cddff06f          	j	2ad4 <update_shape+0x84>
    2dfc:	00251e13          	slli	t3,a0,0x2
    2e00:	00ae0e33          	add	t3,t3,a0
    2e04:	00005337          	lui	t1,0x5
    2e08:	00c44603          	lbu	a2,12(s0)
    2e0c:	001e1e13          	slli	t3,t3,0x1
    2e10:	13430313          	addi	t1,t1,308 # 5134 <grid>
    2e14:	01c30333          	add	t1,t1,t3
    2e18:	00b30333          	add	t1,t1,a1
    2e1c:	00d12623          	sw	a3,12(sp)
    2e20:	00f12423          	sw	a5,8(sp)
    2e24:	00e12223          	sw	a4,4(sp)
    2e28:	00c30023          	sb	a2,0(t1)
    2e2c:	a91fe0ef          	jal	18bc <update_cell>
    2e30:	00c12683          	lw	a3,12(sp)
    2e34:	00812783          	lw	a5,8(sp)
    2e38:	00412703          	lw	a4,4(sp)
    2e3c:	00200813          	li	a6,2
    2e40:	00400893          	li	a7,4
    2e44:	cbdff06f          	j	2b00 <update_shape+0xb0>
    2e48:	01050793          	addi	a5,a0,16
    2e4c:	00000713          	li	a4,0
    2e50:	0007a683          	lw	a3,0(a5)
    2e54:	02068c63          	beqz	a3,2e8c <update_shape+0x43c>
    2e58:	00442583          	lw	a1,4(s0)
    2e5c:	00842503          	lw	a0,8(s0)
    2e60:	00a5b693          	sltiu	a3,a1,10
    2e64:	00a70533          	add	a0,a4,a0
    2e68:	02068263          	beqz	a3,2e8c <update_shape+0x43c>
    2e6c:	01453693          	sltiu	a3,a0,20
    2e70:	00068e63          	beqz	a3,2e8c <update_shape+0x43c>
    2e74:	00c44603          	lbu	a2,12(s0)
    2e78:	00f12423          	sw	a5,8(sp)
    2e7c:	00e12223          	sw	a4,4(sp)
    2e80:	a3dfe0ef          	jal	18bc <update_cell>
    2e84:	00812783          	lw	a5,8(sp)
    2e88:	00412703          	lw	a4,4(sp)
    2e8c:	0047a683          	lw	a3,4(a5)
    2e90:	02068e63          	beqz	a3,2ecc <update_shape+0x47c>
    2e94:	00442583          	lw	a1,4(s0)
    2e98:	00842503          	lw	a0,8(s0)
    2e9c:	00158593          	addi	a1,a1,1
    2ea0:	00a5b693          	sltiu	a3,a1,10
    2ea4:	00a70533          	add	a0,a4,a0
    2ea8:	02068263          	beqz	a3,2ecc <update_shape+0x47c>
    2eac:	01453693          	sltiu	a3,a0,20
    2eb0:	00068e63          	beqz	a3,2ecc <update_shape+0x47c>
    2eb4:	00c44603          	lbu	a2,12(s0)
    2eb8:	00f12423          	sw	a5,8(sp)
    2ebc:	00e12223          	sw	a4,4(sp)
    2ec0:	9fdfe0ef          	jal	18bc <update_cell>
    2ec4:	00812783          	lw	a5,8(sp)
    2ec8:	00412703          	lw	a4,4(sp)
    2ecc:	0087a683          	lw	a3,8(a5)
    2ed0:	02068e63          	beqz	a3,2f0c <update_shape+0x4bc>
    2ed4:	00442583          	lw	a1,4(s0)
    2ed8:	00842503          	lw	a0,8(s0)
    2edc:	00258593          	addi	a1,a1,2
    2ee0:	00a5b693          	sltiu	a3,a1,10
    2ee4:	00a70533          	add	a0,a4,a0
    2ee8:	02068263          	beqz	a3,2f0c <update_shape+0x4bc>
    2eec:	01453693          	sltiu	a3,a0,20
    2ef0:	00068e63          	beqz	a3,2f0c <update_shape+0x4bc>
    2ef4:	00c44603          	lbu	a2,12(s0)
    2ef8:	00f12423          	sw	a5,8(sp)
    2efc:	00e12223          	sw	a4,4(sp)
    2f00:	9bdfe0ef          	jal	18bc <update_cell>
    2f04:	00812783          	lw	a5,8(sp)
    2f08:	00412703          	lw	a4,4(sp)
    2f0c:	00c7a683          	lw	a3,12(a5)
    2f10:	02068e63          	beqz	a3,2f4c <update_shape+0x4fc>
    2f14:	00442583          	lw	a1,4(s0)
    2f18:	00842503          	lw	a0,8(s0)
    2f1c:	00358593          	addi	a1,a1,3
    2f20:	00a5b693          	sltiu	a3,a1,10
    2f24:	00a70533          	add	a0,a4,a0
    2f28:	02068263          	beqz	a3,2f4c <update_shape+0x4fc>
    2f2c:	01453693          	sltiu	a3,a0,20
    2f30:	00068e63          	beqz	a3,2f4c <update_shape+0x4fc>
    2f34:	00c44603          	lbu	a2,12(s0)
    2f38:	00f12423          	sw	a5,8(sp)
    2f3c:	00e12223          	sw	a4,4(sp)
    2f40:	97dfe0ef          	jal	18bc <update_cell>
    2f44:	00812783          	lw	a5,8(sp)
    2f48:	00412703          	lw	a4,4(sp)
    2f4c:	00170713          	addi	a4,a4,1
    2f50:	00400693          	li	a3,4
    2f54:	01078793          	addi	a5,a5,16
    2f58:	eed71ce3          	bne	a4,a3,2e50 <update_shape+0x400>
    2f5c:	01c12083          	lw	ra,28(sp)
    2f60:	01812403          	lw	s0,24(sp)
    2f64:	02010113          	addi	sp,sp,32
    2f68:	00008067          	ret
    2f6c:	951fe0ef          	jal	18bc <update_cell>
    2f70:	000056b7          	lui	a3,0x5
    2f74:	00412703          	lw	a4,4(sp)
    2f78:	00812783          	lw	a5,8(sp)
    2f7c:	00400893          	li	a7,4
    2f80:	13468813          	addi	a6,a3,308 # 5134 <grid>
    2f84:	d6dff06f          	j	2cf0 <update_shape+0x2a0>
    2f88:	935fe0ef          	jal	18bc <update_cell>
    2f8c:	000056b7          	lui	a3,0x5
    2f90:	00412703          	lw	a4,4(sp)
    2f94:	00812783          	lw	a5,8(sp)
    2f98:	00400893          	li	a7,4
    2f9c:	13468813          	addi	a6,a3,308 # 5134 <grid>
    2fa0:	c89ff06f          	j	2c28 <update_shape+0x1d8>
    2fa4:	919fe0ef          	jal	18bc <update_cell>
    2fa8:	000056b7          	lui	a3,0x5
    2fac:	00412703          	lw	a4,4(sp)
    2fb0:	00812783          	lw	a5,8(sp)
    2fb4:	00400893          	li	a7,4
    2fb8:	13468813          	addi	a6,a3,308 # 5134 <grid>
    2fbc:	cd1ff06f          	j	2c8c <update_shape+0x23c>
    2fc0:	8fdfe0ef          	jal	18bc <update_cell>
    2fc4:	000056b7          	lui	a3,0x5
    2fc8:	00412703          	lw	a4,4(sp)
    2fcc:	00812783          	lw	a5,8(sp)
    2fd0:	00400893          	li	a7,4
    2fd4:	13468813          	addi	a6,a3,308 # 5134 <grid>
    2fd8:	bedff06f          	j	2bc4 <update_shape+0x174>

00002fdc <can_move>:
    2fdc:	00005837          	lui	a6,0x5
    2fe0:	13480813          	addi	a6,a6,308 # 5134 <grid>
    2fe4:	00000793          	li	a5,0
    2fe8:	00400893          	li	a7,4
    2fec:	0006a703          	lw	a4,0(a3)
    2ff0:	04070263          	beqz	a4,3034 <can_move+0x58>
    2ff4:	00452e03          	lw	t3,4(a0)
    2ff8:	00852303          	lw	t1,8(a0)
    2ffc:	01c58e33          	add	t3,a1,t3
    3000:	00678333          	add	t1,a5,t1
    3004:	00ae3713          	sltiu	a4,t3,10
    3008:	00c30333          	add	t1,t1,a2
    300c:	12070063          	beqz	a4,312c <can_move+0x150>
    3010:	01433713          	sltiu	a4,t1,20
    3014:	10070c63          	beqz	a4,312c <can_move+0x150>
    3018:	00231713          	slli	a4,t1,0x2
    301c:	00670733          	add	a4,a4,t1
    3020:	00171713          	slli	a4,a4,0x1
    3024:	00e80733          	add	a4,a6,a4
    3028:	01c70733          	add	a4,a4,t3
    302c:	00074703          	lbu	a4,0(a4)
    3030:	0e071e63          	bnez	a4,312c <can_move+0x150>
    3034:	0046a703          	lw	a4,4(a3)
    3038:	04070463          	beqz	a4,3080 <can_move+0xa4>
    303c:	00452e03          	lw	t3,4(a0)
    3040:	00852303          	lw	t1,8(a0)
    3044:	001e0e13          	addi	t3,t3,1
    3048:	00be0e33          	add	t3,t3,a1
    304c:	00678333          	add	t1,a5,t1
    3050:	00ae3713          	sltiu	a4,t3,10
    3054:	00c30333          	add	t1,t1,a2
    3058:	0c070a63          	beqz	a4,312c <can_move+0x150>
    305c:	01433713          	sltiu	a4,t1,20
    3060:	0c070663          	beqz	a4,312c <can_move+0x150>
    3064:	00231713          	slli	a4,t1,0x2
    3068:	00670733          	add	a4,a4,t1
    306c:	00171713          	slli	a4,a4,0x1
    3070:	00e80733          	add	a4,a6,a4
    3074:	01c70733          	add	a4,a4,t3
    3078:	00074703          	lbu	a4,0(a4)
    307c:	0a071863          	bnez	a4,312c <can_move+0x150>
    3080:	0086a703          	lw	a4,8(a3)
    3084:	04070463          	beqz	a4,30cc <can_move+0xf0>
    3088:	00452e03          	lw	t3,4(a0)
    308c:	00852303          	lw	t1,8(a0)
    3090:	002e0e13          	addi	t3,t3,2
    3094:	00be0e33          	add	t3,t3,a1
    3098:	00678333          	add	t1,a5,t1
    309c:	00ae3713          	sltiu	a4,t3,10
    30a0:	00c30333          	add	t1,t1,a2
    30a4:	08070463          	beqz	a4,312c <can_move+0x150>
    30a8:	01433713          	sltiu	a4,t1,20
    30ac:	08070063          	beqz	a4,312c <can_move+0x150>
    30b0:	00231713          	slli	a4,t1,0x2
    30b4:	00670733          	add	a4,a4,t1
    30b8:	00171713          	slli	a4,a4,0x1
    30bc:	00e80733          	add	a4,a6,a4
    30c0:	01c70733          	add	a4,a4,t3
    30c4:	00074703          	lbu	a4,0(a4)
    30c8:	06071263          	bnez	a4,312c <can_move+0x150>
    30cc:	00c6a703          	lw	a4,12(a3)
    30d0:	04070463          	beqz	a4,3118 <can_move+0x13c>
    30d4:	00452e03          	lw	t3,4(a0)
    30d8:	00852303          	lw	t1,8(a0)
    30dc:	003e0e13          	addi	t3,t3,3
    30e0:	00be0e33          	add	t3,t3,a1
    30e4:	00678333          	add	t1,a5,t1
    30e8:	00ae3713          	sltiu	a4,t3,10
    30ec:	00c30333          	add	t1,t1,a2
    30f0:	02070e63          	beqz	a4,312c <can_move+0x150>
    30f4:	01433713          	sltiu	a4,t1,20
    30f8:	02070a63          	beqz	a4,312c <can_move+0x150>
    30fc:	00231713          	slli	a4,t1,0x2
    3100:	00670733          	add	a4,a4,t1
    3104:	00171713          	slli	a4,a4,0x1
    3108:	00e80733          	add	a4,a6,a4
    310c:	01c70733          	add	a4,a4,t3
    3110:	00074703          	lbu	a4,0(a4)
    3114:	00071c63          	bnez	a4,312c <can_move+0x150>
    3118:	00178793          	addi	a5,a5,1
    311c:	01068693          	addi	a3,a3,16
    3120:	ed1796e3          	bne	a5,a7,2fec <can_move+0x10>
    3124:	00100513          	li	a0,1
    3128:	00008067          	ret
    312c:	00000513          	li	a0,0
    3130:	00008067          	ret

00003134 <rotate_piece>:
    3134:	f9010113          	addi	sp,sp,-112
    3138:	01452383          	lw	t2,20(a0)
    313c:	01852e83          	lw	t4,24(a0)
    3140:	01c52803          	lw	a6,28(a0)
    3144:	06812623          	sw	s0,108(sp)
    3148:	07312023          	sw	s3,96(sp)
    314c:	02452403          	lw	s0,36(a0)
    3150:	01052983          	lw	s3,16(a0)
    3154:	05412e23          	sw	s4,92(sp)
    3158:	02052a03          	lw	s4,32(a0)
    315c:	02c52883          	lw	a7,44(a0)
    3160:	03852f83          	lw	t6,56(a0)
    3164:	03c52303          	lw	t1,60(a0)
    3168:	04852283          	lw	t0,72(a0)
    316c:	04c52e03          	lw	t3,76(a0)
    3170:	06912423          	sw	s1,104(sp)
    3174:	07212223          	sw	s2,100(sp)
    3178:	03452483          	lw	s1,52(a0)
    317c:	04452903          	lw	s2,68(a0)
    3180:	05512c23          	sw	s5,88(sp)
    3184:	05612a23          	sw	s6,84(sp)
    3188:	03052a83          	lw	s5,48(a0)
    318c:	04052b03          	lw	s6,64(a0)
    3190:	02852f03          	lw	t5,40(a0)
    3194:	05712823          	sw	s7,80(sp)
    3198:	05812623          	sw	s8,76(sp)
    319c:	00005637          	lui	a2,0x5
    31a0:	01312623          	sw	s3,12(sp)
    31a4:	00712e23          	sw	t2,28(sp)
    31a8:	03d12623          	sw	t4,44(sp)
    31ac:	03012e23          	sw	a6,60(sp)
    31b0:	01412423          	sw	s4,8(sp)
    31b4:	00812c23          	sw	s0,24(sp)
    31b8:	03e12423          	sw	t5,40(sp)
    31bc:	13460613          	addi	a2,a2,308 # 5134 <grid>
    31c0:	03112c23          	sw	a7,56(sp)
    31c4:	01512223          	sw	s5,4(sp)
    31c8:	00912a23          	sw	s1,20(sp)
    31cc:	03f12223          	sw	t6,36(sp)
    31d0:	02612a23          	sw	t1,52(sp)
    31d4:	01612023          	sw	s6,0(sp)
    31d8:	01212823          	sw	s2,16(sp)
    31dc:	02512023          	sw	t0,32(sp)
    31e0:	03c12823          	sw	t3,48(sp)
    31e4:	00010793          	mv	a5,sp
    31e8:	00000713          	li	a4,0
    31ec:	00400593          	li	a1,4
    31f0:	0007a683          	lw	a3,0(a5)
    31f4:	02068e63          	beqz	a3,3230 <rotate_piece+0xfc>
    31f8:	00452c03          	lw	s8,4(a0)
    31fc:	00852b83          	lw	s7,8(a0)
    3200:	00ac3693          	sltiu	a3,s8,10
    3204:	01770bb3          	add	s7,a4,s7
    3208:	14068063          	beqz	a3,3348 <rotate_piece+0x214>
    320c:	014bb693          	sltiu	a3,s7,20
    3210:	12068c63          	beqz	a3,3348 <rotate_piece+0x214>
    3214:	002b9693          	slli	a3,s7,0x2
    3218:	017686b3          	add	a3,a3,s7
    321c:	00169693          	slli	a3,a3,0x1
    3220:	00d606b3          	add	a3,a2,a3
    3224:	018686b3          	add	a3,a3,s8
    3228:	0006c683          	lbu	a3,0(a3)
    322c:	10069e63          	bnez	a3,3348 <rotate_piece+0x214>
    3230:	0047a683          	lw	a3,4(a5)
    3234:	04068063          	beqz	a3,3274 <rotate_piece+0x140>
    3238:	00452c03          	lw	s8,4(a0)
    323c:	00852b83          	lw	s7,8(a0)
    3240:	001c0693          	addi	a3,s8,1
    3244:	00a6b693          	sltiu	a3,a3,10
    3248:	01770bb3          	add	s7,a4,s7
    324c:	0e068e63          	beqz	a3,3348 <rotate_piece+0x214>
    3250:	014bb693          	sltiu	a3,s7,20
    3254:	0e068a63          	beqz	a3,3348 <rotate_piece+0x214>
    3258:	002b9693          	slli	a3,s7,0x2
    325c:	017686b3          	add	a3,a3,s7
    3260:	00169693          	slli	a3,a3,0x1
    3264:	00d606b3          	add	a3,a2,a3
    3268:	018686b3          	add	a3,a3,s8
    326c:	0016c683          	lbu	a3,1(a3)
    3270:	0c069c63          	bnez	a3,3348 <rotate_piece+0x214>
    3274:	0087a683          	lw	a3,8(a5)
    3278:	04068063          	beqz	a3,32b8 <rotate_piece+0x184>
    327c:	00452c03          	lw	s8,4(a0)
    3280:	00852b83          	lw	s7,8(a0)
    3284:	002c0693          	addi	a3,s8,2
    3288:	00a6b693          	sltiu	a3,a3,10
    328c:	01770bb3          	add	s7,a4,s7
    3290:	0a068c63          	beqz	a3,3348 <rotate_piece+0x214>
    3294:	014bb693          	sltiu	a3,s7,20
    3298:	0a068863          	beqz	a3,3348 <rotate_piece+0x214>
    329c:	002b9693          	slli	a3,s7,0x2
    32a0:	017686b3          	add	a3,a3,s7
    32a4:	00169693          	slli	a3,a3,0x1
    32a8:	00d606b3          	add	a3,a2,a3
    32ac:	018686b3          	add	a3,a3,s8
    32b0:	0026c683          	lbu	a3,2(a3)
    32b4:	08069a63          	bnez	a3,3348 <rotate_piece+0x214>
    32b8:	00c7a683          	lw	a3,12(a5)
    32bc:	04068063          	beqz	a3,32fc <rotate_piece+0x1c8>
    32c0:	00452c03          	lw	s8,4(a0)
    32c4:	00852b83          	lw	s7,8(a0)
    32c8:	003c0693          	addi	a3,s8,3
    32cc:	00a6b693          	sltiu	a3,a3,10
    32d0:	01770bb3          	add	s7,a4,s7
    32d4:	06068a63          	beqz	a3,3348 <rotate_piece+0x214>
    32d8:	014bb693          	sltiu	a3,s7,20
    32dc:	06068663          	beqz	a3,3348 <rotate_piece+0x214>
    32e0:	002b9693          	slli	a3,s7,0x2
    32e4:	017686b3          	add	a3,a3,s7
    32e8:	00169693          	slli	a3,a3,0x1
    32ec:	00d606b3          	add	a3,a2,a3
    32f0:	018686b3          	add	a3,a3,s8
    32f4:	0036c683          	lbu	a3,3(a3)
    32f8:	04069863          	bnez	a3,3348 <rotate_piece+0x214>
    32fc:	00170713          	addi	a4,a4,1
    3300:	01078793          	addi	a5,a5,16
    3304:	eeb716e3          	bne	a4,a1,31f0 <rotate_piece+0xbc>
    3308:	01652823          	sw	s6,16(a0)
    330c:	01552a23          	sw	s5,20(a0)
    3310:	01452c23          	sw	s4,24(a0)
    3314:	01352e23          	sw	s3,28(a0)
    3318:	03252023          	sw	s2,32(a0)
    331c:	02952223          	sw	s1,36(a0)
    3320:	02852423          	sw	s0,40(a0)
    3324:	02752623          	sw	t2,44(a0)
    3328:	02552823          	sw	t0,48(a0)
    332c:	03f52a23          	sw	t6,52(a0)
    3330:	03e52c23          	sw	t5,56(a0)
    3334:	03d52e23          	sw	t4,60(a0)
    3338:	05c52023          	sw	t3,64(a0)
    333c:	04652223          	sw	t1,68(a0)
    3340:	05152423          	sw	a7,72(a0)
    3344:	05052623          	sw	a6,76(a0)
    3348:	06c12403          	lw	s0,108(sp)
    334c:	06812483          	lw	s1,104(sp)
    3350:	06412903          	lw	s2,100(sp)
    3354:	06012983          	lw	s3,96(sp)
    3358:	05c12a03          	lw	s4,92(sp)
    335c:	05812a83          	lw	s5,88(sp)
    3360:	05412b03          	lw	s6,84(sp)
    3364:	05012b83          	lw	s7,80(sp)
    3368:	04c12c03          	lw	s8,76(sp)
    336c:	07010113          	addi	sp,sp,112
    3370:	00008067          	ret

00003374 <move_piece>:
    3374:	fe010113          	addi	sp,sp,-32
    3378:	00812c23          	sw	s0,24(sp)
    337c:	00112e23          	sw	ra,28(sp)
    3380:	00050413          	mv	s0,a0
    3384:	edcfe0ef          	jal	1a60 <update_shape.constprop.1>
    3388:	040007b7          	lui	a5,0x4000
    338c:	0107a703          	lw	a4,16(a5) # 4000010 <_stack_end+0x3efa7e0>
    3390:	040007b7          	lui	a5,0x4000
    3394:	0e078793          	addi	a5,a5,224 # 40000e0 <_stack_end+0x3efa8b0>
    3398:	3ff77713          	andi	a4,a4,1023
    339c:	00e12623          	sw	a4,12(sp)
    33a0:	0007a783          	lw	a5,0(a5)
    33a4:	0017f793          	andi	a5,a5,1
    33a8:	12078e63          	beqz	a5,34e4 <move_piece+0x170>
    33ac:	00442583          	lw	a1,4(s0)
    33b0:	00005637          	lui	a2,0x5
    33b4:	13460613          	addi	a2,a2,308 # 5134 <grid>
    33b8:	fff58513          	addi	a0,a1,-1
    33bc:	00158813          	addi	a6,a1,1
    33c0:	00258893          	addi	a7,a1,2
    33c4:	00a53513          	sltiu	a0,a0,10
    33c8:	00a83813          	sltiu	a6,a6,10
    33cc:	00a8b893          	sltiu	a7,a7,10
    33d0:	00a5b313          	sltiu	t1,a1,10
    33d4:	00154513          	xori	a0,a0,1
    33d8:	00184813          	xori	a6,a6,1
    33dc:	0018c893          	xori	a7,a7,1
    33e0:	00134313          	xori	t1,t1,1
    33e4:	01040793          	addi	a5,s0,16
    33e8:	00000693          	li	a3,0
    33ec:	00400e13          	li	t3,4
    33f0:	0007a703          	lw	a4,0(a5)
    33f4:	02070a63          	beqz	a4,3428 <move_piece+0xb4>
    33f8:	00842703          	lw	a4,8(s0)
    33fc:	00e68eb3          	add	t4,a3,a4
    3400:	0e051263          	bnez	a0,34e4 <move_piece+0x170>
    3404:	014eb713          	sltiu	a4,t4,20
    3408:	0c070e63          	beqz	a4,34e4 <move_piece+0x170>
    340c:	002e9713          	slli	a4,t4,0x2
    3410:	01d70733          	add	a4,a4,t4
    3414:	00171713          	slli	a4,a4,0x1
    3418:	00e60733          	add	a4,a2,a4
    341c:	00b70733          	add	a4,a4,a1
    3420:	fff74703          	lbu	a4,-1(a4)
    3424:	0c071063          	bnez	a4,34e4 <move_piece+0x170>
    3428:	0047a703          	lw	a4,4(a5)
    342c:	02070a63          	beqz	a4,3460 <move_piece+0xec>
    3430:	00842703          	lw	a4,8(s0)
    3434:	00e68eb3          	add	t4,a3,a4
    3438:	0a031663          	bnez	t1,34e4 <move_piece+0x170>
    343c:	014eb713          	sltiu	a4,t4,20
    3440:	0a070263          	beqz	a4,34e4 <move_piece+0x170>
    3444:	002e9713          	slli	a4,t4,0x2
    3448:	01d70733          	add	a4,a4,t4
    344c:	00171713          	slli	a4,a4,0x1
    3450:	00e60733          	add	a4,a2,a4
    3454:	00b70733          	add	a4,a4,a1
    3458:	00074703          	lbu	a4,0(a4)
    345c:	08071463          	bnez	a4,34e4 <move_piece+0x170>
    3460:	0087a703          	lw	a4,8(a5)
    3464:	02070a63          	beqz	a4,3498 <move_piece+0x124>
    3468:	00842703          	lw	a4,8(s0)
    346c:	00e68eb3          	add	t4,a3,a4
    3470:	06081a63          	bnez	a6,34e4 <move_piece+0x170>
    3474:	014eb713          	sltiu	a4,t4,20
    3478:	06070663          	beqz	a4,34e4 <move_piece+0x170>
    347c:	002e9713          	slli	a4,t4,0x2
    3480:	01d70733          	add	a4,a4,t4
    3484:	00171713          	slli	a4,a4,0x1
    3488:	00e60733          	add	a4,a2,a4
    348c:	00b70733          	add	a4,a4,a1
    3490:	00174703          	lbu	a4,1(a4)
    3494:	04071863          	bnez	a4,34e4 <move_piece+0x170>
    3498:	00c7a703          	lw	a4,12(a5)
    349c:	02070a63          	beqz	a4,34d0 <move_piece+0x15c>
    34a0:	00842703          	lw	a4,8(s0)
    34a4:	00e68eb3          	add	t4,a3,a4
    34a8:	02089e63          	bnez	a7,34e4 <move_piece+0x170>
    34ac:	014eb713          	sltiu	a4,t4,20
    34b0:	02070a63          	beqz	a4,34e4 <move_piece+0x170>
    34b4:	002e9713          	slli	a4,t4,0x2
    34b8:	01d70733          	add	a4,a4,t4
    34bc:	00171713          	slli	a4,a4,0x1
    34c0:	00e60733          	add	a4,a2,a4
    34c4:	00b70733          	add	a4,a4,a1
    34c8:	00274703          	lbu	a4,2(a4)
    34cc:	00071c63          	bnez	a4,34e4 <move_piece+0x170>
    34d0:	00168693          	addi	a3,a3,1
    34d4:	01078793          	addi	a5,a5,16
    34d8:	f1c69ce3          	bne	a3,t3,33f0 <move_piece+0x7c>
    34dc:	fff58593          	addi	a1,a1,-1
    34e0:	00b42223          	sw	a1,4(s0)
    34e4:	040007b7          	lui	a5,0x4000
    34e8:	0e078793          	addi	a5,a5,224 # 40000e0 <_stack_end+0x3efa8b0>
    34ec:	0007a783          	lw	a5,0(a5)
    34f0:	0027f793          	andi	a5,a5,2
    34f4:	14078063          	beqz	a5,3634 <move_piece+0x2c0>
    34f8:	00442583          	lw	a1,4(s0)
    34fc:	00005637          	lui	a2,0x5
    3500:	13460613          	addi	a2,a2,308 # 5134 <grid>
    3504:	00158513          	addi	a0,a1,1
    3508:	00258813          	addi	a6,a1,2
    350c:	00358893          	addi	a7,a1,3
    3510:	00458313          	addi	t1,a1,4
    3514:	00a53513          	sltiu	a0,a0,10
    3518:	00a83813          	sltiu	a6,a6,10
    351c:	00a8b893          	sltiu	a7,a7,10
    3520:	00a33313          	sltiu	t1,t1,10
    3524:	00154513          	xori	a0,a0,1
    3528:	00184813          	xori	a6,a6,1
    352c:	0018c893          	xori	a7,a7,1
    3530:	00134313          	xori	t1,t1,1
    3534:	01040793          	addi	a5,s0,16
    3538:	00000693          	li	a3,0
    353c:	00400e13          	li	t3,4
    3540:	0007a703          	lw	a4,0(a5)
    3544:	02070a63          	beqz	a4,3578 <move_piece+0x204>
    3548:	00842703          	lw	a4,8(s0)
    354c:	00e68eb3          	add	t4,a3,a4
    3550:	0e051263          	bnez	a0,3634 <move_piece+0x2c0>
    3554:	014eb713          	sltiu	a4,t4,20
    3558:	0c070e63          	beqz	a4,3634 <move_piece+0x2c0>
    355c:	002e9713          	slli	a4,t4,0x2
    3560:	01d70733          	add	a4,a4,t4
    3564:	00171713          	slli	a4,a4,0x1
    3568:	00e60733          	add	a4,a2,a4
    356c:	00b70733          	add	a4,a4,a1
    3570:	00174703          	lbu	a4,1(a4)
    3574:	0c071063          	bnez	a4,3634 <move_piece+0x2c0>
    3578:	0047a703          	lw	a4,4(a5)
    357c:	02070a63          	beqz	a4,35b0 <move_piece+0x23c>
    3580:	00842703          	lw	a4,8(s0)
    3584:	00e68eb3          	add	t4,a3,a4
    3588:	0a081663          	bnez	a6,3634 <move_piece+0x2c0>
    358c:	014eb713          	sltiu	a4,t4,20
    3590:	0a070263          	beqz	a4,3634 <move_piece+0x2c0>
    3594:	002e9713          	slli	a4,t4,0x2
    3598:	01d70733          	add	a4,a4,t4
    359c:	00171713          	slli	a4,a4,0x1
    35a0:	00e60733          	add	a4,a2,a4
    35a4:	00b70733          	add	a4,a4,a1
    35a8:	00274703          	lbu	a4,2(a4)
    35ac:	08071463          	bnez	a4,3634 <move_piece+0x2c0>
    35b0:	0087a703          	lw	a4,8(a5)
    35b4:	02070a63          	beqz	a4,35e8 <move_piece+0x274>
    35b8:	00842703          	lw	a4,8(s0)
    35bc:	00e68eb3          	add	t4,a3,a4
    35c0:	06089a63          	bnez	a7,3634 <move_piece+0x2c0>
    35c4:	014eb713          	sltiu	a4,t4,20
    35c8:	06070663          	beqz	a4,3634 <move_piece+0x2c0>
    35cc:	002e9713          	slli	a4,t4,0x2
    35d0:	01d70733          	add	a4,a4,t4
    35d4:	00171713          	slli	a4,a4,0x1
    35d8:	00e60733          	add	a4,a2,a4
    35dc:	00b70733          	add	a4,a4,a1
    35e0:	00374703          	lbu	a4,3(a4)
    35e4:	04071863          	bnez	a4,3634 <move_piece+0x2c0>
    35e8:	00c7a703          	lw	a4,12(a5)
    35ec:	02070a63          	beqz	a4,3620 <move_piece+0x2ac>
    35f0:	00842703          	lw	a4,8(s0)
    35f4:	00e68eb3          	add	t4,a3,a4
    35f8:	02031e63          	bnez	t1,3634 <move_piece+0x2c0>
    35fc:	014eb713          	sltiu	a4,t4,20
    3600:	02070a63          	beqz	a4,3634 <move_piece+0x2c0>
    3604:	002e9713          	slli	a4,t4,0x2
    3608:	01d70733          	add	a4,a4,t4
    360c:	00171713          	slli	a4,a4,0x1
    3610:	00e60733          	add	a4,a2,a4
    3614:	00b70733          	add	a4,a4,a1
    3618:	00474703          	lbu	a4,4(a4)
    361c:	00071c63          	bnez	a4,3634 <move_piece+0x2c0>
    3620:	00168693          	addi	a3,a3,1
    3624:	01078793          	addi	a5,a5,16
    3628:	f1c69ce3          	bne	a3,t3,3540 <move_piece+0x1cc>
    362c:	00158593          	addi	a1,a1,1
    3630:	00b42223          	sw	a1,4(s0)
    3634:	00c12783          	lw	a5,12(sp)
    3638:	0027f793          	andi	a5,a5,2
    363c:	2a078063          	beqz	a5,38dc <move_piece+0x568>
    3640:	00442583          	lw	a1,4(s0)
    3644:	00842703          	lw	a4,8(s0)
    3648:	00005537          	lui	a0,0x5
    364c:	00158893          	addi	a7,a1,1
    3650:	00258313          	addi	t1,a1,2
    3654:	00358e13          	addi	t3,a1,3
    3658:	00a8b893          	sltiu	a7,a7,10
    365c:	00a33313          	sltiu	t1,t1,10
    3660:	00ae3e13          	sltiu	t3,t3,10
    3664:	00a5be93          	sltiu	t4,a1,10
    3668:	00912a23          	sw	s1,20(sp)
    366c:	13450513          	addi	a0,a0,308 # 5134 <grid>
    3670:	0018c893          	xori	a7,a7,1
    3674:	00134313          	xori	t1,t1,1
    3678:	001e4e13          	xori	t3,t3,1
    367c:	001ece93          	xori	t4,t4,1
    3680:	01040793          	addi	a5,s0,16
    3684:	00000693          	li	a3,0
    3688:	00400813          	li	a6,4
    368c:	0007a603          	lw	a2,0(a5)
    3690:	02060a63          	beqz	a2,36c4 <move_piece+0x350>
    3694:	00e68f33          	add	t5,a3,a4
    3698:	001f0f13          	addi	t5,t5,1
    369c:	0e0e9463          	bnez	t4,3784 <move_piece+0x410>
    36a0:	014f3613          	sltiu	a2,t5,20
    36a4:	0e060063          	beqz	a2,3784 <move_piece+0x410>
    36a8:	002f1613          	slli	a2,t5,0x2
    36ac:	01e60633          	add	a2,a2,t5
    36b0:	00161613          	slli	a2,a2,0x1
    36b4:	00c50633          	add	a2,a0,a2
    36b8:	00b60633          	add	a2,a2,a1
    36bc:	00064603          	lbu	a2,0(a2)
    36c0:	0c061263          	bnez	a2,3784 <move_piece+0x410>
    36c4:	0047a603          	lw	a2,4(a5)
    36c8:	02060a63          	beqz	a2,36fc <move_piece+0x388>
    36cc:	00e68f33          	add	t5,a3,a4
    36d0:	001f0f13          	addi	t5,t5,1
    36d4:	0a089863          	bnez	a7,3784 <move_piece+0x410>
    36d8:	014f3613          	sltiu	a2,t5,20
    36dc:	0a060463          	beqz	a2,3784 <move_piece+0x410>
    36e0:	002f1613          	slli	a2,t5,0x2
    36e4:	01e60633          	add	a2,a2,t5
    36e8:	00161613          	slli	a2,a2,0x1
    36ec:	00c50633          	add	a2,a0,a2
    36f0:	00b60633          	add	a2,a2,a1
    36f4:	00164603          	lbu	a2,1(a2)
    36f8:	08061663          	bnez	a2,3784 <move_piece+0x410>
    36fc:	0087a603          	lw	a2,8(a5)
    3700:	02060a63          	beqz	a2,3734 <move_piece+0x3c0>
    3704:	00e68f33          	add	t5,a3,a4
    3708:	001f0f13          	addi	t5,t5,1
    370c:	06031c63          	bnez	t1,3784 <move_piece+0x410>
    3710:	014f3613          	sltiu	a2,t5,20
    3714:	06060863          	beqz	a2,3784 <move_piece+0x410>
    3718:	002f1613          	slli	a2,t5,0x2
    371c:	01e60633          	add	a2,a2,t5
    3720:	00161613          	slli	a2,a2,0x1
    3724:	00c50633          	add	a2,a0,a2
    3728:	00b60633          	add	a2,a2,a1
    372c:	00264603          	lbu	a2,2(a2)
    3730:	04061a63          	bnez	a2,3784 <move_piece+0x410>
    3734:	00c7a603          	lw	a2,12(a5)
    3738:	02060a63          	beqz	a2,376c <move_piece+0x3f8>
    373c:	00e68f33          	add	t5,a3,a4
    3740:	001f0f13          	addi	t5,t5,1
    3744:	040e1063          	bnez	t3,3784 <move_piece+0x410>
    3748:	014f3613          	sltiu	a2,t5,20
    374c:	02060c63          	beqz	a2,3784 <move_piece+0x410>
    3750:	002f1613          	slli	a2,t5,0x2
    3754:	01e60633          	add	a2,a2,t5
    3758:	00161613          	slli	a2,a2,0x1
    375c:	00c50633          	add	a2,a0,a2
    3760:	00b60633          	add	a2,a2,a1
    3764:	00364603          	lbu	a2,3(a2)
    3768:	00061e63          	bnez	a2,3784 <move_piece+0x410>
    376c:	00168693          	addi	a3,a3,1
    3770:	01078793          	addi	a5,a5,16
    3774:	f1069ce3          	bne	a3,a6,368c <move_piece+0x318>
    3778:	00170713          	addi	a4,a4,1
    377c:	00e42423          	sw	a4,8(s0)
    3780:	f01ff06f          	j	3680 <move_piece+0x30c>
    3784:	00005837          	lui	a6,0x5
    3788:	2a082503          	lw	a0,672(a6) # 52a0 <score>
    378c:	14f8b637          	lui	a2,0x14f8b
    3790:	58960613          	addi	a2,a2,1417 # 14f8b589 <_stack_end+0x14e85d59>
    3794:	03250513          	addi	a0,a0,50
    3798:	666667b7          	lui	a5,0x66666
    379c:	68db95b7          	lui	a1,0x68db9
    37a0:	106256b7          	lui	a3,0x10625
    37a4:	51eb8737          	lui	a4,0x51eb8
    37a8:	66778793          	addi	a5,a5,1639 # 66666667 <_stack_end+0x66560e37>
    37ac:	02c51633          	mulh	a2,a0,a2
    37b0:	bad58593          	addi	a1,a1,-1107 # 68db8bad <_stack_end+0x68cb337d>
    37b4:	dd368693          	addi	a3,a3,-557 # 10624dd3 <_stack_end+0x1051f5a3>
    37b8:	51f70713          	addi	a4,a4,1311 # 51eb851f <_stack_end+0x51db2cef>
    37bc:	2aa82023          	sw	a0,672(a6)
    37c0:	41f55893          	srai	a7,a0,0x1f
    37c4:	00900313          	li	t1,9
    37c8:	02f51833          	mulh	a6,a0,a5
    37cc:	40d65613          	srai	a2,a2,0xd
    37d0:	41160633          	sub	a2,a2,a7
    37d4:	41f65393          	srai	t2,a2,0x1f
    37d8:	02b515b3          	mulh	a1,a0,a1
    37dc:	40285813          	srai	a6,a6,0x2
    37e0:	41180833          	sub	a6,a6,a7
    37e4:	00281e13          	slli	t3,a6,0x2
    37e8:	010e0e33          	add	t3,t3,a6
    37ec:	001e1e13          	slli	t3,t3,0x1
    37f0:	41f85e93          	srai	t4,a6,0x1f
    37f4:	02d516b3          	mulh	a3,a0,a3
    37f8:	40c5d593          	srai	a1,a1,0xc
    37fc:	411585b3          	sub	a1,a1,a7
    3800:	41f5d293          	srai	t0,a1,0x1f
    3804:	02e51733          	mulh	a4,a0,a4
    3808:	4066d693          	srai	a3,a3,0x6
    380c:	411686b3          	sub	a3,a3,a7
    3810:	41c50533          	sub	a0,a0,t3
    3814:	41f6df93          	srai	t6,a3,0x1f
    3818:	40575713          	srai	a4,a4,0x5
    381c:	41170733          	sub	a4,a4,a7
    3820:	02f618b3          	mulh	a7,a2,a5
    3824:	41f75f13          	srai	t5,a4,0x1f
    3828:	02f594b3          	mulh	s1,a1,a5
    382c:	4028d893          	srai	a7,a7,0x2
    3830:	407888b3          	sub	a7,a7,t2
    3834:	00289e13          	slli	t3,a7,0x2
    3838:	011e08b3          	add	a7,t3,a7
    383c:	00189893          	slli	a7,a7,0x1
    3840:	411608b3          	sub	a7,a2,a7
    3844:	02f693b3          	mulh	t2,a3,a5
    3848:	4024d613          	srai	a2,s1,0x2
    384c:	40560633          	sub	a2,a2,t0
    3850:	00261e13          	slli	t3,a2,0x2
    3854:	00ce0633          	add	a2,t3,a2
    3858:	00161613          	slli	a2,a2,0x1
    385c:	40c58633          	sub	a2,a1,a2
    3860:	02f712b3          	mulh	t0,a4,a5
    3864:	4023de13          	srai	t3,t2,0x2
    3868:	41fe0e33          	sub	t3,t3,t6
    386c:	002e1593          	slli	a1,t3,0x2
    3870:	01c585b3          	add	a1,a1,t3
    3874:	00159593          	slli	a1,a1,0x1
    3878:	40b68e33          	sub	t3,a3,a1
    387c:	02f817b3          	mulh	a5,a6,a5
    3880:	4022d593          	srai	a1,t0,0x2
    3884:	41e585b3          	sub	a1,a1,t5
    3888:	00259693          	slli	a3,a1,0x2
    388c:	00b686b3          	add	a3,a3,a1
    3890:	00169693          	slli	a3,a3,0x1
    3894:	40d705b3          	sub	a1,a4,a3
    3898:	4027d793          	srai	a5,a5,0x2
    389c:	41d787b3          	sub	a5,a5,t4
    38a0:	00279713          	slli	a4,a5,0x2
    38a4:	00f707b3          	add	a5,a4,a5
    38a8:	00179793          	slli	a5,a5,0x1
    38ac:	40f807b3          	sub	a5,a6,a5
    38b0:	32a36a63          	bltu	t1,a0,3be4 <move_piece+0x870>
    38b4:	00005737          	lui	a4,0x5
    38b8:	3c070713          	addi	a4,a4,960 # 53c0 <timeoutcount+0x11c>
    38bc:	00251513          	slli	a0,a0,0x2
    38c0:	00e50533          	add	a0,a0,a4
    38c4:	00052703          	lw	a4,0(a0)
    38c8:	00070067          	jr	a4
    38cc:	01412483          	lw	s1,20(sp)
    38d0:	040007b7          	lui	a5,0x4000
    38d4:	0c000713          	li	a4,192
    38d8:	0ae7a023          	sw	a4,160(a5) # 40000a0 <_stack_end+0x3efa870>
    38dc:	01042783          	lw	a5,16(s0)
    38e0:	02078263          	beqz	a5,3904 <move_piece+0x590>
    38e4:	00442583          	lw	a1,4(s0)
    38e8:	00842503          	lw	a0,8(s0)
    38ec:	00a5b793          	sltiu	a5,a1,10
    38f0:	00078a63          	beqz	a5,3904 <move_piece+0x590>
    38f4:	01453793          	sltiu	a5,a0,20
    38f8:	00078663          	beqz	a5,3904 <move_piece+0x590>
    38fc:	00c44603          	lbu	a2,12(s0)
    3900:	fbdfd0ef          	jal	18bc <update_cell>
    3904:	01442783          	lw	a5,20(s0)
    3908:	02078463          	beqz	a5,3930 <move_piece+0x5bc>
    390c:	00842503          	lw	a0,8(s0)
    3910:	00442583          	lw	a1,4(s0)
    3914:	01453793          	sltiu	a5,a0,20
    3918:	00158593          	addi	a1,a1,1
    391c:	00078a63          	beqz	a5,3930 <move_piece+0x5bc>
    3920:	00a5b793          	sltiu	a5,a1,10
    3924:	00078663          	beqz	a5,3930 <move_piece+0x5bc>
    3928:	00c44603          	lbu	a2,12(s0)
    392c:	f91fd0ef          	jal	18bc <update_cell>
    3930:	01842783          	lw	a5,24(s0)
    3934:	02078463          	beqz	a5,395c <move_piece+0x5e8>
    3938:	00842503          	lw	a0,8(s0)
    393c:	00442583          	lw	a1,4(s0)
    3940:	01453793          	sltiu	a5,a0,20
    3944:	00258593          	addi	a1,a1,2
    3948:	00078a63          	beqz	a5,395c <move_piece+0x5e8>
    394c:	00a5b793          	sltiu	a5,a1,10
    3950:	00078663          	beqz	a5,395c <move_piece+0x5e8>
    3954:	00c44603          	lbu	a2,12(s0)
    3958:	f65fd0ef          	jal	18bc <update_cell>
    395c:	01c42783          	lw	a5,28(s0)
    3960:	02078463          	beqz	a5,3988 <move_piece+0x614>
    3964:	00842503          	lw	a0,8(s0)
    3968:	00442583          	lw	a1,4(s0)
    396c:	01453793          	sltiu	a5,a0,20
    3970:	00358593          	addi	a1,a1,3
    3974:	00078a63          	beqz	a5,3988 <move_piece+0x614>
    3978:	00a5b793          	sltiu	a5,a1,10
    397c:	00078663          	beqz	a5,3988 <move_piece+0x614>
    3980:	00c44603          	lbu	a2,12(s0)
    3984:	f39fd0ef          	jal	18bc <update_cell>
    3988:	02042783          	lw	a5,32(s0)
    398c:	02078463          	beqz	a5,39b4 <move_piece+0x640>
    3990:	00842503          	lw	a0,8(s0)
    3994:	00442583          	lw	a1,4(s0)
    3998:	00150513          	addi	a0,a0,1
    399c:	01453793          	sltiu	a5,a0,20
    39a0:	00078a63          	beqz	a5,39b4 <move_piece+0x640>
    39a4:	00a5b793          	sltiu	a5,a1,10
    39a8:	00078663          	beqz	a5,39b4 <move_piece+0x640>
    39ac:	00c44603          	lbu	a2,12(s0)
    39b0:	f0dfd0ef          	jal	18bc <update_cell>
    39b4:	02442783          	lw	a5,36(s0)
    39b8:	02078663          	beqz	a5,39e4 <move_piece+0x670>
    39bc:	00842503          	lw	a0,8(s0)
    39c0:	00442583          	lw	a1,4(s0)
    39c4:	00150513          	addi	a0,a0,1
    39c8:	01453793          	sltiu	a5,a0,20
    39cc:	00158593          	addi	a1,a1,1
    39d0:	00078a63          	beqz	a5,39e4 <move_piece+0x670>
    39d4:	00a5b793          	sltiu	a5,a1,10
    39d8:	00078663          	beqz	a5,39e4 <move_piece+0x670>
    39dc:	00c44603          	lbu	a2,12(s0)
    39e0:	eddfd0ef          	jal	18bc <update_cell>
    39e4:	02842783          	lw	a5,40(s0)
    39e8:	02078663          	beqz	a5,3a14 <move_piece+0x6a0>
    39ec:	00842503          	lw	a0,8(s0)
    39f0:	00442583          	lw	a1,4(s0)
    39f4:	00150513          	addi	a0,a0,1
    39f8:	01453793          	sltiu	a5,a0,20
    39fc:	00258593          	addi	a1,a1,2
    3a00:	00078a63          	beqz	a5,3a14 <move_piece+0x6a0>
    3a04:	00a5b793          	sltiu	a5,a1,10
    3a08:	00078663          	beqz	a5,3a14 <move_piece+0x6a0>
    3a0c:	00c44603          	lbu	a2,12(s0)
    3a10:	eadfd0ef          	jal	18bc <update_cell>
    3a14:	02c42783          	lw	a5,44(s0)
    3a18:	02078663          	beqz	a5,3a44 <move_piece+0x6d0>
    3a1c:	00842503          	lw	a0,8(s0)
    3a20:	00442583          	lw	a1,4(s0)
    3a24:	00150513          	addi	a0,a0,1
    3a28:	01453793          	sltiu	a5,a0,20
    3a2c:	00358593          	addi	a1,a1,3
    3a30:	00078a63          	beqz	a5,3a44 <move_piece+0x6d0>
    3a34:	00a5b793          	sltiu	a5,a1,10
    3a38:	00078663          	beqz	a5,3a44 <move_piece+0x6d0>
    3a3c:	00c44603          	lbu	a2,12(s0)
    3a40:	e7dfd0ef          	jal	18bc <update_cell>
    3a44:	03042783          	lw	a5,48(s0)
    3a48:	02078463          	beqz	a5,3a70 <move_piece+0x6fc>
    3a4c:	00842503          	lw	a0,8(s0)
    3a50:	00442583          	lw	a1,4(s0)
    3a54:	00250513          	addi	a0,a0,2
    3a58:	01453793          	sltiu	a5,a0,20
    3a5c:	00078a63          	beqz	a5,3a70 <move_piece+0x6fc>
    3a60:	00a5b793          	sltiu	a5,a1,10
    3a64:	00078663          	beqz	a5,3a70 <move_piece+0x6fc>
    3a68:	00c44603          	lbu	a2,12(s0)
    3a6c:	e51fd0ef          	jal	18bc <update_cell>
    3a70:	03442783          	lw	a5,52(s0)
    3a74:	02078663          	beqz	a5,3aa0 <move_piece+0x72c>
    3a78:	00842503          	lw	a0,8(s0)
    3a7c:	00442583          	lw	a1,4(s0)
    3a80:	00250513          	addi	a0,a0,2
    3a84:	01453793          	sltiu	a5,a0,20
    3a88:	00158593          	addi	a1,a1,1
    3a8c:	00078a63          	beqz	a5,3aa0 <move_piece+0x72c>
    3a90:	00a5b793          	sltiu	a5,a1,10
    3a94:	00078663          	beqz	a5,3aa0 <move_piece+0x72c>
    3a98:	00c44603          	lbu	a2,12(s0)
    3a9c:	e21fd0ef          	jal	18bc <update_cell>
    3aa0:	03842783          	lw	a5,56(s0)
    3aa4:	02078663          	beqz	a5,3ad0 <move_piece+0x75c>
    3aa8:	00842503          	lw	a0,8(s0)
    3aac:	00442583          	lw	a1,4(s0)
    3ab0:	00250513          	addi	a0,a0,2
    3ab4:	01453793          	sltiu	a5,a0,20
    3ab8:	00258593          	addi	a1,a1,2
    3abc:	00078a63          	beqz	a5,3ad0 <move_piece+0x75c>
    3ac0:	00a5b793          	sltiu	a5,a1,10
    3ac4:	00078663          	beqz	a5,3ad0 <move_piece+0x75c>
    3ac8:	00c44603          	lbu	a2,12(s0)
    3acc:	df1fd0ef          	jal	18bc <update_cell>
    3ad0:	03c42783          	lw	a5,60(s0)
    3ad4:	02078663          	beqz	a5,3b00 <move_piece+0x78c>
    3ad8:	00842503          	lw	a0,8(s0)
    3adc:	00442583          	lw	a1,4(s0)
    3ae0:	00250513          	addi	a0,a0,2
    3ae4:	01453793          	sltiu	a5,a0,20
    3ae8:	00358593          	addi	a1,a1,3
    3aec:	00078a63          	beqz	a5,3b00 <move_piece+0x78c>
    3af0:	00a5b793          	sltiu	a5,a1,10
    3af4:	00078663          	beqz	a5,3b00 <move_piece+0x78c>
    3af8:	00c44603          	lbu	a2,12(s0)
    3afc:	dc1fd0ef          	jal	18bc <update_cell>
    3b00:	04042783          	lw	a5,64(s0)
    3b04:	02078463          	beqz	a5,3b2c <move_piece+0x7b8>
    3b08:	00442583          	lw	a1,4(s0)
    3b0c:	00842503          	lw	a0,8(s0)
    3b10:	00a5b793          	sltiu	a5,a1,10
    3b14:	00350513          	addi	a0,a0,3
    3b18:	00078a63          	beqz	a5,3b2c <move_piece+0x7b8>
    3b1c:	01453793          	sltiu	a5,a0,20
    3b20:	00078663          	beqz	a5,3b2c <move_piece+0x7b8>
    3b24:	00c44603          	lbu	a2,12(s0)
    3b28:	d95fd0ef          	jal	18bc <update_cell>
    3b2c:	04442783          	lw	a5,68(s0)
    3b30:	02078663          	beqz	a5,3b5c <move_piece+0x7e8>
    3b34:	00442583          	lw	a1,4(s0)
    3b38:	00842503          	lw	a0,8(s0)
    3b3c:	00158593          	addi	a1,a1,1
    3b40:	00a5b793          	sltiu	a5,a1,10
    3b44:	00350513          	addi	a0,a0,3
    3b48:	00078a63          	beqz	a5,3b5c <move_piece+0x7e8>
    3b4c:	01453793          	sltiu	a5,a0,20
    3b50:	00078663          	beqz	a5,3b5c <move_piece+0x7e8>
    3b54:	00c44603          	lbu	a2,12(s0)
    3b58:	d65fd0ef          	jal	18bc <update_cell>
    3b5c:	04842783          	lw	a5,72(s0)
    3b60:	02078663          	beqz	a5,3b8c <move_piece+0x818>
    3b64:	00442583          	lw	a1,4(s0)
    3b68:	00842503          	lw	a0,8(s0)
    3b6c:	00258593          	addi	a1,a1,2
    3b70:	00a5b793          	sltiu	a5,a1,10
    3b74:	00350513          	addi	a0,a0,3
    3b78:	00078a63          	beqz	a5,3b8c <move_piece+0x818>
    3b7c:	01453793          	sltiu	a5,a0,20
    3b80:	00078663          	beqz	a5,3b8c <move_piece+0x818>
    3b84:	00c44603          	lbu	a2,12(s0)
    3b88:	d35fd0ef          	jal	18bc <update_cell>
    3b8c:	04c42783          	lw	a5,76(s0)
    3b90:	02078c63          	beqz	a5,3bc8 <move_piece+0x854>
    3b94:	00442583          	lw	a1,4(s0)
    3b98:	00842503          	lw	a0,8(s0)
    3b9c:	00358593          	addi	a1,a1,3
    3ba0:	00a5b793          	sltiu	a5,a1,10
    3ba4:	00350513          	addi	a0,a0,3
    3ba8:	02078063          	beqz	a5,3bc8 <move_piece+0x854>
    3bac:	01453793          	sltiu	a5,a0,20
    3bb0:	00078c63          	beqz	a5,3bc8 <move_piece+0x854>
    3bb4:	00c44603          	lbu	a2,12(s0)
    3bb8:	01812403          	lw	s0,24(sp)
    3bbc:	01c12083          	lw	ra,28(sp)
    3bc0:	02010113          	addi	sp,sp,32
    3bc4:	cf9fd06f          	j	18bc <update_cell>
    3bc8:	01c12083          	lw	ra,28(sp)
    3bcc:	01812403          	lw	s0,24(sp)
    3bd0:	02010113          	addi	sp,sp,32
    3bd4:	00008067          	ret
    3bd8:	04000737          	lui	a4,0x4000
    3bdc:	09000693          	li	a3,144
    3be0:	04d72823          	sw	a3,80(a4) # 4000050 <_stack_end+0x3efa820>
    3be4:	00900713          	li	a4,9
    3be8:	02f76463          	bltu	a4,a5,3c10 <move_piece+0x89c>
    3bec:	00005737          	lui	a4,0x5
    3bf0:	00279793          	slli	a5,a5,0x2
    3bf4:	3e870713          	addi	a4,a4,1000 # 53e8 <timeoutcount+0x144>
    3bf8:	00e786b3          	add	a3,a5,a4
    3bfc:	0006a783          	lw	a5,0(a3)
    3c00:	00078067          	jr	a5
    3c04:	040007b7          	lui	a5,0x4000
    3c08:	09000713          	li	a4,144
    3c0c:	06e7a023          	sw	a4,96(a5) # 4000060 <_stack_end+0x3efa830>
    3c10:	00900793          	li	a5,9
    3c14:	02b7e463          	bltu	a5,a1,3c3c <move_piece+0x8c8>
    3c18:	000057b7          	lui	a5,0x5
    3c1c:	41078793          	addi	a5,a5,1040 # 5410 <timeoutcount+0x16c>
    3c20:	00259713          	slli	a4,a1,0x2
    3c24:	00f70733          	add	a4,a4,a5
    3c28:	00072783          	lw	a5,0(a4)
    3c2c:	00078067          	jr	a5
    3c30:	040007b7          	lui	a5,0x4000
    3c34:	09000713          	li	a4,144
    3c38:	06e7a823          	sw	a4,112(a5) # 4000070 <_stack_end+0x3efa840>
    3c3c:	00900793          	li	a5,9
    3c40:	03c7e463          	bltu	a5,t3,3c68 <move_piece+0x8f4>
    3c44:	00005737          	lui	a4,0x5
    3c48:	002e1793          	slli	a5,t3,0x2
    3c4c:	43870713          	addi	a4,a4,1080 # 5438 <timeoutcount+0x194>
    3c50:	00e787b3          	add	a5,a5,a4
    3c54:	0007a783          	lw	a5,0(a5)
    3c58:	00078067          	jr	a5
    3c5c:	040007b7          	lui	a5,0x4000
    3c60:	09000713          	li	a4,144
    3c64:	08e7a023          	sw	a4,128(a5) # 4000080 <_stack_end+0x3efa850>
    3c68:	00900793          	li	a5,9
    3c6c:	02c7e463          	bltu	a5,a2,3c94 <move_piece+0x920>
    3c70:	000057b7          	lui	a5,0x5
    3c74:	46078793          	addi	a5,a5,1120 # 5460 <timeoutcount+0x1bc>
    3c78:	00261613          	slli	a2,a2,0x2
    3c7c:	00f60633          	add	a2,a2,a5
    3c80:	00062783          	lw	a5,0(a2)
    3c84:	00078067          	jr	a5
    3c88:	040007b7          	lui	a5,0x4000
    3c8c:	09000713          	li	a4,144
    3c90:	08e7a823          	sw	a4,144(a5) # 4000090 <_stack_end+0x3efa860>
    3c94:	00900793          	li	a5,9
    3c98:	3b17e063          	bltu	a5,a7,4038 <move_piece+0xcc4>
    3c9c:	000057b7          	lui	a5,0x5
    3ca0:	48878793          	addi	a5,a5,1160 # 5488 <timeoutcount+0x1e4>
    3ca4:	00289893          	slli	a7,a7,0x2
    3ca8:	00f888b3          	add	a7,a7,a5
    3cac:	0008a783          	lw	a5,0(a7)
    3cb0:	00078067          	jr	a5
    3cb4:	04000737          	lui	a4,0x4000
    3cb8:	09200693          	li	a3,146
    3cbc:	04d72823          	sw	a3,80(a4) # 4000050 <_stack_end+0x3efa820>
    3cc0:	f25ff06f          	j	3be4 <move_piece+0x870>
    3cc4:	04000737          	lui	a4,0x4000
    3cc8:	09900693          	li	a3,153
    3ccc:	04d72823          	sw	a3,80(a4) # 4000050 <_stack_end+0x3efa820>
    3cd0:	f15ff06f          	j	3be4 <move_piece+0x870>
    3cd4:	04000737          	lui	a4,0x4000
    3cd8:	0b000693          	li	a3,176
    3cdc:	04d72823          	sw	a3,80(a4) # 4000050 <_stack_end+0x3efa820>
    3ce0:	f05ff06f          	j	3be4 <move_piece+0x870>
    3ce4:	04000737          	lui	a4,0x4000
    3ce8:	0a400693          	li	a3,164
    3cec:	04d72823          	sw	a3,80(a4) # 4000050 <_stack_end+0x3efa820>
    3cf0:	ef5ff06f          	j	3be4 <move_piece+0x870>
    3cf4:	04000737          	lui	a4,0x4000
    3cf8:	0f800693          	li	a3,248
    3cfc:	04d72823          	sw	a3,80(a4) # 4000050 <_stack_end+0x3efa820>
    3d00:	ee5ff06f          	j	3be4 <move_piece+0x870>
    3d04:	04000737          	lui	a4,0x4000
    3d08:	08200693          	li	a3,130
    3d0c:	04d72823          	sw	a3,80(a4) # 4000050 <_stack_end+0x3efa820>
    3d10:	ed5ff06f          	j	3be4 <move_piece+0x870>
    3d14:	04000737          	lui	a4,0x4000
    3d18:	08000693          	li	a3,128
    3d1c:	04d72823          	sw	a3,80(a4) # 4000050 <_stack_end+0x3efa820>
    3d20:	ec5ff06f          	j	3be4 <move_piece+0x870>
    3d24:	04000737          	lui	a4,0x4000
    3d28:	0f900693          	li	a3,249
    3d2c:	04d72823          	sw	a3,80(a4) # 4000050 <_stack_end+0x3efa820>
    3d30:	eb5ff06f          	j	3be4 <move_piece+0x870>
    3d34:	04000737          	lui	a4,0x4000
    3d38:	0c000693          	li	a3,192
    3d3c:	04d72823          	sw	a3,80(a4) # 4000050 <_stack_end+0x3efa820>
    3d40:	ea5ff06f          	j	3be4 <move_piece+0x870>
    3d44:	040007b7          	lui	a5,0x4000
    3d48:	08000713          	li	a4,128
    3d4c:	01412483          	lw	s1,20(sp)
    3d50:	0ae7a023          	sw	a4,160(a5) # 40000a0 <_stack_end+0x3efa870>
    3d54:	b89ff06f          	j	38dc <move_piece+0x568>
    3d58:	040007b7          	lui	a5,0x4000
    3d5c:	0f800713          	li	a4,248
    3d60:	01412483          	lw	s1,20(sp)
    3d64:	0ae7a023          	sw	a4,160(a5) # 40000a0 <_stack_end+0x3efa870>
    3d68:	b75ff06f          	j	38dc <move_piece+0x568>
    3d6c:	040007b7          	lui	a5,0x4000
    3d70:	08200713          	li	a4,130
    3d74:	01412483          	lw	s1,20(sp)
    3d78:	0ae7a023          	sw	a4,160(a5) # 40000a0 <_stack_end+0x3efa870>
    3d7c:	b61ff06f          	j	38dc <move_piece+0x568>
    3d80:	040007b7          	lui	a5,0x4000
    3d84:	0c000713          	li	a4,192
    3d88:	08e7a823          	sw	a4,144(a5) # 4000090 <_stack_end+0x3efa860>
    3d8c:	f09ff06f          	j	3c94 <move_piece+0x920>
    3d90:	040007b7          	lui	a5,0x4000
    3d94:	08000713          	li	a4,128
    3d98:	08e7a023          	sw	a4,128(a5) # 4000080 <_stack_end+0x3efa850>
    3d9c:	ecdff06f          	j	3c68 <move_piece+0x8f4>
    3da0:	040007b7          	lui	a5,0x4000
    3da4:	0f800713          	li	a4,248
    3da8:	08e7a023          	sw	a4,128(a5) # 4000080 <_stack_end+0x3efa850>
    3dac:	ebdff06f          	j	3c68 <move_piece+0x8f4>
    3db0:	040007b7          	lui	a5,0x4000
    3db4:	08200713          	li	a4,130
    3db8:	08e7a023          	sw	a4,128(a5) # 4000080 <_stack_end+0x3efa850>
    3dbc:	eadff06f          	j	3c68 <move_piece+0x8f4>
    3dc0:	040007b7          	lui	a5,0x4000
    3dc4:	09200713          	li	a4,146
    3dc8:	01412483          	lw	s1,20(sp)
    3dcc:	0ae7a023          	sw	a4,160(a5) # 40000a0 <_stack_end+0x3efa870>
    3dd0:	b0dff06f          	j	38dc <move_piece+0x568>
    3dd4:	040007b7          	lui	a5,0x4000
    3dd8:	09900713          	li	a4,153
    3ddc:	01412483          	lw	s1,20(sp)
    3de0:	0ae7a023          	sw	a4,160(a5) # 40000a0 <_stack_end+0x3efa870>
    3de4:	af9ff06f          	j	38dc <move_piece+0x568>
    3de8:	040007b7          	lui	a5,0x4000
    3dec:	0b000713          	li	a4,176
    3df0:	01412483          	lw	s1,20(sp)
    3df4:	0ae7a023          	sw	a4,160(a5) # 40000a0 <_stack_end+0x3efa870>
    3df8:	ae5ff06f          	j	38dc <move_piece+0x568>
    3dfc:	040007b7          	lui	a5,0x4000
    3e00:	0a400713          	li	a4,164
    3e04:	01412483          	lw	s1,20(sp)
    3e08:	0ae7a023          	sw	a4,160(a5) # 40000a0 <_stack_end+0x3efa870>
    3e0c:	ad1ff06f          	j	38dc <move_piece+0x568>
    3e10:	040007b7          	lui	a5,0x4000
    3e14:	0f900713          	li	a4,249
    3e18:	06e7a023          	sw	a4,96(a5) # 4000060 <_stack_end+0x3efa830>
    3e1c:	df5ff06f          	j	3c10 <move_piece+0x89c>
    3e20:	040007b7          	lui	a5,0x4000
    3e24:	0c000713          	li	a4,192
    3e28:	06e7a023          	sw	a4,96(a5) # 4000060 <_stack_end+0x3efa830>
    3e2c:	de5ff06f          	j	3c10 <move_piece+0x89c>
    3e30:	040007b7          	lui	a5,0x4000
    3e34:	08000713          	li	a4,128
    3e38:	06e7a023          	sw	a4,96(a5) # 4000060 <_stack_end+0x3efa830>
    3e3c:	dd5ff06f          	j	3c10 <move_piece+0x89c>
    3e40:	040007b7          	lui	a5,0x4000
    3e44:	0f800713          	li	a4,248
    3e48:	06e7a023          	sw	a4,96(a5) # 4000060 <_stack_end+0x3efa830>
    3e4c:	dc5ff06f          	j	3c10 <move_piece+0x89c>
    3e50:	040007b7          	lui	a5,0x4000
    3e54:	08200713          	li	a4,130
    3e58:	06e7a023          	sw	a4,96(a5) # 4000060 <_stack_end+0x3efa830>
    3e5c:	db5ff06f          	j	3c10 <move_piece+0x89c>
    3e60:	040007b7          	lui	a5,0x4000
    3e64:	08000713          	li	a4,128
    3e68:	08e7a823          	sw	a4,144(a5) # 4000090 <_stack_end+0x3efa860>
    3e6c:	e29ff06f          	j	3c94 <move_piece+0x920>
    3e70:	040007b7          	lui	a5,0x4000
    3e74:	0f800713          	li	a4,248
    3e78:	08e7a823          	sw	a4,144(a5) # 4000090 <_stack_end+0x3efa860>
    3e7c:	e19ff06f          	j	3c94 <move_piece+0x920>
    3e80:	040007b7          	lui	a5,0x4000
    3e84:	08200713          	li	a4,130
    3e88:	08e7a823          	sw	a4,144(a5) # 4000090 <_stack_end+0x3efa860>
    3e8c:	e09ff06f          	j	3c94 <move_piece+0x920>
    3e90:	040007b7          	lui	a5,0x4000
    3e94:	09200713          	li	a4,146
    3e98:	08e7a823          	sw	a4,144(a5) # 4000090 <_stack_end+0x3efa860>
    3e9c:	df9ff06f          	j	3c94 <move_piece+0x920>
    3ea0:	040007b7          	lui	a5,0x4000
    3ea4:	09900713          	li	a4,153
    3ea8:	08e7a823          	sw	a4,144(a5) # 4000090 <_stack_end+0x3efa860>
    3eac:	de9ff06f          	j	3c94 <move_piece+0x920>
    3eb0:	040007b7          	lui	a5,0x4000
    3eb4:	0b000713          	li	a4,176
    3eb8:	08e7a823          	sw	a4,144(a5) # 4000090 <_stack_end+0x3efa860>
    3ebc:	dd9ff06f          	j	3c94 <move_piece+0x920>
    3ec0:	040007b7          	lui	a5,0x4000
    3ec4:	0a400713          	li	a4,164
    3ec8:	08e7a823          	sw	a4,144(a5) # 4000090 <_stack_end+0x3efa860>
    3ecc:	dc9ff06f          	j	3c94 <move_piece+0x920>
    3ed0:	040007b7          	lui	a5,0x4000
    3ed4:	0f900713          	li	a4,249
    3ed8:	08e7a823          	sw	a4,144(a5) # 4000090 <_stack_end+0x3efa860>
    3edc:	db9ff06f          	j	3c94 <move_piece+0x920>
    3ee0:	040007b7          	lui	a5,0x4000
    3ee4:	0f900713          	li	a4,249
    3ee8:	01412483          	lw	s1,20(sp)
    3eec:	0ae7a023          	sw	a4,160(a5) # 40000a0 <_stack_end+0x3efa870>
    3ef0:	9edff06f          	j	38dc <move_piece+0x568>
    3ef4:	040007b7          	lui	a5,0x4000
    3ef8:	09000713          	li	a4,144
    3efc:	01412483          	lw	s1,20(sp)
    3f00:	0ae7a023          	sw	a4,160(a5) # 40000a0 <_stack_end+0x3efa870>
    3f04:	9d9ff06f          	j	38dc <move_piece+0x568>
    3f08:	040007b7          	lui	a5,0x4000
    3f0c:	0b000713          	li	a4,176
    3f10:	06e7a823          	sw	a4,112(a5) # 4000070 <_stack_end+0x3efa840>
    3f14:	d29ff06f          	j	3c3c <move_piece+0x8c8>
    3f18:	040007b7          	lui	a5,0x4000
    3f1c:	0a400713          	li	a4,164
    3f20:	06e7a823          	sw	a4,112(a5) # 4000070 <_stack_end+0x3efa840>
    3f24:	d19ff06f          	j	3c3c <move_piece+0x8c8>
    3f28:	040007b7          	lui	a5,0x4000
    3f2c:	0f900713          	li	a4,249
    3f30:	06e7a823          	sw	a4,112(a5) # 4000070 <_stack_end+0x3efa840>
    3f34:	d09ff06f          	j	3c3c <move_piece+0x8c8>
    3f38:	040007b7          	lui	a5,0x4000
    3f3c:	0c000713          	li	a4,192
    3f40:	06e7a823          	sw	a4,112(a5) # 4000070 <_stack_end+0x3efa840>
    3f44:	cf9ff06f          	j	3c3c <move_piece+0x8c8>
    3f48:	040007b7          	lui	a5,0x4000
    3f4c:	09200713          	li	a4,146
    3f50:	06e7a023          	sw	a4,96(a5) # 4000060 <_stack_end+0x3efa830>
    3f54:	cbdff06f          	j	3c10 <move_piece+0x89c>
    3f58:	040007b7          	lui	a5,0x4000
    3f5c:	09900713          	li	a4,153
    3f60:	06e7a023          	sw	a4,96(a5) # 4000060 <_stack_end+0x3efa830>
    3f64:	cadff06f          	j	3c10 <move_piece+0x89c>
    3f68:	040007b7          	lui	a5,0x4000
    3f6c:	0b000713          	li	a4,176
    3f70:	06e7a023          	sw	a4,96(a5) # 4000060 <_stack_end+0x3efa830>
    3f74:	c9dff06f          	j	3c10 <move_piece+0x89c>
    3f78:	040007b7          	lui	a5,0x4000
    3f7c:	0a400713          	li	a4,164
    3f80:	06e7a023          	sw	a4,96(a5) # 4000060 <_stack_end+0x3efa830>
    3f84:	c8dff06f          	j	3c10 <move_piece+0x89c>
    3f88:	040007b7          	lui	a5,0x4000
    3f8c:	09200713          	li	a4,146
    3f90:	08e7a023          	sw	a4,128(a5) # 4000080 <_stack_end+0x3efa850>
    3f94:	cd5ff06f          	j	3c68 <move_piece+0x8f4>
    3f98:	040007b7          	lui	a5,0x4000
    3f9c:	09900713          	li	a4,153
    3fa0:	08e7a023          	sw	a4,128(a5) # 4000080 <_stack_end+0x3efa850>
    3fa4:	cc5ff06f          	j	3c68 <move_piece+0x8f4>
    3fa8:	040007b7          	lui	a5,0x4000
    3fac:	0b000713          	li	a4,176
    3fb0:	08e7a023          	sw	a4,128(a5) # 4000080 <_stack_end+0x3efa850>
    3fb4:	cb5ff06f          	j	3c68 <move_piece+0x8f4>
    3fb8:	040007b7          	lui	a5,0x4000
    3fbc:	0a400713          	li	a4,164
    3fc0:	08e7a023          	sw	a4,128(a5) # 4000080 <_stack_end+0x3efa850>
    3fc4:	ca5ff06f          	j	3c68 <move_piece+0x8f4>
    3fc8:	040007b7          	lui	a5,0x4000
    3fcc:	0f900713          	li	a4,249
    3fd0:	08e7a023          	sw	a4,128(a5) # 4000080 <_stack_end+0x3efa850>
    3fd4:	c95ff06f          	j	3c68 <move_piece+0x8f4>
    3fd8:	040007b7          	lui	a5,0x4000
    3fdc:	0c000713          	li	a4,192
    3fe0:	08e7a023          	sw	a4,128(a5) # 4000080 <_stack_end+0x3efa850>
    3fe4:	c85ff06f          	j	3c68 <move_piece+0x8f4>
    3fe8:	040007b7          	lui	a5,0x4000
    3fec:	08000713          	li	a4,128
    3ff0:	06e7a823          	sw	a4,112(a5) # 4000070 <_stack_end+0x3efa840>
    3ff4:	c49ff06f          	j	3c3c <move_piece+0x8c8>
    3ff8:	040007b7          	lui	a5,0x4000
    3ffc:	0f800713          	li	a4,248
    4000:	06e7a823          	sw	a4,112(a5) # 4000070 <_stack_end+0x3efa840>
    4004:	c39ff06f          	j	3c3c <move_piece+0x8c8>
    4008:	040007b7          	lui	a5,0x4000
    400c:	08200713          	li	a4,130
    4010:	06e7a823          	sw	a4,112(a5) # 4000070 <_stack_end+0x3efa840>
    4014:	c29ff06f          	j	3c3c <move_piece+0x8c8>
    4018:	040007b7          	lui	a5,0x4000
    401c:	09200713          	li	a4,146
    4020:	06e7a823          	sw	a4,112(a5) # 4000070 <_stack_end+0x3efa840>
    4024:	c19ff06f          	j	3c3c <move_piece+0x8c8>
    4028:	040007b7          	lui	a5,0x4000
    402c:	09900713          	li	a4,153
    4030:	06e7a823          	sw	a4,112(a5) # 4000070 <_stack_end+0x3efa840>
    4034:	c09ff06f          	j	3c3c <move_piece+0x8c8>
    4038:	01412483          	lw	s1,20(sp)
    403c:	8a1ff06f          	j	38dc <move_piece+0x568>

00004040 <clear_lines>:
    4040:	fd010113          	addi	sp,sp,-48
    4044:	02812623          	sw	s0,44(sp)
    4048:	02912423          	sw	s1,40(sp)
    404c:	03212223          	sw	s2,36(sp)
    4050:	03312023          	sw	s3,32(sp)
    4054:	01412e23          	sw	s4,28(sp)
    4058:	01512c23          	sw	s5,24(sp)
    405c:	01612a23          	sw	s6,20(sp)
    4060:	01712823          	sw	s7,16(sp)
    4064:	01812623          	sw	s8,12(sp)
    4068:	00005737          	lui	a4,0x5
    406c:	51eb8437          	lui	s0,0x51eb8
    4070:	00005c37          	lui	s8,0x5
    4074:	00005bb7          	lui	s7,0x5
    4078:	00005b37          	lui	s6,0x5
    407c:	00005ab7          	lui	s5,0x5
    4080:	00005a37          	lui	s4,0x5
    4084:	000053b7          	lui	t2,0x5
    4088:	14f8b9b7          	lui	s3,0x14f8b
    408c:	66666eb7          	lui	t4,0x66666
    4090:	68db9937          	lui	s2,0x68db9
    4094:	106254b7          	lui	s1,0x10625
    4098:	01912423          	sw	s9,8(sp)
    409c:	01a12223          	sw	s10,4(sp)
    40a0:	13470713          	addi	a4,a4,308 # 5134 <grid>
    40a4:	58998993          	addi	s3,s3,1417 # 14f8b589 <_stack_end+0x14e85d59>
    40a8:	667e8e93          	addi	t4,t4,1639 # 66666667 <_stack_end+0x66560e37>
    40ac:	bad90913          	addi	s2,s2,-1107 # 68db8bad <_stack_end+0x68cb337d>
    40b0:	dd348493          	addi	s1,s1,-557 # 10624dd3 <_stack_end+0x1051f5a3>
    40b4:	51f40413          	addi	s0,s0,1311 # 51eb851f <_stack_end+0x51db2cef>
    40b8:	578c0c13          	addi	s8,s8,1400 # 5578 <timeoutcount+0x2d4>
    40bc:	550b8b93          	addi	s7,s7,1360 # 5550 <timeoutcount+0x2ac>
    40c0:	528b0b13          	addi	s6,s6,1320 # 5528 <timeoutcount+0x284>
    40c4:	500a8a93          	addi	s5,s5,1280 # 5500 <timeoutcount+0x25c>
    40c8:	4d8a0a13          	addi	s4,s4,1240 # 54d8 <timeoutcount+0x234>
    40cc:	4b038393          	addi	t2,t2,1200 # 54b0 <timeoutcount+0x20c>
    40d0:	01300313          	li	t1,19
    40d4:	04c00e13          	li	t3,76
    40d8:	000052b7          	lui	t0,0x5
    40dc:	00900f13          	li	t5,9
    40e0:	fff00f93          	li	t6,-1
    40e4:	006e07b3          	add	a5,t3,t1
    40e8:	00179793          	slli	a5,a5,0x1
    40ec:	00f707b3          	add	a5,a4,a5
    40f0:	0007c683          	lbu	a3,0(a5)
    40f4:	1c068863          	beqz	a3,42c4 <clear_lines+0x284>
    40f8:	0017c683          	lbu	a3,1(a5)
    40fc:	1c068463          	beqz	a3,42c4 <clear_lines+0x284>
    4100:	0027c683          	lbu	a3,2(a5)
    4104:	1c068063          	beqz	a3,42c4 <clear_lines+0x284>
    4108:	0037c683          	lbu	a3,3(a5)
    410c:	1a068c63          	beqz	a3,42c4 <clear_lines+0x284>
    4110:	0047c683          	lbu	a3,4(a5)
    4114:	1a068863          	beqz	a3,42c4 <clear_lines+0x284>
    4118:	0057c683          	lbu	a3,5(a5)
    411c:	1a068463          	beqz	a3,42c4 <clear_lines+0x284>
    4120:	0067c683          	lbu	a3,6(a5)
    4124:	1a068063          	beqz	a3,42c4 <clear_lines+0x284>
    4128:	0077c683          	lbu	a3,7(a5)
    412c:	18068c63          	beqz	a3,42c4 <clear_lines+0x284>
    4130:	0087c683          	lbu	a3,8(a5)
    4134:	18068863          	beqz	a3,42c4 <clear_lines+0x284>
    4138:	0097c783          	lbu	a5,9(a5)
    413c:	18078463          	beqz	a5,42c4 <clear_lines+0x284>
    4140:	006e07b3          	add	a5,t3,t1
    4144:	00179793          	slli	a5,a5,0x1
    4148:	00f707b3          	add	a5,a4,a5
    414c:	04030e63          	beqz	t1,41a8 <clear_lines+0x168>
    4150:	ff67c603          	lbu	a2,-10(a5)
    4154:	ff77c683          	lbu	a3,-9(a5)
    4158:	ff87cd03          	lbu	s10,-8(a5)
    415c:	ff97cc83          	lbu	s9,-7(a5)
    4160:	ffa7c883          	lbu	a7,-6(a5)
    4164:	ffb7c803          	lbu	a6,-5(a5)
    4168:	ffc7c503          	lbu	a0,-4(a5)
    416c:	ffd7c583          	lbu	a1,-3(a5)
    4170:	00c78023          	sb	a2,0(a5)
    4174:	00d780a3          	sb	a3,1(a5)
    4178:	ffe7c603          	lbu	a2,-2(a5)
    417c:	fff7c683          	lbu	a3,-1(a5)
    4180:	01a78123          	sb	s10,2(a5)
    4184:	019781a3          	sb	s9,3(a5)
    4188:	01178223          	sb	a7,4(a5)
    418c:	010782a3          	sb	a6,5(a5)
    4190:	00a78323          	sb	a0,6(a5)
    4194:	00b783a3          	sb	a1,7(a5)
    4198:	00c78423          	sb	a2,8(a5)
    419c:	00d784a3          	sb	a3,9(a5)
    41a0:	ff678793          	addi	a5,a5,-10
    41a4:	faf716e3          	bne	a4,a5,4150 <clear_lines+0x110>
    41a8:	2a02a583          	lw	a1,672(t0) # 52a0 <score>
    41ac:	00072023          	sw	zero,0(a4)
    41b0:	00072223          	sw	zero,4(a4)
    41b4:	06458593          	addi	a1,a1,100
    41b8:	033596b3          	mulh	a3,a1,s3
    41bc:	41f5dc93          	srai	s9,a1,0x1f
    41c0:	2ab2a023          	sw	a1,672(t0)
    41c4:	00071423          	sh	zero,8(a4)
    41c8:	40d6d693          	srai	a3,a3,0xd
    41cc:	419686b3          	sub	a3,a3,s9
    41d0:	03d697b3          	mulh	a5,a3,t4
    41d4:	41f6d813          	srai	a6,a3,0x1f
    41d8:	03259633          	mulh	a2,a1,s2
    41dc:	4027d793          	srai	a5,a5,0x2
    41e0:	410787b3          	sub	a5,a5,a6
    41e4:	00279813          	slli	a6,a5,0x2
    41e8:	00f807b3          	add	a5,a6,a5
    41ec:	00179793          	slli	a5,a5,0x1
    41f0:	40f687b3          	sub	a5,a3,a5
    41f4:	40c65613          	srai	a2,a2,0xc
    41f8:	41960633          	sub	a2,a2,s9
    41fc:	03d616b3          	mulh	a3,a2,t4
    4200:	41f65d13          	srai	s10,a2,0x1f
    4204:	02959533          	mulh	a0,a1,s1
    4208:	4026d693          	srai	a3,a3,0x2
    420c:	41a68833          	sub	a6,a3,s10
    4210:	00281693          	slli	a3,a6,0x2
    4214:	010686b3          	add	a3,a3,a6
    4218:	00169693          	slli	a3,a3,0x1
    421c:	40d60833          	sub	a6,a2,a3
    4220:	40655513          	srai	a0,a0,0x6
    4224:	41950533          	sub	a0,a0,s9
    4228:	03d51633          	mulh	a2,a0,t4
    422c:	41f55893          	srai	a7,a0,0x1f
    4230:	40265613          	srai	a2,a2,0x2
    4234:	41160633          	sub	a2,a2,a7
    4238:	00261893          	slli	a7,a2,0x2
    423c:	00c88633          	add	a2,a7,a2
    4240:	03d598b3          	mulh	a7,a1,t4
    4244:	00161613          	slli	a2,a2,0x1
    4248:	40c50633          	sub	a2,a0,a2
    424c:	02859d33          	mulh	s10,a1,s0
    4250:	4028d893          	srai	a7,a7,0x2
    4254:	419888b3          	sub	a7,a7,s9
    4258:	00289513          	slli	a0,a7,0x2
    425c:	01150533          	add	a0,a0,a7
    4260:	00151513          	slli	a0,a0,0x1
    4264:	40a58533          	sub	a0,a1,a0
    4268:	405d5693          	srai	a3,s10,0x5
    426c:	419686b3          	sub	a3,a3,s9
    4270:	03d695b3          	mulh	a1,a3,t4
    4274:	41f6dd13          	srai	s10,a3,0x1f
    4278:	41f8dc93          	srai	s9,a7,0x1f
    427c:	4025d593          	srai	a1,a1,0x2
    4280:	41a585b3          	sub	a1,a1,s10
    4284:	00259d13          	slli	s10,a1,0x2
    4288:	00bd05b3          	add	a1,s10,a1
    428c:	00159593          	slli	a1,a1,0x1
    4290:	40b685b3          	sub	a1,a3,a1
    4294:	03d896b3          	mulh	a3,a7,t4
    4298:	4026d693          	srai	a3,a3,0x2
    429c:	419686b3          	sub	a3,a3,s9
    42a0:	00269c93          	slli	s9,a3,0x2
    42a4:	00dc86b3          	add	a3,s9,a3
    42a8:	00169693          	slli	a3,a3,0x1
    42ac:	40d886b3          	sub	a3,a7,a3
    42b0:	02af6863          	bltu	t5,a0,42e0 <clear_lines+0x2a0>
    42b4:	00251513          	slli	a0,a0,0x2
    42b8:	00750533          	add	a0,a0,t2
    42bc:	00052503          	lw	a0,0(a0)
    42c0:	00050067          	jr	a0
    42c4:	fff30313          	addi	t1,t1,-1
    42c8:	0bf30863          	beq	t1,t6,4378 <clear_lines+0x338>
    42cc:	00231e13          	slli	t3,t1,0x2
    42d0:	e15ff06f          	j	40e4 <clear_lines+0xa4>
    42d4:	04000537          	lui	a0,0x4000
    42d8:	09000893          	li	a7,144
    42dc:	05152823          	sw	a7,80(a0) # 4000050 <_stack_end+0x3efa820>
    42e0:	02df6063          	bltu	t5,a3,4300 <clear_lines+0x2c0>
    42e4:	00269513          	slli	a0,a3,0x2
    42e8:	01450533          	add	a0,a0,s4
    42ec:	00052683          	lw	a3,0(a0)
    42f0:	00068067          	jr	a3
    42f4:	040006b7          	lui	a3,0x4000
    42f8:	09000513          	li	a0,144
    42fc:	06a6a023          	sw	a0,96(a3) # 4000060 <_stack_end+0x3efa830>
    4300:	02bf6063          	bltu	t5,a1,4320 <clear_lines+0x2e0>
    4304:	00259593          	slli	a1,a1,0x2
    4308:	015585b3          	add	a1,a1,s5
    430c:	0005a683          	lw	a3,0(a1)
    4310:	00068067          	jr	a3
    4314:	040006b7          	lui	a3,0x4000
    4318:	09000593          	li	a1,144
    431c:	06b6a823          	sw	a1,112(a3) # 4000070 <_stack_end+0x3efa840>
    4320:	02cf6063          	bltu	t5,a2,4340 <clear_lines+0x300>
    4324:	00261613          	slli	a2,a2,0x2
    4328:	01660633          	add	a2,a2,s6
    432c:	00062683          	lw	a3,0(a2)
    4330:	00068067          	jr	a3
    4334:	040006b7          	lui	a3,0x4000
    4338:	09000613          	li	a2,144
    433c:	08c6a023          	sw	a2,128(a3) # 4000080 <_stack_end+0x3efa850>
    4340:	030f6263          	bltu	t5,a6,4364 <clear_lines+0x324>
    4344:	00281693          	slli	a3,a6,0x2
    4348:	017686b3          	add	a3,a3,s7
    434c:	0006a683          	lw	a3,0(a3)
    4350:	00068067          	jr	a3
    4354:	040006b7          	lui	a3,0x4000
    4358:	09068693          	addi	a3,a3,144 # 4000090 <_stack_end+0x3efa860>
    435c:	09000613          	li	a2,144
    4360:	00c6a023          	sw	a2,0(a3)
    4364:	d8ff60e3          	bltu	t5,a5,40e4 <clear_lines+0xa4>
    4368:	00279793          	slli	a5,a5,0x2
    436c:	018787b3          	add	a5,a5,s8
    4370:	0007a783          	lw	a5,0(a5)
    4374:	00078067          	jr	a5
    4378:	02c12403          	lw	s0,44(sp)
    437c:	02812483          	lw	s1,40(sp)
    4380:	02412903          	lw	s2,36(sp)
    4384:	02012983          	lw	s3,32(sp)
    4388:	01c12a03          	lw	s4,28(sp)
    438c:	01812a83          	lw	s5,24(sp)
    4390:	01412b03          	lw	s6,20(sp)
    4394:	01012b83          	lw	s7,16(sp)
    4398:	00c12c03          	lw	s8,12(sp)
    439c:	00812c83          	lw	s9,8(sp)
    43a0:	00412d03          	lw	s10,4(sp)
    43a4:	03010113          	addi	sp,sp,48
    43a8:	00008067          	ret
    43ac:	04000537          	lui	a0,0x4000
    43b0:	08000893          	li	a7,128
    43b4:	05152823          	sw	a7,80(a0) # 4000050 <_stack_end+0x3efa820>
    43b8:	f29ff06f          	j	42e0 <clear_lines+0x2a0>
    43bc:	04000537          	lui	a0,0x4000
    43c0:	0c000893          	li	a7,192
    43c4:	05152823          	sw	a7,80(a0) # 4000050 <_stack_end+0x3efa820>
    43c8:	f19ff06f          	j	42e0 <clear_lines+0x2a0>
    43cc:	04000537          	lui	a0,0x4000
    43d0:	0f900893          	li	a7,249
    43d4:	05152823          	sw	a7,80(a0) # 4000050 <_stack_end+0x3efa820>
    43d8:	f09ff06f          	j	42e0 <clear_lines+0x2a0>
    43dc:	04000537          	lui	a0,0x4000
    43e0:	0a400893          	li	a7,164
    43e4:	05152823          	sw	a7,80(a0) # 4000050 <_stack_end+0x3efa820>
    43e8:	ef9ff06f          	j	42e0 <clear_lines+0x2a0>
    43ec:	04000537          	lui	a0,0x4000
    43f0:	0b000893          	li	a7,176
    43f4:	05152823          	sw	a7,80(a0) # 4000050 <_stack_end+0x3efa820>
    43f8:	ee9ff06f          	j	42e0 <clear_lines+0x2a0>
    43fc:	04000537          	lui	a0,0x4000
    4400:	09900893          	li	a7,153
    4404:	05152823          	sw	a7,80(a0) # 4000050 <_stack_end+0x3efa820>
    4408:	ed9ff06f          	j	42e0 <clear_lines+0x2a0>
    440c:	04000537          	lui	a0,0x4000
    4410:	09200893          	li	a7,146
    4414:	05152823          	sw	a7,80(a0) # 4000050 <_stack_end+0x3efa820>
    4418:	ec9ff06f          	j	42e0 <clear_lines+0x2a0>
    441c:	04000537          	lui	a0,0x4000
    4420:	08200893          	li	a7,130
    4424:	05152823          	sw	a7,80(a0) # 4000050 <_stack_end+0x3efa820>
    4428:	eb9ff06f          	j	42e0 <clear_lines+0x2a0>
    442c:	04000537          	lui	a0,0x4000
    4430:	0f800893          	li	a7,248
    4434:	05152823          	sw	a7,80(a0) # 4000050 <_stack_end+0x3efa820>
    4438:	ea9ff06f          	j	42e0 <clear_lines+0x2a0>
    443c:	040006b7          	lui	a3,0x4000
    4440:	0c000513          	li	a0,192
    4444:	06a6a023          	sw	a0,96(a3) # 4000060 <_stack_end+0x3efa830>
    4448:	eb9ff06f          	j	4300 <clear_lines+0x2c0>
    444c:	040006b7          	lui	a3,0x4000
    4450:	0f900513          	li	a0,249
    4454:	06a6a023          	sw	a0,96(a3) # 4000060 <_stack_end+0x3efa830>
    4458:	ea9ff06f          	j	4300 <clear_lines+0x2c0>
    445c:	040006b7          	lui	a3,0x4000
    4460:	0c000593          	li	a1,192
    4464:	06b6a823          	sw	a1,112(a3) # 4000070 <_stack_end+0x3efa840>
    4468:	eb9ff06f          	j	4320 <clear_lines+0x2e0>
    446c:	040006b7          	lui	a3,0x4000
    4470:	0f900593          	li	a1,249
    4474:	06b6a823          	sw	a1,112(a3) # 4000070 <_stack_end+0x3efa840>
    4478:	ea9ff06f          	j	4320 <clear_lines+0x2e0>
    447c:	040006b7          	lui	a3,0x4000
    4480:	0a400593          	li	a1,164
    4484:	06b6a823          	sw	a1,112(a3) # 4000070 <_stack_end+0x3efa840>
    4488:	e99ff06f          	j	4320 <clear_lines+0x2e0>
    448c:	040006b7          	lui	a3,0x4000
    4490:	0b000593          	li	a1,176
    4494:	06b6a823          	sw	a1,112(a3) # 4000070 <_stack_end+0x3efa840>
    4498:	e89ff06f          	j	4320 <clear_lines+0x2e0>
    449c:	040006b7          	lui	a3,0x4000
    44a0:	09900593          	li	a1,153
    44a4:	06b6a823          	sw	a1,112(a3) # 4000070 <_stack_end+0x3efa840>
    44a8:	e79ff06f          	j	4320 <clear_lines+0x2e0>
    44ac:	040006b7          	lui	a3,0x4000
    44b0:	09200593          	li	a1,146
    44b4:	06b6a823          	sw	a1,112(a3) # 4000070 <_stack_end+0x3efa840>
    44b8:	e69ff06f          	j	4320 <clear_lines+0x2e0>
    44bc:	040006b7          	lui	a3,0x4000
    44c0:	08200593          	li	a1,130
    44c4:	06b6a823          	sw	a1,112(a3) # 4000070 <_stack_end+0x3efa840>
    44c8:	e59ff06f          	j	4320 <clear_lines+0x2e0>
    44cc:	040006b7          	lui	a3,0x4000
    44d0:	0f800593          	li	a1,248
    44d4:	06b6a823          	sw	a1,112(a3) # 4000070 <_stack_end+0x3efa840>
    44d8:	e49ff06f          	j	4320 <clear_lines+0x2e0>
    44dc:	040006b7          	lui	a3,0x4000
    44e0:	08000593          	li	a1,128
    44e4:	06b6a823          	sw	a1,112(a3) # 4000070 <_stack_end+0x3efa840>
    44e8:	e39ff06f          	j	4320 <clear_lines+0x2e0>
    44ec:	040006b7          	lui	a3,0x4000
    44f0:	0c000613          	li	a2,192
    44f4:	08c6a023          	sw	a2,128(a3) # 4000080 <_stack_end+0x3efa850>
    44f8:	e49ff06f          	j	4340 <clear_lines+0x300>
    44fc:	040006b7          	lui	a3,0x4000
    4500:	0f900613          	li	a2,249
    4504:	08c6a023          	sw	a2,128(a3) # 4000080 <_stack_end+0x3efa850>
    4508:	e39ff06f          	j	4340 <clear_lines+0x300>
    450c:	040006b7          	lui	a3,0x4000
    4510:	0a400613          	li	a2,164
    4514:	08c6a023          	sw	a2,128(a3) # 4000080 <_stack_end+0x3efa850>
    4518:	e29ff06f          	j	4340 <clear_lines+0x300>
    451c:	040006b7          	lui	a3,0x4000
    4520:	0b000613          	li	a2,176
    4524:	08c6a023          	sw	a2,128(a3) # 4000080 <_stack_end+0x3efa850>
    4528:	e19ff06f          	j	4340 <clear_lines+0x300>
    452c:	040006b7          	lui	a3,0x4000
    4530:	09900613          	li	a2,153
    4534:	08c6a023          	sw	a2,128(a3) # 4000080 <_stack_end+0x3efa850>
    4538:	e09ff06f          	j	4340 <clear_lines+0x300>
    453c:	040006b7          	lui	a3,0x4000
    4540:	09200613          	li	a2,146
    4544:	08c6a023          	sw	a2,128(a3) # 4000080 <_stack_end+0x3efa850>
    4548:	df9ff06f          	j	4340 <clear_lines+0x300>
    454c:	040006b7          	lui	a3,0x4000
    4550:	0a400513          	li	a0,164
    4554:	06a6a023          	sw	a0,96(a3) # 4000060 <_stack_end+0x3efa830>
    4558:	da9ff06f          	j	4300 <clear_lines+0x2c0>
    455c:	040006b7          	lui	a3,0x4000
    4560:	0b000513          	li	a0,176
    4564:	06a6a023          	sw	a0,96(a3) # 4000060 <_stack_end+0x3efa830>
    4568:	d99ff06f          	j	4300 <clear_lines+0x2c0>
    456c:	040006b7          	lui	a3,0x4000
    4570:	09900513          	li	a0,153
    4574:	06a6a023          	sw	a0,96(a3) # 4000060 <_stack_end+0x3efa830>
    4578:	d89ff06f          	j	4300 <clear_lines+0x2c0>
    457c:	040006b7          	lui	a3,0x4000
    4580:	09200513          	li	a0,146
    4584:	06a6a023          	sw	a0,96(a3) # 4000060 <_stack_end+0x3efa830>
    4588:	d79ff06f          	j	4300 <clear_lines+0x2c0>
    458c:	040006b7          	lui	a3,0x4000
    4590:	08200513          	li	a0,130
    4594:	06a6a023          	sw	a0,96(a3) # 4000060 <_stack_end+0x3efa830>
    4598:	d69ff06f          	j	4300 <clear_lines+0x2c0>
    459c:	040006b7          	lui	a3,0x4000
    45a0:	0f800513          	li	a0,248
    45a4:	06a6a023          	sw	a0,96(a3) # 4000060 <_stack_end+0x3efa830>
    45a8:	d59ff06f          	j	4300 <clear_lines+0x2c0>
    45ac:	040006b7          	lui	a3,0x4000
    45b0:	08000513          	li	a0,128
    45b4:	06a6a023          	sw	a0,96(a3) # 4000060 <_stack_end+0x3efa830>
    45b8:	d49ff06f          	j	4300 <clear_lines+0x2c0>
    45bc:	040007b7          	lui	a5,0x4000
    45c0:	08000693          	li	a3,128
    45c4:	0ad7a023          	sw	a3,160(a5) # 40000a0 <_stack_end+0x3efa870>
    45c8:	b1dff06f          	j	40e4 <clear_lines+0xa4>
    45cc:	040007b7          	lui	a5,0x4000
    45d0:	08200693          	li	a3,130
    45d4:	0ad7a023          	sw	a3,160(a5) # 40000a0 <_stack_end+0x3efa870>
    45d8:	b0dff06f          	j	40e4 <clear_lines+0xa4>
    45dc:	040007b7          	lui	a5,0x4000
    45e0:	0f800693          	li	a3,248
    45e4:	0ad7a023          	sw	a3,160(a5) # 40000a0 <_stack_end+0x3efa870>
    45e8:	afdff06f          	j	40e4 <clear_lines+0xa4>
    45ec:	040007b7          	lui	a5,0x4000
    45f0:	0a400693          	li	a3,164
    45f4:	0ad7a023          	sw	a3,160(a5) # 40000a0 <_stack_end+0x3efa870>
    45f8:	aedff06f          	j	40e4 <clear_lines+0xa4>
    45fc:	040007b7          	lui	a5,0x4000
    4600:	0b000693          	li	a3,176
    4604:	0ad7a023          	sw	a3,160(a5) # 40000a0 <_stack_end+0x3efa870>
    4608:	addff06f          	j	40e4 <clear_lines+0xa4>
    460c:	040007b7          	lui	a5,0x4000
    4610:	09900693          	li	a3,153
    4614:	0ad7a023          	sw	a3,160(a5) # 40000a0 <_stack_end+0x3efa870>
    4618:	acdff06f          	j	40e4 <clear_lines+0xa4>
    461c:	040007b7          	lui	a5,0x4000
    4620:	09200693          	li	a3,146
    4624:	0ad7a023          	sw	a3,160(a5) # 40000a0 <_stack_end+0x3efa870>
    4628:	abdff06f          	j	40e4 <clear_lines+0xa4>
    462c:	040006b7          	lui	a3,0x4000
    4630:	08200613          	li	a2,130
    4634:	08c6a023          	sw	a2,128(a3) # 4000080 <_stack_end+0x3efa850>
    4638:	d09ff06f          	j	4340 <clear_lines+0x300>
    463c:	040006b7          	lui	a3,0x4000
    4640:	0f800613          	li	a2,248
    4644:	08c6a023          	sw	a2,128(a3) # 4000080 <_stack_end+0x3efa850>
    4648:	cf9ff06f          	j	4340 <clear_lines+0x300>
    464c:	040006b7          	lui	a3,0x4000
    4650:	08000613          	li	a2,128
    4654:	08c6a023          	sw	a2,128(a3) # 4000080 <_stack_end+0x3efa850>
    4658:	ce9ff06f          	j	4340 <clear_lines+0x300>
    465c:	040006b7          	lui	a3,0x4000
    4660:	0c000613          	li	a2,192
    4664:	08c6a823          	sw	a2,144(a3) # 4000090 <_stack_end+0x3efa860>
    4668:	cfdff06f          	j	4364 <clear_lines+0x324>
    466c:	040006b7          	lui	a3,0x4000
    4670:	0f900613          	li	a2,249
    4674:	08c6a823          	sw	a2,144(a3) # 4000090 <_stack_end+0x3efa860>
    4678:	cedff06f          	j	4364 <clear_lines+0x324>
    467c:	040006b7          	lui	a3,0x4000
    4680:	0a400613          	li	a2,164
    4684:	08c6a823          	sw	a2,144(a3) # 4000090 <_stack_end+0x3efa860>
    4688:	cddff06f          	j	4364 <clear_lines+0x324>
    468c:	040006b7          	lui	a3,0x4000
    4690:	0b000613          	li	a2,176
    4694:	08c6a823          	sw	a2,144(a3) # 4000090 <_stack_end+0x3efa860>
    4698:	ccdff06f          	j	4364 <clear_lines+0x324>
    469c:	040006b7          	lui	a3,0x4000
    46a0:	09900613          	li	a2,153
    46a4:	08c6a823          	sw	a2,144(a3) # 4000090 <_stack_end+0x3efa860>
    46a8:	cbdff06f          	j	4364 <clear_lines+0x324>
    46ac:	040006b7          	lui	a3,0x4000
    46b0:	09200613          	li	a2,146
    46b4:	08c6a823          	sw	a2,144(a3) # 4000090 <_stack_end+0x3efa860>
    46b8:	cadff06f          	j	4364 <clear_lines+0x324>
    46bc:	040006b7          	lui	a3,0x4000
    46c0:	08200613          	li	a2,130
    46c4:	08c6a823          	sw	a2,144(a3) # 4000090 <_stack_end+0x3efa860>
    46c8:	c9dff06f          	j	4364 <clear_lines+0x324>
    46cc:	040006b7          	lui	a3,0x4000
    46d0:	0f800613          	li	a2,248
    46d4:	08c6a823          	sw	a2,144(a3) # 4000090 <_stack_end+0x3efa860>
    46d8:	c8dff06f          	j	4364 <clear_lines+0x324>
    46dc:	040006b7          	lui	a3,0x4000
    46e0:	08000613          	li	a2,128
    46e4:	08c6a823          	sw	a2,144(a3) # 4000090 <_stack_end+0x3efa860>
    46e8:	c7dff06f          	j	4364 <clear_lines+0x324>
    46ec:	040007b7          	lui	a5,0x4000
    46f0:	09000693          	li	a3,144
    46f4:	0ad7a023          	sw	a3,160(a5) # 40000a0 <_stack_end+0x3efa870>
    46f8:	9edff06f          	j	40e4 <clear_lines+0xa4>
    46fc:	040007b7          	lui	a5,0x4000
    4700:	0c000693          	li	a3,192
    4704:	0ad7a023          	sw	a3,160(a5) # 40000a0 <_stack_end+0x3efa870>
    4708:	9ddff06f          	j	40e4 <clear_lines+0xa4>
    470c:	040007b7          	lui	a5,0x4000
    4710:	0f900693          	li	a3,249
    4714:	0ad7a023          	sw	a3,160(a5) # 40000a0 <_stack_end+0x3efa870>
    4718:	9cdff06f          	j	40e4 <clear_lines+0xa4>

0000471c <tick>:
    471c:	04000737          	lui	a4,0x4000
    4720:	fe010113          	addi	sp,sp,-32
    4724:	01070793          	addi	a5,a4,16 # 4000010 <_stack_end+0x3efa7e0>
    4728:	01212823          	sw	s2,16(sp)
    472c:	0e072903          	lw	s2,224(a4)
    4730:	0007a783          	lw	a5,0(a5)
    4734:	00812c23          	sw	s0,24(sp)
    4738:	00912a23          	sw	s1,20(sp)
    473c:	00112e23          	sw	ra,28(sp)
    4740:	01312623          	sw	s3,12(sp)
    4744:	01412423          	sw	s4,8(sp)
    4748:	0017f793          	andi	a5,a5,1
    474c:	00050493          	mv	s1,a0
    4750:	00005437          	lui	s0,0x5
    4754:	3c079e63          	bnez	a5,4b30 <tick+0x414>
    4758:	000059b7          	lui	s3,0x5
    475c:	13440413          	addi	s0,s0,308 # 5134 <grid>
    4760:	1fc98a13          	addi	s4,s3,508 # 51fc <current_piece>
    4764:	00090593          	mv	a1,s2
    4768:	000a0513          	mv	a0,s4
    476c:	c09fe0ef          	jal	3374 <move_piece>
    4770:	0d042583          	lw	a1,208(s0)
    4774:	0cc42603          	lw	a2,204(s0)
    4778:	00a40713          	addi	a4,s0,10
    477c:	00259793          	slli	a5,a1,0x2
    4780:	00b787b3          	add	a5,a5,a1
    4784:	00160e13          	addi	t3,a2,1
    4788:	00260e93          	addi	t4,a2,2
    478c:	00360f13          	addi	t5,a2,3
    4790:	00179793          	slli	a5,a5,0x1
    4794:	00158593          	addi	a1,a1,1
    4798:	00c70733          	add	a4,a4,a2
    479c:	00ae3893          	sltiu	a7,t3,10
    47a0:	00aeb313          	sltiu	t1,t4,10
    47a4:	00af3f93          	sltiu	t6,t5,10
    47a8:	00a63813          	sltiu	a6,a2,10
    47ac:	00f70733          	add	a4,a4,a5
    47b0:	0018c893          	xori	a7,a7,1
    47b4:	00134313          	xori	t1,t1,1
    47b8:	001fcf93          	xori	t6,t6,1
    47bc:	00058693          	mv	a3,a1
    47c0:	00184813          	xori	a6,a6,1
    47c4:	000a0913          	mv	s2,s4
    47c8:	10840293          	addi	t0,s0,264
    47cc:	000a0793          	mv	a5,s4
    47d0:	0107a503          	lw	a0,16(a5)
    47d4:	00050c63          	beqz	a0,47ec <tick+0xd0>
    47d8:	0146b513          	sltiu	a0,a3,20
    47dc:	18050063          	beqz	a0,495c <tick+0x240>
    47e0:	16081e63          	bnez	a6,495c <tick+0x240>
    47e4:	00074503          	lbu	a0,0(a4)
    47e8:	16051a63          	bnez	a0,495c <tick+0x240>
    47ec:	0147a503          	lw	a0,20(a5)
    47f0:	02050063          	beqz	a0,4810 <tick+0xf4>
    47f4:	0146b513          	sltiu	a0,a3,20
    47f8:	16050263          	beqz	a0,495c <tick+0x240>
    47fc:	16089063          	bnez	a7,495c <tick+0x240>
    4800:	00ee0533          	add	a0,t3,a4
    4804:	40c50533          	sub	a0,a0,a2
    4808:	00054503          	lbu	a0,0(a0)
    480c:	14051863          	bnez	a0,495c <tick+0x240>
    4810:	0187a503          	lw	a0,24(a5)
    4814:	02050063          	beqz	a0,4834 <tick+0x118>
    4818:	0146b513          	sltiu	a0,a3,20
    481c:	14050063          	beqz	a0,495c <tick+0x240>
    4820:	12031e63          	bnez	t1,495c <tick+0x240>
    4824:	00ee8533          	add	a0,t4,a4
    4828:	40c50533          	sub	a0,a0,a2
    482c:	00054503          	lbu	a0,0(a0)
    4830:	12051663          	bnez	a0,495c <tick+0x240>
    4834:	01c7a503          	lw	a0,28(a5)
    4838:	02050063          	beqz	a0,4858 <tick+0x13c>
    483c:	0146b513          	sltiu	a0,a3,20
    4840:	10050e63          	beqz	a0,495c <tick+0x240>
    4844:	100f9c63          	bnez	t6,495c <tick+0x240>
    4848:	00ef0533          	add	a0,t5,a4
    484c:	40c50533          	sub	a0,a0,a2
    4850:	00054503          	lbu	a0,0(a0)
    4854:	10051463          	bnez	a0,495c <tick+0x240>
    4858:	01078793          	addi	a5,a5,16
    485c:	00a70713          	addi	a4,a4,10
    4860:	00168693          	addi	a3,a3,1
    4864:	f65796e3          	bne	a5,t0,47d0 <tick+0xb4>
    4868:	0cb42823          	sw	a1,208(s0)
    486c:	00048513          	mv	a0,s1
    4870:	b85fc0ef          	jal	13f4 <draw_grid>
    4874:	7ff48893          	addi	a7,s1,2047
    4878:	48188893          	addi	a7,a7,1153
    487c:	00000513          	li	a0,0
    4880:	00400813          	li	a6,4
    4884:	00090593          	mv	a1,s2
    4888:	00000613          	li	a2,0
    488c:	0105a783          	lw	a5,16(a1)
    4890:	02079e63          	bnez	a5,48cc <tick+0x1b0>
    4894:	00160613          	addi	a2,a2,1
    4898:	00458593          	addi	a1,a1,4
    489c:	ff0618e3          	bne	a2,a6,488c <tick+0x170>
    48a0:	00150513          	addi	a0,a0,1
    48a4:	01090913          	addi	s2,s2,16
    48a8:	fcc51ee3          	bne	a0,a2,4884 <tick+0x168>
    48ac:	01c12083          	lw	ra,28(sp)
    48b0:	01812403          	lw	s0,24(sp)
    48b4:	01412483          	lw	s1,20(sp)
    48b8:	01012903          	lw	s2,16(sp)
    48bc:	00c12983          	lw	s3,12(sp)
    48c0:	00812a03          	lw	s4,8(sp)
    48c4:	02010113          	addi	sp,sp,32
    48c8:	00008067          	ret
    48cc:	0d042703          	lw	a4,208(s0)
    48d0:	0cc42303          	lw	t1,204(s0)
    48d4:	00e50733          	add	a4,a0,a4
    48d8:	00271793          	slli	a5,a4,0x2
    48dc:	00e787b3          	add	a5,a5,a4
    48e0:	00660333          	add	t1,a2,t1
    48e4:	00179793          	slli	a5,a5,0x1
    48e8:	01478793          	addi	a5,a5,20
    48ec:	00231713          	slli	a4,t1,0x2
    48f0:	00279693          	slli	a3,a5,0x2
    48f4:	00670733          	add	a4,a4,t1
    48f8:	00f686b3          	add	a3,a3,a5
    48fc:	00171793          	slli	a5,a4,0x1
    4900:	06e78793          	addi	a5,a5,110
    4904:	00669693          	slli	a3,a3,0x6
    4908:	00f686b3          	add	a3,a3,a5
    490c:	00d487b3          	add	a5,s1,a3
    4910:	00d886b3          	add	a3,a7,a3
    4914:	0d444703          	lbu	a4,212(s0)
    4918:	14078793          	addi	a5,a5,320
    491c:	ece78023          	sb	a4,-320(a5)
    4920:	ece780a3          	sb	a4,-319(a5)
    4924:	0d444703          	lbu	a4,212(s0)
    4928:	ece78123          	sb	a4,-318(a5)
    492c:	ece781a3          	sb	a4,-317(a5)
    4930:	0d444703          	lbu	a4,212(s0)
    4934:	ece78223          	sb	a4,-316(a5)
    4938:	ece782a3          	sb	a4,-315(a5)
    493c:	0d444703          	lbu	a4,212(s0)
    4940:	ece78323          	sb	a4,-314(a5)
    4944:	ece783a3          	sb	a4,-313(a5)
    4948:	0d444703          	lbu	a4,212(s0)
    494c:	ece78423          	sb	a4,-312(a5)
    4950:	ece784a3          	sb	a4,-311(a5)
    4954:	fcd790e3          	bne	a5,a3,4914 <tick+0x1f8>
    4958:	f3dff06f          	j	4894 <tick+0x178>
    495c:	01512223          	sw	s5,4(sp)
    4960:	00400993          	li	s3,4
    4964:	00000a93          	li	s5,0
    4968:	010a2783          	lw	a5,16(s4)
    496c:	04078063          	beqz	a5,49ac <tick+0x290>
    4970:	0cc42583          	lw	a1,204(s0)
    4974:	0d042503          	lw	a0,208(s0)
    4978:	00a5b793          	sltiu	a5,a1,10
    497c:	00aa8533          	add	a0,s5,a0
    4980:	02078663          	beqz	a5,49ac <tick+0x290>
    4984:	01453793          	sltiu	a5,a0,20
    4988:	02078263          	beqz	a5,49ac <tick+0x290>
    498c:	00251793          	slli	a5,a0,0x2
    4990:	00a787b3          	add	a5,a5,a0
    4994:	0d444603          	lbu	a2,212(s0)
    4998:	00179793          	slli	a5,a5,0x1
    499c:	00f407b3          	add	a5,s0,a5
    49a0:	00b787b3          	add	a5,a5,a1
    49a4:	00c78023          	sb	a2,0(a5)
    49a8:	f15fc0ef          	jal	18bc <update_cell>
    49ac:	014a2783          	lw	a5,20(s4)
    49b0:	04078263          	beqz	a5,49f4 <tick+0x2d8>
    49b4:	0cc42583          	lw	a1,204(s0)
    49b8:	0d042503          	lw	a0,208(s0)
    49bc:	00158593          	addi	a1,a1,1
    49c0:	00a5b793          	sltiu	a5,a1,10
    49c4:	00aa8533          	add	a0,s5,a0
    49c8:	02078663          	beqz	a5,49f4 <tick+0x2d8>
    49cc:	01453793          	sltiu	a5,a0,20
    49d0:	02078263          	beqz	a5,49f4 <tick+0x2d8>
    49d4:	00251793          	slli	a5,a0,0x2
    49d8:	00a787b3          	add	a5,a5,a0
    49dc:	0d444603          	lbu	a2,212(s0)
    49e0:	00179793          	slli	a5,a5,0x1
    49e4:	00f407b3          	add	a5,s0,a5
    49e8:	00b787b3          	add	a5,a5,a1
    49ec:	00c78023          	sb	a2,0(a5)
    49f0:	ecdfc0ef          	jal	18bc <update_cell>
    49f4:	018a2783          	lw	a5,24(s4)
    49f8:	04078263          	beqz	a5,4a3c <tick+0x320>
    49fc:	0cc42583          	lw	a1,204(s0)
    4a00:	0d042503          	lw	a0,208(s0)
    4a04:	00258593          	addi	a1,a1,2
    4a08:	00a5b793          	sltiu	a5,a1,10
    4a0c:	00aa8533          	add	a0,s5,a0
    4a10:	02078663          	beqz	a5,4a3c <tick+0x320>
    4a14:	01453793          	sltiu	a5,a0,20
    4a18:	02078263          	beqz	a5,4a3c <tick+0x320>
    4a1c:	00251793          	slli	a5,a0,0x2
    4a20:	00a787b3          	add	a5,a5,a0
    4a24:	0d444603          	lbu	a2,212(s0)
    4a28:	00179793          	slli	a5,a5,0x1
    4a2c:	00f407b3          	add	a5,s0,a5
    4a30:	00b787b3          	add	a5,a5,a1
    4a34:	00c78023          	sb	a2,0(a5)
    4a38:	e85fc0ef          	jal	18bc <update_cell>
    4a3c:	01ca2783          	lw	a5,28(s4)
    4a40:	04078263          	beqz	a5,4a84 <tick+0x368>
    4a44:	0d042503          	lw	a0,208(s0)
    4a48:	0cc42583          	lw	a1,204(s0)
    4a4c:	00aa8533          	add	a0,s5,a0
    4a50:	01453793          	sltiu	a5,a0,20
    4a54:	00358593          	addi	a1,a1,3
    4a58:	02078663          	beqz	a5,4a84 <tick+0x368>
    4a5c:	00a5b793          	sltiu	a5,a1,10
    4a60:	02078263          	beqz	a5,4a84 <tick+0x368>
    4a64:	00251793          	slli	a5,a0,0x2
    4a68:	00a787b3          	add	a5,a5,a0
    4a6c:	0d444603          	lbu	a2,212(s0)
    4a70:	00179793          	slli	a5,a5,0x1
    4a74:	00f407b3          	add	a5,s0,a5
    4a78:	00b787b3          	add	a5,a5,a1
    4a7c:	00c78023          	sb	a2,0(a5)
    4a80:	e3dfc0ef          	jal	18bc <update_cell>
    4a84:	001a8a93          	addi	s5,s5,1
    4a88:	010a0a13          	addi	s4,s4,16
    4a8c:	ed3a9ee3          	bne	s5,s3,4968 <tick+0x24c>
    4a90:	db0ff0ef          	jal	4040 <clear_lines>
    4a94:	00004637          	lui	a2,0x4
    4a98:	00007537          	lui	a0,0x7
    4a9c:	f8460613          	addi	a2,a2,-124 # 3f84 <move_piece+0xc10>
    4aa0:	18450513          	addi	a0,a0,388 # 7184 <__global_pointer+0x1854>
    4aa4:	00c48633          	add	a2,s1,a2
    4aa8:	00a48533          	add	a0,s1,a0
    4aac:	12840593          	addi	a1,s0,296
    4ab0:	ff058693          	addi	a3,a1,-16
    4ab4:	00060713          	mv	a4,a2
    4ab8:	0106a783          	lw	a5,16(a3)
    4abc:	02079c63          	bnez	a5,4af4 <tick+0x3d8>
    4ac0:	00468693          	addi	a3,a3,4
    4ac4:	00a70713          	addi	a4,a4,10
    4ac8:	feb698e3          	bne	a3,a1,4ab8 <tick+0x39c>
    4acc:	7ff60613          	addi	a2,a2,2047
    4ad0:	48160613          	addi	a2,a2,1153
    4ad4:	01068593          	addi	a1,a3,16
    4ad8:	fca61ce3          	bne	a2,a0,4ab0 <tick+0x394>
    4adc:	b25fd0ef          	jal	2600 <spawn_next>
    4ae0:	11840593          	addi	a1,s0,280
    4ae4:	00048513          	mv	a0,s1
    4ae8:	ba5fc0ef          	jal	168c <draw_next_piece>
    4aec:	00412a83          	lw	s5,4(sp)
    4af0:	d7dff06f          	j	486c <tick+0x150>
    4af4:	80070793          	addi	a5,a4,-2048
    4af8:	b8078793          	addi	a5,a5,-1152
    4afc:	00078023          	sb	zero,0(a5)
    4b00:	000780a3          	sb	zero,1(a5)
    4b04:	00078123          	sb	zero,2(a5)
    4b08:	000781a3          	sb	zero,3(a5)
    4b0c:	00078223          	sb	zero,4(a5)
    4b10:	000782a3          	sb	zero,5(a5)
    4b14:	00078323          	sb	zero,6(a5)
    4b18:	000783a3          	sb	zero,7(a5)
    4b1c:	00078423          	sb	zero,8(a5)
    4b20:	000784a3          	sb	zero,9(a5)
    4b24:	14078793          	addi	a5,a5,320
    4b28:	fcf71ae3          	bne	a4,a5,4afc <tick+0x3e0>
    4b2c:	f95ff06f          	j	4ac0 <tick+0x3a4>
    4b30:	13440413          	addi	s0,s0,308
    4b34:	0c840a13          	addi	s4,s0,200
    4b38:	000a0513          	mv	a0,s4
    4b3c:	f25fc0ef          	jal	1a60 <update_shape.constprop.1>
    4b40:	000a0513          	mv	a0,s4
    4b44:	df0fe0ef          	jal	3134 <rotate_piece>
    4b48:	0d842783          	lw	a5,216(s0)
    4b4c:	02078263          	beqz	a5,4b70 <tick+0x454>
    4b50:	0cc42583          	lw	a1,204(s0)
    4b54:	0d042503          	lw	a0,208(s0)
    4b58:	00a5b793          	sltiu	a5,a1,10
    4b5c:	00078a63          	beqz	a5,4b70 <tick+0x454>
    4b60:	01453793          	sltiu	a5,a0,20
    4b64:	00078663          	beqz	a5,4b70 <tick+0x454>
    4b68:	0d444603          	lbu	a2,212(s0)
    4b6c:	d51fc0ef          	jal	18bc <update_cell>
    4b70:	0dc42783          	lw	a5,220(s0)
    4b74:	02078463          	beqz	a5,4b9c <tick+0x480>
    4b78:	0cc42583          	lw	a1,204(s0)
    4b7c:	0d042503          	lw	a0,208(s0)
    4b80:	00158593          	addi	a1,a1,1
    4b84:	00a5b793          	sltiu	a5,a1,10
    4b88:	00078a63          	beqz	a5,4b9c <tick+0x480>
    4b8c:	01453793          	sltiu	a5,a0,20
    4b90:	00078663          	beqz	a5,4b9c <tick+0x480>
    4b94:	0d444603          	lbu	a2,212(s0)
    4b98:	d25fc0ef          	jal	18bc <update_cell>
    4b9c:	0e042783          	lw	a5,224(s0)
    4ba0:	02078463          	beqz	a5,4bc8 <tick+0x4ac>
    4ba4:	0cc42583          	lw	a1,204(s0)
    4ba8:	0d042503          	lw	a0,208(s0)
    4bac:	00258593          	addi	a1,a1,2
    4bb0:	00a5b793          	sltiu	a5,a1,10
    4bb4:	00078a63          	beqz	a5,4bc8 <tick+0x4ac>
    4bb8:	01453793          	sltiu	a5,a0,20
    4bbc:	00078663          	beqz	a5,4bc8 <tick+0x4ac>
    4bc0:	0d444603          	lbu	a2,212(s0)
    4bc4:	cf9fc0ef          	jal	18bc <update_cell>
    4bc8:	0e442783          	lw	a5,228(s0)
    4bcc:	02078463          	beqz	a5,4bf4 <tick+0x4d8>
    4bd0:	0cc42583          	lw	a1,204(s0)
    4bd4:	0d042503          	lw	a0,208(s0)
    4bd8:	00358593          	addi	a1,a1,3
    4bdc:	00a5b793          	sltiu	a5,a1,10
    4be0:	00078a63          	beqz	a5,4bf4 <tick+0x4d8>
    4be4:	01453793          	sltiu	a5,a0,20
    4be8:	00078663          	beqz	a5,4bf4 <tick+0x4d8>
    4bec:	0d444603          	lbu	a2,212(s0)
    4bf0:	ccdfc0ef          	jal	18bc <update_cell>
    4bf4:	0e842783          	lw	a5,232(s0)
    4bf8:	02078463          	beqz	a5,4c20 <tick+0x504>
    4bfc:	0cc42583          	lw	a1,204(s0)
    4c00:	0d042503          	lw	a0,208(s0)
    4c04:	00a5b793          	sltiu	a5,a1,10
    4c08:	00150513          	addi	a0,a0,1
    4c0c:	00078a63          	beqz	a5,4c20 <tick+0x504>
    4c10:	01453793          	sltiu	a5,a0,20
    4c14:	00078663          	beqz	a5,4c20 <tick+0x504>
    4c18:	0d444603          	lbu	a2,212(s0)
    4c1c:	ca1fc0ef          	jal	18bc <update_cell>
    4c20:	0ec42783          	lw	a5,236(s0)
    4c24:	02078663          	beqz	a5,4c50 <tick+0x534>
    4c28:	0cc42583          	lw	a1,204(s0)
    4c2c:	0d042503          	lw	a0,208(s0)
    4c30:	00158593          	addi	a1,a1,1
    4c34:	00a5b793          	sltiu	a5,a1,10
    4c38:	00150513          	addi	a0,a0,1
    4c3c:	00078a63          	beqz	a5,4c50 <tick+0x534>
    4c40:	01453793          	sltiu	a5,a0,20
    4c44:	00078663          	beqz	a5,4c50 <tick+0x534>
    4c48:	0d444603          	lbu	a2,212(s0)
    4c4c:	c71fc0ef          	jal	18bc <update_cell>
    4c50:	0f042783          	lw	a5,240(s0)
    4c54:	02078663          	beqz	a5,4c80 <tick+0x564>
    4c58:	0cc42583          	lw	a1,204(s0)
    4c5c:	0d042503          	lw	a0,208(s0)
    4c60:	00258593          	addi	a1,a1,2
    4c64:	00a5b793          	sltiu	a5,a1,10
    4c68:	00150513          	addi	a0,a0,1
    4c6c:	00078a63          	beqz	a5,4c80 <tick+0x564>
    4c70:	01453793          	sltiu	a5,a0,20
    4c74:	00078663          	beqz	a5,4c80 <tick+0x564>
    4c78:	0d444603          	lbu	a2,212(s0)
    4c7c:	c41fc0ef          	jal	18bc <update_cell>
    4c80:	0f442783          	lw	a5,244(s0)
    4c84:	02078663          	beqz	a5,4cb0 <tick+0x594>
    4c88:	0d042503          	lw	a0,208(s0)
    4c8c:	0cc42583          	lw	a1,204(s0)
    4c90:	00150513          	addi	a0,a0,1
    4c94:	01453793          	sltiu	a5,a0,20
    4c98:	00358593          	addi	a1,a1,3
    4c9c:	00078a63          	beqz	a5,4cb0 <tick+0x594>
    4ca0:	00a5b793          	sltiu	a5,a1,10
    4ca4:	00078663          	beqz	a5,4cb0 <tick+0x594>
    4ca8:	0d444603          	lbu	a2,212(s0)
    4cac:	c11fc0ef          	jal	18bc <update_cell>
    4cb0:	0f842783          	lw	a5,248(s0)
    4cb4:	02078463          	beqz	a5,4cdc <tick+0x5c0>
    4cb8:	0d042503          	lw	a0,208(s0)
    4cbc:	0cc42583          	lw	a1,204(s0)
    4cc0:	00250513          	addi	a0,a0,2
    4cc4:	01453793          	sltiu	a5,a0,20
    4cc8:	00078a63          	beqz	a5,4cdc <tick+0x5c0>
    4ccc:	00a5b793          	sltiu	a5,a1,10
    4cd0:	00078663          	beqz	a5,4cdc <tick+0x5c0>
    4cd4:	0d444603          	lbu	a2,212(s0)
    4cd8:	be5fc0ef          	jal	18bc <update_cell>
    4cdc:	0fc42783          	lw	a5,252(s0)
    4ce0:	02078663          	beqz	a5,4d0c <tick+0x5f0>
    4ce4:	0d042503          	lw	a0,208(s0)
    4ce8:	0cc42583          	lw	a1,204(s0)
    4cec:	00250513          	addi	a0,a0,2
    4cf0:	01453793          	sltiu	a5,a0,20
    4cf4:	00158593          	addi	a1,a1,1
    4cf8:	00078a63          	beqz	a5,4d0c <tick+0x5f0>
    4cfc:	00a5b793          	sltiu	a5,a1,10
    4d00:	00078663          	beqz	a5,4d0c <tick+0x5f0>
    4d04:	0d444603          	lbu	a2,212(s0)
    4d08:	bb5fc0ef          	jal	18bc <update_cell>
    4d0c:	10042783          	lw	a5,256(s0)
    4d10:	02078663          	beqz	a5,4d3c <tick+0x620>
    4d14:	0d042503          	lw	a0,208(s0)
    4d18:	0cc42583          	lw	a1,204(s0)
    4d1c:	00250513          	addi	a0,a0,2
    4d20:	01453793          	sltiu	a5,a0,20
    4d24:	00258593          	addi	a1,a1,2
    4d28:	00078a63          	beqz	a5,4d3c <tick+0x620>
    4d2c:	00a5b793          	sltiu	a5,a1,10
    4d30:	00078663          	beqz	a5,4d3c <tick+0x620>
    4d34:	0d444603          	lbu	a2,212(s0)
    4d38:	b85fc0ef          	jal	18bc <update_cell>
    4d3c:	10442783          	lw	a5,260(s0)
    4d40:	02078663          	beqz	a5,4d6c <tick+0x650>
    4d44:	0d042503          	lw	a0,208(s0)
    4d48:	0cc42583          	lw	a1,204(s0)
    4d4c:	00250513          	addi	a0,a0,2
    4d50:	01453793          	sltiu	a5,a0,20
    4d54:	00358593          	addi	a1,a1,3
    4d58:	00078a63          	beqz	a5,4d6c <tick+0x650>
    4d5c:	00a5b793          	sltiu	a5,a1,10
    4d60:	00078663          	beqz	a5,4d6c <tick+0x650>
    4d64:	0d444603          	lbu	a2,212(s0)
    4d68:	b55fc0ef          	jal	18bc <update_cell>
    4d6c:	10842783          	lw	a5,264(s0)
    4d70:	02078463          	beqz	a5,4d98 <tick+0x67c>
    4d74:	0cc42583          	lw	a1,204(s0)
    4d78:	0d042503          	lw	a0,208(s0)
    4d7c:	00a5b793          	sltiu	a5,a1,10
    4d80:	00350513          	addi	a0,a0,3
    4d84:	00078a63          	beqz	a5,4d98 <tick+0x67c>
    4d88:	01453793          	sltiu	a5,a0,20
    4d8c:	00078663          	beqz	a5,4d98 <tick+0x67c>
    4d90:	0d444603          	lbu	a2,212(s0)
    4d94:	b29fc0ef          	jal	18bc <update_cell>
    4d98:	10c42783          	lw	a5,268(s0)
    4d9c:	02078663          	beqz	a5,4dc8 <tick+0x6ac>
    4da0:	0cc42583          	lw	a1,204(s0)
    4da4:	0d042503          	lw	a0,208(s0)
    4da8:	00158593          	addi	a1,a1,1
    4dac:	00a5b793          	sltiu	a5,a1,10
    4db0:	00350513          	addi	a0,a0,3
    4db4:	00078a63          	beqz	a5,4dc8 <tick+0x6ac>
    4db8:	01453793          	sltiu	a5,a0,20
    4dbc:	00078663          	beqz	a5,4dc8 <tick+0x6ac>
    4dc0:	0d444603          	lbu	a2,212(s0)
    4dc4:	af9fc0ef          	jal	18bc <update_cell>
    4dc8:	11042783          	lw	a5,272(s0)
    4dcc:	02078663          	beqz	a5,4df8 <tick+0x6dc>
    4dd0:	0cc42583          	lw	a1,204(s0)
    4dd4:	0d042503          	lw	a0,208(s0)
    4dd8:	00258593          	addi	a1,a1,2
    4ddc:	00a5b793          	sltiu	a5,a1,10
    4de0:	00350513          	addi	a0,a0,3
    4de4:	00078a63          	beqz	a5,4df8 <tick+0x6dc>
    4de8:	01453793          	sltiu	a5,a0,20
    4dec:	00078663          	beqz	a5,4df8 <tick+0x6dc>
    4df0:	0d444603          	lbu	a2,212(s0)
    4df4:	ac9fc0ef          	jal	18bc <update_cell>
    4df8:	11442783          	lw	a5,276(s0)
    4dfc:	960784e3          	beqz	a5,4764 <tick+0x48>
    4e00:	0d042503          	lw	a0,208(s0)
    4e04:	0cc42583          	lw	a1,204(s0)
    4e08:	00350513          	addi	a0,a0,3
    4e0c:	01453793          	sltiu	a5,a0,20
    4e10:	00358593          	addi	a1,a1,3
    4e14:	940788e3          	beqz	a5,4764 <tick+0x48>
    4e18:	00a5b793          	sltiu	a5,a1,10
    4e1c:	940784e3          	beqz	a5,4764 <tick+0x48>
    4e20:	0d444603          	lbu	a2,212(s0)
    4e24:	a99fc0ef          	jal	18bc <update_cell>
    4e28:	93dff06f          	j	4764 <tick+0x48>

00004e2c <handle_interrupt>:
    4e2c:	01000793          	li	a5,16
    4e30:	00f50463          	beq	a0,a5,4e38 <handle_interrupt+0xc>
    4e34:	00008067          	ret
    4e38:	040007b7          	lui	a5,0x4000
    4e3c:	00005737          	lui	a4,0x5
    4e40:	02079023          	sh	zero,32(a5) # 4000020 <_stack_end+0x3efa7f0>
    4e44:	2a472783          	lw	a5,676(a4) # 52a4 <timeoutcount>
    4e48:	00800693          	li	a3,8
    4e4c:	00178793          	addi	a5,a5,1
    4e50:	00d78663          	beq	a5,a3,4e5c <handle_interrupt+0x30>
    4e54:	2af72223          	sw	a5,676(a4)
    4e58:	00008067          	ret
    4e5c:	000057b7          	lui	a5,0x5
    4e60:	1307a503          	lw	a0,304(a5) # 5130 <VGA>
    4e64:	2a072223          	sw	zero,676(a4)
    4e68:	8b5ff06f          	j	471c <tick>

Disassembly of section .data:

00004e6c <welcome_msg>:
    4e6c:	3d3d                	.insn	2, 0x3d3d
    4e6e:	3d3d                	.insn	2, 0x3d3d
    4e70:	3d3d                	.insn	2, 0x3d3d
    4e72:	3d3d                	.insn	2, 0x3d3d
    4e74:	3d3d                	.insn	2, 0x3d3d
    4e76:	3d3d                	.insn	2, 0x3d3d
    4e78:	3d3d                	.insn	2, 0x3d3d
    4e7a:	3d3d                	.insn	2, 0x3d3d
    4e7c:	3d3d                	.insn	2, 0x3d3d
    4e7e:	3d3d                	.insn	2, 0x3d3d
    4e80:	3d3d                	.insn	2, 0x3d3d
    4e82:	3d3d                	.insn	2, 0x3d3d
    4e84:	3d3d                	.insn	2, 0x3d3d
    4e86:	3d3d                	.insn	2, 0x3d3d
    4e88:	3d3d                	.insn	2, 0x3d3d
    4e8a:	3d3d                	.insn	2, 0x3d3d
    4e8c:	3d3d                	.insn	2, 0x3d3d
    4e8e:	3d3d                	.insn	2, 0x3d3d
    4e90:	3d3d                	.insn	2, 0x3d3d
    4e92:	3d3d                	.insn	2, 0x3d3d
    4e94:	3d3d                	.insn	2, 0x3d3d
    4e96:	3d3d                	.insn	2, 0x3d3d
    4e98:	3d3d                	.insn	2, 0x3d3d
    4e9a:	3d3d                	.insn	2, 0x3d3d
    4e9c:	3d0a                	.insn	2, 0x3d0a
    4e9e:	3d3d                	.insn	2, 0x3d3d
    4ea0:	3d3d                	.insn	2, 0x3d3d
    4ea2:	5220                	.insn	2, 0x5220
    4ea4:	5349                	.insn	2, 0x5349
    4ea6:	20562d43          	.insn	4, 0x20562d43
    4eaa:	6f42                	.insn	2, 0x6f42
    4eac:	552d746f          	jal	s0,dc3fe <__global_pointer+0xd6ace>
    4eb0:	2070                	.insn	2, 0x2070
    4eb2:	7250                	.insn	2, 0x7250
    4eb4:	7365636f          	jal	t1,5b5ea <__global_pointer+0x55cba>
    4eb8:	6f4e2073          	csrs	0x6f4,t3
    4ebc:	6f432077          	.insn	4, 0x6f432077
    4ec0:	706d                	.insn	2, 0x706d
    4ec2:	656c                	.insn	2, 0x656c
    4ec4:	6574                	.insn	2, 0x6574
    4ec6:	3d20                	.insn	2, 0x3d20
    4ec8:	3d3d                	.insn	2, 0x3d3d
    4eca:	3d3d                	.insn	2, 0x3d3d
    4ecc:	0a3d                	.insn	2, 0x0a3d
    4ece:	3d3d                	.insn	2, 0x3d3d
    4ed0:	3d3d                	.insn	2, 0x3d3d
    4ed2:	3d3d                	.insn	2, 0x3d3d
    4ed4:	3d3d                	.insn	2, 0x3d3d
    4ed6:	3d3d                	.insn	2, 0x3d3d
    4ed8:	3d3d                	.insn	2, 0x3d3d
    4eda:	3d3d                	.insn	2, 0x3d3d
    4edc:	3d3d                	.insn	2, 0x3d3d
    4ede:	3d3d                	.insn	2, 0x3d3d
    4ee0:	3d3d                	.insn	2, 0x3d3d
    4ee2:	3d3d                	.insn	2, 0x3d3d
    4ee4:	3d3d                	.insn	2, 0x3d3d
    4ee6:	3d3d                	.insn	2, 0x3d3d
    4ee8:	3d3d                	.insn	2, 0x3d3d
    4eea:	3d3d                	.insn	2, 0x3d3d
    4eec:	3d3d                	.insn	2, 0x3d3d
    4eee:	3d3d                	.insn	2, 0x3d3d
    4ef0:	3d3d                	.insn	2, 0x3d3d
    4ef2:	3d3d                	.insn	2, 0x3d3d
    4ef4:	3d3d                	.insn	2, 0x3d3d
    4ef6:	3d3d                	.insn	2, 0x3d3d
    4ef8:	3d3d                	.insn	2, 0x3d3d
    4efa:	3d3d                	.insn	2, 0x3d3d
    4efc:	3d3d                	.insn	2, 0x3d3d
    4efe:	000a                	.insn	2, 0x000a

00004f00 <pieces>:
	...
    4f0c:	001f 0000 0001      	.insn	6, 0x00010000001f
	...
    4f1e:	0000                	.insn	2, 0x0000
    4f20:	0001                	.insn	2, 0x0001
	...
    4f2e:	0000                	.insn	2, 0x0000
    4f30:	0001                	.insn	2, 0x0001
	...
    4f3e:	0000                	.insn	2, 0x0000
    4f40:	0001                	.insn	2, 0x0001
	...
    4f4e:	0000                	.insn	2, 0x0000
    4f50:	0001                	.insn	2, 0x0001
	...
    4f5a:	0000                	.insn	2, 0x0000
    4f5c:	00000003          	lb	zero,0(zero) # 0 <_isr_handler>
    4f60:	0000                	.insn	2, 0x0000
    4f62:	0000                	.insn	2, 0x0000
    4f64:	0001                	.insn	2, 0x0001
	...
    4f72:	0000                	.insn	2, 0x0000
    4f74:	0001                	.insn	2, 0x0001
	...
    4f7e:	0000                	.insn	2, 0x0000
    4f80:	0001                	.insn	2, 0x0001
    4f82:	0000                	.insn	2, 0x0000
    4f84:	0001                	.insn	2, 0x0001
	...
    4f9e:	0000                	.insn	2, 0x0000
    4fa0:	0002                	.insn	2, 0x0002
	...
    4faa:	0000                	.insn	2, 0x0000
    4fac:	00ec                	.insn	2, 0x00ec
    4fae:	0000                	.insn	2, 0x0000
    4fb0:	0001                	.insn	2, 0x0001
	...
    4fbe:	0000                	.insn	2, 0x0000
    4fc0:	0001                	.insn	2, 0x0001
	...
    4fce:	0000                	.insn	2, 0x0000
    4fd0:	0001                	.insn	2, 0x0001
    4fd2:	0000                	.insn	2, 0x0000
    4fd4:	0001                	.insn	2, 0x0001
	...
    4fee:	0000                	.insn	2, 0x0000
    4ff0:	00000003          	lb	zero,0(zero) # 0 <_isr_handler>
	...
    4ffc:	00fc                	.insn	2, 0x00fc
    4ffe:	0000                	.insn	2, 0x0000
    5000:	0001                	.insn	2, 0x0001
    5002:	0000                	.insn	2, 0x0000
    5004:	0001                	.insn	2, 0x0001
	...
    500e:	0000                	.insn	2, 0x0000
    5010:	0001                	.insn	2, 0x0001
    5012:	0000                	.insn	2, 0x0000
    5014:	0001                	.insn	2, 0x0001
	...
    503e:	0000                	.insn	2, 0x0000
    5040:	0004                	.insn	2, 0x0004
	...
    504a:	0000                	.insn	2, 0x0000
    504c:	001c                	.insn	2, 0x001c
    504e:	0000                	.insn	2, 0x0000
    5050:	0001                	.insn	2, 0x0001
	...
    505e:	0000                	.insn	2, 0x0000
    5060:	0001                	.insn	2, 0x0001
    5062:	0000                	.insn	2, 0x0000
    5064:	0001                	.insn	2, 0x0001
	...
    5072:	0000                	.insn	2, 0x0000
    5074:	0001                	.insn	2, 0x0001
	...
    508e:	0000                	.insn	2, 0x0000
    5090:	0005                	.insn	2, 0x0005
	...
    509a:	0000                	.insn	2, 0x0000
    509c:	00000063          	beqz	zero,509c <pieces+0x19c>
    50a0:	0000                	.insn	2, 0x0000
    50a2:	0000                	.insn	2, 0x0000
    50a4:	0001                	.insn	2, 0x0001
	...
    50ae:	0000                	.insn	2, 0x0000
    50b0:	0001                	.insn	2, 0x0001
    50b2:	0000                	.insn	2, 0x0000
    50b4:	0001                	.insn	2, 0x0001
    50b6:	0000                	.insn	2, 0x0000
    50b8:	0001                	.insn	2, 0x0001
	...
    50de:	0000                	.insn	2, 0x0000
    50e0:	0006                	.insn	2, 0x0006
	...
    50ea:	0000                	.insn	2, 0x0000
    50ec:	00e0                	.insn	2, 0x00e0
    50ee:	0000                	.insn	2, 0x0000
    50f0:	0001                	.insn	2, 0x0001
    50f2:	0000                	.insn	2, 0x0000
    50f4:	0001                	.insn	2, 0x0001
	...
    5102:	0000                	.insn	2, 0x0000
    5104:	0001                	.insn	2, 0x0001
    5106:	0000                	.insn	2, 0x0000
    5108:	0001                	.insn	2, 0x0001
	...

00005130 <VGA>:
    5130:	0000                	.insn	2, 0x0000
    5132:	0800                	.insn	2, 0x0800

Disassembly of section .rodata:

000052a8 <font5x7-0x2f8>:
    52a8:	0d08                	.insn	2, 0x0d08
    52aa:	0000                	.insn	2, 0x0000
    52ac:	0d14                	.insn	2, 0x0d14
    52ae:	0000                	.insn	2, 0x0000
    52b0:	0d20                	.insn	2, 0x0d20
    52b2:	0000                	.insn	2, 0x0000
    52b4:	0d2c                	.insn	2, 0x0d2c
    52b6:	0000                	.insn	2, 0x0000
    52b8:	0d38                	.insn	2, 0x0d38
    52ba:	0000                	.insn	2, 0x0000
    52bc:	0d44                	.insn	2, 0x0d44
    52be:	0000                	.insn	2, 0x0000
    52c0:	0d50                	.insn	2, 0x0d50
    52c2:	0000                	.insn	2, 0x0000
    52c4:	0d5c                	.insn	2, 0x0d5c
    52c6:	0000                	.insn	2, 0x0000
    52c8:	0cfc                	.insn	2, 0x0cfc
    52ca:	0000                	.insn	2, 0x0000
    52cc:	0cf0                	.insn	2, 0x0cf0
    52ce:	0000                	.insn	2, 0x0000
    52d0:	0f9c                	.insn	2, 0x0f9c
    52d2:	0000                	.insn	2, 0x0000
    52d4:	0fac                	.insn	2, 0x0fac
    52d6:	0000                	.insn	2, 0x0000
    52d8:	0fbc                	.insn	2, 0x0fbc
    52da:	0000                	.insn	2, 0x0000
    52dc:	0fcc                	.insn	2, 0x0fcc
    52de:	0000                	.insn	2, 0x0000
    52e0:	0fdc                	.insn	2, 0x0fdc
    52e2:	0000                	.insn	2, 0x0000
    52e4:	0fec                	.insn	2, 0x0fec
    52e6:	0000                	.insn	2, 0x0000
    52e8:	0ffc                	.insn	2, 0x0ffc
    52ea:	0000                	.insn	2, 0x0000
    52ec:	100c                	.insn	2, 0x100c
    52ee:	0000                	.insn	2, 0x0000
    52f0:	101c                	.insn	2, 0x101c
    52f2:	0000                	.insn	2, 0x0000
    52f4:	0ea0                	.insn	2, 0x0ea0
    52f6:	0000                	.insn	2, 0x0000
    52f8:	102c                	.insn	2, 0x102c
    52fa:	0000                	.insn	2, 0x0000
    52fc:	103c                	.insn	2, 0x103c
    52fe:	0000                	.insn	2, 0x0000
    5300:	104c                	.insn	2, 0x104c
    5302:	0000                	.insn	2, 0x0000
    5304:	105c                	.insn	2, 0x105c
    5306:	0000                	.insn	2, 0x0000
    5308:	106c                	.insn	2, 0x106c
    530a:	0000                	.insn	2, 0x0000
    530c:	107c                	.insn	2, 0x107c
    530e:	0000                	.insn	2, 0x0000
    5310:	108c                	.insn	2, 0x108c
    5312:	0000                	.insn	2, 0x0000
    5314:	109c                	.insn	2, 0x109c
    5316:	0000                	.insn	2, 0x0000
    5318:	10ac                	.insn	2, 0x10ac
    531a:	0000                	.insn	2, 0x0000
    531c:	0ecc                	.insn	2, 0x0ecc
    531e:	0000                	.insn	2, 0x0000
    5320:	10bc                	.insn	2, 0x10bc
    5322:	0000                	.insn	2, 0x0000
    5324:	10cc                	.insn	2, 0x10cc
    5326:	0000                	.insn	2, 0x0000
    5328:	10dc                	.insn	2, 0x10dc
    532a:	0000                	.insn	2, 0x0000
    532c:	10ec                	.insn	2, 0x10ec
    532e:	0000                	.insn	2, 0x0000
    5330:	10fc                	.insn	2, 0x10fc
    5332:	0000                	.insn	2, 0x0000
    5334:	110c                	.insn	2, 0x110c
    5336:	0000                	.insn	2, 0x0000
    5338:	111c                	.insn	2, 0x111c
    533a:	0000                	.insn	2, 0x0000
    533c:	112c                	.insn	2, 0x112c
    533e:	0000                	.insn	2, 0x0000
    5340:	113c                	.insn	2, 0x113c
    5342:	0000                	.insn	2, 0x0000
    5344:	0ef8                	.insn	2, 0x0ef8
    5346:	0000                	.insn	2, 0x0000
    5348:	114c                	.insn	2, 0x114c
    534a:	0000                	.insn	2, 0x0000
    534c:	115c                	.insn	2, 0x115c
    534e:	0000                	.insn	2, 0x0000
    5350:	116c                	.insn	2, 0x116c
    5352:	0000                	.insn	2, 0x0000
    5354:	117c                	.insn	2, 0x117c
    5356:	0000                	.insn	2, 0x0000
    5358:	118c                	.insn	2, 0x118c
    535a:	0000                	.insn	2, 0x0000
    535c:	119c                	.insn	2, 0x119c
    535e:	0000                	.insn	2, 0x0000
    5360:	11ac                	.insn	2, 0x11ac
    5362:	0000                	.insn	2, 0x0000
    5364:	11bc                	.insn	2, 0x11bc
    5366:	0000                	.insn	2, 0x0000
    5368:	11cc                	.insn	2, 0x11cc
    536a:	0000                	.insn	2, 0x0000
    536c:	0f24                	.insn	2, 0x0f24
    536e:	0000                	.insn	2, 0x0000
    5370:	11dc                	.insn	2, 0x11dc
    5372:	0000                	.insn	2, 0x0000
    5374:	11ec                	.insn	2, 0x11ec
    5376:	0000                	.insn	2, 0x0000
    5378:	11fc                	.insn	2, 0x11fc
    537a:	0000                	.insn	2, 0x0000
    537c:	120c                	.insn	2, 0x120c
    537e:	0000                	.insn	2, 0x0000
    5380:	121c                	.insn	2, 0x121c
    5382:	0000                	.insn	2, 0x0000
    5384:	122c                	.insn	2, 0x122c
    5386:	0000                	.insn	2, 0x0000
    5388:	123c                	.insn	2, 0x123c
    538a:	0000                	.insn	2, 0x0000
    538c:	124c                	.insn	2, 0x124c
    538e:	0000                	.insn	2, 0x0000
    5390:	125c                	.insn	2, 0x125c
    5392:	0000                	.insn	2, 0x0000
    5394:	0f50                	.insn	2, 0x0f50
    5396:	0000                	.insn	2, 0x0000
    5398:	126c                	.insn	2, 0x126c
    539a:	0000                	.insn	2, 0x0000
    539c:	127c                	.insn	2, 0x127c
    539e:	0000                	.insn	2, 0x0000
    53a0:	128c                	.insn	2, 0x128c
    53a2:	0000                	.insn	2, 0x0000
    53a4:	129c                	.insn	2, 0x129c
    53a6:	0000                	.insn	2, 0x0000
    53a8:	12ac                	.insn	2, 0x12ac
    53aa:	0000                	.insn	2, 0x0000
    53ac:	12bc                	.insn	2, 0x12bc
    53ae:	0000                	.insn	2, 0x0000
    53b0:	12cc                	.insn	2, 0x12cc
    53b2:	0000                	.insn	2, 0x0000
    53b4:	12dc                	.insn	2, 0x12dc
    53b6:	0000                	.insn	2, 0x0000
    53b8:	0f8c                	.insn	2, 0x0f8c
    53ba:	0000                	.insn	2, 0x0000
    53bc:	0f7c                	.insn	2, 0x0f7c
    53be:	0000                	.insn	2, 0x0000
    53c0:	3d34                	.insn	2, 0x3d34
    53c2:	0000                	.insn	2, 0x0000
    53c4:	3d24                	.insn	2, 0x3d24
    53c6:	0000                	.insn	2, 0x0000
    53c8:	3ce4                	.insn	2, 0x3ce4
    53ca:	0000                	.insn	2, 0x0000
    53cc:	3cd4                	.insn	2, 0x3cd4
    53ce:	0000                	.insn	2, 0x0000
    53d0:	3cc4                	.insn	2, 0x3cc4
    53d2:	0000                	.insn	2, 0x0000
    53d4:	3cb4                	.insn	2, 0x3cb4
    53d6:	0000                	.insn	2, 0x0000
    53d8:	3d04                	.insn	2, 0x3d04
    53da:	0000                	.insn	2, 0x0000
    53dc:	3cf4                	.insn	2, 0x3cf4
    53de:	0000                	.insn	2, 0x0000
    53e0:	3d14                	.insn	2, 0x3d14
    53e2:	0000                	.insn	2, 0x0000
    53e4:	3bd8                	.insn	2, 0x3bd8
    53e6:	0000                	.insn	2, 0x0000
    53e8:	3e20                	.insn	2, 0x3e20
    53ea:	0000                	.insn	2, 0x0000
    53ec:	3e10                	.insn	2, 0x3e10
    53ee:	0000                	.insn	2, 0x0000
    53f0:	3f78                	.insn	2, 0x3f78
    53f2:	0000                	.insn	2, 0x0000
    53f4:	3f68                	.insn	2, 0x3f68
    53f6:	0000                	.insn	2, 0x0000
    53f8:	3f58                	.insn	2, 0x3f58
    53fa:	0000                	.insn	2, 0x0000
    53fc:	3f48                	.insn	2, 0x3f48
    53fe:	0000                	.insn	2, 0x0000
    5400:	3e50                	.insn	2, 0x3e50
    5402:	0000                	.insn	2, 0x0000
    5404:	3e40                	.insn	2, 0x3e40
    5406:	0000                	.insn	2, 0x0000
    5408:	3e30                	.insn	2, 0x3e30
    540a:	0000                	.insn	2, 0x0000
    540c:	3c04                	.insn	2, 0x3c04
    540e:	0000                	.insn	2, 0x0000
    5410:	3f38                	.insn	2, 0x3f38
    5412:	0000                	.insn	2, 0x0000
    5414:	3f28                	.insn	2, 0x3f28
    5416:	0000                	.insn	2, 0x0000
    5418:	3f18                	.insn	2, 0x3f18
    541a:	0000                	.insn	2, 0x0000
    541c:	3f08                	.insn	2, 0x3f08
    541e:	0000                	.insn	2, 0x0000
    5420:	4028                	.insn	2, 0x4028
    5422:	0000                	.insn	2, 0x0000
    5424:	4018                	.insn	2, 0x4018
    5426:	0000                	.insn	2, 0x0000
    5428:	4008                	.insn	2, 0x4008
    542a:	0000                	.insn	2, 0x0000
    542c:	3ff8                	.insn	2, 0x3ff8
    542e:	0000                	.insn	2, 0x0000
    5430:	3fe8                	.insn	2, 0x3fe8
    5432:	0000                	.insn	2, 0x0000
    5434:	3c30                	.insn	2, 0x3c30
    5436:	0000                	.insn	2, 0x0000
    5438:	3fd8                	.insn	2, 0x3fd8
    543a:	0000                	.insn	2, 0x0000
    543c:	3fc8                	.insn	2, 0x3fc8
    543e:	0000                	.insn	2, 0x0000
    5440:	3fb8                	.insn	2, 0x3fb8
    5442:	0000                	.insn	2, 0x0000
    5444:	3fa8                	.insn	2, 0x3fa8
    5446:	0000                	.insn	2, 0x0000
    5448:	3f98                	.insn	2, 0x3f98
    544a:	0000                	.insn	2, 0x0000
    544c:	3f88                	.insn	2, 0x3f88
    544e:	0000                	.insn	2, 0x0000
    5450:	3db0                	.insn	2, 0x3db0
    5452:	0000                	.insn	2, 0x0000
    5454:	3da0                	.insn	2, 0x3da0
    5456:	0000                	.insn	2, 0x0000
    5458:	3d90                	.insn	2, 0x3d90
    545a:	0000                	.insn	2, 0x0000
    545c:	3c5c                	.insn	2, 0x3c5c
    545e:	0000                	.insn	2, 0x0000
    5460:	3d80                	.insn	2, 0x3d80
    5462:	0000                	.insn	2, 0x0000
    5464:	3ed0                	.insn	2, 0x3ed0
    5466:	0000                	.insn	2, 0x0000
    5468:	3ec0                	.insn	2, 0x3ec0
    546a:	0000                	.insn	2, 0x0000
    546c:	3eb0                	.insn	2, 0x3eb0
    546e:	0000                	.insn	2, 0x0000
    5470:	3ea0                	.insn	2, 0x3ea0
    5472:	0000                	.insn	2, 0x0000
    5474:	3e90                	.insn	2, 0x3e90
    5476:	0000                	.insn	2, 0x0000
    5478:	3e80                	.insn	2, 0x3e80
    547a:	0000                	.insn	2, 0x0000
    547c:	3e70                	.insn	2, 0x3e70
    547e:	0000                	.insn	2, 0x0000
    5480:	3e60                	.insn	2, 0x3e60
    5482:	0000                	.insn	2, 0x0000
    5484:	3c88                	.insn	2, 0x3c88
    5486:	0000                	.insn	2, 0x0000
    5488:	38cc                	.insn	2, 0x38cc
    548a:	0000                	.insn	2, 0x0000
    548c:	3ee0                	.insn	2, 0x3ee0
    548e:	0000                	.insn	2, 0x0000
    5490:	3dfc                	.insn	2, 0x3dfc
    5492:	0000                	.insn	2, 0x0000
    5494:	3de8                	.insn	2, 0x3de8
    5496:	0000                	.insn	2, 0x0000
    5498:	3dd4                	.insn	2, 0x3dd4
    549a:	0000                	.insn	2, 0x0000
    549c:	3dc0                	.insn	2, 0x3dc0
    549e:	0000                	.insn	2, 0x0000
    54a0:	3d6c                	.insn	2, 0x3d6c
    54a2:	0000                	.insn	2, 0x0000
    54a4:	3d58                	.insn	2, 0x3d58
    54a6:	0000                	.insn	2, 0x0000
    54a8:	3d44                	.insn	2, 0x3d44
    54aa:	0000                	.insn	2, 0x0000
    54ac:	3ef4                	.insn	2, 0x3ef4
    54ae:	0000                	.insn	2, 0x0000
    54b0:	43bc                	.insn	2, 0x43bc
    54b2:	0000                	.insn	2, 0x0000
    54b4:	43cc                	.insn	2, 0x43cc
    54b6:	0000                	.insn	2, 0x0000
    54b8:	43dc                	.insn	2, 0x43dc
    54ba:	0000                	.insn	2, 0x0000
    54bc:	43ec                	.insn	2, 0x43ec
    54be:	0000                	.insn	2, 0x0000
    54c0:	43fc                	.insn	2, 0x43fc
    54c2:	0000                	.insn	2, 0x0000
    54c4:	440c                	.insn	2, 0x440c
    54c6:	0000                	.insn	2, 0x0000
    54c8:	441c                	.insn	2, 0x441c
    54ca:	0000                	.insn	2, 0x0000
    54cc:	442c                	.insn	2, 0x442c
    54ce:	0000                	.insn	2, 0x0000
    54d0:	43ac                	.insn	2, 0x43ac
    54d2:	0000                	.insn	2, 0x0000
    54d4:	42d4                	.insn	2, 0x42d4
    54d6:	0000                	.insn	2, 0x0000
    54d8:	443c                	.insn	2, 0x443c
    54da:	0000                	.insn	2, 0x0000
    54dc:	444c                	.insn	2, 0x444c
    54de:	0000                	.insn	2, 0x0000
    54e0:	454c                	.insn	2, 0x454c
    54e2:	0000                	.insn	2, 0x0000
    54e4:	455c                	.insn	2, 0x455c
    54e6:	0000                	.insn	2, 0x0000
    54e8:	456c                	.insn	2, 0x456c
    54ea:	0000                	.insn	2, 0x0000
    54ec:	457c                	.insn	2, 0x457c
    54ee:	0000                	.insn	2, 0x0000
    54f0:	458c                	.insn	2, 0x458c
    54f2:	0000                	.insn	2, 0x0000
    54f4:	459c                	.insn	2, 0x459c
    54f6:	0000                	.insn	2, 0x0000
    54f8:	45ac                	.insn	2, 0x45ac
    54fa:	0000                	.insn	2, 0x0000
    54fc:	42f4                	.insn	2, 0x42f4
    54fe:	0000                	.insn	2, 0x0000
    5500:	445c                	.insn	2, 0x445c
    5502:	0000                	.insn	2, 0x0000
    5504:	446c                	.insn	2, 0x446c
    5506:	0000                	.insn	2, 0x0000
    5508:	447c                	.insn	2, 0x447c
    550a:	0000                	.insn	2, 0x0000
    550c:	448c                	.insn	2, 0x448c
    550e:	0000                	.insn	2, 0x0000
    5510:	449c                	.insn	2, 0x449c
    5512:	0000                	.insn	2, 0x0000
    5514:	44ac                	.insn	2, 0x44ac
    5516:	0000                	.insn	2, 0x0000
    5518:	44bc                	.insn	2, 0x44bc
    551a:	0000                	.insn	2, 0x0000
    551c:	44cc                	.insn	2, 0x44cc
    551e:	0000                	.insn	2, 0x0000
    5520:	44dc                	.insn	2, 0x44dc
    5522:	0000                	.insn	2, 0x0000
    5524:	4314                	.insn	2, 0x4314
    5526:	0000                	.insn	2, 0x0000
    5528:	44ec                	.insn	2, 0x44ec
    552a:	0000                	.insn	2, 0x0000
    552c:	44fc                	.insn	2, 0x44fc
    552e:	0000                	.insn	2, 0x0000
    5530:	450c                	.insn	2, 0x450c
    5532:	0000                	.insn	2, 0x0000
    5534:	451c                	.insn	2, 0x451c
    5536:	0000                	.insn	2, 0x0000
    5538:	452c                	.insn	2, 0x452c
    553a:	0000                	.insn	2, 0x0000
    553c:	453c                	.insn	2, 0x453c
    553e:	0000                	.insn	2, 0x0000
    5540:	462c                	.insn	2, 0x462c
    5542:	0000                	.insn	2, 0x0000
    5544:	463c                	.insn	2, 0x463c
    5546:	0000                	.insn	2, 0x0000
    5548:	464c                	.insn	2, 0x464c
    554a:	0000                	.insn	2, 0x0000
    554c:	4334                	.insn	2, 0x4334
    554e:	0000                	.insn	2, 0x0000
    5550:	465c                	.insn	2, 0x465c
    5552:	0000                	.insn	2, 0x0000
    5554:	466c                	.insn	2, 0x466c
    5556:	0000                	.insn	2, 0x0000
    5558:	467c                	.insn	2, 0x467c
    555a:	0000                	.insn	2, 0x0000
    555c:	468c                	.insn	2, 0x468c
    555e:	0000                	.insn	2, 0x0000
    5560:	469c                	.insn	2, 0x469c
    5562:	0000                	.insn	2, 0x0000
    5564:	46ac                	.insn	2, 0x46ac
    5566:	0000                	.insn	2, 0x0000
    5568:	46bc                	.insn	2, 0x46bc
    556a:	0000                	.insn	2, 0x0000
    556c:	46cc                	.insn	2, 0x46cc
    556e:	0000                	.insn	2, 0x0000
    5570:	46dc                	.insn	2, 0x46dc
    5572:	0000                	.insn	2, 0x0000
    5574:	4354                	.insn	2, 0x4354
    5576:	0000                	.insn	2, 0x0000
    5578:	46fc                	.insn	2, 0x46fc
    557a:	0000                	.insn	2, 0x0000
    557c:	470c                	.insn	2, 0x470c
    557e:	0000                	.insn	2, 0x0000
    5580:	45ec                	.insn	2, 0x45ec
    5582:	0000                	.insn	2, 0x0000
    5584:	45fc                	.insn	2, 0x45fc
    5586:	0000                	.insn	2, 0x0000
    5588:	460c                	.insn	2, 0x460c
    558a:	0000                	.insn	2, 0x0000
    558c:	461c                	.insn	2, 0x461c
    558e:	0000                	.insn	2, 0x0000
    5590:	45cc                	.insn	2, 0x45cc
    5592:	0000                	.insn	2, 0x0000
    5594:	45dc                	.insn	2, 0x45dc
    5596:	0000                	.insn	2, 0x0000
    5598:	45bc                	.insn	2, 0x45bc
    559a:	0000                	.insn	2, 0x0000
    559c:	46ec                	.insn	2, 0x46ec
	...

000055a0 <font5x7>:
    55a0:	513e                	.insn	2, 0x513e
    55a2:	4549                	.insn	2, 0x4549
    55a4:	003e                	.insn	2, 0x003e
    55a6:	7f42                	.insn	2, 0x7f42
    55a8:	0040                	.insn	2, 0x0040
    55aa:	6142                	.insn	2, 0x6142
    55ac:	4951                	.insn	2, 0x4951
    55ae:	2146                	.insn	2, 0x2146
    55b0:	4541                	.insn	2, 0x4541
    55b2:	1418314b          	.insn	4, 0x1418314b
    55b6:	7f12                	.insn	2, 0x7f12
    55b8:	2710                	.insn	2, 0x2710
    55ba:	4545                	.insn	2, 0x4545
    55bc:	3945                	.insn	2, 0x3945
    55be:	4a3c                	.insn	2, 0x4a3c
    55c0:	4949                	.insn	2, 0x4949
    55c2:	0130                	.insn	2, 0x0130
    55c4:	0971                	.insn	2, 0x0971
    55c6:	0305                	.insn	2, 0x0305
    55c8:	4936                	.insn	2, 0x4936
    55ca:	4949                	.insn	2, 0x4949
    55cc:	0636                	.insn	2, 0x0636
    55ce:	4949                	.insn	2, 0x4949
    55d0:	1e29                	.insn	2, 0x1e29
    55d2:	117e                	.insn	2, 0x117e
    55d4:	7e11                	.insn	2, 0x7e11
    55d6:	7f00                	.insn	2, 0x7f00
    55d8:	4949                	.insn	2, 0x4949
    55da:	0036                	.insn	2, 0x0036
    55dc:	413e                	.insn	2, 0x413e
    55de:	2241                	.insn	2, 0x2241
    55e0:	7f00                	.insn	2, 0x7f00
    55e2:	4141                	.insn	2, 0x4141
    55e4:	003e                	.insn	2, 0x003e
    55e6:	497f 4149 7f00 0909 	.insn	18, 0x08087f007251413e000109097f004149497f
    55ee:	0001 413e 7251 7f00 
    55f6:	0808 
    55f8:	007f 4100 417f 2000 	.insn	10, 0x41402000417f4100007f
    5600:	4140 
    5602:	087f003f 7f006314 	.insn	8, 0x7f006314087f003f
    560a:	4040                	.insn	2, 0x4040
    560c:	0040                	.insn	2, 0x0040
    560e:	067f 7f06 7f00 1806 	.insn	10, 0x007f18067f007f06067f
    5616:	007f 
    5618:	413e                	.insn	2, 0x413e
    561a:	3e41                	.insn	2, 0x3e41
    561c:	7f00                	.insn	2, 0x7f00
    561e:	0909                	.insn	2, 0x0909
    5620:	0006                	.insn	2, 0x0006
    5622:	413e                	.insn	2, 0x413e
    5624:	7e61                	.insn	2, 0x7e61
    5626:	7f00                	.insn	2, 0x7f00
    5628:	1909                	.insn	2, 0x1909
    562a:	0066                	.insn	2, 0x0066
    562c:	4926                	.insn	2, 0x4926
    562e:	3249                	.insn	2, 0x3249
    5630:	0100                	.insn	2, 0x0100
    5632:	017f 0001 403f 3f40 	.insn	10, 0x1f003f40403f0001017f
    563a:	1f00 
    563c:	6060                	.insn	2, 0x6060
    563e:	001f 307f 7f30      	.insn	6, 0x7f30307f001f
    5644:	6300                	.insn	2, 0x6300
    5646:	1c1c                	.insn	2, 0x1c1c
    5648:	78070063          	beqz	a4,5dc8 <__global_pointer+0x498>
    564c:	0708                	.insn	2, 0x0708
    564e:	6100                	.insn	2, 0x6100
    5650:	4951                	.insn	2, 0x4951
    5652:	0047                	.short	0x0047

Disassembly of section .rodata.str1.4:

00005654 <.rodata.str1.4>:
    5654:	5b0a                	.insn	2, 0x5b0a
    5656:	5845                	.insn	2, 0x5845
    5658:	54504543          	.insn	4, 0x54504543
    565c:	4f49                	.insn	2, 0x4f49
    565e:	5d4e                	.insn	2, 0x5d4e
    5660:	4920                	.insn	2, 0x4920
    5662:	736e                	.insn	2, 0x736e
    5664:	7274                	.insn	2, 0x7274
    5666:	6375                	.insn	2, 0x6375
    5668:	6974                	.insn	2, 0x6974
    566a:	61206e6f          	jal	t3,bc7c <__global_pointer+0x634c>
    566e:	6464                	.insn	2, 0x6464
    5670:	6572                	.insn	2, 0x6572
    5672:	6d207373          	csrrci	t1,0x6d2,0
    5676:	7369                	.insn	2, 0x7369
    5678:	6c61                	.insn	2, 0x6c61
    567a:	6769                	.insn	2, 0x6769
    567c:	6d6e                	.insn	2, 0x6d6e
    567e:	6e65                	.insn	2, 0x6e65
    5680:	2e74                	.insn	2, 0x2e74
    5682:	0020                	.insn	2, 0x0020
    5684:	5b0a                	.insn	2, 0x5b0a
    5686:	5845                	.insn	2, 0x5845
    5688:	54504543          	.insn	4, 0x54504543
    568c:	4f49                	.insn	2, 0x4f49
    568e:	5d4e                	.insn	2, 0x5d4e
    5690:	4920                	.insn	2, 0x4920
    5692:	6c6c                	.insn	2, 0x6c6c
    5694:	6765                	.insn	2, 0x6765
    5696:	6c61                	.insn	2, 0x6c61
    5698:	6920                	.insn	2, 0x6920
    569a:	736e                	.insn	2, 0x736e
    569c:	7274                	.insn	2, 0x7274
    569e:	6375                	.insn	2, 0x6375
    56a0:	6974                	.insn	2, 0x6974
    56a2:	202e6e6f          	jal	t3,eb8a4 <__global_pointer+0xe5f74>
    56a6:	0000                	.insn	2, 0x0000
    56a8:	0000                	.insn	2, 0x0000
    56aa:	0000                	.insn	2, 0x0000
    56ac:	5b0a                	.insn	2, 0x5b0a
    56ae:	5845                	.insn	2, 0x5845
    56b0:	54504543          	.insn	4, 0x54504543
    56b4:	4f49                	.insn	2, 0x4f49
    56b6:	5d4e                	.insn	2, 0x5d4e
    56b8:	5520                	.insn	2, 0x5520
    56ba:	6b6e                	.insn	2, 0x6b6e
    56bc:	6f6e                	.insn	2, 0x6f6e
    56be:	65206e77          	.insn	4, 0x65206e77
    56c2:	7272                	.insn	2, 0x7272
    56c4:	202e726f          	jal	tp,ec8c6 <__global_pointer+0xe6f96>
    56c8:	0000                	.insn	2, 0x0000
    56ca:	0000                	.insn	2, 0x0000
    56cc:	7845                	.insn	2, 0x7845
    56ce:	74706563          	bltu	zero,t2,5e18 <__global_pointer+0x4e8>
    56d2:	6f69                	.insn	2, 0x6f69
    56d4:	206e                	.insn	2, 0x206e
    56d6:	6441                	.insn	2, 0x6441
    56d8:	7264                	.insn	2, 0x7264
    56da:	7365                	.insn	2, 0x7365
    56dc:	00203a73          	csrrc	s4,frm,zero
    56e0:	72617453          	.insn	4, 0x72617453
    56e4:	6974                	.insn	2, 0x6974
    56e6:	676e                	.insn	2, 0x676e
    56e8:	7020                	.insn	2, 0x7020
    56ea:	7265                	.insn	2, 0x7265
    56ec:	6f66                	.insn	2, 0x6f66
    56ee:	6d72                	.insn	2, 0x6d72
    56f0:	6e61                	.insn	2, 0x6e61
    56f2:	6d206563          	bltu	zero,s2,5dbc <__global_pointer+0x48c>
    56f6:	6165                	.insn	2, 0x6165
    56f8:	65727573          	csrrci	a0,hviprio2h,4
    56fc:	656d                	.insn	2, 0x656d
    56fe:	746e                	.insn	2, 0x746e
    5700:	2e2e2e73          	csrrs	t3,0x2e2,t3
    5704:	0a20                	.insn	2, 0x0a20
    5706:	0000                	.insn	2, 0x0000
    5708:	7552                	.insn	2, 0x7552
    570a:	6e6e                	.insn	2, 0x6e6e
    570c:	6e69                	.insn	2, 0x6e69
    570e:	6e752067          	.insn	4, 0x6e752067
    5712:	6974                	.insn	2, 0x6974
    5714:	206c                	.insn	2, 0x206c
    5716:	70203033          	.insn	4, 0x70203033
    571a:	6569                	.insn	2, 0x6569
    571c:	20736563          	bltu	t1,t2,5926 <font5x7+0x386>
    5720:	7261                	.insn	2, 0x7261
    5722:	2065                	.insn	2, 0x2065
    5724:	6c70                	.insn	2, 0x6c70
    5726:	6361                	.insn	2, 0x6361
    5728:	6465                	.insn	2, 0x6465
    572a:	6720                	.insn	2, 0x6720
    572c:	6d61                	.insn	2, 0x6d61
    572e:	2065                	.insn	2, 0x2065
    5730:	6974                	.insn	2, 0x6974
    5732:	2e736b63          	bltu	t1,t2,5a28 <__global_pointer+0xf8>
    5736:	2e2e                	.insn	2, 0x2e2e
    5738:	000a                	.insn	2, 0x000a
    573a:	0000                	.insn	2, 0x0000
    573c:	200a                	.insn	2, 0x200a
    573e:	3d3d                	.insn	2, 0x3d3d
    5740:	503d                	.insn	2, 0x503d
    5742:	7265                	.insn	2, 0x7265
    5744:	6f66                	.insn	2, 0x6f66
    5746:	6d72                	.insn	2, 0x6d72
    5748:	6e61                	.insn	2, 0x6e61
    574a:	44206563          	bltu	zero,sp,5b94 <__global_pointer+0x264>
    574e:	7461                	.insn	2, 0x7461
    5750:	2061                	.insn	2, 0x2061
    5752:	3d3d                	.insn	2, 0x3d3d
    5754:	203d                	.insn	2, 0x203d
    5756:	000a                	.insn	2, 0x000a
    5758:	6c637943          	.insn	4, 0x6c637943
    575c:	7365                	.insn	2, 0x7365
    575e:	203a                	.insn	2, 0x203a
    5760:	0000                	.insn	2, 0x0000
    5762:	0000                	.insn	2, 0x0000
    5764:	000a                	.insn	2, 0x000a
    5766:	0000                	.insn	2, 0x0000
    5768:	6e49                	.insn	2, 0x6e49
    576a:	75727473          	csrrci	s0,0x757,4
    576e:	6f697463          	bgeu	s2,s6,5e56 <__global_pointer+0x526>
    5772:	736e                	.insn	2, 0x736e
    5774:	203a                	.insn	2, 0x203a
    5776:	0000                	.insn	2, 0x0000
    5778:	654d                	.insn	2, 0x654d
    577a:	6f6d                	.insn	2, 0x6f6d
    577c:	7972                	.insn	2, 0x7972
    577e:	4920                	.insn	2, 0x4920
    5780:	736e                	.insn	2, 0x736e
    5782:	7274                	.insn	2, 0x7274
    5784:	6375                	.insn	2, 0x6375
    5786:	6974                	.insn	2, 0x6974
    5788:	3a736e6f          	jal	t3,3c32e <__global_pointer+0x369fe>
    578c:	0020                	.insn	2, 0x0020
    578e:	0000                	.insn	2, 0x0000
    5790:	2d49                	.insn	2, 0x2d49
    5792:	68636163          	bltu	t1,t1,5e14 <__global_pointer+0x4e4>
    5796:	2065                	.insn	2, 0x2065
    5798:	694d                	.insn	2, 0x694d
    579a:	73657373          	csrrci	t1,mhpmevent22h,10
    579e:	203a                	.insn	2, 0x203a
    57a0:	0000                	.insn	2, 0x0000
    57a2:	0000                	.insn	2, 0x0000
    57a4:	2d44                	.insn	2, 0x2d44
    57a6:	68636163          	bltu	t1,t1,5e28 <__global_pointer+0x4f8>
    57aa:	2065                	.insn	2, 0x2065
    57ac:	694d                	.insn	2, 0x694d
    57ae:	73657373          	csrrci	t1,mhpmevent22h,10
    57b2:	203a                	.insn	2, 0x203a
    57b4:	0000                	.insn	2, 0x0000
    57b6:	0000                	.insn	2, 0x0000
    57b8:	2d49                	.insn	2, 0x2d49
    57ba:	68636163          	bltu	t1,t1,5e3c <__global_pointer+0x50c>
    57be:	2065                	.insn	2, 0x2065
    57c0:	6c617453          	.insn	4, 0x6c617453
    57c4:	736c                	.insn	2, 0x736c
    57c6:	203a                	.insn	2, 0x203a
    57c8:	0000                	.insn	2, 0x0000
    57ca:	0000                	.insn	2, 0x0000
    57cc:	2d44                	.insn	2, 0x2d44
    57ce:	68636163          	bltu	t1,t1,5e50 <__global_pointer+0x520>
    57d2:	2065                	.insn	2, 0x2065
    57d4:	6c617453          	.insn	4, 0x6c617453
    57d8:	736c                	.insn	2, 0x736c
    57da:	203a                	.insn	2, 0x203a
    57dc:	0000                	.insn	2, 0x0000
    57de:	0000                	.insn	2, 0x0000
    57e0:	6144                	.insn	2, 0x6144
    57e2:	6174                	.insn	2, 0x6174
    57e4:	4820                	.insn	2, 0x4820
    57e6:	7a61                	.insn	2, 0x7a61
    57e8:	7261                	.insn	2, 0x7261
    57ea:	2064                	.insn	2, 0x2064
    57ec:	6c617453          	.insn	4, 0x6c617453
    57f0:	736c                	.insn	2, 0x736c
    57f2:	203a                	.insn	2, 0x203a
    57f4:	0000                	.insn	2, 0x0000
    57f6:	0000                	.insn	2, 0x0000
    57f8:	4c41                	.insn	2, 0x4c41
    57fa:	2055                	.insn	2, 0x2055
    57fc:	6c617473          	csrrci	s0,0x6c6,2
    5800:	736c                	.insn	2, 0x736c
    5802:	203a                	.insn	2, 0x203a
    5804:	0000                	.insn	2, 0x0000
    5806:	0000                	.insn	2, 0x0000
    5808:	454e                	.insn	2, 0x454e
    580a:	5458                	.insn	2, 0x5458
    580c:	5020                	.insn	2, 0x5020
    580e:	4549                	.insn	2, 0x4549
    5810:	00004543          	.insn	4, 0x4543
    5814:	454d4147          	.insn	4, 0x454d4147
    5818:	4f20                	.insn	2, 0x4f20
    581a:	4556                	.insn	2, 0x4556
    581c:	0052                	.insn	2, 0x0052
    581e:	0000                	.insn	2, 0x0000
    5820:	524f4353          	.insn	4, 0x524f4353
    5824:	0045                	.insn	2, 0x0045
    5826:	0000                	.insn	2, 0x0000
    5828:	4554                	.insn	2, 0x4554
    582a:	5254                	.insn	2, 0x5254
    582c:	5349                	.insn	2, 0x5349
	...

Disassembly of section .comment:

00000000 <.comment>:
   0:	3a434347          	.insn	4, 0x3a434347
   4:	2820                	.insn	2, 0x2820
   6:	2029                	.insn	2, 0x2029
   8:	3531                	.insn	2, 0x3531
   a:	312e                	.insn	2, 0x312e
   c:	302e                	.insn	2, 0x302e
	...

Disassembly of section .riscv.attributes:

00000000 <.riscv.attributes>:
   0:	3641                	.insn	2, 0x3641
   2:	0000                	.insn	2, 0x0000
   4:	7200                	.insn	2, 0x7200
   6:	7369                	.insn	2, 0x7369
   8:	01007663          	bgeu	zero,a6,14 <_isr_routine+0xc>
   c:	002c                	.insn	2, 0x002c
   e:	0000                	.insn	2, 0x0000
  10:	1004                	.insn	2, 0x1004
  12:	7205                	.insn	2, 0x7205
  14:	3376                	.insn	2, 0x3376
  16:	6932                	.insn	2, 0x6932
  18:	7032                	.insn	2, 0x7032
  1a:	5f31                	.insn	2, 0x5f31
  1c:	326d                	.insn	2, 0x326d
  1e:	3070                	.insn	2, 0x3070
  20:	7a5f 6369 7273      	.insn	6, 0x727363697a5f
  26:	7032                	.insn	2, 0x7032
  28:	5f30                	.insn	2, 0x5f30
  2a:	6d7a                	.insn	2, 0x6d7a
  2c:	756d                	.insn	2, 0x756d
  2e:	316c                	.insn	2, 0x316c
  30:	3070                	.insn	2, 0x3070
  32:	0800                	.insn	2, 0x0800
  34:	0a01                	.insn	2, 0x0a01
  36:	0b                	.byte	0x0b
