
main.elf:     file format elf32-littleriscv


Disassembly of section .text:

00000000 <_isr_handler>:
       0:	0080006f          	j	8 <_isr_routine>
       4:	1440006f          	j	148 <_start>

00000008 <_isr_routine>:
       8:	f8010113          	addi	sp,sp,-128
       c:	00112023          	sw	ra,0(sp)
      10:	00312423          	sw	gp,8(sp)
      14:	00412623          	sw	tp,12(sp)
      18:	00512823          	sw	t0,16(sp)
      1c:	00612a23          	sw	t1,20(sp)
      20:	00712c23          	sw	t2,24(sp)
      24:	00812e23          	sw	s0,28(sp)
      28:	02912023          	sw	s1,32(sp)
      2c:	02a12223          	sw	a0,36(sp)
      30:	02b12423          	sw	a1,40(sp)
      34:	02c12623          	sw	a2,44(sp)
      38:	02d12823          	sw	a3,48(sp)
      3c:	02e12a23          	sw	a4,52(sp)
      40:	02f12c23          	sw	a5,56(sp)
      44:	03012e23          	sw	a6,60(sp)
      48:	05112023          	sw	a7,64(sp)
      4c:	05212223          	sw	s2,68(sp)
      50:	05312423          	sw	s3,72(sp)
      54:	05412623          	sw	s4,76(sp)
      58:	05512823          	sw	s5,80(sp)
      5c:	05612a23          	sw	s6,84(sp)
      60:	05712c23          	sw	s7,88(sp)
      64:	05812e23          	sw	s8,92(sp)
      68:	07912023          	sw	s9,96(sp)
      6c:	07a12223          	sw	s10,100(sp)
      70:	07b12423          	sw	s11,104(sp)
      74:	07c12623          	sw	t3,108(sp)
      78:	07d12823          	sw	t4,112(sp)
      7c:	07e12a23          	sw	t5,116(sp)
      80:	07f12c23          	sw	t6,120(sp)
      84:	342022f3          	csrr	t0,mcause
      88:	80000337          	lui	t1,0x80000
      8c:	02536463          	bltu	t1,t0,b4 <external_irq>
      90:	00028833          	add	a6,t0,zero
      94:	00b00313          	li	t1,11
      98:	00628463          	beq	t0,t1,a0 <skip_init_args>
      9c:	34102573          	csrr	a0,mepc

000000a0 <skip_init_args>:
      a0:	258000ef          	jal	2f8 <handle_exception>
      a4:	341022f3          	csrr	t0,mepc
      a8:	00428293          	addi	t0,t0,4
      ac:	34129073          	csrw	mepc,t0
      b0:	0180006f          	j	c8 <restore>

000000b4 <external_irq>:
      b4:	800002b7          	lui	t0,0x80000
      b8:	fff28293          	addi	t0,t0,-1 # 7fffffff <_stack_end+0x7fef3643>
      bc:	34202373          	csrr	t1,mcause
      c0:	0062f533          	and	a0,t0,t1
      c4:	12c060ef          	jal	61f0 <handle_interrupt>

000000c8 <restore>:
      c8:	00012083          	lw	ra,0(sp)
      cc:	00812183          	lw	gp,8(sp)
      d0:	00c12203          	lw	tp,12(sp)
      d4:	01012283          	lw	t0,16(sp)
      d8:	01412303          	lw	t1,20(sp)
      dc:	01812383          	lw	t2,24(sp)
      e0:	01c12403          	lw	s0,28(sp)
      e4:	02012483          	lw	s1,32(sp)
      e8:	02412503          	lw	a0,36(sp)
      ec:	02812583          	lw	a1,40(sp)
      f0:	02c12603          	lw	a2,44(sp)
      f4:	03012683          	lw	a3,48(sp)
      f8:	03412703          	lw	a4,52(sp)
      fc:	03812783          	lw	a5,56(sp)
     100:	03c12803          	lw	a6,60(sp)
     104:	04012883          	lw	a7,64(sp)
     108:	04412903          	lw	s2,68(sp)
     10c:	04812983          	lw	s3,72(sp)
     110:	04c12a03          	lw	s4,76(sp)
     114:	05012a83          	lw	s5,80(sp)
     118:	05412b03          	lw	s6,84(sp)
     11c:	05812b83          	lw	s7,88(sp)
     120:	05c12c03          	lw	s8,92(sp)
     124:	06012c83          	lw	s9,96(sp)
     128:	06412d03          	lw	s10,100(sp)
     12c:	06812d83          	lw	s11,104(sp)
     130:	06c12e03          	lw	t3,108(sp)
     134:	07012e83          	lw	t4,112(sp)
     138:	07412f03          	lw	t5,116(sp)
     13c:	07812f83          	lw	t6,120(sp)
     140:	08010113          	addi	sp,sp,128
     144:	30200073          	mret

00000148 <_start>:
     148:	30401073          	csrw	mie,zero
     14c:	0010d117          	auipc	sp,0x10d
     150:	87010113          	addi	sp,sp,-1936 # 10c9bc <_stack_end>
     154:	00007197          	auipc	gp,0x7
     158:	00818193          	addi	gp,gp,8 # 715c <__global_pointer>
     15c:	00006517          	auipc	a0,0x6
     160:	53c50513          	addi	a0,a0,1340 # 6698 <welcome_msg>
     164:	00400893          	li	a7,4
     168:	00000073          	ecall
     16c:	0c4060ef          	jal	6230 <main>

00000170 <loop>:
     170:	0000006f          	j	170 <loop>

00000174 <enable_interrupt>:
     174:	30486073          	csrsi	mie,16
     178:	30496073          	csrsi	mie,18
     17c:	3001e073          	csrsi	mstatus,3
     180:	00008067          	ret

00000184 <printc>:
     184:	04000737          	lui	a4,0x4000
     188:	04470713          	addi	a4,a4,68 # 4000044 <_stack_end+0x3ef3688>
     18c:	000106b7          	lui	a3,0x10
     190:	00072783          	lw	a5,0(a4)
     194:	fed7eee3          	bltu	a5,a3,190 <printc+0xc>
     198:	040007b7          	lui	a5,0x4000
     19c:	04a7a023          	sw	a0,64(a5) # 4000040 <_stack_end+0x3ef3684>
     1a0:	00008067          	ret

000001a4 <print>:
     1a4:	00054603          	lbu	a2,0(a0)
     1a8:	02060863          	beqz	a2,1d8 <print+0x34>
     1ac:	04000737          	lui	a4,0x4000
     1b0:	040005b7          	lui	a1,0x4000
     1b4:	04470713          	addi	a4,a4,68 # 4000044 <_stack_end+0x3ef3688>
     1b8:	04058593          	addi	a1,a1,64 # 4000040 <_stack_end+0x3ef3684>
     1bc:	000106b7          	lui	a3,0x10
     1c0:	00072783          	lw	a5,0(a4)
     1c4:	fed7eee3          	bltu	a5,a3,1c0 <print+0x1c>
     1c8:	00c5a023          	sw	a2,0(a1)
     1cc:	00154603          	lbu	a2,1(a0)
     1d0:	00150513          	addi	a0,a0,1
     1d4:	fe0616e3          	bnez	a2,1c0 <print+0x1c>
     1d8:	00008067          	ret

000001dc <print_dec>:
     1dc:	3b9ad737          	lui	a4,0x3b9ad
     1e0:	040006b7          	lui	a3,0x4000
     1e4:	04000337          	lui	t1,0x4000
     1e8:	ccccd8b7          	lui	a7,0xccccd
     1ec:	a0070713          	addi	a4,a4,-1536 # 3b9aca00 <_stack_end+0x3b8a0044>
     1f0:	04468693          	addi	a3,a3,68 # 4000044 <_stack_end+0x3ef3688>
     1f4:	04030313          	addi	t1,t1,64 # 4000040 <_stack_end+0x3ef3684>
     1f8:	ccd88893          	addi	a7,a7,-819 # cccccccd <_stack_end+0xccbc0311>
     1fc:	00a00593          	li	a1,10
     200:	00000793          	li	a5,0
     204:	00010637          	lui	a2,0x10
     208:	04e57663          	bgeu	a0,a4,254 <print_dec+0x78>
     20c:	00078813          	mv	a6,a5
     210:	00000793          	li	a5,0
     214:	04081063          	bnez	a6,254 <print_dec+0x78>
     218:	03173833          	mulhu	a6,a4,a7
     21c:	fff58593          	addi	a1,a1,-1
     220:	02e57533          	remu	a0,a0,a4
     224:	00385713          	srli	a4,a6,0x3
     228:	fe0590e3          	bnez	a1,208 <print_dec+0x2c>
     22c:	02079263          	bnez	a5,250 <print_dec+0x74>
     230:	04000737          	lui	a4,0x4000
     234:	04470713          	addi	a4,a4,68 # 4000044 <_stack_end+0x3ef3688>
     238:	000106b7          	lui	a3,0x10
     23c:	00072783          	lw	a5,0(a4)
     240:	fed7eee3          	bltu	a5,a3,23c <print_dec+0x60>
     244:	040007b7          	lui	a5,0x4000
     248:	03000713          	li	a4,48
     24c:	04e7a023          	sw	a4,64(a5) # 4000040 <_stack_end+0x3ef3684>
     250:	00008067          	ret
     254:	02e55833          	divu	a6,a0,a4
     258:	03080813          	addi	a6,a6,48
     25c:	0ff87813          	zext.b	a6,a6
     260:	0006a783          	lw	a5,0(a3) # 10000 <font5x7+0x376c>
     264:	fec7eee3          	bltu	a5,a2,260 <print_dec+0x84>
     268:	01032023          	sw	a6,0(t1)
     26c:	00100793          	li	a5,1
     270:	fa9ff06f          	j	218 <print_dec+0x3c>

00000274 <print_hex32>:
     274:	04000737          	lui	a4,0x4000
     278:	04470713          	addi	a4,a4,68 # 4000044 <_stack_end+0x3ef3688>
     27c:	000106b7          	lui	a3,0x10
     280:	00072783          	lw	a5,0(a4)
     284:	fed7eee3          	bltu	a5,a3,280 <print_hex32+0xc>
     288:	040007b7          	lui	a5,0x4000
     28c:	03000693          	li	a3,48
     290:	04d7a023          	sw	a3,64(a5) # 4000040 <_stack_end+0x3ef3684>
     294:	04478713          	addi	a4,a5,68
     298:	000106b7          	lui	a3,0x10
     29c:	00072783          	lw	a5,0(a4)
     2a0:	fed7eee3          	bltu	a5,a3,29c <print_hex32+0x28>
     2a4:	04000837          	lui	a6,0x4000
     2a8:	04080813          	addi	a6,a6,64 # 4000040 <_stack_end+0x3ef3684>
     2ac:	07800793          	li	a5,120
     2b0:	04000737          	lui	a4,0x4000
     2b4:	00f82023          	sw	a5,0(a6)
     2b8:	04470713          	addi	a4,a4,68 # 4000044 <_stack_end+0x3ef3688>
     2bc:	01c00613          	li	a2,28
     2c0:	00900313          	li	t1,9
     2c4:	000106b7          	lui	a3,0x10
     2c8:	ffc00893          	li	a7,-4
     2cc:	00c557b3          	srl	a5,a0,a2
     2d0:	00f7f793          	andi	a5,a5,15
     2d4:	03778593          	addi	a1,a5,55
     2d8:	00f36463          	bltu	t1,a5,2e0 <print_hex32+0x6c>
     2dc:	03078593          	addi	a1,a5,48
     2e0:	00072783          	lw	a5,0(a4)
     2e4:	fed7eee3          	bltu	a5,a3,2e0 <print_hex32+0x6c>
     2e8:	00b82023          	sw	a1,0(a6)
     2ec:	ffc60613          	addi	a2,a2,-4 # fffc <font5x7+0x3768>
     2f0:	fd161ee3          	bne	a2,a7,2cc <print_hex32+0x58>
     2f4:	00008067          	ret

000002f8 <handle_exception>:
     2f8:	00200793          	li	a5,2
     2fc:	1af80463          	beq	a6,a5,4a4 <handle_exception+0x1ac>
     300:	00b00793          	li	a5,11
     304:	12f80663          	beq	a6,a5,430 <handle_exception+0x138>
     308:	14081c63          	bnez	a6,460 <handle_exception+0x168>
     30c:	0000d637          	lui	a2,0xd
     310:	0000d8b7          	lui	a7,0xd
     314:	04000737          	lui	a4,0x4000
     318:	04000837          	lui	a6,0x4000
     31c:	91860613          	addi	a2,a2,-1768 # c918 <font5x7+0x84>
     320:	94788893          	addi	a7,a7,-1721 # c947 <font5x7+0xb3>
     324:	04470713          	addi	a4,a4,68 # 4000044 <_stack_end+0x3ef3688>
     328:	04080813          	addi	a6,a6,64 # 4000040 <_stack_end+0x3ef3684>
     32c:	00a00593          	li	a1,10
     330:	000106b7          	lui	a3,0x10
     334:	00072783          	lw	a5,0(a4)
     338:	fed7eee3          	bltu	a5,a3,334 <handle_exception+0x3c>
     33c:	00b82023          	sw	a1,0(a6)
     340:	00160613          	addi	a2,a2,1
     344:	00064583          	lbu	a1,0(a2)
     348:	ff1616e3          	bne	a2,a7,334 <handle_exception+0x3c>
     34c:	0000d637          	lui	a2,0xd
     350:	0000d8b7          	lui	a7,0xd
     354:	04000737          	lui	a4,0x4000
     358:	04000837          	lui	a6,0x4000
     35c:	98c60613          	addi	a2,a2,-1652 # c98c <font5x7+0xf8>
     360:	99f88893          	addi	a7,a7,-1633 # c99f <font5x7+0x10b>
     364:	04470713          	addi	a4,a4,68 # 4000044 <_stack_end+0x3ef3688>
     368:	04080813          	addi	a6,a6,64 # 4000040 <_stack_end+0x3ef3684>
     36c:	04500593          	li	a1,69
     370:	000106b7          	lui	a3,0x10
     374:	00072783          	lw	a5,0(a4)
     378:	fed7eee3          	bltu	a5,a3,374 <handle_exception+0x7c>
     37c:	00b82023          	sw	a1,0(a6)
     380:	00160613          	addi	a2,a2,1
     384:	00064583          	lbu	a1,0(a2)
     388:	ff1616e3          	bne	a2,a7,374 <handle_exception+0x7c>
     38c:	04000737          	lui	a4,0x4000
     390:	04470713          	addi	a4,a4,68 # 4000044 <_stack_end+0x3ef3688>
     394:	000106b7          	lui	a3,0x10
     398:	00072783          	lw	a5,0(a4)
     39c:	fed7eee3          	bltu	a5,a3,398 <handle_exception+0xa0>
     3a0:	040007b7          	lui	a5,0x4000
     3a4:	03000693          	li	a3,48
     3a8:	04d7a023          	sw	a3,64(a5) # 4000040 <_stack_end+0x3ef3684>
     3ac:	04478713          	addi	a4,a5,68
     3b0:	000106b7          	lui	a3,0x10
     3b4:	00072783          	lw	a5,0(a4)
     3b8:	fed7eee3          	bltu	a5,a3,3b4 <handle_exception+0xbc>
     3bc:	04000837          	lui	a6,0x4000
     3c0:	04080813          	addi	a6,a6,64 # 4000040 <_stack_end+0x3ef3684>
     3c4:	07800793          	li	a5,120
     3c8:	04000737          	lui	a4,0x4000
     3cc:	00f82023          	sw	a5,0(a6)
     3d0:	04470713          	addi	a4,a4,68 # 4000044 <_stack_end+0x3ef3688>
     3d4:	01c00613          	li	a2,28
     3d8:	00900313          	li	t1,9
     3dc:	000106b7          	lui	a3,0x10
     3e0:	ffc00893          	li	a7,-4
     3e4:	00c557b3          	srl	a5,a0,a2
     3e8:	00f7f793          	andi	a5,a5,15
     3ec:	03778593          	addi	a1,a5,55
     3f0:	00f36463          	bltu	t1,a5,3f8 <handle_exception+0x100>
     3f4:	03078593          	addi	a1,a5,48
     3f8:	00072783          	lw	a5,0(a4)
     3fc:	fed7eee3          	bltu	a5,a3,3f8 <handle_exception+0x100>
     400:	00b82023          	sw	a1,0(a6)
     404:	ffc60613          	addi	a2,a2,-4
     408:	fd161ee3          	bne	a2,a7,3e4 <handle_exception+0xec>
     40c:	04000737          	lui	a4,0x4000
     410:	04470713          	addi	a4,a4,68 # 4000044 <_stack_end+0x3ef3688>
     414:	000106b7          	lui	a3,0x10
     418:	00072783          	lw	a5,0(a4)
     41c:	fed7eee3          	bltu	a5,a3,418 <handle_exception+0x120>
     420:	040007b7          	lui	a5,0x4000
     424:	00a00713          	li	a4,10
     428:	04e7a023          	sw	a4,64(a5) # 4000040 <_stack_end+0x3ef3684>
     42c:	0000006f          	j	42c <handle_exception+0x134>
     430:	00400793          	li	a5,4
     434:	0af88a63          	beq	a7,a5,4e8 <handle_exception+0x1f0>
     438:	0f089463          	bne	a7,a6,520 <handle_exception+0x228>
     43c:	04000737          	lui	a4,0x4000
     440:	04470713          	addi	a4,a4,68 # 4000044 <_stack_end+0x3ef3688>
     444:	000106b7          	lui	a3,0x10
     448:	00072783          	lw	a5,0(a4)
     44c:	fed7eee3          	bltu	a5,a3,448 <handle_exception+0x150>
     450:	040007b7          	lui	a5,0x4000
     454:	0ff57513          	zext.b	a0,a0
     458:	04a7a023          	sw	a0,64(a5) # 4000040 <_stack_end+0x3ef3684>
     45c:	00008067          	ret
     460:	0000d637          	lui	a2,0xd
     464:	0000d8b7          	lui	a7,0xd
     468:	04000737          	lui	a4,0x4000
     46c:	04000837          	lui	a6,0x4000
     470:	96c60613          	addi	a2,a2,-1684 # c96c <font5x7+0xd8>
     474:	98888893          	addi	a7,a7,-1656 # c988 <font5x7+0xf4>
     478:	04470713          	addi	a4,a4,68 # 4000044 <_stack_end+0x3ef3688>
     47c:	04080813          	addi	a6,a6,64 # 4000040 <_stack_end+0x3ef3684>
     480:	00a00593          	li	a1,10
     484:	000106b7          	lui	a3,0x10
     488:	00072783          	lw	a5,0(a4)
     48c:	fed7eee3          	bltu	a5,a3,488 <handle_exception+0x190>
     490:	00b82023          	sw	a1,0(a6)
     494:	00160613          	addi	a2,a2,1
     498:	00064583          	lbu	a1,0(a2)
     49c:	ff1616e3          	bne	a2,a7,488 <handle_exception+0x190>
     4a0:	eadff06f          	j	34c <handle_exception+0x54>
     4a4:	0000d637          	lui	a2,0xd
     4a8:	0000d8b7          	lui	a7,0xd
     4ac:	04000737          	lui	a4,0x4000
     4b0:	04000837          	lui	a6,0x4000
     4b4:	94860613          	addi	a2,a2,-1720 # c948 <font5x7+0xb4>
     4b8:	96a88893          	addi	a7,a7,-1686 # c96a <font5x7+0xd6>
     4bc:	04470713          	addi	a4,a4,68 # 4000044 <_stack_end+0x3ef3688>
     4c0:	04080813          	addi	a6,a6,64 # 4000040 <_stack_end+0x3ef3684>
     4c4:	00a00593          	li	a1,10
     4c8:	000106b7          	lui	a3,0x10
     4cc:	00072783          	lw	a5,0(a4)
     4d0:	fed7eee3          	bltu	a5,a3,4cc <handle_exception+0x1d4>
     4d4:	00b82023          	sw	a1,0(a6)
     4d8:	00160613          	addi	a2,a2,1
     4dc:	00064583          	lbu	a1,0(a2)
     4e0:	ff1616e3          	bne	a2,a7,4cc <handle_exception+0x1d4>
     4e4:	e69ff06f          	j	34c <handle_exception+0x54>
     4e8:	00054603          	lbu	a2,0(a0)
     4ec:	02060a63          	beqz	a2,520 <handle_exception+0x228>
     4f0:	04000737          	lui	a4,0x4000
     4f4:	040005b7          	lui	a1,0x4000
     4f8:	04470713          	addi	a4,a4,68 # 4000044 <_stack_end+0x3ef3688>
     4fc:	04058593          	addi	a1,a1,64 # 4000040 <_stack_end+0x3ef3684>
     500:	000106b7          	lui	a3,0x10
     504:	00072783          	lw	a5,0(a4)
     508:	fed7eee3          	bltu	a5,a3,504 <handle_exception+0x20c>
     50c:	00c5a023          	sw	a2,0(a1)
     510:	00154603          	lbu	a2,1(a0)
     514:	00150513          	addi	a0,a0,1
     518:	fe0616e3          	bnez	a2,504 <handle_exception+0x20c>
     51c:	00008067          	ret
     520:	00008067          	ret

00000524 <nextprime>:
     524:	00200793          	li	a5,2
     528:	02a7c063          	blt	a5,a0,548 <nextprime+0x24>
     52c:	00100693          	li	a3,1
     530:	00a05863          	blez	a0,540 <nextprime+0x1c>
     534:	fff50793          	addi	a5,a0,-1
     538:	00f037b3          	snez	a5,a5
     53c:	00278693          	addi	a3,a5,2
     540:	00068513          	mv	a0,a3
     544:	00008067          	ret
     548:	00150513          	addi	a0,a0,1
     54c:	00156693          	ori	a3,a0,1
     550:	00300793          	li	a5,3
     554:	02f6e733          	rem	a4,a3,a5
     558:	4016d613          	srai	a2,a3,0x1
     55c:	00260613          	addi	a2,a2,2
     560:	00178793          	addi	a5,a5,1
     564:	00070a63          	beqz	a4,578 <nextprime+0x54>
     568:	fcf60ce3          	beq	a2,a5,540 <nextprime+0x1c>
     56c:	02f6e733          	rem	a4,a3,a5
     570:	00178793          	addi	a5,a5,1
     574:	fe071ae3          	bnez	a4,568 <nextprime+0x44>
     578:	00268693          	addi	a3,a3,2 # 10002 <font5x7+0x376e>
     57c:	fd5ff06f          	j	550 <nextprime+0x2c>

00000580 <update_shape.constprop.0>:
     580:	000072b7          	lui	t0,0x7
     584:	96028293          	addi	t0,t0,-1696 # 6960 <grid>
     588:	00000313          	li	t1,0
     58c:	00400f13          	li	t5,4
     590:	00007737          	lui	a4,0x7
     594:	01200693          	li	a3,18
     598:	08100e13          	li	t3,129
     59c:	00800f93          	li	t6,8
     5a0:	00700e93          	li	t4,7
     5a4:	00431893          	slli	a7,t1,0x4
     5a8:	011508b3          	add	a7,a0,a7
     5ac:	00000813          	li	a6,0
     5b0:	0108a783          	lw	a5,16(a7)
     5b4:	1a078863          	beqz	a5,764 <update_shape.constprop.0+0x1e4>
     5b8:	00852783          	lw	a5,8(a0)
     5bc:	00452583          	lw	a1,4(a0)
     5c0:	00f307b3          	add	a5,t1,a5
     5c4:	0147b613          	sltiu	a2,a5,20
     5c8:	00b805b3          	add	a1,a6,a1
     5cc:	18060c63          	beqz	a2,764 <update_shape.constprop.0+0x1e4>
     5d0:	00a5b613          	sltiu	a2,a1,10
     5d4:	18060863          	beqz	a2,764 <update_shape.constprop.0+0x1e4>
     5d8:	fe010113          	addi	sp,sp,-32
     5dc:	00812e23          	sw	s0,28(sp)
     5e0:	00912c23          	sw	s1,24(sp)
     5e4:	01212a23          	sw	s2,20(sp)
     5e8:	01312823          	sw	s3,16(sp)
     5ec:	01412623          	sw	s4,12(sp)
     5f0:	01512423          	sw	s5,8(sp)
     5f4:	01612223          	sw	s6,4(sp)
     5f8:	01712023          	sw	s7,0(sp)
     5fc:	00279393          	slli	t2,a5,0x2
     600:	00f383b3          	add	t2,t2,a5
     604:	00139393          	slli	t2,t2,0x1
     608:	007283b3          	add	t2,t0,t2
     60c:	00b383b3          	add	t2,t2,a1
     610:	00578613          	addi	a2,a5,5
     614:	00261793          	slli	a5,a2,0x2
     618:	0003c403          	lbu	s0,0(t2)
     61c:	00c787b3          	add	a5,a5,a2
     620:	00f58593          	addi	a1,a1,15
     624:	00679793          	slli	a5,a5,0x6
     628:	00b787b3          	add	a5,a5,a1
     62c:	16041463          	bnez	s0,794 <update_shape.constprop.0+0x214>
     630:	95c72603          	lw	a2,-1700(a4) # 695c <VGA>
     634:	00379793          	slli	a5,a5,0x3
     638:	00678493          	addi	s1,a5,6
     63c:	00f60633          	add	a2,a2,a5
     640:	00d60023          	sb	a3,0(a2)
     644:	95c72583          	lw	a1,-1700(a4)
     648:	00078613          	mv	a2,a5
     64c:	00f585b3          	add	a1,a1,a5
     650:	00d580a3          	sb	a3,1(a1)
     654:	00000593          	li	a1,0
     658:	95c72383          	lw	t2,-1700(a4)
     65c:	00f383b3          	add	t2,t2,a5
     660:	00d38123          	sb	a3,2(t2)
     664:	95c72383          	lw	t2,-1700(a4)
     668:	00f383b3          	add	t2,t2,a5
     66c:	00d381a3          	sb	a3,3(t2)
     670:	95c72383          	lw	t2,-1700(a4)
     674:	00f383b3          	add	t2,t2,a5
     678:	00d38223          	sb	a3,4(t2)
     67c:	95c72383          	lw	t2,-1700(a4)
     680:	00f383b3          	add	t2,t2,a5
     684:	00d382a3          	sb	a3,5(t2)
     688:	95c72383          	lw	t2,-1700(a4)
     68c:	009383b3          	add	t2,t2,s1
     690:	00d38023          	sb	a3,0(t2)
     694:	08058863          	beqz	a1,724 <update_shape.constprop.0+0x1a4>
     698:	95c72783          	lw	a5,-1700(a4)
     69c:	00c787b3          	add	a5,a5,a2
     6a0:	00d783a3          	sb	a3,7(a5)
     6a4:	00180813          	addi	a6,a6,1
     6a8:	00488893          	addi	a7,a7,4
     6ac:	0de80863          	beq	a6,t5,77c <update_shape.constprop.0+0x1fc>
     6b0:	0108a783          	lw	a5,16(a7)
     6b4:	fe0788e3          	beqz	a5,6a4 <update_shape.constprop.0+0x124>
     6b8:	00852783          	lw	a5,8(a0)
     6bc:	00452583          	lw	a1,4(a0)
     6c0:	00f307b3          	add	a5,t1,a5
     6c4:	0147b613          	sltiu	a2,a5,20
     6c8:	00b805b3          	add	a1,a6,a1
     6cc:	fc060ce3          	beqz	a2,6a4 <update_shape.constprop.0+0x124>
     6d0:	00a5b613          	sltiu	a2,a1,10
     6d4:	f20614e3          	bnez	a2,5fc <update_shape.constprop.0+0x7c>
     6d8:	fcdff06f          	j	6a4 <update_shape.constprop.0+0x124>
     6dc:	00040023          	sb	zero,0(s0)
     6e0:	95c72383          	lw	t2,-1700(a4)
     6e4:	00078413          	mv	s0,a5
     6e8:	00f383b3          	add	t2,t2,a5
     6ec:	14038123          	sb	zero,322(t2)
     6f0:	95c72383          	lw	t2,-1700(a4)
     6f4:	00f387b3          	add	a5,t2,a5
     6f8:	140781a3          	sb	zero,323(a5)
     6fc:	95c72383          	lw	t2,-1700(a4)
     700:	00060793          	mv	a5,a2
     704:	00838633          	add	a2,t2,s0
     708:	14060223          	sb	zero,324(a2)
     70c:	95c72603          	lw	a2,-1700(a4)
     710:	00860633          	add	a2,a2,s0
     714:	140602a3          	sb	zero,325(a2)
     718:	95c72603          	lw	a2,-1700(a4)
     71c:	00960633          	add	a2,a2,s1
     720:	00060023          	sb	zero,0(a2)
     724:	95c72383          	lw	t2,-1700(a4)
     728:	14078613          	addi	a2,a5,320
     72c:	00158593          	addi	a1,a1,1
     730:	00f383b3          	add	t2,t2,a5
     734:	00d383a3          	sb	a3,7(t2)
     738:	95c72403          	lw	s0,-1700(a4)
     73c:	14178393          	addi	t2,a5,321
     740:	14048493          	addi	s1,s1,320
     744:	00c40433          	add	s0,s0,a2
     748:	00d40023          	sb	a3,0(s0)
     74c:	95c72403          	lw	s0,-1700(a4)
     750:	00740433          	add	s0,s0,t2
     754:	f9d594e3          	bne	a1,t4,6dc <update_shape.constprop.0+0x15c>
     758:	00d40023          	sb	a3,0(s0)
     75c:	00060793          	mv	a5,a2
     760:	ef9ff06f          	j	658 <update_shape.constprop.0+0xd8>
     764:	00180813          	addi	a6,a6,1
     768:	00488893          	addi	a7,a7,4
     76c:	e5e812e3          	bne	a6,t5,5b0 <update_shape.constprop.0+0x30>
     770:	00130313          	addi	t1,t1,1
     774:	e30318e3          	bne	t1,a6,5a4 <update_shape.constprop.0+0x24>
     778:	00008067          	ret
     77c:	00130313          	addi	t1,t1,1
     780:	13030a63          	beq	t1,a6,8b4 <__heap_size+0xb4>
     784:	00431893          	slli	a7,t1,0x4
     788:	011508b3          	add	a7,a0,a7
     78c:	00000813          	li	a6,0
     790:	f21ff06f          	j	6b0 <update_shape.constprop.0+0x130>
     794:	00379793          	slli	a5,a5,0x3
     798:	00678493          	addi	s1,a5,6
     79c:	00000393          	li	t2,0
     7a0:	95c72583          	lw	a1,-1700(a4)
     7a4:	007e5633          	srl	a2,t3,t2
     7a8:	00167613          	andi	a2,a2,1
     7ac:	00f585b3          	add	a1,a1,a5
     7b0:	00d58023          	sb	a3,0(a1)
     7b4:	95c72583          	lw	a1,-1700(a4)
     7b8:	00178b93          	addi	s7,a5,1
     7bc:	00278b13          	addi	s6,a5,2
     7c0:	00378a93          	addi	s5,a5,3
     7c4:	00478993          	addi	s3,a5,4
     7c8:	00578913          	addi	s2,a5,5
     7cc:	08060263          	beqz	a2,850 <__heap_size+0x50>
     7d0:	017585b3          	add	a1,a1,s7
     7d4:	00d58023          	sb	a3,0(a1)
     7d8:	95c72603          	lw	a2,-1700(a4)
     7dc:	00778a13          	addi	s4,a5,7
     7e0:	01660633          	add	a2,a2,s6
     7e4:	00d60023          	sb	a3,0(a2)
     7e8:	95c72603          	lw	a2,-1700(a4)
     7ec:	01560633          	add	a2,a2,s5
     7f0:	00d60023          	sb	a3,0(a2)
     7f4:	95c72603          	lw	a2,-1700(a4)
     7f8:	01360633          	add	a2,a2,s3
     7fc:	00d60023          	sb	a3,0(a2)
     800:	95c72603          	lw	a2,-1700(a4)
     804:	01260633          	add	a2,a2,s2
     808:	00d60023          	sb	a3,0(a2)
     80c:	95c72603          	lw	a2,-1700(a4)
     810:	00038e63          	beqz	t2,82c <__heap_size+0x2c>
     814:	00960633          	add	a2,a2,s1
     818:	00d60023          	sb	a3,0(a2)
     81c:	95c72603          	lw	a2,-1700(a4)
     820:	00f607b3          	add	a5,a2,a5
     824:	00d783a3          	sb	a3,7(a5)
     828:	e7dff06f          	j	6a4 <update_shape.constprop.0+0x124>
     82c:	00960633          	add	a2,a2,s1
     830:	00d60023          	sb	a3,0(a2)
     834:	95c72603          	lw	a2,-1700(a4)
     838:	14078793          	addi	a5,a5,320
     83c:	14048493          	addi	s1,s1,320
     840:	01460633          	add	a2,a2,s4
     844:	00100393          	li	t2,1
     848:	00d60023          	sb	a3,0(a2)
     84c:	f55ff06f          	j	7a0 <update_shape.constprop.0+0x220>
     850:	00f585b3          	add	a1,a1,a5
     854:	008580a3          	sb	s0,1(a1)
     858:	95c72603          	lw	a2,-1700(a4)
     85c:	00138393          	addi	t2,t2,1
     860:	00f60633          	add	a2,a2,a5
     864:	00860123          	sb	s0,2(a2)
     868:	95c72603          	lw	a2,-1700(a4)
     86c:	00f60633          	add	a2,a2,a5
     870:	008601a3          	sb	s0,3(a2)
     874:	95c72603          	lw	a2,-1700(a4)
     878:	00f60633          	add	a2,a2,a5
     87c:	00860223          	sb	s0,4(a2)
     880:	95c72603          	lw	a2,-1700(a4)
     884:	00f60633          	add	a2,a2,a5
     888:	008602a3          	sb	s0,5(a2)
     88c:	95c72603          	lw	a2,-1700(a4)
     890:	00960633          	add	a2,a2,s1
     894:	00860023          	sb	s0,0(a2)
     898:	95c72603          	lw	a2,-1700(a4)
     89c:	14048493          	addi	s1,s1,320
     8a0:	00f60633          	add	a2,a2,a5
     8a4:	00d603a3          	sb	a3,7(a2)
     8a8:	14078793          	addi	a5,a5,320
     8ac:	eff39ae3          	bne	t2,t6,7a0 <update_shape.constprop.0+0x220>
     8b0:	df5ff06f          	j	6a4 <update_shape.constprop.0+0x124>
     8b4:	01c12403          	lw	s0,28(sp)
     8b8:	01812483          	lw	s1,24(sp)
     8bc:	01412903          	lw	s2,20(sp)
     8c0:	01012983          	lw	s3,16(sp)
     8c4:	00c12a03          	lw	s4,12(sp)
     8c8:	00812a83          	lw	s5,8(sp)
     8cc:	00412b03          	lw	s6,4(sp)
     8d0:	00012b83          	lw	s7,0(sp)
     8d4:	02010113          	addi	sp,sp,32
     8d8:	00008067          	ret

000008dc <set_rand_seed>:
     8dc:	0000d7b7          	lui	a5,0xd
     8e0:	88a7a623          	sw	a0,-1908(a5) # c88c <seed>
     8e4:	00008067          	ret

000008e8 <rand>:
     8e8:	0000d737          	lui	a4,0xd
     8ec:	88c72683          	lw	a3,-1908(a4) # c88c <seed>
     8f0:	00269793          	slli	a5,a3,0x2
     8f4:	00d787b3          	add	a5,a5,a3
     8f8:	00479513          	slli	a0,a5,0x4
     8fc:	40f50533          	sub	a0,a0,a5
     900:	0b350513          	addi	a0,a0,179
     904:	03f57513          	andi	a0,a0,63
     908:	88a72623          	sw	a0,-1908(a4)
     90c:	00008067          	ret

00000910 <delay>:
     910:	00008067          	ret

00000914 <joystick_init>:
     914:	040007b7          	lui	a5,0x4000
     918:	0e07a223          	sw	zero,228(a5) # 40000e4 <_stack_end+0x3ef3728>
     91c:	00008067          	ret

00000920 <get_joystick_data>:
     920:	040007b7          	lui	a5,0x4000
     924:	0e07a503          	lw	a0,224(a5) # 40000e0 <_stack_end+0x3ef3724>
     928:	00008067          	ret

0000092c <joystick_left>:
     92c:	040007b7          	lui	a5,0x4000
     930:	0e07a503          	lw	a0,224(a5) # 40000e0 <_stack_end+0x3ef3724>
     934:	00157513          	andi	a0,a0,1
     938:	00008067          	ret

0000093c <joystick_right>:
     93c:	040007b7          	lui	a5,0x4000
     940:	0e07a503          	lw	a0,224(a5) # 40000e0 <_stack_end+0x3ef3724>
     944:	00155513          	srli	a0,a0,0x1
     948:	00157513          	andi	a0,a0,1
     94c:	00008067          	ret

00000950 <spawn_piece>:
     950:	00007737          	lui	a4,0x7
     954:	96070713          	addi	a4,a4,-1696 # 6960 <grid>
     958:	05050693          	addi	a3,a0,80
     95c:	0c870793          	addi	a5,a4,200
     960:	00852603          	lw	a2,8(a0)
     964:	00052803          	lw	a6,0(a0)
     968:	00452583          	lw	a1,4(a0)
     96c:	00c7a423          	sw	a2,8(a5)
     970:	0107a023          	sw	a6,0(a5)
     974:	00b7a223          	sw	a1,4(a5)
     978:	00c52603          	lw	a2,12(a0)
     97c:	01050513          	addi	a0,a0,16
     980:	01078793          	addi	a5,a5,16
     984:	fec7ae23          	sw	a2,-4(a5)
     988:	fcd51ce3          	bne	a0,a3,960 <spawn_piece+0x10>
     98c:	00300793          	li	a5,3
     990:	0c072823          	sw	zero,208(a4)
     994:	0cf72623          	sw	a5,204(a4)
     998:	00008067          	ret

0000099c <is_filled>:
     99c:	01052703          	lw	a4,16(a0)
     9a0:	00050793          	mv	a5,a0
     9a4:	00070e63          	beqz	a4,9c0 <is_filled+0x24>
     9a8:	00452703          	lw	a4,4(a0)
     9ac:	00852683          	lw	a3,8(a0)
     9b0:	00a73613          	sltiu	a2,a4,10
     9b4:	00060663          	beqz	a2,9c0 <is_filled+0x24>
     9b8:	0146b613          	sltiu	a2,a3,20
     9bc:	24061663          	bnez	a2,c08 <is_filled+0x26c>
     9c0:	0147a703          	lw	a4,20(a5)
     9c4:	02070063          	beqz	a4,9e4 <is_filled+0x48>
     9c8:	0047a683          	lw	a3,4(a5)
     9cc:	0087a603          	lw	a2,8(a5)
     9d0:	00168713          	addi	a4,a3,1
     9d4:	00a73713          	sltiu	a4,a4,10
     9d8:	00070663          	beqz	a4,9e4 <is_filled+0x48>
     9dc:	01463713          	sltiu	a4,a2,20
     9e0:	24071a63          	bnez	a4,c34 <is_filled+0x298>
     9e4:	0187a703          	lw	a4,24(a5)
     9e8:	02070063          	beqz	a4,a08 <is_filled+0x6c>
     9ec:	0047a683          	lw	a3,4(a5)
     9f0:	0087a603          	lw	a2,8(a5)
     9f4:	00268713          	addi	a4,a3,2
     9f8:	00a73713          	sltiu	a4,a4,10
     9fc:	00070663          	beqz	a4,a08 <is_filled+0x6c>
     a00:	01463713          	sltiu	a4,a2,20
     a04:	28071863          	bnez	a4,c94 <is_filled+0x2f8>
     a08:	01c7a703          	lw	a4,28(a5)
     a0c:	02070063          	beqz	a4,a2c <is_filled+0x90>
     a10:	0047a683          	lw	a3,4(a5)
     a14:	0087a603          	lw	a2,8(a5)
     a18:	00368713          	addi	a4,a3,3
     a1c:	00a73713          	sltiu	a4,a4,10
     a20:	00070663          	beqz	a4,a2c <is_filled+0x90>
     a24:	01463713          	sltiu	a4,a2,20
     a28:	22071e63          	bnez	a4,c64 <is_filled+0x2c8>
     a2c:	0207a703          	lw	a4,32(a5)
     a30:	02070063          	beqz	a4,a50 <is_filled+0xb4>
     a34:	0087a703          	lw	a4,8(a5)
     a38:	0047a603          	lw	a2,4(a5)
     a3c:	00170713          	addi	a4,a4,1
     a40:	01473693          	sltiu	a3,a4,20
     a44:	00068663          	beqz	a3,a50 <is_filled+0xb4>
     a48:	00a63693          	sltiu	a3,a2,10
     a4c:	26069c63          	bnez	a3,cc4 <is_filled+0x328>
     a50:	0247a703          	lw	a4,36(a5)
     a54:	02070263          	beqz	a4,a78 <is_filled+0xdc>
     a58:	0047a603          	lw	a2,4(a5)
     a5c:	0087a703          	lw	a4,8(a5)
     a60:	00160693          	addi	a3,a2,1
     a64:	00a6b693          	sltiu	a3,a3,10
     a68:	00170713          	addi	a4,a4,1
     a6c:	00068663          	beqz	a3,a78 <is_filled+0xdc>
     a70:	01473693          	sltiu	a3,a4,20
     a74:	28069063          	bnez	a3,cf4 <is_filled+0x358>
     a78:	0287a703          	lw	a4,40(a5)
     a7c:	02070263          	beqz	a4,aa0 <is_filled+0x104>
     a80:	0047a603          	lw	a2,4(a5)
     a84:	0087a703          	lw	a4,8(a5)
     a88:	00260693          	addi	a3,a2,2
     a8c:	00a6b693          	sltiu	a3,a3,10
     a90:	00170713          	addi	a4,a4,1
     a94:	00068663          	beqz	a3,aa0 <is_filled+0x104>
     a98:	01473693          	sltiu	a3,a4,20
     a9c:	28069463          	bnez	a3,d24 <is_filled+0x388>
     aa0:	02c7a703          	lw	a4,44(a5)
     aa4:	02070263          	beqz	a4,ac8 <is_filled+0x12c>
     aa8:	0047a603          	lw	a2,4(a5)
     aac:	0087a703          	lw	a4,8(a5)
     ab0:	00360693          	addi	a3,a2,3
     ab4:	00a6b693          	sltiu	a3,a3,10
     ab8:	00170713          	addi	a4,a4,1
     abc:	00068663          	beqz	a3,ac8 <is_filled+0x12c>
     ac0:	01473693          	sltiu	a3,a4,20
     ac4:	28069863          	bnez	a3,d54 <is_filled+0x3b8>
     ac8:	0307a703          	lw	a4,48(a5)
     acc:	02070063          	beqz	a4,aec <is_filled+0x150>
     ad0:	0087a703          	lw	a4,8(a5)
     ad4:	0047a603          	lw	a2,4(a5)
     ad8:	00270713          	addi	a4,a4,2
     adc:	01473693          	sltiu	a3,a4,20
     ae0:	00068663          	beqz	a3,aec <is_filled+0x150>
     ae4:	00a63693          	sltiu	a3,a2,10
     ae8:	28069e63          	bnez	a3,d84 <is_filled+0x3e8>
     aec:	0347a703          	lw	a4,52(a5)
     af0:	02070263          	beqz	a4,b14 <is_filled+0x178>
     af4:	0047a603          	lw	a2,4(a5)
     af8:	0087a703          	lw	a4,8(a5)
     afc:	00160693          	addi	a3,a2,1
     b00:	00a6b693          	sltiu	a3,a3,10
     b04:	00270713          	addi	a4,a4,2
     b08:	00068663          	beqz	a3,b14 <is_filled+0x178>
     b0c:	01473693          	sltiu	a3,a4,20
     b10:	2a069263          	bnez	a3,db4 <is_filled+0x418>
     b14:	0387a703          	lw	a4,56(a5)
     b18:	02070263          	beqz	a4,b3c <is_filled+0x1a0>
     b1c:	0047a603          	lw	a2,4(a5)
     b20:	0087a703          	lw	a4,8(a5)
     b24:	00260693          	addi	a3,a2,2
     b28:	00a6b693          	sltiu	a3,a3,10
     b2c:	00270713          	addi	a4,a4,2
     b30:	00068663          	beqz	a3,b3c <is_filled+0x1a0>
     b34:	01473693          	sltiu	a3,a4,20
     b38:	2a069663          	bnez	a3,de4 <is_filled+0x448>
     b3c:	03c7a703          	lw	a4,60(a5)
     b40:	02070263          	beqz	a4,b64 <is_filled+0x1c8>
     b44:	0047a603          	lw	a2,4(a5)
     b48:	0087a703          	lw	a4,8(a5)
     b4c:	00360693          	addi	a3,a2,3
     b50:	00a6b693          	sltiu	a3,a3,10
     b54:	00270713          	addi	a4,a4,2
     b58:	00068663          	beqz	a3,b64 <is_filled+0x1c8>
     b5c:	01473693          	sltiu	a3,a4,20
     b60:	2e069263          	bnez	a3,e44 <is_filled+0x4a8>
     b64:	0407a703          	lw	a4,64(a5)
     b68:	02070063          	beqz	a4,b88 <is_filled+0x1ec>
     b6c:	0047a683          	lw	a3,4(a5)
     b70:	0087a703          	lw	a4,8(a5)
     b74:	00a6b613          	sltiu	a2,a3,10
     b78:	00370713          	addi	a4,a4,3
     b7c:	00060663          	beqz	a2,b88 <is_filled+0x1ec>
     b80:	01473613          	sltiu	a2,a4,20
     b84:	28061863          	bnez	a2,e14 <is_filled+0x478>
     b88:	0447a703          	lw	a4,68(a5)
     b8c:	02070263          	beqz	a4,bb0 <is_filled+0x214>
     b90:	0047a603          	lw	a2,4(a5)
     b94:	0087a703          	lw	a4,8(a5)
     b98:	00160693          	addi	a3,a2,1
     b9c:	00a6b693          	sltiu	a3,a3,10
     ba0:	00370713          	addi	a4,a4,3
     ba4:	00068663          	beqz	a3,bb0 <is_filled+0x214>
     ba8:	01473693          	sltiu	a3,a4,20
     bac:	2e069c63          	bnez	a3,ea4 <is_filled+0x508>
     bb0:	0487a703          	lw	a4,72(a5)
     bb4:	02070263          	beqz	a4,bd8 <is_filled+0x23c>
     bb8:	0047a603          	lw	a2,4(a5)
     bbc:	0087a703          	lw	a4,8(a5)
     bc0:	00260693          	addi	a3,a2,2
     bc4:	00a6b693          	sltiu	a3,a3,10
     bc8:	00370713          	addi	a4,a4,3
     bcc:	00068663          	beqz	a3,bd8 <is_filled+0x23c>
     bd0:	01473693          	sltiu	a3,a4,20
     bd4:	2a069063          	bnez	a3,e74 <is_filled+0x4d8>
     bd8:	04c7a503          	lw	a0,76(a5)
     bdc:	02050463          	beqz	a0,c04 <is_filled+0x268>
     be0:	0047a683          	lw	a3,4(a5)
     be4:	0087a783          	lw	a5,8(a5)
     be8:	00368713          	addi	a4,a3,3
     bec:	00a73713          	sltiu	a4,a4,10
     bf0:	00378793          	addi	a5,a5,3
     bf4:	00070663          	beqz	a4,c00 <is_filled+0x264>
     bf8:	0147b713          	sltiu	a4,a5,20
     bfc:	2c071c63          	bnez	a4,ed4 <is_filled+0x538>
     c00:	00000513          	li	a0,0
     c04:	00008067          	ret
     c08:	00269613          	slli	a2,a3,0x2
     c0c:	00d60633          	add	a2,a2,a3
     c10:	000076b7          	lui	a3,0x7
     c14:	00161613          	slli	a2,a2,0x1
     c18:	96068693          	addi	a3,a3,-1696 # 6960 <grid>
     c1c:	00c686b3          	add	a3,a3,a2
     c20:	00e68733          	add	a4,a3,a4
     c24:	00074703          	lbu	a4,0(a4)
     c28:	d8070ce3          	beqz	a4,9c0 <is_filled+0x24>
     c2c:	00100513          	li	a0,1
     c30:	00008067          	ret
     c34:	00261713          	slli	a4,a2,0x2
     c38:	00c70633          	add	a2,a4,a2
     c3c:	00007737          	lui	a4,0x7
     c40:	00161613          	slli	a2,a2,0x1
     c44:	96070713          	addi	a4,a4,-1696 # 6960 <grid>
     c48:	00c70733          	add	a4,a4,a2
     c4c:	00d70733          	add	a4,a4,a3
     c50:	00174703          	lbu	a4,1(a4)
     c54:	fc071ce3          	bnez	a4,c2c <is_filled+0x290>
     c58:	0187a703          	lw	a4,24(a5)
     c5c:	da0706e3          	beqz	a4,a08 <is_filled+0x6c>
     c60:	d8dff06f          	j	9ec <is_filled+0x50>
     c64:	00261713          	slli	a4,a2,0x2
     c68:	00c70633          	add	a2,a4,a2
     c6c:	00007737          	lui	a4,0x7
     c70:	00161613          	slli	a2,a2,0x1
     c74:	96070713          	addi	a4,a4,-1696 # 6960 <grid>
     c78:	00c70733          	add	a4,a4,a2
     c7c:	00d70733          	add	a4,a4,a3
     c80:	00374703          	lbu	a4,3(a4)
     c84:	fa0714e3          	bnez	a4,c2c <is_filled+0x290>
     c88:	0207a703          	lw	a4,32(a5)
     c8c:	dc0702e3          	beqz	a4,a50 <is_filled+0xb4>
     c90:	da5ff06f          	j	a34 <is_filled+0x98>
     c94:	00261713          	slli	a4,a2,0x2
     c98:	00c70633          	add	a2,a4,a2
     c9c:	00007737          	lui	a4,0x7
     ca0:	00161613          	slli	a2,a2,0x1
     ca4:	96070713          	addi	a4,a4,-1696 # 6960 <grid>
     ca8:	00c70733          	add	a4,a4,a2
     cac:	00d70733          	add	a4,a4,a3
     cb0:	00274703          	lbu	a4,2(a4)
     cb4:	f6071ce3          	bnez	a4,c2c <is_filled+0x290>
     cb8:	01c7a703          	lw	a4,28(a5)
     cbc:	d60708e3          	beqz	a4,a2c <is_filled+0x90>
     cc0:	d51ff06f          	j	a10 <is_filled+0x74>
     cc4:	00271693          	slli	a3,a4,0x2
     cc8:	00e686b3          	add	a3,a3,a4
     ccc:	00007737          	lui	a4,0x7
     cd0:	00169693          	slli	a3,a3,0x1
     cd4:	96070713          	addi	a4,a4,-1696 # 6960 <grid>
     cd8:	00d70733          	add	a4,a4,a3
     cdc:	00c70733          	add	a4,a4,a2
     ce0:	00074703          	lbu	a4,0(a4)
     ce4:	f40714e3          	bnez	a4,c2c <is_filled+0x290>
     ce8:	0247a703          	lw	a4,36(a5)
     cec:	d80706e3          	beqz	a4,a78 <is_filled+0xdc>
     cf0:	d69ff06f          	j	a58 <is_filled+0xbc>
     cf4:	00271693          	slli	a3,a4,0x2
     cf8:	00e686b3          	add	a3,a3,a4
     cfc:	00007737          	lui	a4,0x7
     d00:	00169693          	slli	a3,a3,0x1
     d04:	96070713          	addi	a4,a4,-1696 # 6960 <grid>
     d08:	00d70733          	add	a4,a4,a3
     d0c:	00c70733          	add	a4,a4,a2
     d10:	00174703          	lbu	a4,1(a4)
     d14:	f0071ce3          	bnez	a4,c2c <is_filled+0x290>
     d18:	0287a703          	lw	a4,40(a5)
     d1c:	d80702e3          	beqz	a4,aa0 <is_filled+0x104>
     d20:	d61ff06f          	j	a80 <is_filled+0xe4>
     d24:	00271693          	slli	a3,a4,0x2
     d28:	00e686b3          	add	a3,a3,a4
     d2c:	00007737          	lui	a4,0x7
     d30:	00169693          	slli	a3,a3,0x1
     d34:	96070713          	addi	a4,a4,-1696 # 6960 <grid>
     d38:	00d70733          	add	a4,a4,a3
     d3c:	00c70733          	add	a4,a4,a2
     d40:	00274703          	lbu	a4,2(a4)
     d44:	ee0714e3          	bnez	a4,c2c <is_filled+0x290>
     d48:	02c7a703          	lw	a4,44(a5)
     d4c:	d6070ee3          	beqz	a4,ac8 <is_filled+0x12c>
     d50:	d59ff06f          	j	aa8 <is_filled+0x10c>
     d54:	00271693          	slli	a3,a4,0x2
     d58:	00e686b3          	add	a3,a3,a4
     d5c:	00007737          	lui	a4,0x7
     d60:	00169693          	slli	a3,a3,0x1
     d64:	96070713          	addi	a4,a4,-1696 # 6960 <grid>
     d68:	00d70733          	add	a4,a4,a3
     d6c:	00c70733          	add	a4,a4,a2
     d70:	00374703          	lbu	a4,3(a4)
     d74:	ea071ce3          	bnez	a4,c2c <is_filled+0x290>
     d78:	0307a703          	lw	a4,48(a5)
     d7c:	d60708e3          	beqz	a4,aec <is_filled+0x150>
     d80:	d51ff06f          	j	ad0 <is_filled+0x134>
     d84:	00271693          	slli	a3,a4,0x2
     d88:	00e686b3          	add	a3,a3,a4
     d8c:	00007737          	lui	a4,0x7
     d90:	00169693          	slli	a3,a3,0x1
     d94:	96070713          	addi	a4,a4,-1696 # 6960 <grid>
     d98:	00d70733          	add	a4,a4,a3
     d9c:	00c70733          	add	a4,a4,a2
     da0:	00074703          	lbu	a4,0(a4)
     da4:	e80714e3          	bnez	a4,c2c <is_filled+0x290>
     da8:	0347a703          	lw	a4,52(a5)
     dac:	d60704e3          	beqz	a4,b14 <is_filled+0x178>
     db0:	d45ff06f          	j	af4 <is_filled+0x158>
     db4:	00271693          	slli	a3,a4,0x2
     db8:	00e686b3          	add	a3,a3,a4
     dbc:	00007737          	lui	a4,0x7
     dc0:	00169693          	slli	a3,a3,0x1
     dc4:	96070713          	addi	a4,a4,-1696 # 6960 <grid>
     dc8:	00d70733          	add	a4,a4,a3
     dcc:	00c70733          	add	a4,a4,a2
     dd0:	00174703          	lbu	a4,1(a4)
     dd4:	e4071ce3          	bnez	a4,c2c <is_filled+0x290>
     dd8:	0387a703          	lw	a4,56(a5)
     ddc:	d60700e3          	beqz	a4,b3c <is_filled+0x1a0>
     de0:	d3dff06f          	j	b1c <is_filled+0x180>
     de4:	00271693          	slli	a3,a4,0x2
     de8:	00e686b3          	add	a3,a3,a4
     dec:	00007737          	lui	a4,0x7
     df0:	00169693          	slli	a3,a3,0x1
     df4:	96070713          	addi	a4,a4,-1696 # 6960 <grid>
     df8:	00d70733          	add	a4,a4,a3
     dfc:	00c70733          	add	a4,a4,a2
     e00:	00274703          	lbu	a4,2(a4)
     e04:	e20714e3          	bnez	a4,c2c <is_filled+0x290>
     e08:	03c7a703          	lw	a4,60(a5)
     e0c:	d4070ce3          	beqz	a4,b64 <is_filled+0x1c8>
     e10:	d35ff06f          	j	b44 <is_filled+0x1a8>
     e14:	00271613          	slli	a2,a4,0x2
     e18:	00e60633          	add	a2,a2,a4
     e1c:	00007737          	lui	a4,0x7
     e20:	00161613          	slli	a2,a2,0x1
     e24:	96070713          	addi	a4,a4,-1696 # 6960 <grid>
     e28:	00c70733          	add	a4,a4,a2
     e2c:	00d70733          	add	a4,a4,a3
     e30:	00074703          	lbu	a4,0(a4)
     e34:	de071ce3          	bnez	a4,c2c <is_filled+0x290>
     e38:	0447a703          	lw	a4,68(a5)
     e3c:	d6070ae3          	beqz	a4,bb0 <is_filled+0x214>
     e40:	d51ff06f          	j	b90 <is_filled+0x1f4>
     e44:	00271693          	slli	a3,a4,0x2
     e48:	00e686b3          	add	a3,a3,a4
     e4c:	00007737          	lui	a4,0x7
     e50:	00169693          	slli	a3,a3,0x1
     e54:	96070713          	addi	a4,a4,-1696 # 6960 <grid>
     e58:	00d70733          	add	a4,a4,a3
     e5c:	00c70733          	add	a4,a4,a2
     e60:	00374703          	lbu	a4,3(a4)
     e64:	dc0714e3          	bnez	a4,c2c <is_filled+0x290>
     e68:	0407a703          	lw	a4,64(a5)
     e6c:	d0070ee3          	beqz	a4,b88 <is_filled+0x1ec>
     e70:	cfdff06f          	j	b6c <is_filled+0x1d0>
     e74:	00271693          	slli	a3,a4,0x2
     e78:	00e686b3          	add	a3,a3,a4
     e7c:	00007737          	lui	a4,0x7
     e80:	00169693          	slli	a3,a3,0x1
     e84:	96070713          	addi	a4,a4,-1696 # 6960 <grid>
     e88:	00d70733          	add	a4,a4,a3
     e8c:	00c70733          	add	a4,a4,a2
     e90:	00274703          	lbu	a4,2(a4)
     e94:	d8071ce3          	bnez	a4,c2c <is_filled+0x290>
     e98:	04c7a503          	lw	a0,76(a5)
     e9c:	d60504e3          	beqz	a0,c04 <is_filled+0x268>
     ea0:	d41ff06f          	j	be0 <is_filled+0x244>
     ea4:	00271693          	slli	a3,a4,0x2
     ea8:	00e686b3          	add	a3,a3,a4
     eac:	00007737          	lui	a4,0x7
     eb0:	00169693          	slli	a3,a3,0x1
     eb4:	96070713          	addi	a4,a4,-1696 # 6960 <grid>
     eb8:	00d70733          	add	a4,a4,a3
     ebc:	00c70733          	add	a4,a4,a2
     ec0:	00174703          	lbu	a4,1(a4)
     ec4:	d60714e3          	bnez	a4,c2c <is_filled+0x290>
     ec8:	0487a703          	lw	a4,72(a5)
     ecc:	d00706e3          	beqz	a4,bd8 <is_filled+0x23c>
     ed0:	ce9ff06f          	j	bb8 <is_filled+0x21c>
     ed4:	00279713          	slli	a4,a5,0x2
     ed8:	00f70733          	add	a4,a4,a5
     edc:	000077b7          	lui	a5,0x7
     ee0:	00171713          	slli	a4,a4,0x1
     ee4:	96078793          	addi	a5,a5,-1696 # 6960 <grid>
     ee8:	00e787b3          	add	a5,a5,a4
     eec:	00d787b3          	add	a5,a5,a3
     ef0:	0037c503          	lbu	a0,3(a5)
     ef4:	00a03533          	snez	a0,a0
     ef8:	00008067          	ret

00000efc <draw_char>:
     efc:	fbf60613          	addi	a2,a2,-65
     f00:	0ff67713          	zext.b	a4,a2
     f04:	01900793          	li	a5,25
     f08:	0ce7e663          	bltu	a5,a4,fd4 <draw_char+0xd8>
     f0c:	00261713          	slli	a4,a2,0x2
     f10:	0000d837          	lui	a6,0xd
     f14:	00259793          	slli	a5,a1,0x2
     f18:	89480813          	addi	a6,a6,-1900 # c894 <font5x7>
     f1c:	00c70733          	add	a4,a4,a2
     f20:	00b787b3          	add	a5,a5,a1
     f24:	00e80633          	add	a2,a6,a4
     f28:	00679793          	slli	a5,a5,0x6
     f2c:	00560813          	addi	a6,a2,5
     f30:	00a78533          	add	a0,a5,a0
     f34:	00007737          	lui	a4,0x7
     f38:	00064783          	lbu	a5,0(a2)
     f3c:	0017f593          	andi	a1,a5,1
     f40:	00058863          	beqz	a1,f50 <draw_char+0x54>
     f44:	95c72583          	lw	a1,-1700(a4) # 695c <VGA>
     f48:	00a585b3          	add	a1,a1,a0
     f4c:	00d58023          	sb	a3,0(a1)
     f50:	0027f593          	andi	a1,a5,2
     f54:	00058863          	beqz	a1,f64 <draw_char+0x68>
     f58:	95c72583          	lw	a1,-1700(a4)
     f5c:	00a585b3          	add	a1,a1,a0
     f60:	14d58023          	sb	a3,320(a1)
     f64:	0047f593          	andi	a1,a5,4
     f68:	00058863          	beqz	a1,f78 <draw_char+0x7c>
     f6c:	95c72583          	lw	a1,-1700(a4)
     f70:	00a585b3          	add	a1,a1,a0
     f74:	28d58023          	sb	a3,640(a1)
     f78:	0087f593          	andi	a1,a5,8
     f7c:	00058863          	beqz	a1,f8c <draw_char+0x90>
     f80:	95c72583          	lw	a1,-1700(a4)
     f84:	00a585b3          	add	a1,a1,a0
     f88:	3cd58023          	sb	a3,960(a1)
     f8c:	0107f593          	andi	a1,a5,16
     f90:	00058863          	beqz	a1,fa0 <draw_char+0xa4>
     f94:	95c72583          	lw	a1,-1700(a4)
     f98:	00a585b3          	add	a1,a1,a0
     f9c:	50d58023          	sb	a3,1280(a1)
     fa0:	0207f593          	andi	a1,a5,32
     fa4:	00058863          	beqz	a1,fb4 <draw_char+0xb8>
     fa8:	95c72583          	lw	a1,-1700(a4)
     fac:	00a585b3          	add	a1,a1,a0
     fb0:	64d58023          	sb	a3,1600(a1)
     fb4:	0407f793          	andi	a5,a5,64
     fb8:	00078863          	beqz	a5,fc8 <draw_char+0xcc>
     fbc:	95c72783          	lw	a5,-1700(a4)
     fc0:	00a787b3          	add	a5,a5,a0
     fc4:	78d78023          	sb	a3,1920(a5)
     fc8:	00160613          	addi	a2,a2,1
     fcc:	00150513          	addi	a0,a0,1
     fd0:	f6c814e3          	bne	a6,a2,f38 <draw_char+0x3c>
     fd4:	00008067          	ret

00000fd8 <start>:
     fd8:	00013637          	lui	a2,0x13
     fdc:	c0060613          	addi	a2,a2,-1024 # 12c00 <font5x7+0x636c>
     fe0:	00000793          	li	a5,0
     fe4:	000076b7          	lui	a3,0x7
     fe8:	95c6a703          	lw	a4,-1700(a3) # 695c <VGA>
     fec:	00f70733          	add	a4,a4,a5
     ff0:	00070023          	sb	zero,0(a4)
     ff4:	00178793          	addi	a5,a5,1
     ff8:	fec798e3          	bne	a5,a2,fe8 <start+0x10>
     ffc:	0000d8b7          	lui	a7,0xd
    1000:	0000de37          	lui	t3,0xd
    1004:	00009337          	lui	t1,0x9
    1008:	9a088893          	addi	a7,a7,-1632 # c9a0 <font5x7+0x10c>
    100c:	894e0e13          	addi	t3,t3,-1900 # c894 <font5x7>
    1010:	60030313          	addi	t1,t1,1536 # 9600 <__global_pointer+0x24a4>
    1014:	08800513          	li	a0,136
    1018:	01900f13          	li	t5,25
    101c:	fe000593          	li	a1,-32
    1020:	0b800e93          	li	t4,184
    1024:	0008c783          	lbu	a5,0(a7)
    1028:	fbf78793          	addi	a5,a5,-65
    102c:	0ff7f713          	zext.b	a4,a5
    1030:	0aef6a63          	bltu	t5,a4,10e4 <start+0x10c>
    1034:	00279713          	slli	a4,a5,0x2
    1038:	00f70733          	add	a4,a4,a5
    103c:	00ee0733          	add	a4,t3,a4
    1040:	00570f93          	addi	t6,a4,5
    1044:	00650633          	add	a2,a0,t1
    1048:	00074783          	lbu	a5,0(a4)
    104c:	0017f813          	andi	a6,a5,1
    1050:	00080863          	beqz	a6,1060 <start+0x88>
    1054:	95c6a803          	lw	a6,-1700(a3)
    1058:	00c80833          	add	a6,a6,a2
    105c:	88b80023          	sb	a1,-1920(a6)
    1060:	0027f813          	andi	a6,a5,2
    1064:	00080863          	beqz	a6,1074 <start+0x9c>
    1068:	95c6a803          	lw	a6,-1700(a3)
    106c:	00c80833          	add	a6,a6,a2
    1070:	9cb80023          	sb	a1,-1600(a6)
    1074:	0047f813          	andi	a6,a5,4
    1078:	00080863          	beqz	a6,1088 <start+0xb0>
    107c:	95c6a803          	lw	a6,-1700(a3)
    1080:	00c80833          	add	a6,a6,a2
    1084:	b0b80023          	sb	a1,-1280(a6)
    1088:	0087f813          	andi	a6,a5,8
    108c:	00080863          	beqz	a6,109c <start+0xc4>
    1090:	95c6a803          	lw	a6,-1700(a3)
    1094:	00c80833          	add	a6,a6,a2
    1098:	c4b80023          	sb	a1,-960(a6)
    109c:	0107f813          	andi	a6,a5,16
    10a0:	00080863          	beqz	a6,10b0 <start+0xd8>
    10a4:	95c6a803          	lw	a6,-1700(a3)
    10a8:	00c80833          	add	a6,a6,a2
    10ac:	d8b80023          	sb	a1,-640(a6)
    10b0:	0207f813          	andi	a6,a5,32
    10b4:	00080863          	beqz	a6,10c4 <start+0xec>
    10b8:	95c6a803          	lw	a6,-1700(a3)
    10bc:	00c80833          	add	a6,a6,a2
    10c0:	ecb80023          	sb	a1,-320(a6)
    10c4:	0407f793          	andi	a5,a5,64
    10c8:	00078863          	beqz	a5,10d8 <start+0x100>
    10cc:	95c6a783          	lw	a5,-1700(a3)
    10d0:	00c787b3          	add	a5,a5,a2
    10d4:	00b78023          	sb	a1,0(a5)
    10d8:	00170713          	addi	a4,a4,1
    10dc:	00160613          	addi	a2,a2,1
    10e0:	f6ef94e3          	bne	t6,a4,1048 <start+0x70>
    10e4:	00850513          	addi	a0,a0,8
    10e8:	00188893          	addi	a7,a7,1
    10ec:	f3d51ce3          	bne	a0,t4,1024 <start+0x4c>
    10f0:	00008067          	ret

000010f4 <game_over>:
    10f4:	00013637          	lui	a2,0x13
    10f8:	c0060613          	addi	a2,a2,-1024 # 12c00 <font5x7+0x636c>
    10fc:	00000793          	li	a5,0
    1100:	000076b7          	lui	a3,0x7
    1104:	95c6a703          	lw	a4,-1700(a3) # 695c <VGA>
    1108:	00f70733          	add	a4,a4,a5
    110c:	00070023          	sb	zero,0(a4)
    1110:	00178793          	addi	a5,a5,1
    1114:	fec798e3          	bne	a5,a2,1104 <game_over+0x10>
    1118:	0000d337          	lui	t1,0xd
    111c:	0000d8b7          	lui	a7,0xd
    1120:	00009e37          	lui	t3,0x9
    1124:	9a830313          	addi	t1,t1,-1624 # c9a8 <font5x7+0x114>
    1128:	89488893          	addi	a7,a7,-1900 # c894 <font5x7>
    112c:	240e0e13          	addi	t3,t3,576 # 9240 <__global_pointer+0x20e4>
    1130:	07c00813          	li	a6,124
    1134:	01900f13          	li	t5,25
    1138:	fe000593          	li	a1,-32
    113c:	0c400e93          	li	t4,196
    1140:	00034783          	lbu	a5,0(t1)
    1144:	fbf78793          	addi	a5,a5,-65
    1148:	0ff7f713          	zext.b	a4,a5
    114c:	0aef6a63          	bltu	t5,a4,1200 <game_over+0x10c>
    1150:	00279713          	slli	a4,a5,0x2
    1154:	00f70733          	add	a4,a4,a5
    1158:	00e88733          	add	a4,a7,a4
    115c:	00570f93          	addi	t6,a4,5
    1160:	01c80633          	add	a2,a6,t3
    1164:	00074783          	lbu	a5,0(a4)
    1168:	0017f513          	andi	a0,a5,1
    116c:	00050863          	beqz	a0,117c <game_over+0x88>
    1170:	95c6a503          	lw	a0,-1700(a3)
    1174:	00c50533          	add	a0,a0,a2
    1178:	88b50023          	sb	a1,-1920(a0)
    117c:	0027f513          	andi	a0,a5,2
    1180:	00050863          	beqz	a0,1190 <game_over+0x9c>
    1184:	95c6a503          	lw	a0,-1700(a3)
    1188:	00c50533          	add	a0,a0,a2
    118c:	9cb50023          	sb	a1,-1600(a0)
    1190:	0047f513          	andi	a0,a5,4
    1194:	00050863          	beqz	a0,11a4 <game_over+0xb0>
    1198:	95c6a503          	lw	a0,-1700(a3)
    119c:	00c50533          	add	a0,a0,a2
    11a0:	b0b50023          	sb	a1,-1280(a0)
    11a4:	0087f513          	andi	a0,a5,8
    11a8:	00050863          	beqz	a0,11b8 <game_over+0xc4>
    11ac:	95c6a503          	lw	a0,-1700(a3)
    11b0:	00c50533          	add	a0,a0,a2
    11b4:	c4b50023          	sb	a1,-960(a0)
    11b8:	0107f513          	andi	a0,a5,16
    11bc:	00050863          	beqz	a0,11cc <game_over+0xd8>
    11c0:	95c6a503          	lw	a0,-1700(a3)
    11c4:	00c50533          	add	a0,a0,a2
    11c8:	d8b50023          	sb	a1,-640(a0)
    11cc:	0207f513          	andi	a0,a5,32
    11d0:	00050863          	beqz	a0,11e0 <game_over+0xec>
    11d4:	95c6a503          	lw	a0,-1700(a3)
    11d8:	00c50533          	add	a0,a0,a2
    11dc:	ecb50023          	sb	a1,-320(a0)
    11e0:	0407f793          	andi	a5,a5,64
    11e4:	00078863          	beqz	a5,11f4 <game_over+0x100>
    11e8:	95c6a783          	lw	a5,-1700(a3)
    11ec:	00c787b3          	add	a5,a5,a2
    11f0:	00b78023          	sb	a1,0(a5)
    11f4:	00170713          	addi	a4,a4,1
    11f8:	00160613          	addi	a2,a2,1
    11fc:	f6ef94e3          	bne	t6,a4,1164 <game_over+0x70>
    1200:	00880813          	addi	a6,a6,8
    1204:	00130313          	addi	t1,t1,1
    1208:	f3d81ce3          	bne	a6,t4,1140 <game_over+0x4c>
    120c:	0000d337          	lui	t1,0xd
    1210:	0000ae37          	lui	t3,0xa
    1214:	9b430313          	addi	t1,t1,-1612 # c9b4 <font5x7+0x120>
    1218:	c40e0e13          	addi	t3,t3,-960 # 9c40 <__global_pointer+0x2ae4>
    121c:	08e00513          	li	a0,142
    1220:	01900f13          	li	t5,25
    1224:	fe000593          	li	a1,-32
    1228:	0a700e93          	li	t4,167
    122c:	00034783          	lbu	a5,0(t1)
    1230:	fbf78793          	addi	a5,a5,-65
    1234:	0ff7f713          	zext.b	a4,a5
    1238:	0aef6a63          	bltu	t5,a4,12ec <game_over+0x1f8>
    123c:	00279713          	slli	a4,a5,0x2
    1240:	00f70733          	add	a4,a4,a5
    1244:	00e88733          	add	a4,a7,a4
    1248:	00570f93          	addi	t6,a4,5
    124c:	01c50633          	add	a2,a0,t3
    1250:	00074783          	lbu	a5,0(a4)
    1254:	0017f813          	andi	a6,a5,1
    1258:	00080863          	beqz	a6,1268 <game_over+0x174>
    125c:	95c6a803          	lw	a6,-1700(a3)
    1260:	00c80833          	add	a6,a6,a2
    1264:	9cb80023          	sb	a1,-1600(a6)
    1268:	0027f813          	andi	a6,a5,2
    126c:	00080863          	beqz	a6,127c <game_over+0x188>
    1270:	95c6a803          	lw	a6,-1700(a3)
    1274:	00c80833          	add	a6,a6,a2
    1278:	b0b80023          	sb	a1,-1280(a6)
    127c:	0047f813          	andi	a6,a5,4
    1280:	00080863          	beqz	a6,1290 <game_over+0x19c>
    1284:	95c6a803          	lw	a6,-1700(a3)
    1288:	00c80833          	add	a6,a6,a2
    128c:	c4b80023          	sb	a1,-960(a6)
    1290:	0087f813          	andi	a6,a5,8
    1294:	00080863          	beqz	a6,12a4 <game_over+0x1b0>
    1298:	95c6a803          	lw	a6,-1700(a3)
    129c:	00c80833          	add	a6,a6,a2
    12a0:	d8b80023          	sb	a1,-640(a6)
    12a4:	0107f813          	andi	a6,a5,16
    12a8:	00080863          	beqz	a6,12b8 <game_over+0x1c4>
    12ac:	95c6a803          	lw	a6,-1700(a3)
    12b0:	00c80833          	add	a6,a6,a2
    12b4:	ecb80023          	sb	a1,-320(a6)
    12b8:	0207f813          	andi	a6,a5,32
    12bc:	00080863          	beqz	a6,12cc <game_over+0x1d8>
    12c0:	95c6a803          	lw	a6,-1700(a3)
    12c4:	00c80833          	add	a6,a6,a2
    12c8:	00b80023          	sb	a1,0(a6)
    12cc:	0407f793          	andi	a5,a5,64
    12d0:	00078863          	beqz	a5,12e0 <game_over+0x1ec>
    12d4:	95c6a783          	lw	a5,-1700(a3)
    12d8:	00c787b3          	add	a5,a5,a2
    12dc:	14b78023          	sb	a1,320(a5)
    12e0:	00170713          	addi	a4,a4,1
    12e4:	00160613          	addi	a2,a2,1
    12e8:	f7f714e3          	bne	a4,t6,1250 <game_over+0x15c>
    12ec:	00550513          	addi	a0,a0,5
    12f0:	00130313          	addi	t1,t1,1
    12f4:	f3d51ce3          	bne	a0,t4,122c <game_over+0x138>
    12f8:	0000006f          	j	12f8 <game_over+0x204>

000012fc <spawn_next>:
    12fc:	000077b7          	lui	a5,0x7
    1300:	96078793          	addi	a5,a5,-1696 # 6960 <grid>
    1304:	11878713          	addi	a4,a5,280
    1308:	0c878693          	addi	a3,a5,200
    130c:	16878613          	addi	a2,a5,360
    1310:	00872583          	lw	a1,8(a4)
    1314:	00072803          	lw	a6,0(a4)
    1318:	00472503          	lw	a0,4(a4)
    131c:	00b6a423          	sw	a1,8(a3)
    1320:	0106a023          	sw	a6,0(a3)
    1324:	00a6a223          	sw	a0,4(a3)
    1328:	00c72583          	lw	a1,12(a4)
    132c:	01070713          	addi	a4,a4,16
    1330:	01068693          	addi	a3,a3,16
    1334:	feb6ae23          	sw	a1,-4(a3)
    1338:	fcc71ce3          	bne	a4,a2,1310 <spawn_next+0x14>
    133c:	0000d537          	lui	a0,0xd
    1340:	88c52603          	lw	a2,-1908(a0) # c88c <seed>
    1344:	249256b7          	lui	a3,0x24925
    1348:	92568693          	addi	a3,a3,-1755 # 24924925 <_stack_end+0x24817f69>
    134c:	00261713          	slli	a4,a2,0x2
    1350:	00c70733          	add	a4,a4,a2
    1354:	00471593          	slli	a1,a4,0x4
    1358:	40e585b3          	sub	a1,a1,a4
    135c:	0b358593          	addi	a1,a1,179
    1360:	03f5f593          	andi	a1,a1,63
    1364:	0ff5f613          	zext.b	a2,a1
    1368:	02d636b3          	mulhu	a3,a2,a3
    136c:	88b52623          	sw	a1,-1908(a0)
    1370:	00006737          	lui	a4,0x6
    1374:	72c70713          	addi	a4,a4,1836 # 672c <pieces>
    1378:	11878593          	addi	a1,a5,280
    137c:	40d60533          	sub	a0,a2,a3
    1380:	00155513          	srli	a0,a0,0x1
    1384:	00a686b3          	add	a3,a3,a0
    1388:	0026d693          	srli	a3,a3,0x2
    138c:	00369513          	slli	a0,a3,0x3
    1390:	40d506b3          	sub	a3,a0,a3
    1394:	40d60633          	sub	a2,a2,a3
    1398:	0ff67613          	zext.b	a2,a2
    139c:	00261693          	slli	a3,a2,0x2
    13a0:	00c686b3          	add	a3,a3,a2
    13a4:	00469693          	slli	a3,a3,0x4
    13a8:	00d70733          	add	a4,a4,a3
    13ac:	05070693          	addi	a3,a4,80
    13b0:	00872603          	lw	a2,8(a4)
    13b4:	00072803          	lw	a6,0(a4)
    13b8:	00472503          	lw	a0,4(a4)
    13bc:	00c5a423          	sw	a2,8(a1)
    13c0:	0105a023          	sw	a6,0(a1)
    13c4:	00a5a223          	sw	a0,4(a1)
    13c8:	00c72603          	lw	a2,12(a4)
    13cc:	01070713          	addi	a4,a4,16
    13d0:	01058593          	addi	a1,a1,16
    13d4:	fec5ae23          	sw	a2,-4(a1)
    13d8:	fcd71ce3          	bne	a4,a3,13b0 <spawn_next+0xb4>
    13dc:	0d87a703          	lw	a4,216(a5)
    13e0:	00300693          	li	a3,3
    13e4:	0c07a823          	sw	zero,208(a5)
    13e8:	0cd7a623          	sw	a3,204(a5)
    13ec:	00070663          	beqz	a4,13f8 <spawn_next+0xfc>
    13f0:	0037c703          	lbu	a4,3(a5)
    13f4:	0e071c63          	bnez	a4,14ec <spawn_next+0x1f0>
    13f8:	0dc7a703          	lw	a4,220(a5)
    13fc:	00070663          	beqz	a4,1408 <spawn_next+0x10c>
    1400:	0047c703          	lbu	a4,4(a5)
    1404:	0e071463          	bnez	a4,14ec <spawn_next+0x1f0>
    1408:	0e07a703          	lw	a4,224(a5)
    140c:	00070663          	beqz	a4,1418 <spawn_next+0x11c>
    1410:	0057c703          	lbu	a4,5(a5)
    1414:	0c071c63          	bnez	a4,14ec <spawn_next+0x1f0>
    1418:	0e47a703          	lw	a4,228(a5)
    141c:	00070663          	beqz	a4,1428 <spawn_next+0x12c>
    1420:	0067c703          	lbu	a4,6(a5)
    1424:	0c071463          	bnez	a4,14ec <spawn_next+0x1f0>
    1428:	0e87a703          	lw	a4,232(a5)
    142c:	00070663          	beqz	a4,1438 <spawn_next+0x13c>
    1430:	00d7c703          	lbu	a4,13(a5)
    1434:	0a071c63          	bnez	a4,14ec <spawn_next+0x1f0>
    1438:	0ec7a703          	lw	a4,236(a5)
    143c:	00070663          	beqz	a4,1448 <spawn_next+0x14c>
    1440:	00e7c703          	lbu	a4,14(a5)
    1444:	0a071463          	bnez	a4,14ec <spawn_next+0x1f0>
    1448:	0f07a703          	lw	a4,240(a5)
    144c:	00070663          	beqz	a4,1458 <spawn_next+0x15c>
    1450:	00f7c703          	lbu	a4,15(a5)
    1454:	08071c63          	bnez	a4,14ec <spawn_next+0x1f0>
    1458:	0f47a703          	lw	a4,244(a5)
    145c:	00070663          	beqz	a4,1468 <spawn_next+0x16c>
    1460:	0107c703          	lbu	a4,16(a5)
    1464:	08071463          	bnez	a4,14ec <spawn_next+0x1f0>
    1468:	0f87a703          	lw	a4,248(a5)
    146c:	00070663          	beqz	a4,1478 <spawn_next+0x17c>
    1470:	0177c703          	lbu	a4,23(a5)
    1474:	06071c63          	bnez	a4,14ec <spawn_next+0x1f0>
    1478:	0fc7a703          	lw	a4,252(a5)
    147c:	00070663          	beqz	a4,1488 <spawn_next+0x18c>
    1480:	0187c703          	lbu	a4,24(a5)
    1484:	06071463          	bnez	a4,14ec <spawn_next+0x1f0>
    1488:	1007a703          	lw	a4,256(a5)
    148c:	00070663          	beqz	a4,1498 <spawn_next+0x19c>
    1490:	0197c703          	lbu	a4,25(a5)
    1494:	04071c63          	bnez	a4,14ec <spawn_next+0x1f0>
    1498:	1047a703          	lw	a4,260(a5)
    149c:	00070663          	beqz	a4,14a8 <spawn_next+0x1ac>
    14a0:	01a7c703          	lbu	a4,26(a5)
    14a4:	04071463          	bnez	a4,14ec <spawn_next+0x1f0>
    14a8:	1087a703          	lw	a4,264(a5)
    14ac:	00070663          	beqz	a4,14b8 <spawn_next+0x1bc>
    14b0:	0217c703          	lbu	a4,33(a5)
    14b4:	02071c63          	bnez	a4,14ec <spawn_next+0x1f0>
    14b8:	10c7a703          	lw	a4,268(a5)
    14bc:	00070663          	beqz	a4,14c8 <spawn_next+0x1cc>
    14c0:	0227c703          	lbu	a4,34(a5)
    14c4:	02071463          	bnez	a4,14ec <spawn_next+0x1f0>
    14c8:	1107a703          	lw	a4,272(a5)
    14cc:	00070663          	beqz	a4,14d8 <spawn_next+0x1dc>
    14d0:	0237c703          	lbu	a4,35(a5)
    14d4:	00071c63          	bnez	a4,14ec <spawn_next+0x1f0>
    14d8:	1147a703          	lw	a4,276(a5)
    14dc:	00070663          	beqz	a4,14e8 <spawn_next+0x1ec>
    14e0:	0247c783          	lbu	a5,36(a5)
    14e4:	00079463          	bnez	a5,14ec <spawn_next+0x1f0>
    14e8:	00008067          	ret
    14ec:	ff010113          	addi	sp,sp,-16
    14f0:	00112623          	sw	ra,12(sp)
    14f4:	c01ff0ef          	jal	10f4 <game_over>

000014f8 <labinit>:
    14f8:	ffffc6b7          	lui	a3,0xffffc
    14fc:	040007b7          	lui	a5,0x4000
    1500:	6bf68693          	addi	a3,a3,1727 # ffffc6bf <_stack_end+0xffeefd03>
    1504:	02d79423          	sh	a3,40(a5) # 4000028 <_stack_end+0x3ef366c>
    1508:	02d00693          	li	a3,45
    150c:	02d79623          	sh	a3,44(a5)
    1510:	00700693          	li	a3,7
    1514:	02d79223          	sh	a3,36(a5)
    1518:	00100693          	li	a3,1
    151c:	0cd7ac23          	sw	a3,216(a5)
    1520:	0cd7ae23          	sw	a3,220(a5)
    1524:	c51fe06f          	j	174 <enable_interrupt>

00001528 <get_btn>:
    1528:	040007b7          	lui	a5,0x4000
    152c:	0d07a503          	lw	a0,208(a5) # 40000d0 <_stack_end+0x3ef3714>
    1530:	00157513          	andi	a0,a0,1
    1534:	00008067          	ret

00001538 <get_sw>:
    1538:	040007b7          	lui	a5,0x4000
    153c:	0107a503          	lw	a0,16(a5) # 4000010 <_stack_end+0x3ef3654>
    1540:	3ff57513          	andi	a0,a0,1023
    1544:	00008067          	ret

00001548 <draw_grid>:
    1548:	00007f37          	lui	t5,0x7
    154c:	960f0f13          	addi	t5,t5,-1696 # 6960 <grid>
    1550:	00003eb7          	lui	t4,0x3
    1554:	0c8f0f93          	addi	t6,t5,200
    1558:	2c8e8e93          	addi	t4,t4,712 # 32c8 <rotate_piece+0x134>
    155c:	01200713          	li	a4,18
    1560:	08100313          	li	t1,129
    1564:	00800813          	li	a6,8
    1568:	fb0e8e13          	addi	t3,t4,-80
    156c:	000f0593          	mv	a1,t5
    1570:	0005c883          	lbu	a7,0(a1)
    1574:	00089463          	bnez	a7,157c <draw_grid+0x34>
    1578:	01200893          	li	a7,18
    157c:	01c507b3          	add	a5,a0,t3
    1580:	08100613          	li	a2,129
    1584:	00000693          	li	a3,0
    1588:	0600006f          	j	15e8 <draw_grid+0xa0>
    158c:	0005c603          	lbu	a2,0(a1)
    1590:	0c061863          	bnez	a2,1660 <draw_grid+0x118>
    1594:	000780a3          	sb	zero,1(a5)
    1598:	0005c603          	lbu	a2,0(a1)
    159c:	0a061e63          	bnez	a2,1658 <draw_grid+0x110>
    15a0:	00078123          	sb	zero,2(a5)
    15a4:	0005c603          	lbu	a2,0(a1)
    15a8:	0a061463          	bnez	a2,1650 <draw_grid+0x108>
    15ac:	000781a3          	sb	zero,3(a5)
    15b0:	0005c603          	lbu	a2,0(a1)
    15b4:	08061a63          	bnez	a2,1648 <draw_grid+0x100>
    15b8:	00078223          	sb	zero,4(a5)
    15bc:	0005c603          	lbu	a2,0(a1)
    15c0:	08061063          	bnez	a2,1640 <draw_grid+0xf8>
    15c4:	000782a3          	sb	zero,5(a5)
    15c8:	0005c603          	lbu	a2,0(a1)
    15cc:	06061663          	bnez	a2,1638 <draw_grid+0xf0>
    15d0:	00078323          	sb	zero,6(a5)
    15d4:	00e783a3          	sb	a4,7(a5)
    15d8:	00168693          	addi	a3,a3,1
    15dc:	03068e63          	beq	a3,a6,1618 <draw_grid+0xd0>
    15e0:	14078793          	addi	a5,a5,320
    15e4:	00d35633          	srl	a2,t1,a3
    15e8:	00e78023          	sb	a4,0(a5)
    15ec:	00167613          	andi	a2,a2,1
    15f0:	f8060ee3          	beqz	a2,158c <draw_grid+0x44>
    15f4:	00e780a3          	sb	a4,1(a5)
    15f8:	00e78123          	sb	a4,2(a5)
    15fc:	00e781a3          	sb	a4,3(a5)
    1600:	00e78223          	sb	a4,4(a5)
    1604:	00e782a3          	sb	a4,5(a5)
    1608:	00e78323          	sb	a4,6(a5)
    160c:	00e783a3          	sb	a4,7(a5)
    1610:	00168693          	addi	a3,a3,1
    1614:	fd0696e3          	bne	a3,a6,15e0 <draw_grid+0x98>
    1618:	008e0e13          	addi	t3,t3,8
    161c:	00158593          	addi	a1,a1,1
    1620:	f5de18e3          	bne	t3,t4,1570 <draw_grid+0x28>
    1624:	7ffe0e93          	addi	t4,t3,2047
    1628:	00af0f13          	addi	t5,t5,10
    162c:	201e8e93          	addi	t4,t4,513
    1630:	f3ff1ce3          	bne	t5,t6,1568 <draw_grid+0x20>
    1634:	00008067          	ret
    1638:	01178323          	sb	a7,6(a5)
    163c:	f99ff06f          	j	15d4 <draw_grid+0x8c>
    1640:	011782a3          	sb	a7,5(a5)
    1644:	f85ff06f          	j	15c8 <draw_grid+0x80>
    1648:	01178223          	sb	a7,4(a5)
    164c:	f71ff06f          	j	15bc <draw_grid+0x74>
    1650:	011781a3          	sb	a7,3(a5)
    1654:	f5dff06f          	j	15b0 <draw_grid+0x68>
    1658:	01178123          	sb	a7,2(a5)
    165c:	f49ff06f          	j	15a4 <draw_grid+0x5c>
    1660:	011780a3          	sb	a7,1(a5)
    1664:	f35ff06f          	j	1598 <draw_grid+0x50>

00001668 <draw_shape>:
    1668:	00000893          	li	a7,0
    166c:	00400313          	li	t1,4
    1670:	00489693          	slli	a3,a7,0x4
    1674:	00d586b3          	add	a3,a1,a3
    1678:	00000713          	li	a4,0
    167c:	0106a783          	lw	a5,16(a3)
    1680:	00079e63          	bnez	a5,169c <draw_shape+0x34>
    1684:	00170713          	addi	a4,a4,1
    1688:	00468693          	addi	a3,a3,4
    168c:	fe6718e3          	bne	a4,t1,167c <draw_shape+0x14>
    1690:	00188893          	addi	a7,a7,1
    1694:	fce89ee3          	bne	a7,a4,1670 <draw_shape+0x8>
    1698:	00008067          	ret
    169c:	0085a603          	lw	a2,8(a1)
    16a0:	0045a803          	lw	a6,4(a1)
    16a4:	00c5ce03          	lbu	t3,12(a1)
    16a8:	00c88633          	add	a2,a7,a2
    16ac:	00560613          	addi	a2,a2,5
    16b0:	00261793          	slli	a5,a2,0x2
    16b4:	00c787b3          	add	a5,a5,a2
    16b8:	01070633          	add	a2,a4,a6
    16bc:	00f60613          	addi	a2,a2,15
    16c0:	00679793          	slli	a5,a5,0x6
    16c4:	00c787b3          	add	a5,a5,a2
    16c8:	00379793          	slli	a5,a5,0x3
    16cc:	00f50833          	add	a6,a0,a5
    16d0:	00178613          	addi	a2,a5,1
    16d4:	01c80023          	sb	t3,0(a6)
    16d8:	00c50633          	add	a2,a0,a2
    16dc:	01c60023          	sb	t3,0(a2)
    16e0:	00c5ce03          	lbu	t3,12(a1)
    16e4:	00278813          	addi	a6,a5,2
    16e8:	01050833          	add	a6,a0,a6
    16ec:	00378613          	addi	a2,a5,3
    16f0:	01c80023          	sb	t3,0(a6)
    16f4:	00c50633          	add	a2,a0,a2
    16f8:	01c60023          	sb	t3,0(a2)
    16fc:	00c5ce03          	lbu	t3,12(a1)
    1700:	00478813          	addi	a6,a5,4
    1704:	01050833          	add	a6,a0,a6
    1708:	00578613          	addi	a2,a5,5
    170c:	01c80023          	sb	t3,0(a6)
    1710:	00c50633          	add	a2,a0,a2
    1714:	01c60023          	sb	t3,0(a2)
    1718:	00c5ce03          	lbu	t3,12(a1)
    171c:	00678813          	addi	a6,a5,6
    1720:	01050833          	add	a6,a0,a6
    1724:	00778613          	addi	a2,a5,7
    1728:	01c80023          	sb	t3,0(a6)
    172c:	00c50633          	add	a2,a0,a2
    1730:	01c60023          	sb	t3,0(a2)
    1734:	00c5ce03          	lbu	t3,12(a1)
    1738:	14078813          	addi	a6,a5,320
    173c:	01050833          	add	a6,a0,a6
    1740:	14178613          	addi	a2,a5,321
    1744:	01c80023          	sb	t3,0(a6)
    1748:	00c50633          	add	a2,a0,a2
    174c:	01c60023          	sb	t3,0(a2)
    1750:	00c5ce03          	lbu	t3,12(a1)
    1754:	14278813          	addi	a6,a5,322
    1758:	01050833          	add	a6,a0,a6
    175c:	14378613          	addi	a2,a5,323
    1760:	01c80023          	sb	t3,0(a6)
    1764:	00c50633          	add	a2,a0,a2
    1768:	01c60023          	sb	t3,0(a2)
    176c:	00c5ce03          	lbu	t3,12(a1)
    1770:	14478813          	addi	a6,a5,324
    1774:	01050833          	add	a6,a0,a6
    1778:	14578613          	addi	a2,a5,325
    177c:	01c80023          	sb	t3,0(a6)
    1780:	00c50633          	add	a2,a0,a2
    1784:	01c60023          	sb	t3,0(a2)
    1788:	00c5ce03          	lbu	t3,12(a1)
    178c:	14678813          	addi	a6,a5,326
    1790:	01050833          	add	a6,a0,a6
    1794:	14778613          	addi	a2,a5,327
    1798:	01c80023          	sb	t3,0(a6)
    179c:	00c50633          	add	a2,a0,a2
    17a0:	01c60023          	sb	t3,0(a2)
    17a4:	00c5ce03          	lbu	t3,12(a1)
    17a8:	28078813          	addi	a6,a5,640
    17ac:	01050833          	add	a6,a0,a6
    17b0:	28178613          	addi	a2,a5,641
    17b4:	01c80023          	sb	t3,0(a6)
    17b8:	00c50633          	add	a2,a0,a2
    17bc:	01c60023          	sb	t3,0(a2)
    17c0:	00c5ce03          	lbu	t3,12(a1)
    17c4:	28278813          	addi	a6,a5,642
    17c8:	01050833          	add	a6,a0,a6
    17cc:	28378613          	addi	a2,a5,643
    17d0:	01c80023          	sb	t3,0(a6)
    17d4:	00c50633          	add	a2,a0,a2
    17d8:	01c60023          	sb	t3,0(a2)
    17dc:	00c5ce03          	lbu	t3,12(a1)
    17e0:	28478813          	addi	a6,a5,644
    17e4:	01050833          	add	a6,a0,a6
    17e8:	28578613          	addi	a2,a5,645
    17ec:	01c80023          	sb	t3,0(a6)
    17f0:	00c50633          	add	a2,a0,a2
    17f4:	01c60023          	sb	t3,0(a2)
    17f8:	00c5ce03          	lbu	t3,12(a1)
    17fc:	28678813          	addi	a6,a5,646
    1800:	01050833          	add	a6,a0,a6
    1804:	28778613          	addi	a2,a5,647
    1808:	01c80023          	sb	t3,0(a6)
    180c:	00c50633          	add	a2,a0,a2
    1810:	01c60023          	sb	t3,0(a2)
    1814:	00c5ce03          	lbu	t3,12(a1)
    1818:	3c078813          	addi	a6,a5,960
    181c:	01050833          	add	a6,a0,a6
    1820:	3c178613          	addi	a2,a5,961
    1824:	01c80023          	sb	t3,0(a6)
    1828:	00c50633          	add	a2,a0,a2
    182c:	01c60023          	sb	t3,0(a2)
    1830:	00c5ce03          	lbu	t3,12(a1)
    1834:	3c278813          	addi	a6,a5,962
    1838:	01050833          	add	a6,a0,a6
    183c:	3c378613          	addi	a2,a5,963
    1840:	01c80023          	sb	t3,0(a6)
    1844:	00c50633          	add	a2,a0,a2
    1848:	01c60023          	sb	t3,0(a2)
    184c:	00c5ce03          	lbu	t3,12(a1)
    1850:	3c478813          	addi	a6,a5,964
    1854:	01050833          	add	a6,a0,a6
    1858:	3c578613          	addi	a2,a5,965
    185c:	01c80023          	sb	t3,0(a6)
    1860:	00c50633          	add	a2,a0,a2
    1864:	01c60023          	sb	t3,0(a2)
    1868:	00c5ce03          	lbu	t3,12(a1)
    186c:	3c678813          	addi	a6,a5,966
    1870:	01050833          	add	a6,a0,a6
    1874:	3c778613          	addi	a2,a5,967
    1878:	01c80023          	sb	t3,0(a6)
    187c:	00c50633          	add	a2,a0,a2
    1880:	01c60023          	sb	t3,0(a2)
    1884:	00c5ce03          	lbu	t3,12(a1)
    1888:	50078813          	addi	a6,a5,1280
    188c:	01050833          	add	a6,a0,a6
    1890:	50178613          	addi	a2,a5,1281
    1894:	01c80023          	sb	t3,0(a6)
    1898:	00c50633          	add	a2,a0,a2
    189c:	01c60023          	sb	t3,0(a2)
    18a0:	00c5ce03          	lbu	t3,12(a1)
    18a4:	50278813          	addi	a6,a5,1282
    18a8:	01050833          	add	a6,a0,a6
    18ac:	50378613          	addi	a2,a5,1283
    18b0:	01c80023          	sb	t3,0(a6)
    18b4:	00c50633          	add	a2,a0,a2
    18b8:	01c60023          	sb	t3,0(a2)
    18bc:	00c5ce03          	lbu	t3,12(a1)
    18c0:	50478813          	addi	a6,a5,1284
    18c4:	01050833          	add	a6,a0,a6
    18c8:	50578613          	addi	a2,a5,1285
    18cc:	01c80023          	sb	t3,0(a6)
    18d0:	00c50633          	add	a2,a0,a2
    18d4:	01c60023          	sb	t3,0(a2)
    18d8:	00c5ce03          	lbu	t3,12(a1)
    18dc:	50678813          	addi	a6,a5,1286
    18e0:	01050833          	add	a6,a0,a6
    18e4:	50778613          	addi	a2,a5,1287
    18e8:	01c80023          	sb	t3,0(a6)
    18ec:	00c50633          	add	a2,a0,a2
    18f0:	01c60023          	sb	t3,0(a2)
    18f4:	00c5ce03          	lbu	t3,12(a1)
    18f8:	64078813          	addi	a6,a5,1600
    18fc:	01050833          	add	a6,a0,a6
    1900:	64178613          	addi	a2,a5,1601
    1904:	01c80023          	sb	t3,0(a6)
    1908:	00c50633          	add	a2,a0,a2
    190c:	01c60023          	sb	t3,0(a2)
    1910:	00c5ce03          	lbu	t3,12(a1)
    1914:	64278813          	addi	a6,a5,1602
    1918:	01050833          	add	a6,a0,a6
    191c:	64378613          	addi	a2,a5,1603
    1920:	01c80023          	sb	t3,0(a6)
    1924:	00c50633          	add	a2,a0,a2
    1928:	01c60023          	sb	t3,0(a2)
    192c:	00c5ce03          	lbu	t3,12(a1)
    1930:	64478813          	addi	a6,a5,1604
    1934:	01050833          	add	a6,a0,a6
    1938:	64578613          	addi	a2,a5,1605
    193c:	01c80023          	sb	t3,0(a6)
    1940:	00c50633          	add	a2,a0,a2
    1944:	01c60023          	sb	t3,0(a2)
    1948:	00c5ce03          	lbu	t3,12(a1)
    194c:	64678813          	addi	a6,a5,1606
    1950:	01050833          	add	a6,a0,a6
    1954:	64778613          	addi	a2,a5,1607
    1958:	01c80023          	sb	t3,0(a6)
    195c:	00c50633          	add	a2,a0,a2
    1960:	01c60023          	sb	t3,0(a2)
    1964:	00c5ce03          	lbu	t3,12(a1)
    1968:	78078813          	addi	a6,a5,1920
    196c:	01050833          	add	a6,a0,a6
    1970:	78178613          	addi	a2,a5,1921
    1974:	01c80023          	sb	t3,0(a6)
    1978:	00c50633          	add	a2,a0,a2
    197c:	01c60023          	sb	t3,0(a2)
    1980:	00c5ce03          	lbu	t3,12(a1)
    1984:	78278813          	addi	a6,a5,1922
    1988:	01050833          	add	a6,a0,a6
    198c:	78378613          	addi	a2,a5,1923
    1990:	01c80023          	sb	t3,0(a6)
    1994:	00c50633          	add	a2,a0,a2
    1998:	01c60023          	sb	t3,0(a2)
    199c:	00c5ce03          	lbu	t3,12(a1)
    19a0:	78478813          	addi	a6,a5,1924
    19a4:	01050833          	add	a6,a0,a6
    19a8:	78578613          	addi	a2,a5,1925
    19ac:	01c80023          	sb	t3,0(a6)
    19b0:	00c50633          	add	a2,a0,a2
    19b4:	01c60023          	sb	t3,0(a2)
    19b8:	00c5ce03          	lbu	t3,12(a1)
    19bc:	78678813          	addi	a6,a5,1926
    19c0:	01050833          	add	a6,a0,a6
    19c4:	78778613          	addi	a2,a5,1927
    19c8:	01c80023          	sb	t3,0(a6)
    19cc:	00c50633          	add	a2,a0,a2
    19d0:	01c60023          	sb	t3,0(a2)
    19d4:	00c5ce03          	lbu	t3,12(a1)
    19d8:	7ff78813          	addi	a6,a5,2047
    19dc:	7ff78613          	addi	a2,a5,2047
    19e0:	0c180813          	addi	a6,a6,193
    19e4:	01050833          	add	a6,a0,a6
    19e8:	0c260613          	addi	a2,a2,194
    19ec:	01c80023          	sb	t3,0(a6)
    19f0:	00c50633          	add	a2,a0,a2
    19f4:	01c60023          	sb	t3,0(a2)
    19f8:	00c5ce03          	lbu	t3,12(a1)
    19fc:	7ff78813          	addi	a6,a5,2047
    1a00:	7ff78613          	addi	a2,a5,2047
    1a04:	0c380813          	addi	a6,a6,195
    1a08:	01050833          	add	a6,a0,a6
    1a0c:	0c460613          	addi	a2,a2,196
    1a10:	01c80023          	sb	t3,0(a6)
    1a14:	00c50633          	add	a2,a0,a2
    1a18:	01c60023          	sb	t3,0(a2)
    1a1c:	00c5ce03          	lbu	t3,12(a1)
    1a20:	7ff78813          	addi	a6,a5,2047
    1a24:	7ff78613          	addi	a2,a5,2047
    1a28:	0c580813          	addi	a6,a6,197
    1a2c:	01050833          	add	a6,a0,a6
    1a30:	0c660613          	addi	a2,a2,198
    1a34:	01c80023          	sb	t3,0(a6)
    1a38:	00c50633          	add	a2,a0,a2
    1a3c:	01c60023          	sb	t3,0(a2)
    1a40:	00c5c803          	lbu	a6,12(a1)
    1a44:	7ff78613          	addi	a2,a5,2047
    1a48:	0c760613          	addi	a2,a2,199
    1a4c:	7ff78793          	addi	a5,a5,2047
    1a50:	00c50633          	add	a2,a0,a2
    1a54:	0c878793          	addi	a5,a5,200
    1a58:	01060023          	sb	a6,0(a2)
    1a5c:	00f507b3          	add	a5,a0,a5
    1a60:	01078023          	sb	a6,0(a5)
    1a64:	c21ff06f          	j	1684 <draw_shape+0x1c>

00001a68 <draw_next_piece>:
    1a68:	00003637          	lui	a2,0x3
    1a6c:	20060613          	addi	a2,a2,512 # 3200 <rotate_piece+0x6c>
    1a70:	fc010113          	addi	sp,sp,-64
    1a74:	40c50833          	sub	a6,a0,a2
    1a78:	00003737          	lui	a4,0x3
    1a7c:	00003537          	lui	a0,0x3
    1a80:	000037b7          	lui	a5,0x3
    1a84:	03412623          	sw	s4,44(sp)
    1a88:	03512423          	sw	s5,40(sp)
    1a8c:	03612223          	sw	s6,36(sp)
    1a90:	03712023          	sw	s7,32(sp)
    1a94:	01812e23          	sw	s8,28(sp)
    1a98:	01912c23          	sw	s9,24(sp)
    1a9c:	01a12a23          	sw	s10,20(sp)
    1aa0:	01b12823          	sw	s11,16(sp)
    1aa4:	00003d37          	lui	s10,0x3
    1aa8:	00003db7          	lui	s11,0x3
    1aac:	00003cb7          	lui	s9,0x3
    1ab0:	00003c37          	lui	s8,0x3
    1ab4:	00003bb7          	lui	s7,0x3
    1ab8:	00003b37          	lui	s6,0x3
    1abc:	00003ab7          	lui	s5,0x3
    1ac0:	00003a37          	lui	s4,0x3
    1ac4:	44450513          	addi	a0,a0,1092 # 3444 <move_piece+0x70>
    1ac8:	44570713          	addi	a4,a4,1093 # 3445 <move_piece+0x71>
    1acc:	44678793          	addi	a5,a5,1094 # 3446 <move_piece+0x72>
    1ad0:	02812e23          	sw	s0,60(sp)
    1ad4:	02912c23          	sw	s1,56(sp)
    1ad8:	03212a23          	sw	s2,52(sp)
    1adc:	03312823          	sw	s3,48(sp)
    1ae0:	01058693          	addi	a3,a1,16
    1ae4:	304d8d93          	addi	s11,s11,772 # 3304 <rotate_piece+0x170>
    1ae8:	305d0d13          	addi	s10,s10,773 # 3305 <rotate_piece+0x171>
    1aec:	306c8c93          	addi	s9,s9,774 # 3306 <rotate_piece+0x172>
    1af0:	307c0c13          	addi	s8,s8,775 # 3307 <rotate_piece+0x173>
    1af4:	308b8b93          	addi	s7,s7,776 # 3308 <rotate_piece+0x174>
    1af8:	309b0b13          	addi	s6,s6,777 # 3309 <rotate_piece+0x175>
    1afc:	30aa8a93          	addi	s5,s5,778 # 330a <rotate_piece+0x176>
    1b00:	30ba0a13          	addi	s4,s4,779 # 330b <rotate_piece+0x177>
    1b04:	00a12223          	sw	a0,4(sp)
    1b08:	00e12423          	sw	a4,8(sp)
    1b0c:	00f12623          	sw	a5,12(sp)
    1b10:	00003437          	lui	s0,0x3
    1b14:	00003937          	lui	s2,0x3
    1b18:	000034b7          	lui	s1,0x3
    1b1c:	44a40393          	addi	t2,s0,1098 # 344a <move_piece+0x76>
    1b20:	44b40293          	addi	t0,s0,1099
    1b24:	58440f93          	addi	t6,s0,1412
    1b28:	58540f13          	addi	t5,s0,1413
    1b2c:	58640e93          	addi	t4,s0,1414
    1b30:	58740e13          	addi	t3,s0,1415
    1b34:	58840313          	addi	t1,s0,1416
    1b38:	58940893          	addi	a7,s0,1417
    1b3c:	44790913          	addi	s2,s2,1095 # 3447 <move_piece+0x73>
    1b40:	44848493          	addi	s1,s1,1096 # 3448 <move_piece+0x74>
    1b44:	44940413          	addi	s0,s0,1097
    1b48:	ff068713          	addi	a4,a3,-16
    1b4c:	00c807b3          	add	a5,a6,a2
    1b50:	00c12023          	sw	a2,0(sp)
    1b54:	01072603          	lw	a2,16(a4)
    1b58:	06061263          	bnez	a2,1bbc <draw_next_piece+0x154>
    1b5c:	00470713          	addi	a4,a4,4
    1b60:	00878793          	addi	a5,a5,8
    1b64:	fee698e3          	bne	a3,a4,1b54 <draw_next_piece+0xec>
    1b68:	00012603          	lw	a2,0(sp)
    1b6c:	000067b7          	lui	a5,0x6
    1b70:	a0078793          	addi	a5,a5,-1536 # 5a00 <tick+0x108c>
    1b74:	7ff60613          	addi	a2,a2,2047
    1b78:	20160613          	addi	a2,a2,513
    1b7c:	01068693          	addi	a3,a3,16
    1b80:	f8f618e3          	bne	a2,a5,1b10 <draw_next_piece+0xa8>
    1b84:	03c12403          	lw	s0,60(sp)
    1b88:	03812483          	lw	s1,56(sp)
    1b8c:	03412903          	lw	s2,52(sp)
    1b90:	03012983          	lw	s3,48(sp)
    1b94:	02c12a03          	lw	s4,44(sp)
    1b98:	02812a83          	lw	s5,40(sp)
    1b9c:	02412b03          	lw	s6,36(sp)
    1ba0:	02012b83          	lw	s7,32(sp)
    1ba4:	01c12c03          	lw	s8,28(sp)
    1ba8:	01812c83          	lw	s9,24(sp)
    1bac:	01412d03          	lw	s10,20(sp)
    1bb0:	01012d83          	lw	s11,16(sp)
    1bb4:	04010113          	addi	sp,sp,64
    1bb8:	00008067          	ret
    1bbc:	00c5c983          	lbu	s3,12(a1)
    1bc0:	01b78533          	add	a0,a5,s11
    1bc4:	01a78633          	add	a2,a5,s10
    1bc8:	01350023          	sb	s3,0(a0)
    1bcc:	01360023          	sb	s3,0(a2)
    1bd0:	00c5c983          	lbu	s3,12(a1)
    1bd4:	01978533          	add	a0,a5,s9
    1bd8:	01878633          	add	a2,a5,s8
    1bdc:	01350023          	sb	s3,0(a0)
    1be0:	01360023          	sb	s3,0(a2)
    1be4:	00c5c983          	lbu	s3,12(a1)
    1be8:	01778533          	add	a0,a5,s7
    1bec:	01678633          	add	a2,a5,s6
    1bf0:	01350023          	sb	s3,0(a0)
    1bf4:	01360023          	sb	s3,0(a2)
    1bf8:	00c5c983          	lbu	s3,12(a1)
    1bfc:	01578533          	add	a0,a5,s5
    1c00:	01478633          	add	a2,a5,s4
    1c04:	01350023          	sb	s3,0(a0)
    1c08:	01360023          	sb	s3,0(a2)
    1c0c:	00412603          	lw	a2,4(sp)
    1c10:	00c5c983          	lbu	s3,12(a1)
    1c14:	00c78533          	add	a0,a5,a2
    1c18:	00812603          	lw	a2,8(sp)
    1c1c:	01350023          	sb	s3,0(a0)
    1c20:	00c78633          	add	a2,a5,a2
    1c24:	01360023          	sb	s3,0(a2)
    1c28:	00c12603          	lw	a2,12(sp)
    1c2c:	00c5c983          	lbu	s3,12(a1)
    1c30:	00c78533          	add	a0,a5,a2
    1c34:	01350023          	sb	s3,0(a0)
    1c38:	01278633          	add	a2,a5,s2
    1c3c:	01360023          	sb	s3,0(a2)
    1c40:	00c5c983          	lbu	s3,12(a1)
    1c44:	00978533          	add	a0,a5,s1
    1c48:	00878633          	add	a2,a5,s0
    1c4c:	01350023          	sb	s3,0(a0)
    1c50:	01360023          	sb	s3,0(a2)
    1c54:	00c5c983          	lbu	s3,12(a1)
    1c58:	00778533          	add	a0,a5,t2
    1c5c:	00578633          	add	a2,a5,t0
    1c60:	01350023          	sb	s3,0(a0)
    1c64:	01360023          	sb	s3,0(a2)
    1c68:	00c5c983          	lbu	s3,12(a1)
    1c6c:	01f78533          	add	a0,a5,t6
    1c70:	01e78633          	add	a2,a5,t5
    1c74:	01350023          	sb	s3,0(a0)
    1c78:	01360023          	sb	s3,0(a2)
    1c7c:	00c5c983          	lbu	s3,12(a1)
    1c80:	01d78533          	add	a0,a5,t4
    1c84:	01c78633          	add	a2,a5,t3
    1c88:	01350023          	sb	s3,0(a0)
    1c8c:	01360023          	sb	s3,0(a2)
    1c90:	00c5c983          	lbu	s3,12(a1)
    1c94:	00678533          	add	a0,a5,t1
    1c98:	01178633          	add	a2,a5,a7
    1c9c:	01350023          	sb	s3,0(a0)
    1ca0:	01360023          	sb	s3,0(a2)
    1ca4:	00c5c503          	lbu	a0,12(a1)
    1ca8:	00003637          	lui	a2,0x3
    1cac:	58a60613          	addi	a2,a2,1418 # 358a <move_piece+0x1b6>
    1cb0:	00c78633          	add	a2,a5,a2
    1cb4:	00a60023          	sb	a0,0(a2)
    1cb8:	00003637          	lui	a2,0x3
    1cbc:	58b60613          	addi	a2,a2,1419 # 358b <move_piece+0x1b7>
    1cc0:	00c78633          	add	a2,a5,a2
    1cc4:	00a60023          	sb	a0,0(a2)
    1cc8:	00c5c503          	lbu	a0,12(a1)
    1ccc:	00003637          	lui	a2,0x3
    1cd0:	6c460613          	addi	a2,a2,1732 # 36c4 <move_piece+0x2f0>
    1cd4:	00c78633          	add	a2,a5,a2
    1cd8:	00a60023          	sb	a0,0(a2)
    1cdc:	00003637          	lui	a2,0x3
    1ce0:	6c560613          	addi	a2,a2,1733 # 36c5 <move_piece+0x2f1>
    1ce4:	00c78633          	add	a2,a5,a2
    1ce8:	00a60023          	sb	a0,0(a2)
    1cec:	00c5c503          	lbu	a0,12(a1)
    1cf0:	00003637          	lui	a2,0x3
    1cf4:	6c660613          	addi	a2,a2,1734 # 36c6 <move_piece+0x2f2>
    1cf8:	00c78633          	add	a2,a5,a2
    1cfc:	00a60023          	sb	a0,0(a2)
    1d00:	00003637          	lui	a2,0x3
    1d04:	6c760613          	addi	a2,a2,1735 # 36c7 <move_piece+0x2f3>
    1d08:	00c78633          	add	a2,a5,a2
    1d0c:	00a60023          	sb	a0,0(a2)
    1d10:	00c5c503          	lbu	a0,12(a1)
    1d14:	00003637          	lui	a2,0x3
    1d18:	6c860613          	addi	a2,a2,1736 # 36c8 <move_piece+0x2f4>
    1d1c:	00c78633          	add	a2,a5,a2
    1d20:	00a60023          	sb	a0,0(a2)
    1d24:	00003637          	lui	a2,0x3
    1d28:	6c960613          	addi	a2,a2,1737 # 36c9 <move_piece+0x2f5>
    1d2c:	00c78633          	add	a2,a5,a2
    1d30:	00a60023          	sb	a0,0(a2)
    1d34:	00c5c503          	lbu	a0,12(a1)
    1d38:	00003637          	lui	a2,0x3
    1d3c:	6ca60613          	addi	a2,a2,1738 # 36ca <move_piece+0x2f6>
    1d40:	00c78633          	add	a2,a5,a2
    1d44:	00a60023          	sb	a0,0(a2)
    1d48:	00003637          	lui	a2,0x3
    1d4c:	6cb60613          	addi	a2,a2,1739 # 36cb <move_piece+0x2f7>
    1d50:	00c78633          	add	a2,a5,a2
    1d54:	00a60023          	sb	a0,0(a2)
    1d58:	00c5c503          	lbu	a0,12(a1)
    1d5c:	00004637          	lui	a2,0x4
    1d60:	80460613          	addi	a2,a2,-2044 # 3804 <move_piece+0x430>
    1d64:	00c78633          	add	a2,a5,a2
    1d68:	00a60023          	sb	a0,0(a2)
    1d6c:	00004637          	lui	a2,0x4
    1d70:	80560613          	addi	a2,a2,-2043 # 3805 <move_piece+0x431>
    1d74:	00c78633          	add	a2,a5,a2
    1d78:	00a60023          	sb	a0,0(a2)
    1d7c:	00c5c503          	lbu	a0,12(a1)
    1d80:	00004637          	lui	a2,0x4
    1d84:	80660613          	addi	a2,a2,-2042 # 3806 <move_piece+0x432>
    1d88:	00c78633          	add	a2,a5,a2
    1d8c:	00a60023          	sb	a0,0(a2)
    1d90:	00004637          	lui	a2,0x4
    1d94:	80760613          	addi	a2,a2,-2041 # 3807 <move_piece+0x433>
    1d98:	00c78633          	add	a2,a5,a2
    1d9c:	00a60023          	sb	a0,0(a2)
    1da0:	00c5c503          	lbu	a0,12(a1)
    1da4:	00004637          	lui	a2,0x4
    1da8:	80860613          	addi	a2,a2,-2040 # 3808 <move_piece+0x434>
    1dac:	00c78633          	add	a2,a5,a2
    1db0:	00a60023          	sb	a0,0(a2)
    1db4:	00004637          	lui	a2,0x4
    1db8:	80960613          	addi	a2,a2,-2039 # 3809 <move_piece+0x435>
    1dbc:	00c78633          	add	a2,a5,a2
    1dc0:	00a60023          	sb	a0,0(a2)
    1dc4:	00c5c503          	lbu	a0,12(a1)
    1dc8:	00004637          	lui	a2,0x4
    1dcc:	80a60613          	addi	a2,a2,-2038 # 380a <move_piece+0x436>
    1dd0:	00c78633          	add	a2,a5,a2
    1dd4:	00a60023          	sb	a0,0(a2)
    1dd8:	00004637          	lui	a2,0x4
    1ddc:	80b60613          	addi	a2,a2,-2037 # 380b <move_piece+0x437>
    1de0:	00c78633          	add	a2,a5,a2
    1de4:	00a60023          	sb	a0,0(a2)
    1de8:	00c5c503          	lbu	a0,12(a1)
    1dec:	00004637          	lui	a2,0x4
    1df0:	94460613          	addi	a2,a2,-1724 # 3944 <move_piece+0x570>
    1df4:	00c78633          	add	a2,a5,a2
    1df8:	00a60023          	sb	a0,0(a2)
    1dfc:	00004637          	lui	a2,0x4
    1e00:	94560613          	addi	a2,a2,-1723 # 3945 <move_piece+0x571>
    1e04:	00c78633          	add	a2,a5,a2
    1e08:	00a60023          	sb	a0,0(a2)
    1e0c:	00c5c503          	lbu	a0,12(a1)
    1e10:	00004637          	lui	a2,0x4
    1e14:	94660613          	addi	a2,a2,-1722 # 3946 <move_piece+0x572>
    1e18:	00c78633          	add	a2,a5,a2
    1e1c:	00a60023          	sb	a0,0(a2)
    1e20:	00004637          	lui	a2,0x4
    1e24:	94760613          	addi	a2,a2,-1721 # 3947 <move_piece+0x573>
    1e28:	00c78633          	add	a2,a5,a2
    1e2c:	00a60023          	sb	a0,0(a2)
    1e30:	00c5c503          	lbu	a0,12(a1)
    1e34:	00004637          	lui	a2,0x4
    1e38:	94860613          	addi	a2,a2,-1720 # 3948 <move_piece+0x574>
    1e3c:	00c78633          	add	a2,a5,a2
    1e40:	00a60023          	sb	a0,0(a2)
    1e44:	00004637          	lui	a2,0x4
    1e48:	94960613          	addi	a2,a2,-1719 # 3949 <move_piece+0x575>
    1e4c:	00c78633          	add	a2,a5,a2
    1e50:	00a60023          	sb	a0,0(a2)
    1e54:	00c5c503          	lbu	a0,12(a1)
    1e58:	00004637          	lui	a2,0x4
    1e5c:	94a60613          	addi	a2,a2,-1718 # 394a <move_piece+0x576>
    1e60:	00c78633          	add	a2,a5,a2
    1e64:	00a60023          	sb	a0,0(a2)
    1e68:	00004637          	lui	a2,0x4
    1e6c:	94b60613          	addi	a2,a2,-1717 # 394b <move_piece+0x577>
    1e70:	00c78633          	add	a2,a5,a2
    1e74:	00a60023          	sb	a0,0(a2)
    1e78:	00c5c503          	lbu	a0,12(a1)
    1e7c:	00004637          	lui	a2,0x4
    1e80:	a8460613          	addi	a2,a2,-1404 # 3a84 <move_piece+0x6b0>
    1e84:	00c78633          	add	a2,a5,a2
    1e88:	00a60023          	sb	a0,0(a2)
    1e8c:	00004637          	lui	a2,0x4
    1e90:	a8560613          	addi	a2,a2,-1403 # 3a85 <move_piece+0x6b1>
    1e94:	00c78633          	add	a2,a5,a2
    1e98:	00a60023          	sb	a0,0(a2)
    1e9c:	00c5c503          	lbu	a0,12(a1)
    1ea0:	00004637          	lui	a2,0x4
    1ea4:	a8660613          	addi	a2,a2,-1402 # 3a86 <move_piece+0x6b2>
    1ea8:	00c78633          	add	a2,a5,a2
    1eac:	00a60023          	sb	a0,0(a2)
    1eb0:	00004637          	lui	a2,0x4
    1eb4:	a8760613          	addi	a2,a2,-1401 # 3a87 <move_piece+0x6b3>
    1eb8:	00c78633          	add	a2,a5,a2
    1ebc:	00a60023          	sb	a0,0(a2)
    1ec0:	00c5c503          	lbu	a0,12(a1)
    1ec4:	00004637          	lui	a2,0x4
    1ec8:	a8860613          	addi	a2,a2,-1400 # 3a88 <move_piece+0x6b4>
    1ecc:	00c78633          	add	a2,a5,a2
    1ed0:	00a60023          	sb	a0,0(a2)
    1ed4:	00004637          	lui	a2,0x4
    1ed8:	a8960613          	addi	a2,a2,-1399 # 3a89 <move_piece+0x6b5>
    1edc:	00c78633          	add	a2,a5,a2
    1ee0:	00a60023          	sb	a0,0(a2)
    1ee4:	00c5c503          	lbu	a0,12(a1)
    1ee8:	00004637          	lui	a2,0x4
    1eec:	a8a60613          	addi	a2,a2,-1398 # 3a8a <move_piece+0x6b6>
    1ef0:	00c78633          	add	a2,a5,a2
    1ef4:	00a60023          	sb	a0,0(a2)
    1ef8:	00004637          	lui	a2,0x4
    1efc:	a8b60613          	addi	a2,a2,-1397 # 3a8b <move_piece+0x6b7>
    1f00:	00c78633          	add	a2,a5,a2
    1f04:	00a60023          	sb	a0,0(a2)
    1f08:	00c5c503          	lbu	a0,12(a1)
    1f0c:	00004637          	lui	a2,0x4
    1f10:	bc460613          	addi	a2,a2,-1084 # 3bc4 <move_piece+0x7f0>
    1f14:	00c78633          	add	a2,a5,a2
    1f18:	00a60023          	sb	a0,0(a2)
    1f1c:	00004637          	lui	a2,0x4
    1f20:	bc560613          	addi	a2,a2,-1083 # 3bc5 <move_piece+0x7f1>
    1f24:	00c78633          	add	a2,a5,a2
    1f28:	00a60023          	sb	a0,0(a2)
    1f2c:	00c5c503          	lbu	a0,12(a1)
    1f30:	00004637          	lui	a2,0x4
    1f34:	bc660613          	addi	a2,a2,-1082 # 3bc6 <move_piece+0x7f2>
    1f38:	00c78633          	add	a2,a5,a2
    1f3c:	00a60023          	sb	a0,0(a2)
    1f40:	00004637          	lui	a2,0x4
    1f44:	bc760613          	addi	a2,a2,-1081 # 3bc7 <move_piece+0x7f3>
    1f48:	00c78633          	add	a2,a5,a2
    1f4c:	00a60023          	sb	a0,0(a2)
    1f50:	00c5c503          	lbu	a0,12(a1)
    1f54:	00004637          	lui	a2,0x4
    1f58:	bc860613          	addi	a2,a2,-1080 # 3bc8 <move_piece+0x7f4>
    1f5c:	00c78633          	add	a2,a5,a2
    1f60:	00a60023          	sb	a0,0(a2)
    1f64:	00004637          	lui	a2,0x4
    1f68:	bc960613          	addi	a2,a2,-1079 # 3bc9 <move_piece+0x7f5>
    1f6c:	00c78633          	add	a2,a5,a2
    1f70:	00a60023          	sb	a0,0(a2)
    1f74:	00c5c503          	lbu	a0,12(a1)
    1f78:	00004637          	lui	a2,0x4
    1f7c:	bca60613          	addi	a2,a2,-1078 # 3bca <move_piece+0x7f6>
    1f80:	00c78633          	add	a2,a5,a2
    1f84:	00a60023          	sb	a0,0(a2)
    1f88:	00004637          	lui	a2,0x4
    1f8c:	bcb60613          	addi	a2,a2,-1077 # 3bcb <move_piece+0x7f7>
    1f90:	00c78633          	add	a2,a5,a2
    1f94:	00a60023          	sb	a0,0(a2)
    1f98:	bc5ff06f          	j	1b5c <draw_next_piece+0xf4>

00001f9c <clear_next_shape>:
    1f9c:	fc010113          	addi	sp,sp,-64
    1fa0:	00003637          	lui	a2,0x3
    1fa4:	000037b7          	lui	a5,0x3
    1fa8:	03212a23          	sw	s2,52(sp)
    1fac:	03312823          	sw	s3,48(sp)
    1fb0:	03412623          	sw	s4,44(sp)
    1fb4:	03512423          	sw	s5,40(sp)
    1fb8:	03612223          	sw	s6,36(sp)
    1fbc:	03712023          	sw	s7,32(sp)
    1fc0:	01812e23          	sw	s8,28(sp)
    1fc4:	01912c23          	sw	s9,24(sp)
    1fc8:	01a12a23          	sw	s10,20(sp)
    1fcc:	01b12823          	sw	s11,16(sp)
    1fd0:	20060613          	addi	a2,a2,512 # 3200 <rotate_piece+0x6c>
    1fd4:	00003db7          	lui	s11,0x3
    1fd8:	00003d37          	lui	s10,0x3
    1fdc:	00003cb7          	lui	s9,0x3
    1fe0:	00003c37          	lui	s8,0x3
    1fe4:	00003bb7          	lui	s7,0x3
    1fe8:	00003b37          	lui	s6,0x3
    1fec:	00003ab7          	lui	s5,0x3
    1ff0:	00003a37          	lui	s4,0x3
    1ff4:	000039b7          	lui	s3,0x3
    1ff8:	00003937          	lui	s2,0x3
    1ffc:	44678793          	addi	a5,a5,1094 # 3446 <move_piece+0x72>
    2000:	02812e23          	sw	s0,60(sp)
    2004:	02912c23          	sw	s1,56(sp)
    2008:	01058693          	addi	a3,a1,16
    200c:	40c50533          	sub	a0,a0,a2
    2010:	304d8d93          	addi	s11,s11,772 # 3304 <rotate_piece+0x170>
    2014:	305d0d13          	addi	s10,s10,773 # 3305 <rotate_piece+0x171>
    2018:	306c8c93          	addi	s9,s9,774 # 3306 <rotate_piece+0x172>
    201c:	307c0c13          	addi	s8,s8,775 # 3307 <rotate_piece+0x173>
    2020:	308b8b93          	addi	s7,s7,776 # 3308 <rotate_piece+0x174>
    2024:	309b0b13          	addi	s6,s6,777 # 3309 <rotate_piece+0x175>
    2028:	30aa8a93          	addi	s5,s5,778 # 330a <rotate_piece+0x176>
    202c:	30ba0a13          	addi	s4,s4,779 # 330b <rotate_piece+0x177>
    2030:	44498993          	addi	s3,s3,1092 # 3444 <move_piece+0x70>
    2034:	44590913          	addi	s2,s2,1093 # 3445 <move_piece+0x71>
    2038:	00f12623          	sw	a5,12(sp)
    203c:	00003437          	lui	s0,0x3
    2040:	000034b7          	lui	s1,0x3
    2044:	44940393          	addi	t2,s0,1097 # 3449 <move_piece+0x75>
    2048:	44a40293          	addi	t0,s0,1098
    204c:	44b40f93          	addi	t6,s0,1099
    2050:	58440f13          	addi	t5,s0,1412
    2054:	58540e93          	addi	t4,s0,1413
    2058:	58640e13          	addi	t3,s0,1414
    205c:	58740313          	addi	t1,s0,1415
    2060:	58840893          	addi	a7,s0,1416
    2064:	58940813          	addi	a6,s0,1417
    2068:	44748493          	addi	s1,s1,1095 # 3447 <move_piece+0x73>
    206c:	44840413          	addi	s0,s0,1096
    2070:	ff068713          	addi	a4,a3,-16
    2074:	00c507b3          	add	a5,a0,a2
    2078:	00c12423          	sw	a2,8(sp)
    207c:	01072603          	lw	a2,16(a4)
    2080:	06061263          	bnez	a2,20e4 <clear_next_shape+0x148>
    2084:	00470713          	addi	a4,a4,4
    2088:	00878793          	addi	a5,a5,8
    208c:	fee698e3          	bne	a3,a4,207c <clear_next_shape+0xe0>
    2090:	00812603          	lw	a2,8(sp)
    2094:	000067b7          	lui	a5,0x6
    2098:	a0078793          	addi	a5,a5,-1536 # 5a00 <tick+0x108c>
    209c:	7ff60613          	addi	a2,a2,2047
    20a0:	20160613          	addi	a2,a2,513
    20a4:	01068693          	addi	a3,a3,16
    20a8:	f8f61ae3          	bne	a2,a5,203c <clear_next_shape+0xa0>
    20ac:	03c12403          	lw	s0,60(sp)
    20b0:	03812483          	lw	s1,56(sp)
    20b4:	03412903          	lw	s2,52(sp)
    20b8:	03012983          	lw	s3,48(sp)
    20bc:	02c12a03          	lw	s4,44(sp)
    20c0:	02812a83          	lw	s5,40(sp)
    20c4:	02412b03          	lw	s6,36(sp)
    20c8:	02012b83          	lw	s7,32(sp)
    20cc:	01c12c03          	lw	s8,28(sp)
    20d0:	01812c83          	lw	s9,24(sp)
    20d4:	01412d03          	lw	s10,20(sp)
    20d8:	01012d83          	lw	s11,16(sp)
    20dc:	04010113          	addi	sp,sp,64
    20e0:	00008067          	ret
    20e4:	01b78633          	add	a2,a5,s11
    20e8:	00060023          	sb	zero,0(a2)
    20ec:	01a78633          	add	a2,a5,s10
    20f0:	00060023          	sb	zero,0(a2)
    20f4:	01978633          	add	a2,a5,s9
    20f8:	00060023          	sb	zero,0(a2)
    20fc:	01878633          	add	a2,a5,s8
    2100:	00060023          	sb	zero,0(a2)
    2104:	01778633          	add	a2,a5,s7
    2108:	00060023          	sb	zero,0(a2)
    210c:	01678633          	add	a2,a5,s6
    2110:	00060023          	sb	zero,0(a2)
    2114:	01578633          	add	a2,a5,s5
    2118:	00060023          	sb	zero,0(a2)
    211c:	01478633          	add	a2,a5,s4
    2120:	00060023          	sb	zero,0(a2)
    2124:	01378633          	add	a2,a5,s3
    2128:	00060023          	sb	zero,0(a2)
    212c:	01278633          	add	a2,a5,s2
    2130:	00060023          	sb	zero,0(a2)
    2134:	00c12603          	lw	a2,12(sp)
    2138:	000035b7          	lui	a1,0x3
    213c:	58a58593          	addi	a1,a1,1418 # 358a <move_piece+0x1b6>
    2140:	00c78633          	add	a2,a5,a2
    2144:	00060023          	sb	zero,0(a2)
    2148:	00978633          	add	a2,a5,s1
    214c:	00060023          	sb	zero,0(a2)
    2150:	00878633          	add	a2,a5,s0
    2154:	00060023          	sb	zero,0(a2)
    2158:	00778633          	add	a2,a5,t2
    215c:	00060023          	sb	zero,0(a2)
    2160:	00578633          	add	a2,a5,t0
    2164:	00060023          	sb	zero,0(a2)
    2168:	01f78633          	add	a2,a5,t6
    216c:	00060023          	sb	zero,0(a2)
    2170:	01e78633          	add	a2,a5,t5
    2174:	00060023          	sb	zero,0(a2)
    2178:	01d78633          	add	a2,a5,t4
    217c:	00060023          	sb	zero,0(a2)
    2180:	01c78633          	add	a2,a5,t3
    2184:	00060023          	sb	zero,0(a2)
    2188:	00678633          	add	a2,a5,t1
    218c:	00060023          	sb	zero,0(a2)
    2190:	01178633          	add	a2,a5,a7
    2194:	00060023          	sb	zero,0(a2)
    2198:	01078633          	add	a2,a5,a6
    219c:	00060023          	sb	zero,0(a2)
    21a0:	00003637          	lui	a2,0x3
    21a4:	00b785b3          	add	a1,a5,a1
    21a8:	58b60613          	addi	a2,a2,1419 # 358b <move_piece+0x1b7>
    21ac:	00058023          	sb	zero,0(a1)
    21b0:	00c78633          	add	a2,a5,a2
    21b4:	000035b7          	lui	a1,0x3
    21b8:	00060023          	sb	zero,0(a2)
    21bc:	6c458593          	addi	a1,a1,1732 # 36c4 <move_piece+0x2f0>
    21c0:	00003637          	lui	a2,0x3
    21c4:	00b785b3          	add	a1,a5,a1
    21c8:	6c560613          	addi	a2,a2,1733 # 36c5 <move_piece+0x2f1>
    21cc:	00058023          	sb	zero,0(a1)
    21d0:	00c78633          	add	a2,a5,a2
    21d4:	000035b7          	lui	a1,0x3
    21d8:	00060023          	sb	zero,0(a2)
    21dc:	6c658593          	addi	a1,a1,1734 # 36c6 <move_piece+0x2f2>
    21e0:	00003637          	lui	a2,0x3
    21e4:	00b785b3          	add	a1,a5,a1
    21e8:	6c760613          	addi	a2,a2,1735 # 36c7 <move_piece+0x2f3>
    21ec:	00058023          	sb	zero,0(a1)
    21f0:	00c78633          	add	a2,a5,a2
    21f4:	000035b7          	lui	a1,0x3
    21f8:	00060023          	sb	zero,0(a2)
    21fc:	6c858593          	addi	a1,a1,1736 # 36c8 <move_piece+0x2f4>
    2200:	00003637          	lui	a2,0x3
    2204:	00b785b3          	add	a1,a5,a1
    2208:	6c960613          	addi	a2,a2,1737 # 36c9 <move_piece+0x2f5>
    220c:	00058023          	sb	zero,0(a1)
    2210:	00c78633          	add	a2,a5,a2
    2214:	000035b7          	lui	a1,0x3
    2218:	00060023          	sb	zero,0(a2)
    221c:	6ca58593          	addi	a1,a1,1738 # 36ca <move_piece+0x2f6>
    2220:	00003637          	lui	a2,0x3
    2224:	00b785b3          	add	a1,a5,a1
    2228:	6cb60613          	addi	a2,a2,1739 # 36cb <move_piece+0x2f7>
    222c:	00058023          	sb	zero,0(a1)
    2230:	00c78633          	add	a2,a5,a2
    2234:	000045b7          	lui	a1,0x4
    2238:	00060023          	sb	zero,0(a2)
    223c:	80458593          	addi	a1,a1,-2044 # 3804 <move_piece+0x430>
    2240:	00004637          	lui	a2,0x4
    2244:	00b785b3          	add	a1,a5,a1
    2248:	80560613          	addi	a2,a2,-2043 # 3805 <move_piece+0x431>
    224c:	00058023          	sb	zero,0(a1)
    2250:	00c78633          	add	a2,a5,a2
    2254:	000045b7          	lui	a1,0x4
    2258:	00060023          	sb	zero,0(a2)
    225c:	80658593          	addi	a1,a1,-2042 # 3806 <move_piece+0x432>
    2260:	00004637          	lui	a2,0x4
    2264:	00b785b3          	add	a1,a5,a1
    2268:	80760613          	addi	a2,a2,-2041 # 3807 <move_piece+0x433>
    226c:	00058023          	sb	zero,0(a1)
    2270:	00c78633          	add	a2,a5,a2
    2274:	000045b7          	lui	a1,0x4
    2278:	00060023          	sb	zero,0(a2)
    227c:	80858593          	addi	a1,a1,-2040 # 3808 <move_piece+0x434>
    2280:	00004637          	lui	a2,0x4
    2284:	00b785b3          	add	a1,a5,a1
    2288:	80960613          	addi	a2,a2,-2039 # 3809 <move_piece+0x435>
    228c:	00058023          	sb	zero,0(a1)
    2290:	00c78633          	add	a2,a5,a2
    2294:	000045b7          	lui	a1,0x4
    2298:	00060023          	sb	zero,0(a2)
    229c:	80a58593          	addi	a1,a1,-2038 # 380a <move_piece+0x436>
    22a0:	00004637          	lui	a2,0x4
    22a4:	00b785b3          	add	a1,a5,a1
    22a8:	80b60613          	addi	a2,a2,-2037 # 380b <move_piece+0x437>
    22ac:	00058023          	sb	zero,0(a1)
    22b0:	00c78633          	add	a2,a5,a2
    22b4:	000045b7          	lui	a1,0x4
    22b8:	00060023          	sb	zero,0(a2)
    22bc:	94458593          	addi	a1,a1,-1724 # 3944 <move_piece+0x570>
    22c0:	00004637          	lui	a2,0x4
    22c4:	00b785b3          	add	a1,a5,a1
    22c8:	94560613          	addi	a2,a2,-1723 # 3945 <move_piece+0x571>
    22cc:	00058023          	sb	zero,0(a1)
    22d0:	00c78633          	add	a2,a5,a2
    22d4:	000045b7          	lui	a1,0x4
    22d8:	00060023          	sb	zero,0(a2)
    22dc:	94658593          	addi	a1,a1,-1722 # 3946 <move_piece+0x572>
    22e0:	00004637          	lui	a2,0x4
    22e4:	00b785b3          	add	a1,a5,a1
    22e8:	94760613          	addi	a2,a2,-1721 # 3947 <move_piece+0x573>
    22ec:	00058023          	sb	zero,0(a1)
    22f0:	00c78633          	add	a2,a5,a2
    22f4:	000045b7          	lui	a1,0x4
    22f8:	00060023          	sb	zero,0(a2)
    22fc:	94858593          	addi	a1,a1,-1720 # 3948 <move_piece+0x574>
    2300:	00004637          	lui	a2,0x4
    2304:	00b785b3          	add	a1,a5,a1
    2308:	94960613          	addi	a2,a2,-1719 # 3949 <move_piece+0x575>
    230c:	00058023          	sb	zero,0(a1)
    2310:	00c78633          	add	a2,a5,a2
    2314:	000045b7          	lui	a1,0x4
    2318:	00060023          	sb	zero,0(a2)
    231c:	94a58593          	addi	a1,a1,-1718 # 394a <move_piece+0x576>
    2320:	00004637          	lui	a2,0x4
    2324:	00b785b3          	add	a1,a5,a1
    2328:	94b60613          	addi	a2,a2,-1717 # 394b <move_piece+0x577>
    232c:	00058023          	sb	zero,0(a1)
    2330:	00c78633          	add	a2,a5,a2
    2334:	000045b7          	lui	a1,0x4
    2338:	00060023          	sb	zero,0(a2)
    233c:	a8458593          	addi	a1,a1,-1404 # 3a84 <move_piece+0x6b0>
    2340:	00004637          	lui	a2,0x4
    2344:	00b785b3          	add	a1,a5,a1
    2348:	a8560613          	addi	a2,a2,-1403 # 3a85 <move_piece+0x6b1>
    234c:	00058023          	sb	zero,0(a1)
    2350:	00c78633          	add	a2,a5,a2
    2354:	000045b7          	lui	a1,0x4
    2358:	00060023          	sb	zero,0(a2)
    235c:	a8658593          	addi	a1,a1,-1402 # 3a86 <move_piece+0x6b2>
    2360:	00004637          	lui	a2,0x4
    2364:	00b785b3          	add	a1,a5,a1
    2368:	a8760613          	addi	a2,a2,-1401 # 3a87 <move_piece+0x6b3>
    236c:	00058023          	sb	zero,0(a1)
    2370:	00c78633          	add	a2,a5,a2
    2374:	000045b7          	lui	a1,0x4
    2378:	00060023          	sb	zero,0(a2)
    237c:	a8858593          	addi	a1,a1,-1400 # 3a88 <move_piece+0x6b4>
    2380:	00004637          	lui	a2,0x4
    2384:	00b785b3          	add	a1,a5,a1
    2388:	a8960613          	addi	a2,a2,-1399 # 3a89 <move_piece+0x6b5>
    238c:	00058023          	sb	zero,0(a1)
    2390:	00c78633          	add	a2,a5,a2
    2394:	000045b7          	lui	a1,0x4
    2398:	00060023          	sb	zero,0(a2)
    239c:	a8a58593          	addi	a1,a1,-1398 # 3a8a <move_piece+0x6b6>
    23a0:	00004637          	lui	a2,0x4
    23a4:	00b785b3          	add	a1,a5,a1
    23a8:	a8b60613          	addi	a2,a2,-1397 # 3a8b <move_piece+0x6b7>
    23ac:	00058023          	sb	zero,0(a1)
    23b0:	00c78633          	add	a2,a5,a2
    23b4:	000045b7          	lui	a1,0x4
    23b8:	00060023          	sb	zero,0(a2)
    23bc:	bc458593          	addi	a1,a1,-1084 # 3bc4 <move_piece+0x7f0>
    23c0:	00004637          	lui	a2,0x4
    23c4:	00b785b3          	add	a1,a5,a1
    23c8:	bc560613          	addi	a2,a2,-1083 # 3bc5 <move_piece+0x7f1>
    23cc:	00058023          	sb	zero,0(a1)
    23d0:	00c78633          	add	a2,a5,a2
    23d4:	000045b7          	lui	a1,0x4
    23d8:	00060023          	sb	zero,0(a2)
    23dc:	bc658593          	addi	a1,a1,-1082 # 3bc6 <move_piece+0x7f2>
    23e0:	00004637          	lui	a2,0x4
    23e4:	00b785b3          	add	a1,a5,a1
    23e8:	bc760613          	addi	a2,a2,-1081 # 3bc7 <move_piece+0x7f3>
    23ec:	00058023          	sb	zero,0(a1)
    23f0:	00c78633          	add	a2,a5,a2
    23f4:	000045b7          	lui	a1,0x4
    23f8:	00060023          	sb	zero,0(a2)
    23fc:	bc858593          	addi	a1,a1,-1080 # 3bc8 <move_piece+0x7f4>
    2400:	00004637          	lui	a2,0x4
    2404:	00b785b3          	add	a1,a5,a1
    2408:	bc960613          	addi	a2,a2,-1079 # 3bc9 <move_piece+0x7f5>
    240c:	00058023          	sb	zero,0(a1)
    2410:	00c78633          	add	a2,a5,a2
    2414:	000045b7          	lui	a1,0x4
    2418:	00060023          	sb	zero,0(a2)
    241c:	bca58593          	addi	a1,a1,-1078 # 3bca <move_piece+0x7f6>
    2420:	00004637          	lui	a2,0x4
    2424:	00b785b3          	add	a1,a5,a1
    2428:	bcb60613          	addi	a2,a2,-1077 # 3bcb <move_piece+0x7f7>
    242c:	00058023          	sb	zero,0(a1)
    2430:	00c78633          	add	a2,a5,a2
    2434:	00060023          	sb	zero,0(a2)
    2438:	c4dff06f          	j	2084 <clear_next_shape+0xe8>

0000243c <update_cell>:
    243c:	00550713          	addi	a4,a0,5
    2440:	00271793          	slli	a5,a4,0x2
    2444:	00e787b3          	add	a5,a5,a4
    2448:	00007737          	lui	a4,0x7
    244c:	00f58693          	addi	a3,a1,15
    2450:	00679793          	slli	a5,a5,0x6
    2454:	95c72583          	lw	a1,-1700(a4) # 695c <VGA>
    2458:	00d787b3          	add	a5,a5,a3
    245c:	00379793          	slli	a5,a5,0x3
    2460:	01200693          	li	a3,18
    2464:	00f585b3          	add	a1,a1,a5
    2468:	00d58023          	sb	a3,0(a1)
    246c:	95c72583          	lw	a1,-1700(a4)
    2470:	00678313          	addi	t1,a5,6
    2474:	00078f13          	mv	t5,a5
    2478:	00f585b3          	add	a1,a1,a5
    247c:	00d580a3          	sb	a3,1(a1)
    2480:	00000813          	li	a6,0
    2484:	00700e13          	li	t3,7
    2488:	95c72583          	lw	a1,-1700(a4)
    248c:	00f585b3          	add	a1,a1,a5
    2490:	00d58123          	sb	a3,2(a1)
    2494:	95c72583          	lw	a1,-1700(a4)
    2498:	00f585b3          	add	a1,a1,a5
    249c:	00d581a3          	sb	a3,3(a1)
    24a0:	95c72583          	lw	a1,-1700(a4)
    24a4:	00f585b3          	add	a1,a1,a5
    24a8:	00d58223          	sb	a3,4(a1)
    24ac:	95c72583          	lw	a1,-1700(a4)
    24b0:	00f585b3          	add	a1,a1,a5
    24b4:	00d582a3          	sb	a3,5(a1)
    24b8:	95c72583          	lw	a1,-1700(a4)
    24bc:	006585b3          	add	a1,a1,t1
    24c0:	00d58023          	sb	a3,0(a1)
    24c4:	04080e63          	beqz	a6,2520 <update_cell+0xe4>
    24c8:	95c72783          	lw	a5,-1700(a4)
    24cc:	01e787b3          	add	a5,a5,t5
    24d0:	00d783a3          	sb	a3,7(a5)
    24d4:	00008067          	ret
    24d8:	00c50023          	sb	a2,0(a0)
    24dc:	95c72583          	lw	a1,-1700(a4)
    24e0:	00078513          	mv	a0,a5
    24e4:	00f585b3          	add	a1,a1,a5
    24e8:	14c58123          	sb	a2,322(a1)
    24ec:	95c72583          	lw	a1,-1700(a4)
    24f0:	00f587b3          	add	a5,a1,a5
    24f4:	14c781a3          	sb	a2,323(a5)
    24f8:	95c72583          	lw	a1,-1700(a4)
    24fc:	00088793          	mv	a5,a7
    2500:	00a585b3          	add	a1,a1,a0
    2504:	14c58223          	sb	a2,324(a1)
    2508:	95c72583          	lw	a1,-1700(a4)
    250c:	00a585b3          	add	a1,a1,a0
    2510:	14c582a3          	sb	a2,325(a1)
    2514:	95c72583          	lw	a1,-1700(a4)
    2518:	006585b3          	add	a1,a1,t1
    251c:	00c58023          	sb	a2,0(a1)
    2520:	95c72583          	lw	a1,-1700(a4)
    2524:	14078893          	addi	a7,a5,320
    2528:	00180813          	addi	a6,a6,1
    252c:	00f585b3          	add	a1,a1,a5
    2530:	00d583a3          	sb	a3,7(a1)
    2534:	95c72503          	lw	a0,-1700(a4)
    2538:	14178593          	addi	a1,a5,321
    253c:	14030313          	addi	t1,t1,320
    2540:	01150533          	add	a0,a0,a7
    2544:	00d50023          	sb	a3,0(a0)
    2548:	95c72503          	lw	a0,-1700(a4)
    254c:	00b50533          	add	a0,a0,a1
    2550:	f9c814e3          	bne	a6,t3,24d8 <update_cell+0x9c>
    2554:	00088f13          	mv	t5,a7
    2558:	00d50023          	sb	a3,0(a0)
    255c:	00088793          	mv	a5,a7
    2560:	f29ff06f          	j	2488 <update_cell+0x4c>

00002564 <update_shape>:
    2564:	fd010113          	addi	sp,sp,-48
    2568:	000077b7          	lui	a5,0x7
    256c:	02912423          	sw	s1,40(sp)
    2570:	01512c23          	sw	s5,24(sp)
    2574:	01612a23          	sw	s6,20(sp)
    2578:	01812623          	sw	s8,12(sp)
    257c:	01b12023          	sw	s11,0(sp)
    2580:	02812623          	sw	s0,44(sp)
    2584:	96078d93          	addi	s11,a5,-1696 # 6960 <grid>
    2588:	03212223          	sw	s2,36(sp)
    258c:	03312023          	sw	s3,32(sp)
    2590:	01412e23          	sw	s4,28(sp)
    2594:	01712823          	sw	s7,16(sp)
    2598:	00000e93          	li	t4,0
    259c:	00100b13          	li	s6,1
    25a0:	00400f93          	li	t6,4
    25a4:	000077b7          	lui	a5,0x7
    25a8:	01200713          	li	a4,18
    25ac:	08100f13          	li	t5,129
    25b0:	00800a93          	li	s5,8
    25b4:	00200c13          	li	s8,2
    25b8:	00058493          	mv	s1,a1
    25bc:	004e9813          	slli	a6,t4,0x4
    25c0:	01050833          	add	a6,a0,a6
    25c4:	00000593          	li	a1,0
    25c8:	01082683          	lw	a3,16(a6)
    25cc:	0e068263          	beqz	a3,26b0 <update_shape+0x14c>
    25d0:	00852683          	lw	a3,8(a0)
    25d4:	00452603          	lw	a2,4(a0)
    25d8:	00de86b3          	add	a3,t4,a3
    25dc:	0146b893          	sltiu	a7,a3,20
    25e0:	00c58633          	add	a2,a1,a2
    25e4:	0c088663          	beqz	a7,26b0 <update_shape+0x14c>
    25e8:	00a63893          	sltiu	a7,a2,10
    25ec:	0c088263          	beqz	a7,26b0 <update_shape+0x14c>
    25f0:	2f648063          	beq	s1,s6,28d0 <update_shape+0x36c>
    25f4:	19848463          	beq	s1,s8,277c <update_shape+0x218>
    25f8:	0a049c63          	bnez	s1,26b0 <update_shape+0x14c>
    25fc:	00269893          	slli	a7,a3,0x2
    2600:	00d888b3          	add	a7,a7,a3
    2604:	00189893          	slli	a7,a7,0x1
    2608:	011d88b3          	add	a7,s11,a7
    260c:	00c888b3          	add	a7,a7,a2
    2610:	00568693          	addi	a3,a3,5
    2614:	0008c403          	lbu	s0,0(a7)
    2618:	00269893          	slli	a7,a3,0x2
    261c:	00d886b3          	add	a3,a7,a3
    2620:	00f60613          	addi	a2,a2,15
    2624:	00669693          	slli	a3,a3,0x6
    2628:	00c686b3          	add	a3,a3,a2
    262c:	3c041463          	bnez	s0,29f4 <update_shape+0x490>
    2630:	00007637          	lui	a2,0x7
    2634:	95c62303          	lw	t1,-1700(a2) # 695c <VGA>
    2638:	00369693          	slli	a3,a3,0x3
    263c:	01200893          	li	a7,18
    2640:	00d30333          	add	t1,t1,a3
    2644:	01130023          	sb	a7,0(t1)
    2648:	95c62303          	lw	t1,-1700(a2)
    264c:	00668413          	addi	s0,a3,6
    2650:	00000393          	li	t2,0
    2654:	00d30333          	add	t1,t1,a3
    2658:	011300a3          	sb	a7,1(t1)
    265c:	00700913          	li	s2,7
    2660:	00068313          	mv	t1,a3
    2664:	95c62e03          	lw	t3,-1700(a2)
    2668:	00de0e33          	add	t3,t3,a3
    266c:	011e0123          	sb	a7,2(t3)
    2670:	95c62e03          	lw	t3,-1700(a2)
    2674:	00de0e33          	add	t3,t3,a3
    2678:	011e01a3          	sb	a7,3(t3)
    267c:	95c62e03          	lw	t3,-1700(a2)
    2680:	00de0e33          	add	t3,t3,a3
    2684:	011e0223          	sb	a7,4(t3)
    2688:	95c62e03          	lw	t3,-1700(a2)
    268c:	00de0e33          	add	t3,t3,a3
    2690:	011e02a3          	sb	a7,5(t3)
    2694:	95c62e03          	lw	t3,-1700(a2)
    2698:	008e0e33          	add	t3,t3,s0
    269c:	011e0023          	sb	a7,0(t3)
    26a0:	08038e63          	beqz	t2,273c <update_shape+0x1d8>
    26a4:	95c62683          	lw	a3,-1700(a2)
    26a8:	006686b3          	add	a3,a3,t1
    26ac:	011683a3          	sb	a7,7(a3)
    26b0:	00158593          	addi	a1,a1,1
    26b4:	00480813          	addi	a6,a6,4
    26b8:	f1f598e3          	bne	a1,t6,25c8 <update_shape+0x64>
    26bc:	001e8e93          	addi	t4,t4,1
    26c0:	eebe9ee3          	bne	t4,a1,25bc <update_shape+0x58>
    26c4:	02c12403          	lw	s0,44(sp)
    26c8:	02812483          	lw	s1,40(sp)
    26cc:	02412903          	lw	s2,36(sp)
    26d0:	02012983          	lw	s3,32(sp)
    26d4:	01c12a03          	lw	s4,28(sp)
    26d8:	01812a83          	lw	s5,24(sp)
    26dc:	01412b03          	lw	s6,20(sp)
    26e0:	01012b83          	lw	s7,16(sp)
    26e4:	00c12c03          	lw	s8,12(sp)
    26e8:	00012d83          	lw	s11,0(sp)
    26ec:	03010113          	addi	sp,sp,48
    26f0:	00008067          	ret
    26f4:	00028023          	sb	zero,0(t0)
    26f8:	95c62e03          	lw	t3,-1700(a2)
    26fc:	00068293          	mv	t0,a3
    2700:	00de0e33          	add	t3,t3,a3
    2704:	140e0123          	sb	zero,322(t3)
    2708:	95c62e03          	lw	t3,-1700(a2)
    270c:	00de06b3          	add	a3,t3,a3
    2710:	140681a3          	sb	zero,323(a3)
    2714:	95c62e03          	lw	t3,-1700(a2)
    2718:	00030693          	mv	a3,t1
    271c:	005e0333          	add	t1,t3,t0
    2720:	14030223          	sb	zero,324(t1)
    2724:	95c62303          	lw	t1,-1700(a2)
    2728:	00530333          	add	t1,t1,t0
    272c:	140302a3          	sb	zero,325(t1)
    2730:	95c62303          	lw	t1,-1700(a2)
    2734:	00830333          	add	t1,t1,s0
    2738:	00030023          	sb	zero,0(t1)
    273c:	95c62e03          	lw	t3,-1700(a2)
    2740:	14068313          	addi	t1,a3,320
    2744:	00138393          	addi	t2,t2,1
    2748:	00de0e33          	add	t3,t3,a3
    274c:	011e03a3          	sb	a7,7(t3)
    2750:	95c62283          	lw	t0,-1700(a2)
    2754:	14168e13          	addi	t3,a3,321
    2758:	14040413          	addi	s0,s0,320
    275c:	006282b3          	add	t0,t0,t1
    2760:	01128023          	sb	a7,0(t0)
    2764:	95c62283          	lw	t0,-1700(a2)
    2768:	01c282b3          	add	t0,t0,t3
    276c:	f92394e3          	bne	t2,s2,26f4 <update_shape+0x190>
    2770:	01128023          	sb	a7,0(t0)
    2774:	00030693          	mv	a3,t1
    2778:	eedff06f          	j	2664 <update_shape+0x100>
    277c:	00568893          	addi	a7,a3,5
    2780:	00289313          	slli	t1,a7,0x2
    2784:	01130333          	add	t1,t1,a7
    2788:	00269893          	slli	a7,a3,0x2
    278c:	00d888b3          	add	a7,a7,a3
    2790:	00c54283          	lbu	t0,12(a0)
    2794:	00631693          	slli	a3,t1,0x6
    2798:	00189893          	slli	a7,a7,0x1
    279c:	00f60313          	addi	t1,a2,15
    27a0:	006686b3          	add	a3,a3,t1
    27a4:	011d88b3          	add	a7,s11,a7
    27a8:	00369693          	slli	a3,a3,0x3
    27ac:	00c88633          	add	a2,a7,a2
    27b0:	00668e13          	addi	t3,a3,6
    27b4:	00560023          	sb	t0,0(a2)
    27b8:	00000313          	li	t1,0
    27bc:	95c7a883          	lw	a7,-1700(a5) # 695c <VGA>
    27c0:	006f5633          	srl	a2,t5,t1
    27c4:	00167613          	andi	a2,a2,1
    27c8:	00d888b3          	add	a7,a7,a3
    27cc:	00e88023          	sb	a4,0(a7)
    27d0:	95c7a883          	lw	a7,-1700(a5)
    27d4:	00168a13          	addi	s4,a3,1
    27d8:	00268993          	addi	s3,a3,2
    27dc:	00368913          	addi	s2,a3,3
    27e0:	00468413          	addi	s0,a3,4
    27e4:	00568393          	addi	t2,a3,5
    27e8:	08060263          	beqz	a2,286c <update_shape+0x308>
    27ec:	014888b3          	add	a7,a7,s4
    27f0:	00e88023          	sb	a4,0(a7)
    27f4:	95c7a603          	lw	a2,-1700(a5)
    27f8:	00768b93          	addi	s7,a3,7
    27fc:	01360633          	add	a2,a2,s3
    2800:	00e60023          	sb	a4,0(a2)
    2804:	95c7a603          	lw	a2,-1700(a5)
    2808:	01260633          	add	a2,a2,s2
    280c:	00e60023          	sb	a4,0(a2)
    2810:	95c7a603          	lw	a2,-1700(a5)
    2814:	00860633          	add	a2,a2,s0
    2818:	00e60023          	sb	a4,0(a2)
    281c:	95c7a603          	lw	a2,-1700(a5)
    2820:	00760633          	add	a2,a2,t2
    2824:	00e60023          	sb	a4,0(a2)
    2828:	95c7a603          	lw	a2,-1700(a5)
    282c:	02031463          	bnez	t1,2854 <update_shape+0x2f0>
    2830:	01c60633          	add	a2,a2,t3
    2834:	00e60023          	sb	a4,0(a2)
    2838:	95c7a603          	lw	a2,-1700(a5)
    283c:	14068693          	addi	a3,a3,320
    2840:	140e0e13          	addi	t3,t3,320
    2844:	01760633          	add	a2,a2,s7
    2848:	00100313          	li	t1,1
    284c:	00e60023          	sb	a4,0(a2)
    2850:	f6dff06f          	j	27bc <update_shape+0x258>
    2854:	01c60633          	add	a2,a2,t3
    2858:	00e60023          	sb	a4,0(a2)
    285c:	95c7a603          	lw	a2,-1700(a5)
    2860:	00d606b3          	add	a3,a2,a3
    2864:	00e683a3          	sb	a4,7(a3)
    2868:	e49ff06f          	j	26b0 <update_shape+0x14c>
    286c:	00d888b3          	add	a7,a7,a3
    2870:	005880a3          	sb	t0,1(a7)
    2874:	95c7a603          	lw	a2,-1700(a5)
    2878:	00130313          	addi	t1,t1,1
    287c:	00d60633          	add	a2,a2,a3
    2880:	00560123          	sb	t0,2(a2)
    2884:	95c7a603          	lw	a2,-1700(a5)
    2888:	00d60633          	add	a2,a2,a3
    288c:	005601a3          	sb	t0,3(a2)
    2890:	95c7a603          	lw	a2,-1700(a5)
    2894:	00d60633          	add	a2,a2,a3
    2898:	00560223          	sb	t0,4(a2)
    289c:	95c7a603          	lw	a2,-1700(a5)
    28a0:	00d60633          	add	a2,a2,a3
    28a4:	005602a3          	sb	t0,5(a2)
    28a8:	95c7a603          	lw	a2,-1700(a5)
    28ac:	01c60633          	add	a2,a2,t3
    28b0:	00560023          	sb	t0,0(a2)
    28b4:	95c7a603          	lw	a2,-1700(a5)
    28b8:	140e0e13          	addi	t3,t3,320
    28bc:	00d60633          	add	a2,a2,a3
    28c0:	00e603a3          	sb	a4,7(a2)
    28c4:	14068693          	addi	a3,a3,320
    28c8:	ef531ae3          	bne	t1,s5,27bc <update_shape+0x258>
    28cc:	de5ff06f          	j	26b0 <update_shape+0x14c>
    28d0:	00568693          	addi	a3,a3,5
    28d4:	00269893          	slli	a7,a3,0x2
    28d8:	00d886b3          	add	a3,a7,a3
    28dc:	00f60613          	addi	a2,a2,15
    28e0:	00669693          	slli	a3,a3,0x6
    28e4:	00c686b3          	add	a3,a3,a2
    28e8:	00c54283          	lbu	t0,12(a0)
    28ec:	00369693          	slli	a3,a3,0x3
    28f0:	00668e13          	addi	t3,a3,6
    28f4:	00000313          	li	t1,0
    28f8:	95c7a883          	lw	a7,-1700(a5)
    28fc:	006f5633          	srl	a2,t5,t1
    2900:	00167613          	andi	a2,a2,1
    2904:	00d888b3          	add	a7,a7,a3
    2908:	00e88023          	sb	a4,0(a7)
    290c:	95c7a883          	lw	a7,-1700(a5)
    2910:	00168a13          	addi	s4,a3,1
    2914:	00268993          	addi	s3,a3,2
    2918:	00368913          	addi	s2,a3,3
    291c:	00468413          	addi	s0,a3,4
    2920:	00568393          	addi	t2,a3,5
    2924:	06060663          	beqz	a2,2990 <update_shape+0x42c>
    2928:	014888b3          	add	a7,a7,s4
    292c:	00e88023          	sb	a4,0(a7)
    2930:	95c7a603          	lw	a2,-1700(a5)
    2934:	00768b93          	addi	s7,a3,7
    2938:	01360633          	add	a2,a2,s3
    293c:	00e60023          	sb	a4,0(a2)
    2940:	95c7a603          	lw	a2,-1700(a5)
    2944:	01260633          	add	a2,a2,s2
    2948:	00e60023          	sb	a4,0(a2)
    294c:	95c7a603          	lw	a2,-1700(a5)
    2950:	00860633          	add	a2,a2,s0
    2954:	00e60023          	sb	a4,0(a2)
    2958:	95c7a603          	lw	a2,-1700(a5)
    295c:	00760633          	add	a2,a2,t2
    2960:	00e60023          	sb	a4,0(a2)
    2964:	95c7a603          	lw	a2,-1700(a5)
    2968:	ee0316e3          	bnez	t1,2854 <update_shape+0x2f0>
    296c:	01c60633          	add	a2,a2,t3
    2970:	00e60023          	sb	a4,0(a2)
    2974:	95c7a603          	lw	a2,-1700(a5)
    2978:	14068693          	addi	a3,a3,320
    297c:	140e0e13          	addi	t3,t3,320
    2980:	01760633          	add	a2,a2,s7
    2984:	00100313          	li	t1,1
    2988:	00e60023          	sb	a4,0(a2)
    298c:	f6dff06f          	j	28f8 <update_shape+0x394>
    2990:	00d888b3          	add	a7,a7,a3
    2994:	005880a3          	sb	t0,1(a7)
    2998:	95c7a603          	lw	a2,-1700(a5)
    299c:	00130313          	addi	t1,t1,1
    29a0:	00d60633          	add	a2,a2,a3
    29a4:	00560123          	sb	t0,2(a2)
    29a8:	95c7a603          	lw	a2,-1700(a5)
    29ac:	00d60633          	add	a2,a2,a3
    29b0:	005601a3          	sb	t0,3(a2)
    29b4:	95c7a603          	lw	a2,-1700(a5)
    29b8:	00d60633          	add	a2,a2,a3
    29bc:	00560223          	sb	t0,4(a2)
    29c0:	95c7a603          	lw	a2,-1700(a5)
    29c4:	00d60633          	add	a2,a2,a3
    29c8:	005602a3          	sb	t0,5(a2)
    29cc:	95c7a603          	lw	a2,-1700(a5)
    29d0:	01c60633          	add	a2,a2,t3
    29d4:	00560023          	sb	t0,0(a2)
    29d8:	95c7a603          	lw	a2,-1700(a5)
    29dc:	140e0e13          	addi	t3,t3,320
    29e0:	00d60633          	add	a2,a2,a3
    29e4:	00e603a3          	sb	a4,7(a2)
    29e8:	14068693          	addi	a3,a3,320
    29ec:	f15316e3          	bne	t1,s5,28f8 <update_shape+0x394>
    29f0:	cc1ff06f          	j	26b0 <update_shape+0x14c>
    29f4:	00369693          	slli	a3,a3,0x3
    29f8:	01912423          	sw	s9,8(sp)
    29fc:	01a12223          	sw	s10,4(sp)
    2a00:	00668393          	addi	t2,a3,6
    2a04:	00000e13          	li	t3,0
    2a08:	00007637          	lui	a2,0x7
    2a0c:	01200893          	li	a7,18
    2a10:	08100c93          	li	s9,129
    2a14:	95c62d03          	lw	s10,-1700(a2) # 695c <VGA>
    2a18:	01ccd333          	srl	t1,s9,t3
    2a1c:	00137313          	andi	t1,t1,1
    2a20:	00dd0d33          	add	s10,s10,a3
    2a24:	011d0023          	sb	a7,0(s10)
    2a28:	95c62d03          	lw	s10,-1700(a2)
    2a2c:	00168293          	addi	t0,a3,1
    2a30:	00268b93          	addi	s7,a3,2
    2a34:	00368a13          	addi	s4,a3,3
    2a38:	00468993          	addi	s3,a3,4
    2a3c:	00568913          	addi	s2,a3,5
    2a40:	08030663          	beqz	t1,2acc <update_shape+0x568>
    2a44:	005d02b3          	add	t0,s10,t0
    2a48:	01128023          	sb	a7,0(t0)
    2a4c:	95c62283          	lw	t0,-1700(a2)
    2a50:	00768313          	addi	t1,a3,7
    2a54:	017282b3          	add	t0,t0,s7
    2a58:	01128023          	sb	a7,0(t0)
    2a5c:	95c62283          	lw	t0,-1700(a2)
    2a60:	014282b3          	add	t0,t0,s4
    2a64:	01128023          	sb	a7,0(t0)
    2a68:	95c62283          	lw	t0,-1700(a2)
    2a6c:	013282b3          	add	t0,t0,s3
    2a70:	01128023          	sb	a7,0(t0)
    2a74:	95c62283          	lw	t0,-1700(a2)
    2a78:	012282b3          	add	t0,t0,s2
    2a7c:	01128023          	sb	a7,0(t0)
    2a80:	95c62283          	lw	t0,-1700(a2)
    2a84:	020e0263          	beqz	t3,2aa8 <update_shape+0x544>
    2a88:	007282b3          	add	t0,t0,t2
    2a8c:	01128023          	sb	a7,0(t0)
    2a90:	95c62603          	lw	a2,-1700(a2)
    2a94:	00d606b3          	add	a3,a2,a3
    2a98:	011683a3          	sb	a7,7(a3)
    2a9c:	00812c83          	lw	s9,8(sp)
    2aa0:	00412d03          	lw	s10,4(sp)
    2aa4:	c0dff06f          	j	26b0 <update_shape+0x14c>
    2aa8:	007282b3          	add	t0,t0,t2
    2aac:	01128023          	sb	a7,0(t0)
    2ab0:	95c62283          	lw	t0,-1700(a2)
    2ab4:	14068693          	addi	a3,a3,320
    2ab8:	14038393          	addi	t2,t2,320
    2abc:	00628333          	add	t1,t0,t1
    2ac0:	00100e13          	li	t3,1
    2ac4:	01130023          	sb	a7,0(t1)
    2ac8:	f4dff06f          	j	2a14 <update_shape+0x4b0>
    2acc:	00dd0d33          	add	s10,s10,a3
    2ad0:	008d00a3          	sb	s0,1(s10)
    2ad4:	95c62303          	lw	t1,-1700(a2)
    2ad8:	001e0e13          	addi	t3,t3,1
    2adc:	00d30333          	add	t1,t1,a3
    2ae0:	00830123          	sb	s0,2(t1)
    2ae4:	95c62303          	lw	t1,-1700(a2)
    2ae8:	00d30333          	add	t1,t1,a3
    2aec:	008301a3          	sb	s0,3(t1)
    2af0:	95c62303          	lw	t1,-1700(a2)
    2af4:	00d30333          	add	t1,t1,a3
    2af8:	00830223          	sb	s0,4(t1)
    2afc:	95c62303          	lw	t1,-1700(a2)
    2b00:	00d30333          	add	t1,t1,a3
    2b04:	008302a3          	sb	s0,5(t1)
    2b08:	95c62303          	lw	t1,-1700(a2)
    2b0c:	00730333          	add	t1,t1,t2
    2b10:	00830023          	sb	s0,0(t1)
    2b14:	95c62303          	lw	t1,-1700(a2)
    2b18:	14038393          	addi	t2,t2,320
    2b1c:	00d30333          	add	t1,t1,a3
    2b20:	011303a3          	sb	a7,7(t1)
    2b24:	00800313          	li	t1,8
    2b28:	14068693          	addi	a3,a3,320
    2b2c:	ee6e14e3          	bne	t3,t1,2a14 <update_shape+0x4b0>
    2b30:	f6dff06f          	j	2a9c <update_shape+0x538>

00002b34 <check_fit>:
    2b34:	000076b7          	lui	a3,0x7
    2b38:	96068693          	addi	a3,a3,-1696 # 6960 <grid>
    2b3c:	00000793          	li	a5,0
    2b40:	00400813          	li	a6,4
    2b44:	0005a703          	lw	a4,0(a1)
    2b48:	02070e63          	beqz	a4,2b84 <check_fit+0x50>
    2b4c:	00452883          	lw	a7,4(a0)
    2b50:	00852603          	lw	a2,8(a0)
    2b54:	00a8b713          	sltiu	a4,a7,10
    2b58:	00c78633          	add	a2,a5,a2
    2b5c:	10070463          	beqz	a4,2c64 <check_fit+0x130>
    2b60:	01463713          	sltiu	a4,a2,20
    2b64:	10070063          	beqz	a4,2c64 <check_fit+0x130>
    2b68:	00261713          	slli	a4,a2,0x2
    2b6c:	00c70733          	add	a4,a4,a2
    2b70:	00171713          	slli	a4,a4,0x1
    2b74:	00e68733          	add	a4,a3,a4
    2b78:	01170733          	add	a4,a4,a7
    2b7c:	00074703          	lbu	a4,0(a4)
    2b80:	0e071263          	bnez	a4,2c64 <check_fit+0x130>
    2b84:	0045a703          	lw	a4,4(a1)
    2b88:	04070063          	beqz	a4,2bc8 <check_fit+0x94>
    2b8c:	00452883          	lw	a7,4(a0)
    2b90:	00852603          	lw	a2,8(a0)
    2b94:	00188713          	addi	a4,a7,1
    2b98:	00a73713          	sltiu	a4,a4,10
    2b9c:	00c78633          	add	a2,a5,a2
    2ba0:	0c070263          	beqz	a4,2c64 <check_fit+0x130>
    2ba4:	01463713          	sltiu	a4,a2,20
    2ba8:	0a070e63          	beqz	a4,2c64 <check_fit+0x130>
    2bac:	00261713          	slli	a4,a2,0x2
    2bb0:	00c70733          	add	a4,a4,a2
    2bb4:	00171713          	slli	a4,a4,0x1
    2bb8:	00e68733          	add	a4,a3,a4
    2bbc:	01170733          	add	a4,a4,a7
    2bc0:	00174703          	lbu	a4,1(a4)
    2bc4:	0a071063          	bnez	a4,2c64 <check_fit+0x130>
    2bc8:	0085a703          	lw	a4,8(a1)
    2bcc:	04070063          	beqz	a4,2c0c <check_fit+0xd8>
    2bd0:	00452883          	lw	a7,4(a0)
    2bd4:	00852603          	lw	a2,8(a0)
    2bd8:	00288713          	addi	a4,a7,2
    2bdc:	00a73713          	sltiu	a4,a4,10
    2be0:	00c78633          	add	a2,a5,a2
    2be4:	08070063          	beqz	a4,2c64 <check_fit+0x130>
    2be8:	01463713          	sltiu	a4,a2,20
    2bec:	06070c63          	beqz	a4,2c64 <check_fit+0x130>
    2bf0:	00261713          	slli	a4,a2,0x2
    2bf4:	00c70733          	add	a4,a4,a2
    2bf8:	00171713          	slli	a4,a4,0x1
    2bfc:	00e68733          	add	a4,a3,a4
    2c00:	01170733          	add	a4,a4,a7
    2c04:	00274703          	lbu	a4,2(a4)
    2c08:	04071e63          	bnez	a4,2c64 <check_fit+0x130>
    2c0c:	00c5a703          	lw	a4,12(a1)
    2c10:	04070063          	beqz	a4,2c50 <check_fit+0x11c>
    2c14:	00452883          	lw	a7,4(a0)
    2c18:	00852603          	lw	a2,8(a0)
    2c1c:	00388713          	addi	a4,a7,3
    2c20:	00a73713          	sltiu	a4,a4,10
    2c24:	00c78633          	add	a2,a5,a2
    2c28:	02070e63          	beqz	a4,2c64 <check_fit+0x130>
    2c2c:	01463713          	sltiu	a4,a2,20
    2c30:	02070a63          	beqz	a4,2c64 <check_fit+0x130>
    2c34:	00261713          	slli	a4,a2,0x2
    2c38:	00c70733          	add	a4,a4,a2
    2c3c:	00171713          	slli	a4,a4,0x1
    2c40:	00e68733          	add	a4,a3,a4
    2c44:	01170733          	add	a4,a4,a7
    2c48:	00374703          	lbu	a4,3(a4)
    2c4c:	00071c63          	bnez	a4,2c64 <check_fit+0x130>
    2c50:	00178793          	addi	a5,a5,1
    2c54:	01058593          	addi	a1,a1,16
    2c58:	ef0796e3          	bne	a5,a6,2b44 <check_fit+0x10>
    2c5c:	00100513          	li	a0,1
    2c60:	00008067          	ret
    2c64:	00000513          	li	a0,0
    2c68:	00008067          	ret

00002c6c <collision>:
    2c6c:	00050793          	mv	a5,a0
    2c70:	01052503          	lw	a0,16(a0)
    2c74:	36050663          	beqz	a0,2fe0 <collision+0x374>
    2c78:	0087a683          	lw	a3,8(a5)
    2c7c:	01300713          	li	a4,19
    2c80:	00168693          	addi	a3,a3,1
    2c84:	24d74463          	blt	a4,a3,2ecc <collision+0x260>
    2c88:	00269813          	slli	a6,a3,0x2
    2c8c:	0047a583          	lw	a1,4(a5)
    2c90:	00d80633          	add	a2,a6,a3
    2c94:	00007737          	lui	a4,0x7
    2c98:	00161613          	slli	a2,a2,0x1
    2c9c:	96070713          	addi	a4,a4,-1696 # 6960 <grid>
    2ca0:	00c70633          	add	a2,a4,a2
    2ca4:	00b60633          	add	a2,a2,a1
    2ca8:	00064603          	lbu	a2,0(a2)
    2cac:	22061063          	bnez	a2,2ecc <collision+0x260>
    2cb0:	0147a603          	lw	a2,20(a5)
    2cb4:	00158513          	addi	a0,a1,1
    2cb8:	00060e63          	beqz	a2,2cd4 <collision+0x68>
    2cbc:	00d80633          	add	a2,a6,a3
    2cc0:	00161613          	slli	a2,a2,0x1
    2cc4:	00c70633          	add	a2,a4,a2
    2cc8:	00a60633          	add	a2,a2,a0
    2ccc:	00064603          	lbu	a2,0(a2)
    2cd0:	1e061e63          	bnez	a2,2ecc <collision+0x260>
    2cd4:	0187a603          	lw	a2,24(a5)
    2cd8:	34060263          	beqz	a2,301c <collision+0x3b0>
    2cdc:	00d80633          	add	a2,a6,a3
    2ce0:	00161613          	slli	a2,a2,0x1
    2ce4:	00258513          	addi	a0,a1,2
    2ce8:	00c70633          	add	a2,a4,a2
    2cec:	00a60633          	add	a2,a2,a0
    2cf0:	00064603          	lbu	a2,0(a2)
    2cf4:	1c061c63          	bnez	a2,2ecc <collision+0x260>
    2cf8:	01c7a603          	lw	a2,28(a5)
    2cfc:	00358593          	addi	a1,a1,3
    2d00:	00060e63          	beqz	a2,2d1c <collision+0xb0>
    2d04:	00d806b3          	add	a3,a6,a3
    2d08:	00169693          	slli	a3,a3,0x1
    2d0c:	00d70733          	add	a4,a4,a3
    2d10:	00b70733          	add	a4,a4,a1
    2d14:	00074703          	lbu	a4,0(a4)
    2d18:	1a071a63          	bnez	a4,2ecc <collision+0x260>
    2d1c:	0207a503          	lw	a0,32(a5)
    2d20:	32050663          	beqz	a0,304c <collision+0x3e0>
    2d24:	0087a683          	lw	a3,8(a5)
    2d28:	01300713          	li	a4,19
    2d2c:	00268693          	addi	a3,a3,2
    2d30:	18d74e63          	blt	a4,a3,2ecc <collision+0x260>
    2d34:	00269813          	slli	a6,a3,0x2
    2d38:	0047a583          	lw	a1,4(a5)
    2d3c:	00d80633          	add	a2,a6,a3
    2d40:	00007737          	lui	a4,0x7
    2d44:	00161613          	slli	a2,a2,0x1
    2d48:	96070713          	addi	a4,a4,-1696 # 6960 <grid>
    2d4c:	00c70633          	add	a2,a4,a2
    2d50:	00b60633          	add	a2,a2,a1
    2d54:	00064603          	lbu	a2,0(a2)
    2d58:	16061a63          	bnez	a2,2ecc <collision+0x260>
    2d5c:	0247a603          	lw	a2,36(a5)
    2d60:	00158513          	addi	a0,a1,1
    2d64:	00060e63          	beqz	a2,2d80 <collision+0x114>
    2d68:	00d80633          	add	a2,a6,a3
    2d6c:	00161613          	slli	a2,a2,0x1
    2d70:	00c70633          	add	a2,a4,a2
    2d74:	00a60633          	add	a2,a2,a0
    2d78:	00064603          	lbu	a2,0(a2)
    2d7c:	14061863          	bnez	a2,2ecc <collision+0x260>
    2d80:	0287a603          	lw	a2,40(a5)
    2d84:	10060263          	beqz	a2,2e88 <collision+0x21c>
    2d88:	00d80633          	add	a2,a6,a3
    2d8c:	00161613          	slli	a2,a2,0x1
    2d90:	00258513          	addi	a0,a1,2
    2d94:	00c70633          	add	a2,a4,a2
    2d98:	00a60633          	add	a2,a2,a0
    2d9c:	00064603          	lbu	a2,0(a2)
    2da0:	12061663          	bnez	a2,2ecc <collision+0x260>
    2da4:	02c7a603          	lw	a2,44(a5)
    2da8:	00358593          	addi	a1,a1,3
    2dac:	10061463          	bnez	a2,2eb4 <collision+0x248>
    2db0:	0307a503          	lw	a0,48(a5)
    2db4:	12050063          	beqz	a0,2ed4 <collision+0x268>
    2db8:	0087a683          	lw	a3,8(a5)
    2dbc:	01300713          	li	a4,19
    2dc0:	00368693          	addi	a3,a3,3
    2dc4:	10d74463          	blt	a4,a3,2ecc <collision+0x260>
    2dc8:	00269813          	slli	a6,a3,0x2
    2dcc:	0047a583          	lw	a1,4(a5)
    2dd0:	00d80633          	add	a2,a6,a3
    2dd4:	00007737          	lui	a4,0x7
    2dd8:	00161613          	slli	a2,a2,0x1
    2ddc:	96070713          	addi	a4,a4,-1696 # 6960 <grid>
    2de0:	00c70633          	add	a2,a4,a2
    2de4:	00b60633          	add	a2,a2,a1
    2de8:	00064603          	lbu	a2,0(a2)
    2dec:	0e061063          	bnez	a2,2ecc <collision+0x260>
    2df0:	0347a603          	lw	a2,52(a5)
    2df4:	00158513          	addi	a0,a1,1
    2df8:	10061463          	bnez	a2,2f00 <collision+0x294>
    2dfc:	0387a603          	lw	a2,56(a5)
    2e00:	12060063          	beqz	a2,2f20 <collision+0x2b4>
    2e04:	00d80633          	add	a2,a6,a3
    2e08:	00161613          	slli	a2,a2,0x1
    2e0c:	00258513          	addi	a0,a1,2
    2e10:	00c70633          	add	a2,a4,a2
    2e14:	00a60633          	add	a2,a2,a0
    2e18:	00064603          	lbu	a2,0(a2)
    2e1c:	0a061863          	bnez	a2,2ecc <collision+0x260>
    2e20:	03c7a603          	lw	a2,60(a5)
    2e24:	00358593          	addi	a1,a1,3
    2e28:	12061263          	bnez	a2,2f4c <collision+0x2e0>
    2e2c:	0407a703          	lw	a4,64(a5)
    2e30:	12070e63          	beqz	a4,2f6c <collision+0x300>
    2e34:	0087a683          	lw	a3,8(a5)
    2e38:	01300713          	li	a4,19
    2e3c:	00468693          	addi	a3,a3,4
    2e40:	08d74663          	blt	a4,a3,2ecc <collision+0x260>
    2e44:	00269613          	slli	a2,a3,0x2
    2e48:	0047a583          	lw	a1,4(a5)
    2e4c:	00d60533          	add	a0,a2,a3
    2e50:	00007737          	lui	a4,0x7
    2e54:	00151513          	slli	a0,a0,0x1
    2e58:	96070713          	addi	a4,a4,-1696 # 6960 <grid>
    2e5c:	00a70533          	add	a0,a4,a0
    2e60:	00b50533          	add	a0,a0,a1
    2e64:	00054803          	lbu	a6,0(a0)
    2e68:	00058513          	mv	a0,a1
    2e6c:	06081063          	bnez	a6,2ecc <collision+0x260>
    2e70:	0447a803          	lw	a6,68(a5)
    2e74:	26080263          	beqz	a6,30d8 <collision+0x46c>
    2e78:	00150813          	addi	a6,a0,1
    2e7c:	11c0006f          	j	2f98 <collision+0x32c>
    2e80:	0287a703          	lw	a4,40(a5)
    2e84:	2c071663          	bnez	a4,3150 <collision+0x4e4>
    2e88:	02c7a703          	lw	a4,44(a5)
    2e8c:	f20702e3          	beqz	a4,2db0 <collision+0x144>
    2e90:	0087a683          	lw	a3,8(a5)
    2e94:	01300713          	li	a4,19
    2e98:	00268693          	addi	a3,a3,2
    2e9c:	02d74863          	blt	a4,a3,2ecc <collision+0x260>
    2ea0:	0047a583          	lw	a1,4(a5)
    2ea4:	00007737          	lui	a4,0x7
    2ea8:	96070713          	addi	a4,a4,-1696 # 6960 <grid>
    2eac:	00358593          	addi	a1,a1,3
    2eb0:	00269813          	slli	a6,a3,0x2
    2eb4:	00d806b3          	add	a3,a6,a3
    2eb8:	00169693          	slli	a3,a3,0x1
    2ebc:	00d70733          	add	a4,a4,a3
    2ec0:	00b70733          	add	a4,a4,a1
    2ec4:	00074703          	lbu	a4,0(a4)
    2ec8:	ee0704e3          	beqz	a4,2db0 <collision+0x144>
    2ecc:	00000513          	li	a0,0
    2ed0:	00008067          	ret
    2ed4:	0347a703          	lw	a4,52(a5)
    2ed8:	1a070263          	beqz	a4,307c <collision+0x410>
    2edc:	0087a683          	lw	a3,8(a5)
    2ee0:	01300713          	li	a4,19
    2ee4:	00368693          	addi	a3,a3,3
    2ee8:	12d74463          	blt	a4,a3,3010 <collision+0x3a4>
    2eec:	0047a583          	lw	a1,4(a5)
    2ef0:	00007737          	lui	a4,0x7
    2ef4:	96070713          	addi	a4,a4,-1696 # 6960 <grid>
    2ef8:	00158513          	addi	a0,a1,1
    2efc:	00269813          	slli	a6,a3,0x2
    2f00:	00d80633          	add	a2,a6,a3
    2f04:	00161613          	slli	a2,a2,0x1
    2f08:	00c70633          	add	a2,a4,a2
    2f0c:	00a60633          	add	a2,a2,a0
    2f10:	00064603          	lbu	a2,0(a2)
    2f14:	fa061ce3          	bnez	a2,2ecc <collision+0x260>
    2f18:	0387a603          	lw	a2,56(a5)
    2f1c:	ee0614e3          	bnez	a2,2e04 <collision+0x198>
    2f20:	03c7a703          	lw	a4,60(a5)
    2f24:	f00704e3          	beqz	a4,2e2c <collision+0x1c0>
    2f28:	0087a683          	lw	a3,8(a5)
    2f2c:	01300713          	li	a4,19
    2f30:	00368693          	addi	a3,a3,3
    2f34:	f8d74ce3          	blt	a4,a3,2ecc <collision+0x260>
    2f38:	0047a583          	lw	a1,4(a5)
    2f3c:	00007737          	lui	a4,0x7
    2f40:	96070713          	addi	a4,a4,-1696 # 6960 <grid>
    2f44:	00358593          	addi	a1,a1,3
    2f48:	00269813          	slli	a6,a3,0x2
    2f4c:	00d806b3          	add	a3,a6,a3
    2f50:	00169693          	slli	a3,a3,0x1
    2f54:	00d70733          	add	a4,a4,a3
    2f58:	00b70733          	add	a4,a4,a1
    2f5c:	00074703          	lbu	a4,0(a4)
    2f60:	f60716e3          	bnez	a4,2ecc <collision+0x260>
    2f64:	0407a703          	lw	a4,64(a5)
    2f68:	ec0716e3          	bnez	a4,2e34 <collision+0x1c8>
    2f6c:	0447a503          	lw	a0,68(a5)
    2f70:	12050c63          	beqz	a0,30a8 <collision+0x43c>
    2f74:	0087a683          	lw	a3,8(a5)
    2f78:	01300713          	li	a4,19
    2f7c:	00468693          	addi	a3,a3,4
    2f80:	f4d746e3          	blt	a4,a3,2ecc <collision+0x260>
    2f84:	0047a503          	lw	a0,4(a5)
    2f88:	00007737          	lui	a4,0x7
    2f8c:	96070713          	addi	a4,a4,-1696 # 6960 <grid>
    2f90:	00150813          	addi	a6,a0,1
    2f94:	00269613          	slli	a2,a3,0x2
    2f98:	00d605b3          	add	a1,a2,a3
    2f9c:	00159593          	slli	a1,a1,0x1
    2fa0:	00b705b3          	add	a1,a4,a1
    2fa4:	010585b3          	add	a1,a1,a6
    2fa8:	0005c583          	lbu	a1,0(a1)
    2fac:	f20590e3          	bnez	a1,2ecc <collision+0x260>
    2fb0:	0487a583          	lw	a1,72(a5)
    2fb4:	12058663          	beqz	a1,30e0 <collision+0x474>
    2fb8:	00d605b3          	add	a1,a2,a3
    2fbc:	00159593          	slli	a1,a1,0x1
    2fc0:	00b705b3          	add	a1,a4,a1
    2fc4:	00a585b3          	add	a1,a1,a0
    2fc8:	0025c583          	lbu	a1,2(a1)
    2fcc:	f00590e3          	bnez	a1,2ecc <collision+0x260>
    2fd0:	04c7a783          	lw	a5,76(a5)
    2fd4:	1a079063          	bnez	a5,3174 <collision+0x508>
    2fd8:	00100513          	li	a0,1
    2fdc:	00008067          	ret
    2fe0:	0147a703          	lw	a4,20(a5)
    2fe4:	02070863          	beqz	a4,3014 <collision+0x3a8>
    2fe8:	0087a683          	lw	a3,8(a5)
    2fec:	01300713          	li	a4,19
    2ff0:	00168693          	addi	a3,a3,1
    2ff4:	00d74e63          	blt	a4,a3,3010 <collision+0x3a4>
    2ff8:	0047a583          	lw	a1,4(a5)
    2ffc:	00007737          	lui	a4,0x7
    3000:	96070713          	addi	a4,a4,-1696 # 6960 <grid>
    3004:	00158513          	addi	a0,a1,1
    3008:	00269813          	slli	a6,a3,0x2
    300c:	cb1ff06f          	j	2cbc <collision+0x50>
    3010:	00008067          	ret
    3014:	0187a703          	lw	a4,24(a5)
    3018:	10071a63          	bnez	a4,312c <collision+0x4c0>
    301c:	01c7a703          	lw	a4,28(a5)
    3020:	ce070ee3          	beqz	a4,2d1c <collision+0xb0>
    3024:	0087a683          	lw	a3,8(a5)
    3028:	01300713          	li	a4,19
    302c:	00168693          	addi	a3,a3,1
    3030:	e8d74ee3          	blt	a4,a3,2ecc <collision+0x260>
    3034:	0047a583          	lw	a1,4(a5)
    3038:	00007737          	lui	a4,0x7
    303c:	96070713          	addi	a4,a4,-1696 # 6960 <grid>
    3040:	00358593          	addi	a1,a1,3
    3044:	00269813          	slli	a6,a3,0x2
    3048:	cbdff06f          	j	2d04 <collision+0x98>
    304c:	0247a703          	lw	a4,36(a5)
    3050:	e20708e3          	beqz	a4,2e80 <collision+0x214>
    3054:	0087a683          	lw	a3,8(a5)
    3058:	01300713          	li	a4,19
    305c:	00268693          	addi	a3,a3,2
    3060:	fad748e3          	blt	a4,a3,3010 <collision+0x3a4>
    3064:	0047a583          	lw	a1,4(a5)
    3068:	00007737          	lui	a4,0x7
    306c:	96070713          	addi	a4,a4,-1696 # 6960 <grid>
    3070:	00158513          	addi	a0,a1,1
    3074:	00269813          	slli	a6,a3,0x2
    3078:	cf1ff06f          	j	2d68 <collision+0xfc>
    307c:	0387a703          	lw	a4,56(a5)
    3080:	ea0700e3          	beqz	a4,2f20 <collision+0x2b4>
    3084:	0087a683          	lw	a3,8(a5)
    3088:	01300713          	li	a4,19
    308c:	00368693          	addi	a3,a3,3
    3090:	f8d740e3          	blt	a4,a3,3010 <collision+0x3a4>
    3094:	00007737          	lui	a4,0x7
    3098:	0047a583          	lw	a1,4(a5)
    309c:	96070713          	addi	a4,a4,-1696 # 6960 <grid>
    30a0:	00269813          	slli	a6,a3,0x2
    30a4:	d61ff06f          	j	2e04 <collision+0x198>
    30a8:	0487a703          	lw	a4,72(a5)
    30ac:	02070a63          	beqz	a4,30e0 <collision+0x474>
    30b0:	0087a683          	lw	a3,8(a5)
    30b4:	01300713          	li	a4,19
    30b8:	00468693          	addi	a3,a3,4
    30bc:	f4d74ae3          	blt	a4,a3,3010 <collision+0x3a4>
    30c0:	0047a583          	lw	a1,4(a5)
    30c4:	00007737          	lui	a4,0x7
    30c8:	96070713          	addi	a4,a4,-1696 # 6960 <grid>
    30cc:	00269613          	slli	a2,a3,0x2
    30d0:	00058513          	mv	a0,a1
    30d4:	ee5ff06f          	j	2fb8 <collision+0x34c>
    30d8:	0487a503          	lw	a0,72(a5)
    30dc:	fe051ae3          	bnez	a0,30d0 <collision+0x464>
    30e0:	04c7a703          	lw	a4,76(a5)
    30e4:	00100513          	li	a0,1
    30e8:	f20704e3          	beqz	a4,3010 <collision+0x3a4>
    30ec:	0087a683          	lw	a3,8(a5)
    30f0:	01300713          	li	a4,19
    30f4:	00468693          	addi	a3,a3,4
    30f8:	dcd74ae3          	blt	a4,a3,2ecc <collision+0x260>
    30fc:	0047a503          	lw	a0,4(a5)
    3100:	00269613          	slli	a2,a3,0x2
    3104:	00d607b3          	add	a5,a2,a3
    3108:	00007737          	lui	a4,0x7
    310c:	96070713          	addi	a4,a4,-1696 # 6960 <grid>
    3110:	00179793          	slli	a5,a5,0x1
    3114:	00350513          	addi	a0,a0,3
    3118:	00f707b3          	add	a5,a4,a5
    311c:	00a787b3          	add	a5,a5,a0
    3120:	0007c503          	lbu	a0,0(a5)
    3124:	00153513          	seqz	a0,a0
    3128:	00008067          	ret
    312c:	0087a683          	lw	a3,8(a5)
    3130:	01300713          	li	a4,19
    3134:	00168693          	addi	a3,a3,1
    3138:	ecd74ce3          	blt	a4,a3,3010 <collision+0x3a4>
    313c:	00007737          	lui	a4,0x7
    3140:	0047a583          	lw	a1,4(a5)
    3144:	96070713          	addi	a4,a4,-1696 # 6960 <grid>
    3148:	00269813          	slli	a6,a3,0x2
    314c:	b91ff06f          	j	2cdc <collision+0x70>
    3150:	0087a683          	lw	a3,8(a5)
    3154:	01300713          	li	a4,19
    3158:	00268693          	addi	a3,a3,2
    315c:	ead74ae3          	blt	a4,a3,3010 <collision+0x3a4>
    3160:	00007737          	lui	a4,0x7
    3164:	0047a583          	lw	a1,4(a5)
    3168:	96070713          	addi	a4,a4,-1696 # 6960 <grid>
    316c:	00269813          	slli	a6,a3,0x2
    3170:	c19ff06f          	j	2d88 <collision+0x11c>
    3174:	00d607b3          	add	a5,a2,a3
    3178:	00179793          	slli	a5,a5,0x1
    317c:	00350513          	addi	a0,a0,3
    3180:	00f707b3          	add	a5,a4,a5
    3184:	00a787b3          	add	a5,a5,a0
    3188:	0007c503          	lbu	a0,0(a5)
    318c:	00153513          	seqz	a0,a0
    3190:	00008067          	ret

00003194 <rotate_piece>:
    3194:	f9010113          	addi	sp,sp,-112
    3198:	01452383          	lw	t2,20(a0)
    319c:	01852e83          	lw	t4,24(a0)
    31a0:	01c52803          	lw	a6,28(a0)
    31a4:	06812623          	sw	s0,108(sp)
    31a8:	07312023          	sw	s3,96(sp)
    31ac:	02452403          	lw	s0,36(a0)
    31b0:	01052983          	lw	s3,16(a0)
    31b4:	05412e23          	sw	s4,92(sp)
    31b8:	02052a03          	lw	s4,32(a0)
    31bc:	02c52883          	lw	a7,44(a0)
    31c0:	03852f83          	lw	t6,56(a0)
    31c4:	03c52303          	lw	t1,60(a0)
    31c8:	04852283          	lw	t0,72(a0)
    31cc:	04c52e03          	lw	t3,76(a0)
    31d0:	06912423          	sw	s1,104(sp)
    31d4:	07212223          	sw	s2,100(sp)
    31d8:	03452483          	lw	s1,52(a0)
    31dc:	04452903          	lw	s2,68(a0)
    31e0:	05512c23          	sw	s5,88(sp)
    31e4:	05612a23          	sw	s6,84(sp)
    31e8:	03052a83          	lw	s5,48(a0)
    31ec:	04052b03          	lw	s6,64(a0)
    31f0:	02852f03          	lw	t5,40(a0)
    31f4:	05712823          	sw	s7,80(sp)
    31f8:	05812623          	sw	s8,76(sp)
    31fc:	00007637          	lui	a2,0x7
    3200:	01312623          	sw	s3,12(sp)
    3204:	00712e23          	sw	t2,28(sp)
    3208:	03d12623          	sw	t4,44(sp)
    320c:	03012e23          	sw	a6,60(sp)
    3210:	01412423          	sw	s4,8(sp)
    3214:	00812c23          	sw	s0,24(sp)
    3218:	03e12423          	sw	t5,40(sp)
    321c:	96060613          	addi	a2,a2,-1696 # 6960 <grid>
    3220:	03112c23          	sw	a7,56(sp)
    3224:	01512223          	sw	s5,4(sp)
    3228:	00912a23          	sw	s1,20(sp)
    322c:	03f12223          	sw	t6,36(sp)
    3230:	02612a23          	sw	t1,52(sp)
    3234:	01612023          	sw	s6,0(sp)
    3238:	01212823          	sw	s2,16(sp)
    323c:	02512023          	sw	t0,32(sp)
    3240:	03c12823          	sw	t3,48(sp)
    3244:	00010793          	mv	a5,sp
    3248:	00000713          	li	a4,0
    324c:	00400593          	li	a1,4
    3250:	0007a683          	lw	a3,0(a5)
    3254:	02068e63          	beqz	a3,3290 <rotate_piece+0xfc>
    3258:	00452c03          	lw	s8,4(a0)
    325c:	00852b83          	lw	s7,8(a0)
    3260:	00ac3693          	sltiu	a3,s8,10
    3264:	01770bb3          	add	s7,a4,s7
    3268:	14068063          	beqz	a3,33a8 <rotate_piece+0x214>
    326c:	014bb693          	sltiu	a3,s7,20
    3270:	12068c63          	beqz	a3,33a8 <rotate_piece+0x214>
    3274:	002b9693          	slli	a3,s7,0x2
    3278:	017686b3          	add	a3,a3,s7
    327c:	00169693          	slli	a3,a3,0x1
    3280:	00d606b3          	add	a3,a2,a3
    3284:	018686b3          	add	a3,a3,s8
    3288:	0006c683          	lbu	a3,0(a3)
    328c:	10069e63          	bnez	a3,33a8 <rotate_piece+0x214>
    3290:	0047a683          	lw	a3,4(a5)
    3294:	04068063          	beqz	a3,32d4 <rotate_piece+0x140>
    3298:	00452c03          	lw	s8,4(a0)
    329c:	00852b83          	lw	s7,8(a0)
    32a0:	001c0693          	addi	a3,s8,1
    32a4:	00a6b693          	sltiu	a3,a3,10
    32a8:	01770bb3          	add	s7,a4,s7
    32ac:	0e068e63          	beqz	a3,33a8 <rotate_piece+0x214>
    32b0:	014bb693          	sltiu	a3,s7,20
    32b4:	0e068a63          	beqz	a3,33a8 <rotate_piece+0x214>
    32b8:	002b9693          	slli	a3,s7,0x2
    32bc:	017686b3          	add	a3,a3,s7
    32c0:	00169693          	slli	a3,a3,0x1
    32c4:	00d606b3          	add	a3,a2,a3
    32c8:	018686b3          	add	a3,a3,s8
    32cc:	0016c683          	lbu	a3,1(a3)
    32d0:	0c069c63          	bnez	a3,33a8 <rotate_piece+0x214>
    32d4:	0087a683          	lw	a3,8(a5)
    32d8:	04068063          	beqz	a3,3318 <rotate_piece+0x184>
    32dc:	00452c03          	lw	s8,4(a0)
    32e0:	00852b83          	lw	s7,8(a0)
    32e4:	002c0693          	addi	a3,s8,2
    32e8:	00a6b693          	sltiu	a3,a3,10
    32ec:	01770bb3          	add	s7,a4,s7
    32f0:	0a068c63          	beqz	a3,33a8 <rotate_piece+0x214>
    32f4:	014bb693          	sltiu	a3,s7,20
    32f8:	0a068863          	beqz	a3,33a8 <rotate_piece+0x214>
    32fc:	002b9693          	slli	a3,s7,0x2
    3300:	017686b3          	add	a3,a3,s7
    3304:	00169693          	slli	a3,a3,0x1
    3308:	00d606b3          	add	a3,a2,a3
    330c:	018686b3          	add	a3,a3,s8
    3310:	0026c683          	lbu	a3,2(a3)
    3314:	08069a63          	bnez	a3,33a8 <rotate_piece+0x214>
    3318:	00c7a683          	lw	a3,12(a5)
    331c:	04068063          	beqz	a3,335c <rotate_piece+0x1c8>
    3320:	00452c03          	lw	s8,4(a0)
    3324:	00852b83          	lw	s7,8(a0)
    3328:	003c0693          	addi	a3,s8,3
    332c:	00a6b693          	sltiu	a3,a3,10
    3330:	01770bb3          	add	s7,a4,s7
    3334:	06068a63          	beqz	a3,33a8 <rotate_piece+0x214>
    3338:	014bb693          	sltiu	a3,s7,20
    333c:	06068663          	beqz	a3,33a8 <rotate_piece+0x214>
    3340:	002b9693          	slli	a3,s7,0x2
    3344:	017686b3          	add	a3,a3,s7
    3348:	00169693          	slli	a3,a3,0x1
    334c:	00d606b3          	add	a3,a2,a3
    3350:	018686b3          	add	a3,a3,s8
    3354:	0036c683          	lbu	a3,3(a3)
    3358:	04069863          	bnez	a3,33a8 <rotate_piece+0x214>
    335c:	00170713          	addi	a4,a4,1
    3360:	01078793          	addi	a5,a5,16
    3364:	eeb716e3          	bne	a4,a1,3250 <rotate_piece+0xbc>
    3368:	01652823          	sw	s6,16(a0)
    336c:	01552a23          	sw	s5,20(a0)
    3370:	01452c23          	sw	s4,24(a0)
    3374:	01352e23          	sw	s3,28(a0)
    3378:	03252023          	sw	s2,32(a0)
    337c:	02952223          	sw	s1,36(a0)
    3380:	02852423          	sw	s0,40(a0)
    3384:	02752623          	sw	t2,44(a0)
    3388:	02552823          	sw	t0,48(a0)
    338c:	03f52a23          	sw	t6,52(a0)
    3390:	03e52c23          	sw	t5,56(a0)
    3394:	03d52e23          	sw	t4,60(a0)
    3398:	05c52023          	sw	t3,64(a0)
    339c:	04652223          	sw	t1,68(a0)
    33a0:	05152423          	sw	a7,72(a0)
    33a4:	05052623          	sw	a6,76(a0)
    33a8:	06c12403          	lw	s0,108(sp)
    33ac:	06812483          	lw	s1,104(sp)
    33b0:	06412903          	lw	s2,100(sp)
    33b4:	06012983          	lw	s3,96(sp)
    33b8:	05c12a03          	lw	s4,92(sp)
    33bc:	05812a83          	lw	s5,88(sp)
    33c0:	05412b03          	lw	s6,84(sp)
    33c4:	05012b83          	lw	s7,80(sp)
    33c8:	04c12c03          	lw	s8,76(sp)
    33cc:	07010113          	addi	sp,sp,112
    33d0:	00008067          	ret

000033d4 <move_piece>:
    33d4:	040007b7          	lui	a5,0x4000
    33d8:	01078793          	addi	a5,a5,16 # 4000010 <_stack_end+0x3ef3654>
    33dc:	0007a783          	lw	a5,0(a5)
    33e0:	01052703          	lw	a4,16(a0)
    33e4:	fb010113          	addi	sp,sp,-80
    33e8:	3ff7f793          	andi	a5,a5,1023
    33ec:	00f12e23          	sw	a5,28(sp)
    33f0:	04112623          	sw	ra,76(sp)
    33f4:	04812423          	sw	s0,72(sp)
    33f8:	01452783          	lw	a5,20(a0)
    33fc:	01852683          	lw	a3,24(a0)
    3400:	01c52603          	lw	a2,28(a0)
    3404:	06071863          	bnez	a4,3474 <move_piece+0xa0>
    3408:	16079663          	bnez	a5,3574 <move_piece+0x1a0>
    340c:	56069463          	bnez	a3,3974 <move_piece+0x5a0>
    3410:	06061863          	bnez	a2,3480 <move_piece+0xac>
    3414:	02052403          	lw	s0,32(a0)
    3418:	02452683          	lw	a3,36(a0)
    341c:	02852703          	lw	a4,40(a0)
    3420:	02c52783          	lw	a5,44(a0)
    3424:	10040e63          	beqz	s0,3540 <move_piece+0x16c>
    3428:	10069e63          	bnez	a3,3544 <move_piece+0x170>
    342c:	16071063          	bnez	a4,358c <move_piece+0x1b8>
    3430:	36078e63          	beqz	a5,37ac <move_piece+0x3d8>
    3434:	03c52783          	lw	a5,60(a0)
    3438:	00400413          	li	s0,4
    343c:	06079a63          	bnez	a5,34b0 <move_piece+0xdc>
    3440:	04052603          	lw	a2,64(a0)
    3444:	04452683          	lw	a3,68(a0)
    3448:	04852703          	lw	a4,72(a0)
    344c:	04c52783          	lw	a5,76(a0)
    3450:	14060e63          	beqz	a2,35ac <move_piece+0x1d8>
    3454:	14041c63          	bnez	s0,35ac <move_piece+0x1d8>
    3458:	16069063          	bnez	a3,35b8 <move_piece+0x1e4>
    345c:	16071063          	bnez	a4,35bc <move_piece+0x1e8>
    3460:	00f037b3          	snez	a5,a5
    3464:	40f007b3          	neg	a5,a5
    3468:	0037f413          	andi	s0,a5,3
    346c:	00140413          	addi	s0,s0,1
    3470:	1540006f          	j	35c4 <move_piece+0x1f0>
    3474:	10079063          	bnez	a5,3574 <move_piece+0x1a0>
    3478:	4e069e63          	bnez	a3,3974 <move_piece+0x5a0>
    347c:	0a060a63          	beqz	a2,3530 <move_piece+0x15c>
    3480:	02c52783          	lw	a5,44(a0)
    3484:	00400413          	li	s0,4
    3488:	fa0796e3          	bnez	a5,3434 <move_piece+0x60>
    348c:	03052603          	lw	a2,48(a0)
    3490:	03452683          	lw	a3,52(a0)
    3494:	03852703          	lw	a4,56(a0)
    3498:	03c52783          	lw	a5,60(a0)
    349c:	32060063          	beqz	a2,37bc <move_piece+0x3e8>
    34a0:	30041e63          	bnez	s0,37bc <move_piece+0x3e8>
    34a4:	32069263          	bnez	a3,37c8 <move_piece+0x3f4>
    34a8:	0a071e63          	bnez	a4,3564 <move_piece+0x190>
    34ac:	0e078863          	beqz	a5,359c <move_piece+0x1c8>
    34b0:	04c52783          	lw	a5,76(a0)
    34b4:	00400413          	li	s0,4
    34b8:	10078663          	beqz	a5,35c4 <move_piece+0x1f0>
    34bc:	000075b7          	lui	a1,0x7
    34c0:	96058593          	addi	a1,a1,-1696 # 6960 <grid>
    34c4:	0d85a783          	lw	a5,216(a1)
    34c8:	0d05a603          	lw	a2,208(a1)
    34cc:	0cc5a683          	lw	a3,204(a1)
    34d0:	00400413          	li	s0,4
    34d4:	10079463          	bnez	a5,35dc <move_piece+0x208>
    34d8:	0dc5a783          	lw	a5,220(a1)
    34dc:	30078863          	beqz	a5,37ec <move_piece+0x418>
    34e0:	00160813          	addi	a6,a2,1
    34e4:	01300793          	li	a5,19
    34e8:	3307cc63          	blt	a5,a6,3820 <move_piece+0x44c>
    34ec:	00168893          	addi	a7,a3,1
    34f0:	00281793          	slli	a5,a6,0x2
    34f4:	01078733          	add	a4,a5,a6
    34f8:	00171713          	slli	a4,a4,0x1
    34fc:	00e58733          	add	a4,a1,a4
    3500:	01170733          	add	a4,a4,a7
    3504:	00074703          	lbu	a4,0(a4)
    3508:	30071c63          	bnez	a4,3820 <move_piece+0x44c>
    350c:	0e05a703          	lw	a4,224(a1)
    3510:	2e071a63          	bnez	a4,3804 <move_piece+0x430>
    3514:	0e45a783          	lw	a5,228(a1)
    3518:	12078263          	beqz	a5,363c <move_piece+0x268>
    351c:	00160813          	addi	a6,a2,1
    3520:	01300793          	li	a5,19
    3524:	2f07ce63          	blt	a5,a6,3820 <move_piece+0x44c>
    3528:	00281793          	slli	a5,a6,0x2
    352c:	0f40006f          	j	3620 <move_piece+0x24c>
    3530:	02452683          	lw	a3,36(a0)
    3534:	02852703          	lw	a4,40(a0)
    3538:	02c52783          	lw	a5,44(a0)
    353c:	00100413          	li	s0,1
    3540:	04068463          	beqz	a3,3588 <move_piece+0x1b4>
    3544:	04071463          	bnez	a4,358c <move_piece+0x1b8>
    3548:	ee0796e3          	bnez	a5,3434 <move_piece+0x60>
    354c:	03852703          	lw	a4,56(a0)
    3550:	03c52783          	lw	a5,60(a0)
    3554:	00200413          	li	s0,2
    3558:	00342693          	slti	a3,s0,3
    355c:	ee0680e3          	beqz	a3,343c <move_piece+0x68>
    3560:	ec070ee3          	beqz	a4,343c <move_piece+0x68>
    3564:	f40796e3          	bnez	a5,34b0 <move_piece+0xdc>
    3568:	04c52783          	lw	a5,76(a0)
    356c:	00300413          	li	s0,3
    3570:	f49ff06f          	j	34b8 <move_piece+0xe4>
    3574:	40069063          	bnez	a3,3974 <move_piece+0x5a0>
    3578:	f00614e3          	bnez	a2,3480 <move_piece+0xac>
    357c:	02852703          	lw	a4,40(a0)
    3580:	02c52783          	lw	a5,44(a0)
    3584:	00200413          	li	s0,2
    3588:	f00700e3          	beqz	a4,3488 <move_piece+0xb4>
    358c:	ea0794e3          	bnez	a5,3434 <move_piece+0x60>
    3590:	03c52783          	lw	a5,60(a0)
    3594:	00300413          	li	s0,3
    3598:	ea5ff06f          	j	343c <move_piece+0x68>
    359c:	04452683          	lw	a3,68(a0)
    35a0:	04852703          	lw	a4,72(a0)
    35a4:	04c52783          	lw	a5,76(a0)
    35a8:	00100413          	li	s0,1
    35ac:	22068863          	beqz	a3,37dc <move_piece+0x408>
    35b0:	00242693          	slti	a3,s0,2
    35b4:	22068463          	beqz	a3,37dc <move_piece+0x408>
    35b8:	46070663          	beqz	a4,3a24 <move_piece+0x650>
    35bc:	00f03433          	snez	s0,a5
    35c0:	00340413          	addi	s0,s0,3
    35c4:	000075b7          	lui	a1,0x7
    35c8:	96058593          	addi	a1,a1,-1696 # 6960 <grid>
    35cc:	0d85a783          	lw	a5,216(a1)
    35d0:	0d05a603          	lw	a2,208(a1)
    35d4:	0cc5a683          	lw	a3,204(a1)
    35d8:	f00780e3          	beqz	a5,34d8 <move_piece+0x104>
    35dc:	00160813          	addi	a6,a2,1
    35e0:	01300793          	li	a5,19
    35e4:	2307ce63          	blt	a5,a6,3820 <move_piece+0x44c>
    35e8:	00281793          	slli	a5,a6,0x2
    35ec:	01078733          	add	a4,a5,a6
    35f0:	00171713          	slli	a4,a4,0x1
    35f4:	00e58733          	add	a4,a1,a4
    35f8:	00d70733          	add	a4,a4,a3
    35fc:	00074703          	lbu	a4,0(a4)
    3600:	22071063          	bnez	a4,3820 <move_piece+0x44c>
    3604:	0dc5a703          	lw	a4,220(a1)
    3608:	00168893          	addi	a7,a3,1
    360c:	ee0714e3          	bnez	a4,34f4 <move_piece+0x120>
    3610:	0e05a703          	lw	a4,224(a1)
    3614:	1e071863          	bnez	a4,3804 <move_piece+0x430>
    3618:	0e45a703          	lw	a4,228(a1)
    361c:	02070063          	beqz	a4,363c <move_piece+0x268>
    3620:	010787b3          	add	a5,a5,a6
    3624:	00179793          	slli	a5,a5,0x1
    3628:	00368713          	addi	a4,a3,3
    362c:	00f587b3          	add	a5,a1,a5
    3630:	00e787b3          	add	a5,a5,a4
    3634:	0007c783          	lbu	a5,0(a5)
    3638:	1e079463          	bnez	a5,3820 <move_piece+0x44c>
    363c:	0e85a783          	lw	a5,232(a1)
    3640:	20078663          	beqz	a5,384c <move_piece+0x478>
    3644:	00260813          	addi	a6,a2,2
    3648:	01300793          	li	a5,19
    364c:	1d07ca63          	blt	a5,a6,3820 <move_piece+0x44c>
    3650:	00281793          	slli	a5,a6,0x2
    3654:	01078733          	add	a4,a5,a6
    3658:	00171713          	slli	a4,a4,0x1
    365c:	00e58733          	add	a4,a1,a4
    3660:	00d70733          	add	a4,a4,a3
    3664:	00074703          	lbu	a4,0(a4)
    3668:	1a071c63          	bnez	a4,3820 <move_piece+0x44c>
    366c:	0ec5a703          	lw	a4,236(a1)
    3670:	00168893          	addi	a7,a3,1
    3674:	1e071a63          	bnez	a4,3868 <move_piece+0x494>
    3678:	0f05a703          	lw	a4,240(a1)
    367c:	02070063          	beqz	a4,369c <move_piece+0x2c8>
    3680:	01078733          	add	a4,a5,a6
    3684:	00171713          	slli	a4,a4,0x1
    3688:	00268893          	addi	a7,a3,2
    368c:	00e58733          	add	a4,a1,a4
    3690:	01170733          	add	a4,a4,a7
    3694:	00074703          	lbu	a4,0(a4)
    3698:	18071463          	bnez	a4,3820 <move_piece+0x44c>
    369c:	0f45a703          	lw	a4,244(a1)
    36a0:	02070063          	beqz	a4,36c0 <move_piece+0x2ec>
    36a4:	010787b3          	add	a5,a5,a6
    36a8:	00179793          	slli	a5,a5,0x1
    36ac:	00368713          	addi	a4,a3,3
    36b0:	00f587b3          	add	a5,a1,a5
    36b4:	00e787b3          	add	a5,a5,a4
    36b8:	0007c783          	lbu	a5,0(a5)
    36bc:	16079263          	bnez	a5,3820 <move_piece+0x44c>
    36c0:	0f85a783          	lw	a5,248(a1)
    36c4:	1e078063          	beqz	a5,38a4 <move_piece+0x4d0>
    36c8:	00360813          	addi	a6,a2,3
    36cc:	01300793          	li	a5,19
    36d0:	1507c863          	blt	a5,a6,3820 <move_piece+0x44c>
    36d4:	00281793          	slli	a5,a6,0x2
    36d8:	01078733          	add	a4,a5,a6
    36dc:	00171713          	slli	a4,a4,0x1
    36e0:	00e58733          	add	a4,a1,a4
    36e4:	00d70733          	add	a4,a4,a3
    36e8:	00074703          	lbu	a4,0(a4)
    36ec:	12071a63          	bnez	a4,3820 <move_piece+0x44c>
    36f0:	0fc5a703          	lw	a4,252(a1)
    36f4:	00168893          	addi	a7,a3,1
    36f8:	2c070263          	beqz	a4,39bc <move_piece+0x5e8>
    36fc:	01078733          	add	a4,a5,a6
    3700:	00171713          	slli	a4,a4,0x1
    3704:	00e58733          	add	a4,a1,a4
    3708:	01170733          	add	a4,a4,a7
    370c:	00074703          	lbu	a4,0(a4)
    3710:	10071863          	bnez	a4,3820 <move_piece+0x44c>
    3714:	1005a703          	lw	a4,256(a1)
    3718:	10070c63          	beqz	a4,3830 <move_piece+0x45c>
    371c:	01078733          	add	a4,a5,a6
    3720:	00171713          	slli	a4,a4,0x1
    3724:	00268893          	addi	a7,a3,2
    3728:	00e58733          	add	a4,a1,a4
    372c:	01170733          	add	a4,a4,a7
    3730:	00074703          	lbu	a4,0(a4)
    3734:	0e071663          	bnez	a4,3820 <move_piece+0x44c>
    3738:	1045a703          	lw	a4,260(a1)
    373c:	02070063          	beqz	a4,375c <move_piece+0x388>
    3740:	010787b3          	add	a5,a5,a6
    3744:	00179793          	slli	a5,a5,0x1
    3748:	00368713          	addi	a4,a3,3
    374c:	00f587b3          	add	a5,a1,a5
    3750:	00e787b3          	add	a5,a5,a4
    3754:	0007c783          	lbu	a5,0(a5)
    3758:	0c079463          	bnez	a5,3820 <move_piece+0x44c>
    375c:	1085a783          	lw	a5,264(a1)
    3760:	16078463          	beqz	a5,38c8 <move_piece+0x4f4>
    3764:	00460813          	addi	a6,a2,4
    3768:	01300793          	li	a5,19
    376c:	0b07ca63          	blt	a5,a6,3820 <move_piece+0x44c>
    3770:	00281793          	slli	a5,a6,0x2
    3774:	01078733          	add	a4,a5,a6
    3778:	00171713          	slli	a4,a4,0x1
    377c:	00e58733          	add	a4,a1,a4
    3780:	00d70733          	add	a4,a4,a3
    3784:	00074703          	lbu	a4,0(a4)
    3788:	08071c63          	bnez	a4,3820 <move_piece+0x44c>
    378c:	10c5a703          	lw	a4,268(a1)
    3790:	28071663          	bnez	a4,3a1c <move_piece+0x648>
    3794:	1105a703          	lw	a4,272(a1)
    3798:	14071863          	bnez	a4,38e8 <move_piece+0x514>
    379c:	1145a703          	lw	a4,276(a1)
    37a0:	18070263          	beqz	a4,3924 <move_piece+0x550>
    37a4:	00368693          	addi	a3,a3,3
    37a8:	1640006f          	j	390c <move_piece+0x538>
    37ac:	03452683          	lw	a3,52(a0)
    37b0:	03852703          	lw	a4,56(a0)
    37b4:	03c52783          	lw	a5,60(a0)
    37b8:	00100413          	li	s0,1
    37bc:	00242613          	slti	a2,s0,2
    37c0:	d8060ce3          	beqz	a2,3558 <move_piece+0x184>
    37c4:	d8068ae3          	beqz	a3,3558 <move_piece+0x184>
    37c8:	d8071ee3          	bnez	a4,3564 <move_piece+0x190>
    37cc:	ce0792e3          	bnez	a5,34b0 <move_piece+0xdc>
    37d0:	04852703          	lw	a4,72(a0)
    37d4:	04c52783          	lw	a5,76(a0)
    37d8:	00200413          	li	s0,2
    37dc:	00342693          	slti	a3,s0,3
    37e0:	cc068ce3          	beqz	a3,34b8 <move_piece+0xe4>
    37e4:	dc071ce3          	bnez	a4,35bc <move_piece+0x1e8>
    37e8:	cd1ff06f          	j	34b8 <move_piece+0xe4>
    37ec:	0e05a783          	lw	a5,224(a1)
    37f0:	d20782e3          	beqz	a5,3514 <move_piece+0x140>
    37f4:	00160813          	addi	a6,a2,1
    37f8:	01300793          	li	a5,19
    37fc:	0307c263          	blt	a5,a6,3820 <move_piece+0x44c>
    3800:	00281793          	slli	a5,a6,0x2
    3804:	01078733          	add	a4,a5,a6
    3808:	00171713          	slli	a4,a4,0x1
    380c:	00268893          	addi	a7,a3,2
    3810:	00e58733          	add	a4,a1,a4
    3814:	01170733          	add	a4,a4,a7
    3818:	00074703          	lbu	a4,0(a4)
    381c:	de070ee3          	beqz	a4,3618 <move_piece+0x244>
    3820:	04c12083          	lw	ra,76(sp)
    3824:	04812403          	lw	s0,72(sp)
    3828:	05010113          	addi	sp,sp,80
    382c:	00008067          	ret
    3830:	1045a783          	lw	a5,260(a1)
    3834:	f20784e3          	beqz	a5,375c <move_piece+0x388>
    3838:	00360813          	addi	a6,a2,3
    383c:	01300793          	li	a5,19
    3840:	ff07c0e3          	blt	a5,a6,3820 <move_piece+0x44c>
    3844:	00281793          	slli	a5,a6,0x2
    3848:	ef9ff06f          	j	3740 <move_piece+0x36c>
    384c:	0ec5a783          	lw	a5,236(a1)
    3850:	12078c63          	beqz	a5,3988 <move_piece+0x5b4>
    3854:	00260813          	addi	a6,a2,2
    3858:	01300793          	li	a5,19
    385c:	fd07c2e3          	blt	a5,a6,3820 <move_piece+0x44c>
    3860:	00168893          	addi	a7,a3,1
    3864:	00281793          	slli	a5,a6,0x2
    3868:	01078733          	add	a4,a5,a6
    386c:	00171713          	slli	a4,a4,0x1
    3870:	00e58733          	add	a4,a1,a4
    3874:	01170733          	add	a4,a4,a7
    3878:	00074703          	lbu	a4,0(a4)
    387c:	fa0712e3          	bnez	a4,3820 <move_piece+0x44c>
    3880:	0f05a703          	lw	a4,240(a1)
    3884:	de071ee3          	bnez	a4,3680 <move_piece+0x2ac>
    3888:	0f45a783          	lw	a5,244(a1)
    388c:	e2078ae3          	beqz	a5,36c0 <move_piece+0x2ec>
    3890:	00260813          	addi	a6,a2,2
    3894:	01300793          	li	a5,19
    3898:	f907c4e3          	blt	a5,a6,3820 <move_piece+0x44c>
    389c:	00281793          	slli	a5,a6,0x2
    38a0:	e05ff06f          	j	36a4 <move_piece+0x2d0>
    38a4:	0fc5a783          	lw	a5,252(a1)
    38a8:	0e079e63          	bnez	a5,39a4 <move_piece+0x5d0>
    38ac:	1005a783          	lw	a5,256(a1)
    38b0:	f80780e3          	beqz	a5,3830 <move_piece+0x45c>
    38b4:	00360813          	addi	a6,a2,3
    38b8:	01300793          	li	a5,19
    38bc:	f707c2e3          	blt	a5,a6,3820 <move_piece+0x44c>
    38c0:	00281793          	slli	a5,a6,0x2
    38c4:	e59ff06f          	j	371c <move_piece+0x348>
    38c8:	10c5a783          	lw	a5,268(a1)
    38cc:	0e079e63          	bnez	a5,39c8 <move_piece+0x5f4>
    38d0:	1105a783          	lw	a5,272(a1)
    38d4:	12078463          	beqz	a5,39fc <move_piece+0x628>
    38d8:	00460813          	addi	a6,a2,4
    38dc:	01300793          	li	a5,19
    38e0:	f507c0e3          	blt	a5,a6,3820 <move_piece+0x44c>
    38e4:	00281793          	slli	a5,a6,0x2
    38e8:	01078733          	add	a4,a5,a6
    38ec:	00171713          	slli	a4,a4,0x1
    38f0:	00e58733          	add	a4,a1,a4
    38f4:	00d70733          	add	a4,a4,a3
    38f8:	00274703          	lbu	a4,2(a4)
    38fc:	f20712e3          	bnez	a4,3820 <move_piece+0x44c>
    3900:	1145a703          	lw	a4,276(a1)
    3904:	00368693          	addi	a3,a3,3
    3908:	00070e63          	beqz	a4,3924 <move_piece+0x550>
    390c:	010787b3          	add	a5,a5,a6
    3910:	00179793          	slli	a5,a5,0x1
    3914:	00f587b3          	add	a5,a1,a5
    3918:	00d787b3          	add	a5,a5,a3
    391c:	0007c783          	lbu	a5,0(a5)
    3920:	f00790e3          	bnez	a5,3820 <move_piece+0x44c>
    3924:	040007b7          	lui	a5,0x4000
    3928:	04912223          	sw	s1,68(sp)
    392c:	0e07a483          	lw	s1,224(a5) # 40000e0 <_stack_end+0x3ef3724>
    3930:	03712623          	sw	s7,44(sp)
    3934:	0014f493          	andi	s1,s1,1
    3938:	5a049663          	bnez	s1,3ee4 <move_piece+0xb10>
    393c:	040007b7          	lui	a5,0x4000
    3940:	0e078793          	addi	a5,a5,224 # 40000e0 <_stack_end+0x3ef3724>
    3944:	0007a783          	lw	a5,0(a5)
    3948:	0027f793          	andi	a5,a5,2
    394c:	0e079463          	bnez	a5,3a34 <move_piece+0x660>
    3950:	01c12f03          	lw	t5,28(sp)
    3954:	001f7b93          	andi	s7,t5,1
    3958:	240b9263          	bnez	s7,3b9c <move_piece+0x7c8>
    395c:	04c12083          	lw	ra,76(sp)
    3960:	04812403          	lw	s0,72(sp)
    3964:	04412483          	lw	s1,68(sp)
    3968:	02c12b83          	lw	s7,44(sp)
    396c:	05010113          	addi	sp,sp,80
    3970:	00008067          	ret
    3974:	02c52783          	lw	a5,44(a0)
    3978:	00300413          	li	s0,3
    397c:	b00606e3          	beqz	a2,3488 <move_piece+0xb4>
    3980:	00400413          	li	s0,4
    3984:	b05ff06f          	j	3488 <move_piece+0xb4>
    3988:	0f05a783          	lw	a5,240(a1)
    398c:	ee078ee3          	beqz	a5,3888 <move_piece+0x4b4>
    3990:	00260813          	addi	a6,a2,2
    3994:	01300793          	li	a5,19
    3998:	e907c4e3          	blt	a5,a6,3820 <move_piece+0x44c>
    399c:	00281793          	slli	a5,a6,0x2
    39a0:	ce1ff06f          	j	3680 <move_piece+0x2ac>
    39a4:	00360813          	addi	a6,a2,3
    39a8:	01300793          	li	a5,19
    39ac:	e707cae3          	blt	a5,a6,3820 <move_piece+0x44c>
    39b0:	00168893          	addi	a7,a3,1
    39b4:	00281793          	slli	a5,a6,0x2
    39b8:	d45ff06f          	j	36fc <move_piece+0x328>
    39bc:	1005a703          	lw	a4,256(a1)
    39c0:	d4071ee3          	bnez	a4,371c <move_piece+0x348>
    39c4:	d75ff06f          	j	3738 <move_piece+0x364>
    39c8:	00460813          	addi	a6,a2,4
    39cc:	01300793          	li	a5,19
    39d0:	e507c8e3          	blt	a5,a6,3820 <move_piece+0x44c>
    39d4:	00168893          	addi	a7,a3,1
    39d8:	00281793          	slli	a5,a6,0x2
    39dc:	01078733          	add	a4,a5,a6
    39e0:	00171713          	slli	a4,a4,0x1
    39e4:	00e58733          	add	a4,a1,a4
    39e8:	01170733          	add	a4,a4,a7
    39ec:	00074703          	lbu	a4,0(a4)
    39f0:	e20718e3          	bnez	a4,3820 <move_piece+0x44c>
    39f4:	1105a703          	lw	a4,272(a1)
    39f8:	ee0718e3          	bnez	a4,38e8 <move_piece+0x514>
    39fc:	1145a783          	lw	a5,276(a1)
    3a00:	f20782e3          	beqz	a5,3924 <move_piece+0x550>
    3a04:	00460813          	addi	a6,a2,4
    3a08:	01300793          	li	a5,19
    3a0c:	e107cae3          	blt	a5,a6,3820 <move_piece+0x44c>
    3a10:	00281793          	slli	a5,a6,0x2
    3a14:	00368693          	addi	a3,a3,3
    3a18:	ef5ff06f          	j	390c <move_piece+0x538>
    3a1c:	00168893          	addi	a7,a3,1
    3a20:	fbdff06f          	j	39dc <move_piece+0x608>
    3a24:	00f037b3          	snez	a5,a5
    3a28:	00179413          	slli	s0,a5,0x1
    3a2c:	00240413          	addi	s0,s0,2
    3a30:	b95ff06f          	j	35c4 <move_piece+0x1f0>
    3a34:	00a12623          	sw	a0,12(sp)
    3a38:	05212023          	sw	s2,64(sp)
    3a3c:	03312e23          	sw	s3,60(sp)
    3a40:	03412c23          	sw	s4,56(sp)
    3a44:	03512a23          	sw	s5,52(sp)
    3a48:	03612823          	sw	s6,48(sp)
    3a4c:	b35fc0ef          	jal	580 <update_shape.constprop.0>
    3a50:	00c12503          	lw	a0,12(sp)
    3a54:	00900713          	li	a4,9
    3a58:	00452783          	lw	a5,4(a0)
    3a5c:	00878433          	add	s0,a5,s0
    3a60:	00874663          	blt	a4,s0,3a6c <move_piece+0x698>
    3a64:	00178793          	addi	a5,a5,1
    3a68:	00f52223          	sw	a5,4(a0)
    3a6c:	00000f93          	li	t6,0
    3a70:	00007737          	lui	a4,0x7
    3a74:	01200693          	li	a3,18
    3a78:	08100f13          	li	t5,129
    3a7c:	00800393          	li	t2,8
    3a80:	00400293          	li	t0,4
    3a84:	004f9e93          	slli	t4,t6,0x4
    3a88:	01d50eb3          	add	t4,a0,t4
    3a8c:	00000e13          	li	t3,0
    3a90:	010ea783          	lw	a5,16(t4)
    3a94:	0c078a63          	beqz	a5,3b68 <move_piece+0x794>
    3a98:	00852783          	lw	a5,8(a0)
    3a9c:	00452603          	lw	a2,4(a0)
    3aa0:	00ff87b3          	add	a5,t6,a5
    3aa4:	0147b813          	sltiu	a6,a5,20
    3aa8:	00ce0633          	add	a2,t3,a2
    3aac:	0a080e63          	beqz	a6,3b68 <move_piece+0x794>
    3ab0:	00a63813          	sltiu	a6,a2,10
    3ab4:	0a080a63          	beqz	a6,3b68 <move_piece+0x794>
    3ab8:	00578793          	addi	a5,a5,5
    3abc:	00279813          	slli	a6,a5,0x2
    3ac0:	00f807b3          	add	a5,a6,a5
    3ac4:	00f60613          	addi	a2,a2,15
    3ac8:	00679793          	slli	a5,a5,0x6
    3acc:	00c787b3          	add	a5,a5,a2
    3ad0:	00c54403          	lbu	s0,12(a0)
    3ad4:	00379793          	slli	a5,a5,0x3
    3ad8:	00678313          	addi	t1,a5,6
    3adc:	00000893          	li	a7,0
    3ae0:	95c72803          	lw	a6,-1700(a4) # 695c <VGA>
    3ae4:	011f5633          	srl	a2,t5,a7
    3ae8:	00167613          	andi	a2,a2,1
    3aec:	00f80833          	add	a6,a6,a5
    3af0:	00d80023          	sb	a3,0(a6)
    3af4:	95c72803          	lw	a6,-1700(a4)
    3af8:	00178b13          	addi	s6,a5,1
    3afc:	00278a93          	addi	s5,a5,2
    3b00:	00378a13          	addi	s4,a5,3
    3b04:	00478913          	addi	s2,a5,4
    3b08:	00578493          	addi	s1,a5,5
    3b0c:	36060a63          	beqz	a2,3e80 <move_piece+0xaac>
    3b10:	01680833          	add	a6,a6,s6
    3b14:	00d80023          	sb	a3,0(a6)
    3b18:	95c72603          	lw	a2,-1700(a4)
    3b1c:	00778993          	addi	s3,a5,7
    3b20:	01560633          	add	a2,a2,s5
    3b24:	00d60023          	sb	a3,0(a2)
    3b28:	95c72603          	lw	a2,-1700(a4)
    3b2c:	01460633          	add	a2,a2,s4
    3b30:	00d60023          	sb	a3,0(a2)
    3b34:	95c72603          	lw	a2,-1700(a4)
    3b38:	01260633          	add	a2,a2,s2
    3b3c:	00d60023          	sb	a3,0(a2)
    3b40:	95c72603          	lw	a2,-1700(a4)
    3b44:	00960633          	add	a2,a2,s1
    3b48:	00d60023          	sb	a3,0(a2)
    3b4c:	95c72603          	lw	a2,-1700(a4)
    3b50:	30088663          	beqz	a7,3e5c <move_piece+0xa88>
    3b54:	00660633          	add	a2,a2,t1
    3b58:	00d60023          	sb	a3,0(a2)
    3b5c:	95c72603          	lw	a2,-1700(a4)
    3b60:	00f607b3          	add	a5,a2,a5
    3b64:	00d783a3          	sb	a3,7(a5)
    3b68:	001e0e13          	addi	t3,t3,1
    3b6c:	004e8e93          	addi	t4,t4,4
    3b70:	f25e10e3          	bne	t3,t0,3a90 <move_piece+0x6bc>
    3b74:	001f8f93          	addi	t6,t6,1
    3b78:	f05f96e3          	bne	t6,t0,3a84 <move_piece+0x6b0>
    3b7c:	01c12f03          	lw	t5,28(sp)
    3b80:	04012903          	lw	s2,64(sp)
    3b84:	03c12983          	lw	s3,60(sp)
    3b88:	001f7b93          	andi	s7,t5,1
    3b8c:	03812a03          	lw	s4,56(sp)
    3b90:	03412a83          	lw	s5,52(sp)
    3b94:	03012b03          	lw	s6,48(sp)
    3b98:	dc0b82e3          	beqz	s7,395c <move_piece+0x588>
    3b9c:	00a12623          	sw	a0,12(sp)
    3ba0:	05212023          	sw	s2,64(sp)
    3ba4:	03312e23          	sw	s3,60(sp)
    3ba8:	03412c23          	sw	s4,56(sp)
    3bac:	03512a23          	sw	s5,52(sp)
    3bb0:	03612823          	sw	s6,48(sp)
    3bb4:	9cdfc0ef          	jal	580 <update_shape.constprop.0>
    3bb8:	00c12503          	lw	a0,12(sp)
    3bbc:	000077b7          	lui	a5,0x7
    3bc0:	01300813          	li	a6,19
    3bc4:	01052883          	lw	a7,16(a0)
    3bc8:	00852603          	lw	a2,8(a0)
    3bcc:	96078593          	addi	a1,a5,-1696 # 6960 <grid>
    3bd0:	26088663          	beqz	a7,3e3c <move_piece+0xa68>
    3bd4:	00160713          	addi	a4,a2,1
    3bd8:	64e84463          	blt	a6,a4,4220 <move_piece+0xe4c>
    3bdc:	00271313          	slli	t1,a4,0x2
    3be0:	00452783          	lw	a5,4(a0)
    3be4:	00e306b3          	add	a3,t1,a4
    3be8:	00169693          	slli	a3,a3,0x1
    3bec:	00d586b3          	add	a3,a1,a3
    3bf0:	00f686b3          	add	a3,a3,a5
    3bf4:	0006c683          	lbu	a3,0(a3)
    3bf8:	62069463          	bnez	a3,4220 <move_piece+0xe4c>
    3bfc:	01452683          	lw	a3,20(a0)
    3c00:	00178e13          	addi	t3,a5,1
    3c04:	00068e63          	beqz	a3,3c20 <move_piece+0x84c>
    3c08:	00e306b3          	add	a3,t1,a4
    3c0c:	00169693          	slli	a3,a3,0x1
    3c10:	00d586b3          	add	a3,a1,a3
    3c14:	01c686b3          	add	a3,a3,t3
    3c18:	0006c683          	lbu	a3,0(a3)
    3c1c:	60069263          	bnez	a3,4220 <move_piece+0xe4c>
    3c20:	01852683          	lw	a3,24(a0)
    3c24:	4a068463          	beqz	a3,40cc <move_piece+0xcf8>
    3c28:	00e306b3          	add	a3,t1,a4
    3c2c:	00169693          	slli	a3,a3,0x1
    3c30:	00278e13          	addi	t3,a5,2
    3c34:	00d586b3          	add	a3,a1,a3
    3c38:	01c686b3          	add	a3,a3,t3
    3c3c:	0006c683          	lbu	a3,0(a3)
    3c40:	5e069063          	bnez	a3,4220 <move_piece+0xe4c>
    3c44:	01c52683          	lw	a3,28(a0)
    3c48:	00378793          	addi	a5,a5,3
    3c4c:	00068e63          	beqz	a3,3c68 <move_piece+0x894>
    3c50:	00e30733          	add	a4,t1,a4
    3c54:	00171713          	slli	a4,a4,0x1
    3c58:	00e58733          	add	a4,a1,a4
    3c5c:	00f70733          	add	a4,a4,a5
    3c60:	00074783          	lbu	a5,0(a4)
    3c64:	5a079e63          	bnez	a5,4220 <move_piece+0xe4c>
    3c68:	02052783          	lw	a5,32(a0)
    3c6c:	48078063          	beqz	a5,40ec <move_piece+0xd18>
    3c70:	00260713          	addi	a4,a2,2
    3c74:	5ae84663          	blt	a6,a4,4220 <move_piece+0xe4c>
    3c78:	00271313          	slli	t1,a4,0x2
    3c7c:	00452783          	lw	a5,4(a0)
    3c80:	00e306b3          	add	a3,t1,a4
    3c84:	00169693          	slli	a3,a3,0x1
    3c88:	00d586b3          	add	a3,a1,a3
    3c8c:	00f686b3          	add	a3,a3,a5
    3c90:	0006c683          	lbu	a3,0(a3)
    3c94:	58069663          	bnez	a3,4220 <move_piece+0xe4c>
    3c98:	02452683          	lw	a3,36(a0)
    3c9c:	00178e13          	addi	t3,a5,1
    3ca0:	00068e63          	beqz	a3,3cbc <move_piece+0x8e8>
    3ca4:	00e306b3          	add	a3,t1,a4
    3ca8:	00169693          	slli	a3,a3,0x1
    3cac:	00d586b3          	add	a3,a1,a3
    3cb0:	01c686b3          	add	a3,a3,t3
    3cb4:	0006c683          	lbu	a3,0(a3)
    3cb8:	56069463          	bnez	a3,4220 <move_piece+0xe4c>
    3cbc:	02852683          	lw	a3,40(a0)
    3cc0:	44068663          	beqz	a3,410c <move_piece+0xd38>
    3cc4:	00e306b3          	add	a3,t1,a4
    3cc8:	00169693          	slli	a3,a3,0x1
    3ccc:	00278e13          	addi	t3,a5,2
    3cd0:	00d586b3          	add	a3,a1,a3
    3cd4:	01c686b3          	add	a3,a3,t3
    3cd8:	0006c683          	lbu	a3,0(a3)
    3cdc:	54069263          	bnez	a3,4220 <move_piece+0xe4c>
    3ce0:	02c52683          	lw	a3,44(a0)
    3ce4:	02068063          	beqz	a3,3d04 <move_piece+0x930>
    3ce8:	00378693          	addi	a3,a5,3
    3cec:	00e307b3          	add	a5,t1,a4
    3cf0:	00179793          	slli	a5,a5,0x1
    3cf4:	00f587b3          	add	a5,a1,a5
    3cf8:	00d787b3          	add	a5,a5,a3
    3cfc:	0007c783          	lbu	a5,0(a5)
    3d00:	52079063          	bnez	a5,4220 <move_piece+0xe4c>
    3d04:	03052783          	lw	a5,48(a0)
    3d08:	42078263          	beqz	a5,412c <move_piece+0xd58>
    3d0c:	00360713          	addi	a4,a2,3
    3d10:	50e84863          	blt	a6,a4,4220 <move_piece+0xe4c>
    3d14:	00271313          	slli	t1,a4,0x2
    3d18:	00452783          	lw	a5,4(a0)
    3d1c:	00e306b3          	add	a3,t1,a4
    3d20:	00169693          	slli	a3,a3,0x1
    3d24:	00d586b3          	add	a3,a1,a3
    3d28:	00f686b3          	add	a3,a3,a5
    3d2c:	0006c683          	lbu	a3,0(a3)
    3d30:	4e069863          	bnez	a3,4220 <move_piece+0xe4c>
    3d34:	03452683          	lw	a3,52(a0)
    3d38:	00178e13          	addi	t3,a5,1
    3d3c:	00068e63          	beqz	a3,3d58 <move_piece+0x984>
    3d40:	00e306b3          	add	a3,t1,a4
    3d44:	00169693          	slli	a3,a3,0x1
    3d48:	00d586b3          	add	a3,a1,a3
    3d4c:	01c686b3          	add	a3,a3,t3
    3d50:	0006c683          	lbu	a3,0(a3)
    3d54:	4c069663          	bnez	a3,4220 <move_piece+0xe4c>
    3d58:	03852683          	lw	a3,56(a0)
    3d5c:	3e068863          	beqz	a3,414c <move_piece+0xd78>
    3d60:	00e306b3          	add	a3,t1,a4
    3d64:	00169693          	slli	a3,a3,0x1
    3d68:	00278e13          	addi	t3,a5,2
    3d6c:	00d586b3          	add	a3,a1,a3
    3d70:	01c686b3          	add	a3,a3,t3
    3d74:	0006c683          	lbu	a3,0(a3)
    3d78:	4a069463          	bnez	a3,4220 <move_piece+0xe4c>
    3d7c:	03c52683          	lw	a3,60(a0)
    3d80:	02068063          	beqz	a3,3da0 <move_piece+0x9cc>
    3d84:	00378693          	addi	a3,a5,3
    3d88:	00e307b3          	add	a5,t1,a4
    3d8c:	00179793          	slli	a5,a5,0x1
    3d90:	00f587b3          	add	a5,a1,a5
    3d94:	00d787b3          	add	a5,a5,a3
    3d98:	0007c783          	lbu	a5,0(a5)
    3d9c:	48079263          	bnez	a5,4220 <move_piece+0xe4c>
    3da0:	04052783          	lw	a5,64(a0)
    3da4:	3c078463          	beqz	a5,416c <move_piece+0xd98>
    3da8:	00460713          	addi	a4,a2,4
    3dac:	46e84a63          	blt	a6,a4,4220 <move_piece+0xe4c>
    3db0:	00271313          	slli	t1,a4,0x2
    3db4:	00452783          	lw	a5,4(a0)
    3db8:	00e306b3          	add	a3,t1,a4
    3dbc:	00169693          	slli	a3,a3,0x1
    3dc0:	00d586b3          	add	a3,a1,a3
    3dc4:	00f686b3          	add	a3,a3,a5
    3dc8:	0006c683          	lbu	a3,0(a3)
    3dcc:	44069a63          	bnez	a3,4220 <move_piece+0xe4c>
    3dd0:	04452683          	lw	a3,68(a0)
    3dd4:	00068e63          	beqz	a3,3df0 <move_piece+0xa1c>
    3dd8:	00e306b3          	add	a3,t1,a4
    3ddc:	00169693          	slli	a3,a3,0x1
    3de0:	00d586b3          	add	a3,a1,a3
    3de4:	00f686b3          	add	a3,a3,a5
    3de8:	0016c683          	lbu	a3,1(a3)
    3dec:	42069a63          	bnez	a3,4220 <move_piece+0xe4c>
    3df0:	04852683          	lw	a3,72(a0)
    3df4:	38068a63          	beqz	a3,4188 <move_piece+0xdb4>
    3df8:	00e306b3          	add	a3,t1,a4
    3dfc:	00169693          	slli	a3,a3,0x1
    3e00:	00d586b3          	add	a3,a1,a3
    3e04:	00f686b3          	add	a3,a3,a5
    3e08:	0026c683          	lbu	a3,2(a3)
    3e0c:	40069a63          	bnez	a3,4220 <move_piece+0xe4c>
    3e10:	04c52683          	lw	a3,76(a0)
    3e14:	00068e63          	beqz	a3,3e30 <move_piece+0xa5c>
    3e18:	00e30733          	add	a4,t1,a4
    3e1c:	00171713          	slli	a4,a4,0x1
    3e20:	00e58733          	add	a4,a1,a4
    3e24:	00f707b3          	add	a5,a4,a5
    3e28:	0037c783          	lbu	a5,3(a5)
    3e2c:	3e079a63          	bnez	a5,4220 <move_piece+0xe4c>
    3e30:	00160613          	addi	a2,a2,1
    3e34:	00c52423          	sw	a2,8(a0)
    3e38:	d8089ee3          	bnez	a7,3bd4 <move_piece+0x800>
    3e3c:	01452783          	lw	a5,20(a0)
    3e40:	36078263          	beqz	a5,41a4 <move_piece+0xdd0>
    3e44:	00160713          	addi	a4,a2,1
    3e48:	3ce84c63          	blt	a6,a4,4220 <move_piece+0xe4c>
    3e4c:	00452783          	lw	a5,4(a0)
    3e50:	00271313          	slli	t1,a4,0x2
    3e54:	00178e13          	addi	t3,a5,1
    3e58:	db1ff06f          	j	3c08 <move_piece+0x834>
    3e5c:	00660633          	add	a2,a2,t1
    3e60:	00d60023          	sb	a3,0(a2)
    3e64:	95c72603          	lw	a2,-1700(a4)
    3e68:	14078793          	addi	a5,a5,320
    3e6c:	14030313          	addi	t1,t1,320
    3e70:	01360633          	add	a2,a2,s3
    3e74:	00100893          	li	a7,1
    3e78:	00d60023          	sb	a3,0(a2)
    3e7c:	c65ff06f          	j	3ae0 <move_piece+0x70c>
    3e80:	00f80833          	add	a6,a6,a5
    3e84:	008800a3          	sb	s0,1(a6)
    3e88:	95c72603          	lw	a2,-1700(a4)
    3e8c:	00188893          	addi	a7,a7,1
    3e90:	00f60633          	add	a2,a2,a5
    3e94:	00860123          	sb	s0,2(a2)
    3e98:	95c72603          	lw	a2,-1700(a4)
    3e9c:	00f60633          	add	a2,a2,a5
    3ea0:	008601a3          	sb	s0,3(a2)
    3ea4:	95c72603          	lw	a2,-1700(a4)
    3ea8:	00f60633          	add	a2,a2,a5
    3eac:	00860223          	sb	s0,4(a2)
    3eb0:	95c72603          	lw	a2,-1700(a4)
    3eb4:	00f60633          	add	a2,a2,a5
    3eb8:	008602a3          	sb	s0,5(a2)
    3ebc:	95c72603          	lw	a2,-1700(a4)
    3ec0:	00660633          	add	a2,a2,t1
    3ec4:	00860023          	sb	s0,0(a2)
    3ec8:	95c72603          	lw	a2,-1700(a4)
    3ecc:	14030313          	addi	t1,t1,320
    3ed0:	00f60633          	add	a2,a2,a5
    3ed4:	00d603a3          	sb	a3,7(a2)
    3ed8:	14078793          	addi	a5,a5,320
    3edc:	c07892e3          	bne	a7,t2,3ae0 <move_piece+0x70c>
    3ee0:	c89ff06f          	j	3b68 <move_piece+0x794>
    3ee4:	00a12623          	sw	a0,12(sp)
    3ee8:	05212023          	sw	s2,64(sp)
    3eec:	03312e23          	sw	s3,60(sp)
    3ef0:	03412c23          	sw	s4,56(sp)
    3ef4:	03512a23          	sw	s5,52(sp)
    3ef8:	03612823          	sw	s6,48(sp)
    3efc:	03812423          	sw	s8,40(sp)
    3f00:	e80fc0ef          	jal	580 <update_shape.constprop.0>
    3f04:	00c12503          	lw	a0,12(sp)
    3f08:	00452783          	lw	a5,4(a0)
    3f0c:	00f05663          	blez	a5,3f18 <move_piece+0xb44>
    3f10:	fff78793          	addi	a5,a5,-1
    3f14:	00f52223          	sw	a5,4(a0)
    3f18:	00000f93          	li	t6,0
    3f1c:	00007737          	lui	a4,0x7
    3f20:	01200693          	li	a3,18
    3f24:	08100f13          	li	t5,129
    3f28:	00800393          	li	t2,8
    3f2c:	00400293          	li	t0,4
    3f30:	004f9e93          	slli	t4,t6,0x4
    3f34:	01d50eb3          	add	t4,a0,t4
    3f38:	00000e13          	li	t3,0
    3f3c:	010ea783          	lw	a5,16(t4)
    3f40:	0c078a63          	beqz	a5,4014 <move_piece+0xc40>
    3f44:	00852783          	lw	a5,8(a0)
    3f48:	00452603          	lw	a2,4(a0)
    3f4c:	00ff87b3          	add	a5,t6,a5
    3f50:	0147b813          	sltiu	a6,a5,20
    3f54:	00ce0633          	add	a2,t3,a2
    3f58:	0a080e63          	beqz	a6,4014 <move_piece+0xc40>
    3f5c:	00a63813          	sltiu	a6,a2,10
    3f60:	0a080a63          	beqz	a6,4014 <move_piece+0xc40>
    3f64:	00578793          	addi	a5,a5,5
    3f68:	00279813          	slli	a6,a5,0x2
    3f6c:	00f807b3          	add	a5,a6,a5
    3f70:	00f60613          	addi	a2,a2,15
    3f74:	00679793          	slli	a5,a5,0x6
    3f78:	00c787b3          	add	a5,a5,a2
    3f7c:	00c54903          	lbu	s2,12(a0)
    3f80:	00379793          	slli	a5,a5,0x3
    3f84:	00678313          	addi	t1,a5,6
    3f88:	00000893          	li	a7,0
    3f8c:	95c72803          	lw	a6,-1700(a4) # 695c <VGA>
    3f90:	011f5633          	srl	a2,t5,a7
    3f94:	00167613          	andi	a2,a2,1
    3f98:	00f80833          	add	a6,a6,a5
    3f9c:	00d80023          	sb	a3,0(a6)
    3fa0:	95c72803          	lw	a6,-1700(a4)
    3fa4:	00178b93          	addi	s7,a5,1
    3fa8:	00278b13          	addi	s6,a5,2
    3fac:	00378a93          	addi	s5,a5,3
    3fb0:	00478a13          	addi	s4,a5,4
    3fb4:	00578993          	addi	s3,a5,5
    3fb8:	0a060863          	beqz	a2,4068 <move_piece+0xc94>
    3fbc:	01780833          	add	a6,a6,s7
    3fc0:	00d80023          	sb	a3,0(a6)
    3fc4:	95c72603          	lw	a2,-1700(a4)
    3fc8:	00778c13          	addi	s8,a5,7
    3fcc:	01660633          	add	a2,a2,s6
    3fd0:	00d60023          	sb	a3,0(a2)
    3fd4:	95c72603          	lw	a2,-1700(a4)
    3fd8:	01560633          	add	a2,a2,s5
    3fdc:	00d60023          	sb	a3,0(a2)
    3fe0:	95c72603          	lw	a2,-1700(a4)
    3fe4:	01460633          	add	a2,a2,s4
    3fe8:	00d60023          	sb	a3,0(a2)
    3fec:	95c72603          	lw	a2,-1700(a4)
    3ff0:	01360633          	add	a2,a2,s3
    3ff4:	00d60023          	sb	a3,0(a2)
    3ff8:	95c72603          	lw	a2,-1700(a4)
    3ffc:	04088463          	beqz	a7,4044 <move_piece+0xc70>
    4000:	00660633          	add	a2,a2,t1
    4004:	00d60023          	sb	a3,0(a2)
    4008:	95c72603          	lw	a2,-1700(a4)
    400c:	00f607b3          	add	a5,a2,a5
    4010:	00d783a3          	sb	a3,7(a5)
    4014:	001e0e13          	addi	t3,t3,1
    4018:	004e8e93          	addi	t4,t4,4
    401c:	f25e10e3          	bne	t3,t0,3f3c <move_piece+0xb68>
    4020:	001f8f93          	addi	t6,t6,1
    4024:	f05f96e3          	bne	t6,t0,3f30 <move_piece+0xb5c>
    4028:	04012903          	lw	s2,64(sp)
    402c:	03c12983          	lw	s3,60(sp)
    4030:	03812a03          	lw	s4,56(sp)
    4034:	03412a83          	lw	s5,52(sp)
    4038:	03012b03          	lw	s6,48(sp)
    403c:	02812c03          	lw	s8,40(sp)
    4040:	8fdff06f          	j	393c <move_piece+0x568>
    4044:	00660633          	add	a2,a2,t1
    4048:	00d60023          	sb	a3,0(a2)
    404c:	95c72603          	lw	a2,-1700(a4)
    4050:	14078793          	addi	a5,a5,320
    4054:	14030313          	addi	t1,t1,320
    4058:	01860633          	add	a2,a2,s8
    405c:	00048893          	mv	a7,s1
    4060:	00d60023          	sb	a3,0(a2)
    4064:	f29ff06f          	j	3f8c <move_piece+0xbb8>
    4068:	00f80833          	add	a6,a6,a5
    406c:	012800a3          	sb	s2,1(a6)
    4070:	95c72603          	lw	a2,-1700(a4)
    4074:	00188893          	addi	a7,a7,1
    4078:	00f60633          	add	a2,a2,a5
    407c:	01260123          	sb	s2,2(a2)
    4080:	95c72603          	lw	a2,-1700(a4)
    4084:	00f60633          	add	a2,a2,a5
    4088:	012601a3          	sb	s2,3(a2)
    408c:	95c72603          	lw	a2,-1700(a4)
    4090:	00f60633          	add	a2,a2,a5
    4094:	01260223          	sb	s2,4(a2)
    4098:	95c72603          	lw	a2,-1700(a4)
    409c:	00f60633          	add	a2,a2,a5
    40a0:	012602a3          	sb	s2,5(a2)
    40a4:	95c72603          	lw	a2,-1700(a4)
    40a8:	00660633          	add	a2,a2,t1
    40ac:	01260023          	sb	s2,0(a2)
    40b0:	95c72603          	lw	a2,-1700(a4)
    40b4:	14030313          	addi	t1,t1,320
    40b8:	00f60633          	add	a2,a2,a5
    40bc:	00d603a3          	sb	a3,7(a2)
    40c0:	14078793          	addi	a5,a5,320
    40c4:	ec7894e3          	bne	a7,t2,3f8c <move_piece+0xbb8>
    40c8:	f4dff06f          	j	4014 <move_piece+0xc40>
    40cc:	01c52783          	lw	a5,28(a0)
    40d0:	b8078ce3          	beqz	a5,3c68 <move_piece+0x894>
    40d4:	00160713          	addi	a4,a2,1
    40d8:	14e84463          	blt	a6,a4,4220 <move_piece+0xe4c>
    40dc:	00452783          	lw	a5,4(a0)
    40e0:	00271313          	slli	t1,a4,0x2
    40e4:	00378793          	addi	a5,a5,3
    40e8:	b69ff06f          	j	3c50 <move_piece+0x87c>
    40ec:	02452783          	lw	a5,36(a0)
    40f0:	0c078863          	beqz	a5,41c0 <move_piece+0xdec>
    40f4:	00260713          	addi	a4,a2,2
    40f8:	12e84463          	blt	a6,a4,4220 <move_piece+0xe4c>
    40fc:	00452783          	lw	a5,4(a0)
    4100:	00271313          	slli	t1,a4,0x2
    4104:	00178e13          	addi	t3,a5,1
    4108:	b9dff06f          	j	3ca4 <move_piece+0x8d0>
    410c:	02c52783          	lw	a5,44(a0)
    4110:	be078ae3          	beqz	a5,3d04 <move_piece+0x930>
    4114:	00260713          	addi	a4,a2,2
    4118:	10e84463          	blt	a6,a4,4220 <move_piece+0xe4c>
    411c:	00452783          	lw	a5,4(a0)
    4120:	00271313          	slli	t1,a4,0x2
    4124:	00378693          	addi	a3,a5,3
    4128:	bc5ff06f          	j	3cec <move_piece+0x918>
    412c:	03452783          	lw	a5,52(a0)
    4130:	0a078863          	beqz	a5,41e0 <move_piece+0xe0c>
    4134:	00360713          	addi	a4,a2,3
    4138:	0ee84463          	blt	a6,a4,4220 <move_piece+0xe4c>
    413c:	00452783          	lw	a5,4(a0)
    4140:	00271313          	slli	t1,a4,0x2
    4144:	00178e13          	addi	t3,a5,1
    4148:	bf9ff06f          	j	3d40 <move_piece+0x96c>
    414c:	03c52783          	lw	a5,60(a0)
    4150:	c40788e3          	beqz	a5,3da0 <move_piece+0x9cc>
    4154:	00360713          	addi	a4,a2,3
    4158:	0ce84463          	blt	a6,a4,4220 <move_piece+0xe4c>
    415c:	00452783          	lw	a5,4(a0)
    4160:	00271313          	slli	t1,a4,0x2
    4164:	00378693          	addi	a3,a5,3
    4168:	c21ff06f          	j	3d88 <move_piece+0x9b4>
    416c:	04452783          	lw	a5,68(a0)
    4170:	08078863          	beqz	a5,4200 <move_piece+0xe2c>
    4174:	00460713          	addi	a4,a2,4
    4178:	0ae84463          	blt	a6,a4,4220 <move_piece+0xe4c>
    417c:	00452783          	lw	a5,4(a0)
    4180:	00271313          	slli	t1,a4,0x2
    4184:	c55ff06f          	j	3dd8 <move_piece+0xa04>
    4188:	04c52783          	lw	a5,76(a0)
    418c:	ca0782e3          	beqz	a5,3e30 <move_piece+0xa5c>
    4190:	00460713          	addi	a4,a2,4
    4194:	08e84663          	blt	a6,a4,4220 <move_piece+0xe4c>
    4198:	00452783          	lw	a5,4(a0)
    419c:	00271313          	slli	t1,a4,0x2
    41a0:	c79ff06f          	j	3e18 <move_piece+0xa44>
    41a4:	01852783          	lw	a5,24(a0)
    41a8:	f20782e3          	beqz	a5,40cc <move_piece+0xcf8>
    41ac:	00160713          	addi	a4,a2,1
    41b0:	06e84863          	blt	a6,a4,4220 <move_piece+0xe4c>
    41b4:	00452783          	lw	a5,4(a0)
    41b8:	00271313          	slli	t1,a4,0x2
    41bc:	a6dff06f          	j	3c28 <move_piece+0x854>
    41c0:	02852783          	lw	a5,40(a0)
    41c4:	f40784e3          	beqz	a5,410c <move_piece+0xd38>
    41c8:	00260713          	addi	a4,a2,2
    41cc:	01300793          	li	a5,19
    41d0:	04e7c863          	blt	a5,a4,4220 <move_piece+0xe4c>
    41d4:	00452783          	lw	a5,4(a0)
    41d8:	00271313          	slli	t1,a4,0x2
    41dc:	ae9ff06f          	j	3cc4 <move_piece+0x8f0>
    41e0:	03852783          	lw	a5,56(a0)
    41e4:	f60784e3          	beqz	a5,414c <move_piece+0xd78>
    41e8:	00360713          	addi	a4,a2,3
    41ec:	01300793          	li	a5,19
    41f0:	02e7c863          	blt	a5,a4,4220 <move_piece+0xe4c>
    41f4:	00452783          	lw	a5,4(a0)
    41f8:	00271313          	slli	t1,a4,0x2
    41fc:	b65ff06f          	j	3d60 <move_piece+0x98c>
    4200:	04852783          	lw	a5,72(a0)
    4204:	f80782e3          	beqz	a5,4188 <move_piece+0xdb4>
    4208:	00460713          	addi	a4,a2,4
    420c:	01300793          	li	a5,19
    4210:	00e7c863          	blt	a5,a4,4220 <move_piece+0xe4c>
    4214:	00452783          	lw	a5,4(a0)
    4218:	00271313          	slli	t1,a4,0x2
    421c:	bddff06f          	j	3df8 <move_piece+0xa24>
    4220:	fff60793          	addi	a5,a2,-1
    4224:	00f52423          	sw	a5,8(a0)
    4228:	00000f93          	li	t6,0
    422c:	00007737          	lui	a4,0x7
    4230:	01200693          	li	a3,18
    4234:	08100e93          	li	t4,129
    4238:	00800393          	li	t2,8
    423c:	00400293          	li	t0,4
    4240:	004f9e13          	slli	t3,t6,0x4
    4244:	01c50e33          	add	t3,a0,t3
    4248:	00000313          	li	t1,0
    424c:	010e2783          	lw	a5,16(t3)
    4250:	0c078a63          	beqz	a5,4324 <move_piece+0xf50>
    4254:	00452603          	lw	a2,4(a0)
    4258:	00852783          	lw	a5,8(a0)
    425c:	00c30633          	add	a2,t1,a2
    4260:	00a63593          	sltiu	a1,a2,10
    4264:	00ff87b3          	add	a5,t6,a5
    4268:	0a058e63          	beqz	a1,4324 <move_piece+0xf50>
    426c:	0147b593          	sltiu	a1,a5,20
    4270:	0a058a63          	beqz	a1,4324 <move_piece+0xf50>
    4274:	00578793          	addi	a5,a5,5
    4278:	00279593          	slli	a1,a5,0x2
    427c:	00f587b3          	add	a5,a1,a5
    4280:	00f60613          	addi	a2,a2,15
    4284:	00679793          	slli	a5,a5,0x6
    4288:	00c787b3          	add	a5,a5,a2
    428c:	00c54403          	lbu	s0,12(a0)
    4290:	00379793          	slli	a5,a5,0x3
    4294:	00678893          	addi	a7,a5,6
    4298:	00000813          	li	a6,0
    429c:	95c72583          	lw	a1,-1700(a4) # 695c <VGA>
    42a0:	010ed633          	srl	a2,t4,a6
    42a4:	00167613          	andi	a2,a2,1
    42a8:	00f585b3          	add	a1,a1,a5
    42ac:	00d58023          	sb	a3,0(a1)
    42b0:	95c72583          	lw	a1,-1700(a4)
    42b4:	00178b13          	addi	s6,a5,1
    42b8:	00278a93          	addi	s5,a5,2
    42bc:	00378a13          	addi	s4,a5,3
    42c0:	00478913          	addi	s2,a5,4
    42c4:	00578493          	addi	s1,a5,5
    42c8:	0c060063          	beqz	a2,4388 <move_piece+0xfb4>
    42cc:	016585b3          	add	a1,a1,s6
    42d0:	00d58023          	sb	a3,0(a1)
    42d4:	95c72603          	lw	a2,-1700(a4)
    42d8:	00778993          	addi	s3,a5,7
    42dc:	01560633          	add	a2,a2,s5
    42e0:	00d60023          	sb	a3,0(a2)
    42e4:	95c72603          	lw	a2,-1700(a4)
    42e8:	01460633          	add	a2,a2,s4
    42ec:	00d60023          	sb	a3,0(a2)
    42f0:	95c72603          	lw	a2,-1700(a4)
    42f4:	01260633          	add	a2,a2,s2
    42f8:	00d60023          	sb	a3,0(a2)
    42fc:	95c72603          	lw	a2,-1700(a4)
    4300:	00960633          	add	a2,a2,s1
    4304:	00d60023          	sb	a3,0(a2)
    4308:	95c72603          	lw	a2,-1700(a4)
    430c:	04080c63          	beqz	a6,4364 <move_piece+0xf90>
    4310:	01160633          	add	a2,a2,a7
    4314:	00d60023          	sb	a3,0(a2)
    4318:	95c72603          	lw	a2,-1700(a4)
    431c:	00f607b3          	add	a5,a2,a5
    4320:	00d783a3          	sb	a3,7(a5)
    4324:	00130313          	addi	t1,t1,1
    4328:	004e0e13          	addi	t3,t3,4
    432c:	f25310e3          	bne	t1,t0,424c <move_piece+0xe78>
    4330:	001f8f93          	addi	t6,t6,1
    4334:	f05f96e3          	bne	t6,t0,4240 <move_piece+0xe6c>
    4338:	04c12083          	lw	ra,76(sp)
    433c:	04812403          	lw	s0,72(sp)
    4340:	04412483          	lw	s1,68(sp)
    4344:	04012903          	lw	s2,64(sp)
    4348:	03c12983          	lw	s3,60(sp)
    434c:	03812a03          	lw	s4,56(sp)
    4350:	03412a83          	lw	s5,52(sp)
    4354:	03012b03          	lw	s6,48(sp)
    4358:	02c12b83          	lw	s7,44(sp)
    435c:	05010113          	addi	sp,sp,80
    4360:	00008067          	ret
    4364:	01160633          	add	a2,a2,a7
    4368:	00d60023          	sb	a3,0(a2)
    436c:	95c72603          	lw	a2,-1700(a4)
    4370:	14078793          	addi	a5,a5,320
    4374:	14088893          	addi	a7,a7,320
    4378:	01360633          	add	a2,a2,s3
    437c:	000b8813          	mv	a6,s7
    4380:	00d60023          	sb	a3,0(a2)
    4384:	f19ff06f          	j	429c <move_piece+0xec8>
    4388:	00f585b3          	add	a1,a1,a5
    438c:	008580a3          	sb	s0,1(a1)
    4390:	95c72603          	lw	a2,-1700(a4)
    4394:	00180813          	addi	a6,a6,1
    4398:	00f60633          	add	a2,a2,a5
    439c:	00860123          	sb	s0,2(a2)
    43a0:	95c72603          	lw	a2,-1700(a4)
    43a4:	00f60633          	add	a2,a2,a5
    43a8:	008601a3          	sb	s0,3(a2)
    43ac:	95c72603          	lw	a2,-1700(a4)
    43b0:	00f60633          	add	a2,a2,a5
    43b4:	00860223          	sb	s0,4(a2)
    43b8:	95c72603          	lw	a2,-1700(a4)
    43bc:	00f60633          	add	a2,a2,a5
    43c0:	008602a3          	sb	s0,5(a2)
    43c4:	95c72603          	lw	a2,-1700(a4)
    43c8:	01160633          	add	a2,a2,a7
    43cc:	00860023          	sb	s0,0(a2)
    43d0:	95c72603          	lw	a2,-1700(a4)
    43d4:	14088893          	addi	a7,a7,320
    43d8:	00f60633          	add	a2,a2,a5
    43dc:	00d603a3          	sb	a3,7(a2)
    43e0:	14078793          	addi	a5,a5,320
    43e4:	ea781ce3          	bne	a6,t2,429c <move_piece+0xec8>
    43e8:	f3dff06f          	j	4324 <move_piece+0xf50>

000043ec <clear_lines>:
    43ec:	fb010113          	addi	sp,sp,-80
    43f0:	000077b7          	lui	a5,0x7
    43f4:	04912423          	sw	s1,72(sp)
    43f8:	03412e23          	sw	s4,60(sp)
    43fc:	03512c23          	sw	s5,56(sp)
    4400:	000074b7          	lui	s1,0x7
    4404:	01200593          	li	a1,18
    4408:	00003a37          	lui	s4,0x3
    440c:	00003ab7          	lui	s5,0x3
    4410:	04812623          	sw	s0,76(sp)
    4414:	05212223          	sw	s2,68(sp)
    4418:	05312023          	sw	s3,64(sp)
    441c:	03a12223          	sw	s10,36(sp)
    4420:	96a78913          	addi	s2,a5,-1686 # 696a <grid+0xa>
    4424:	03612a23          	sw	s6,52(sp)
    4428:	03712823          	sw	s7,48(sp)
    442c:	03812623          	sw	s8,44(sp)
    4430:	03912423          	sw	s9,40(sp)
    4434:	03b12023          	sw	s11,32(sp)
    4438:	96048493          	addi	s1,s1,-1696 # 6960 <grid>
    443c:	00058693          	mv	a3,a1
    4440:	278a0a13          	addi	s4,s4,632 # 3278 <rotate_piece+0xe4>
    4444:	2c8a8a93          	addi	s5,s5,712 # 32c8 <rotate_piece+0x134>
    4448:	01300813          	li	a6,19
    444c:	04c00f93          	li	t6,76
    4450:	000077b7          	lui	a5,0x7
    4454:	08100393          	li	t2,129
    4458:	00800413          	li	s0,8
    445c:	ff600993          	li	s3,-10
    4460:	fff00d13          	li	s10,-1
    4464:	010f8733          	add	a4,t6,a6
    4468:	00171713          	slli	a4,a4,0x1
    446c:	00e48733          	add	a4,s1,a4
    4470:	00074603          	lbu	a2,0(a4)
    4474:	4a060a63          	beqz	a2,4928 <clear_lines+0x53c>
    4478:	00174603          	lbu	a2,1(a4)
    447c:	4a060663          	beqz	a2,4928 <clear_lines+0x53c>
    4480:	00274603          	lbu	a2,2(a4)
    4484:	4a060263          	beqz	a2,4928 <clear_lines+0x53c>
    4488:	00374603          	lbu	a2,3(a4)
    448c:	48060e63          	beqz	a2,4928 <clear_lines+0x53c>
    4490:	00474603          	lbu	a2,4(a4)
    4494:	48060a63          	beqz	a2,4928 <clear_lines+0x53c>
    4498:	00574603          	lbu	a2,5(a4)
    449c:	48060663          	beqz	a2,4928 <clear_lines+0x53c>
    44a0:	00674603          	lbu	a2,6(a4)
    44a4:	48060263          	beqz	a2,4928 <clear_lines+0x53c>
    44a8:	00774603          	lbu	a2,7(a4)
    44ac:	46060e63          	beqz	a2,4928 <clear_lines+0x53c>
    44b0:	00874603          	lbu	a2,8(a4)
    44b4:	46060a63          	beqz	a2,4928 <clear_lines+0x53c>
    44b8:	00974703          	lbu	a4,9(a4)
    44bc:	46070663          	beqz	a4,4928 <clear_lines+0x53c>
    44c0:	010f8e33          	add	t3,t6,a6
    44c4:	001e1313          	slli	t1,t3,0x1
    44c8:	009e1e13          	slli	t3,t3,0x9
    44cc:	014e0eb3          	add	t4,t3,s4
    44d0:	00648333          	add	t1,s1,t1
    44d4:	015e0e33          	add	t3,t3,s5
    44d8:	00048293          	mv	t0,s1
    44dc:	00030023          	sb	zero,0(t1)
    44e0:	000e8713          	mv	a4,t4
    44e4:	00000513          	li	a0,0
    44e8:	95c7a603          	lw	a2,-1700(a5) # 695c <VGA>
    44ec:	00a3d8b3          	srl	a7,t2,a0
    44f0:	0018fd93          	andi	s11,a7,1
    44f4:	00e60633          	add	a2,a2,a4
    44f8:	00d60023          	sb	a3,0(a2)
    44fc:	95c7a603          	lw	a2,-1700(a5)
    4500:	00170893          	addi	a7,a4,1
    4504:	00270c93          	addi	s9,a4,2
    4508:	01160f33          	add	t5,a2,a7
    450c:	01e12623          	sw	t5,12(sp)
    4510:	00370c13          	addi	s8,a4,3
    4514:	00470b93          	addi	s7,a4,4
    4518:	00570b13          	addi	s6,a4,5
    451c:	00670f13          	addi	t5,a4,6
    4520:	060d8463          	beqz	s11,4588 <clear_lines+0x19c>
    4524:	00c12603          	lw	a2,12(sp)
    4528:	00770893          	addi	a7,a4,7
    452c:	00d60023          	sb	a3,0(a2)
    4530:	95c7a603          	lw	a2,-1700(a5)
    4534:	01960633          	add	a2,a2,s9
    4538:	00d60023          	sb	a3,0(a2)
    453c:	95c7a603          	lw	a2,-1700(a5)
    4540:	01860633          	add	a2,a2,s8
    4544:	00d60023          	sb	a3,0(a2)
    4548:	95c7a603          	lw	a2,-1700(a5)
    454c:	01760633          	add	a2,a2,s7
    4550:	00d60023          	sb	a3,0(a2)
    4554:	95c7a603          	lw	a2,-1700(a5)
    4558:	01660633          	add	a2,a2,s6
    455c:	00d60023          	sb	a3,0(a2)
    4560:	95c7a603          	lw	a2,-1700(a5)
    4564:	01e60633          	add	a2,a2,t5
    4568:	08051063          	bnez	a0,45e8 <clear_lines+0x1fc>
    456c:	00d60023          	sb	a3,0(a2)
    4570:	95c7a603          	lw	a2,-1700(a5)
    4574:	14070713          	addi	a4,a4,320
    4578:	00100513          	li	a0,1
    457c:	01160633          	add	a2,a2,a7
    4580:	00d60023          	sb	a3,0(a2)
    4584:	f65ff06f          	j	44e8 <clear_lines+0xfc>
    4588:	01160633          	add	a2,a2,a7
    458c:	00060023          	sb	zero,0(a2)
    4590:	95c7a603          	lw	a2,-1700(a5)
    4594:	00150513          	addi	a0,a0,1
    4598:	01960633          	add	a2,a2,s9
    459c:	00060023          	sb	zero,0(a2)
    45a0:	95c7a603          	lw	a2,-1700(a5)
    45a4:	01860633          	add	a2,a2,s8
    45a8:	00060023          	sb	zero,0(a2)
    45ac:	95c7a603          	lw	a2,-1700(a5)
    45b0:	01760633          	add	a2,a2,s7
    45b4:	00060023          	sb	zero,0(a2)
    45b8:	95c7a603          	lw	a2,-1700(a5)
    45bc:	01660633          	add	a2,a2,s6
    45c0:	00060023          	sb	zero,0(a2)
    45c4:	95c7a603          	lw	a2,-1700(a5)
    45c8:	01e60633          	add	a2,a2,t5
    45cc:	00060023          	sb	zero,0(a2)
    45d0:	95c7a603          	lw	a2,-1700(a5)
    45d4:	00e60633          	add	a2,a2,a4
    45d8:	00d603a3          	sb	a3,7(a2)
    45dc:	14070713          	addi	a4,a4,320
    45e0:	f08514e3          	bne	a0,s0,44e8 <clear_lines+0xfc>
    45e4:	0140006f          	j	45f8 <clear_lines+0x20c>
    45e8:	00d60023          	sb	a3,0(a2)
    45ec:	95c7a603          	lw	a2,-1700(a5)
    45f0:	00e60733          	add	a4,a2,a4
    45f4:	00d703a3          	sb	a3,7(a4)
    45f8:	008e8e93          	addi	t4,t4,8
    45fc:	00130313          	addi	t1,t1,1
    4600:	edde1ee3          	bne	t3,t4,44dc <clear_lines+0xf0>
    4604:	00007737          	lui	a4,0x7
    4608:	96a70893          	addi	a7,a4,-1686 # 696a <grid+0xa>
    460c:	1e080063          	beqz	a6,47ec <clear_lines+0x400>
    4610:	00259e93          	slli	t4,a1,0x2
    4614:	00be8eb3          	add	t4,t4,a1
    4618:	00080b13          	mv	s6,a6
    461c:	001e9e93          	slli	t4,t4,0x1
    4620:	00058813          	mv	a6,a1
    4624:	00090593          	mv	a1,s2
    4628:	01d90333          	add	t1,s2,t4
    462c:	fb0e0893          	addi	a7,t3,-80
    4630:	000b0c13          	mv	s8,s6
    4634:	00028b93          	mv	s7,t0
    4638:	41d98f33          	sub	t5,s3,t4
    463c:	01d12c23          	sw	t4,24(sp)
    4640:	01c12e23          	sw	t3,28(sp)
    4644:	01112823          	sw	a7,16(sp)
    4648:	00612a23          	sw	t1,20(sp)
    464c:	00080b13          	mv	s6,a6
    4650:	00058293          	mv	t0,a1
    4654:	03c0006f          	j	4690 <clear_lines+0x2a4>
    4658:	00d60023          	sb	a3,0(a2)
    465c:	95c7a603          	lw	a2,-1700(a5)
    4660:	000d8c13          	mv	s8,s11
    4664:	00a60733          	add	a4,a2,a0
    4668:	00d70023          	sb	a3,0(a4)
    466c:	01012703          	lw	a4,16(sp)
    4670:	00870713          	addi	a4,a4,8
    4674:	00e12823          	sw	a4,16(sp)
    4678:	01412703          	lw	a4,20(sp)
    467c:	01012603          	lw	a2,16(sp)
    4680:	00170713          	addi	a4,a4,1
    4684:	00e12a23          	sw	a4,20(sp)
    4688:	01c12703          	lw	a4,28(sp)
    468c:	12c70863          	beq	a4,a2,47bc <clear_lines+0x3d0>
    4690:	01412703          	lw	a4,20(sp)
    4694:	01812603          	lw	a2,24(sp)
    4698:	00000593          	li	a1,0
    469c:	00ef0733          	add	a4,t5,a4
    46a0:	00c70733          	add	a4,a4,a2
    46a4:	00074803          	lbu	a6,0(a4)
    46a8:	01412603          	lw	a2,20(sp)
    46ac:	01012703          	lw	a4,16(sp)
    46b0:	000c0d93          	mv	s11,s8
    46b4:	01060023          	sb	a6,0(a2)
    46b8:	95c7a503          	lw	a0,-1700(a5)
    46bc:	00170c13          	addi	s8,a4,1
    46c0:	00b3d633          	srl	a2,t2,a1
    46c4:	00e50533          	add	a0,a0,a4
    46c8:	00d50023          	sb	a3,0(a0)
    46cc:	95c7a503          	lw	a0,-1700(a5)
    46d0:	00167613          	andi	a2,a2,1
    46d4:	00270c93          	addi	s9,a4,2
    46d8:	018508b3          	add	a7,a0,s8
    46dc:	01112623          	sw	a7,12(sp)
    46e0:	00370e93          	addi	t4,a4,3
    46e4:	00470e13          	addi	t3,a4,4
    46e8:	00570313          	addi	t1,a4,5
    46ec:	00670893          	addi	a7,a4,6
    46f0:	06060463          	beqz	a2,4758 <clear_lines+0x36c>
    46f4:	00c12603          	lw	a2,12(sp)
    46f8:	00770513          	addi	a0,a4,7
    46fc:	00d60023          	sb	a3,0(a2)
    4700:	95c7a603          	lw	a2,-1700(a5)
    4704:	01960633          	add	a2,a2,s9
    4708:	00d60023          	sb	a3,0(a2)
    470c:	95c7a603          	lw	a2,-1700(a5)
    4710:	01d60633          	add	a2,a2,t4
    4714:	00d60023          	sb	a3,0(a2)
    4718:	95c7a603          	lw	a2,-1700(a5)
    471c:	01c60633          	add	a2,a2,t3
    4720:	00d60023          	sb	a3,0(a2)
    4724:	95c7a603          	lw	a2,-1700(a5)
    4728:	00660633          	add	a2,a2,t1
    472c:	00d60023          	sb	a3,0(a2)
    4730:	95c7a603          	lw	a2,-1700(a5)
    4734:	01160633          	add	a2,a2,a7
    4738:	f20590e3          	bnez	a1,4658 <clear_lines+0x26c>
    473c:	00d60023          	sb	a3,0(a2)
    4740:	95c7a603          	lw	a2,-1700(a5)
    4744:	14070713          	addi	a4,a4,320
    4748:	00100593          	li	a1,1
    474c:	00a60633          	add	a2,a2,a0
    4750:	00d60023          	sb	a3,0(a2)
    4754:	f65ff06f          	j	46b8 <clear_lines+0x2cc>
    4758:	01850533          	add	a0,a0,s8
    475c:	01050023          	sb	a6,0(a0)
    4760:	95c7a503          	lw	a0,-1700(a5)
    4764:	00158593          	addi	a1,a1,1
    4768:	01950533          	add	a0,a0,s9
    476c:	01050023          	sb	a6,0(a0)
    4770:	95c7a503          	lw	a0,-1700(a5)
    4774:	01d50533          	add	a0,a0,t4
    4778:	01050023          	sb	a6,0(a0)
    477c:	95c7a503          	lw	a0,-1700(a5)
    4780:	01c50533          	add	a0,a0,t3
    4784:	01050023          	sb	a6,0(a0)
    4788:	95c7a503          	lw	a0,-1700(a5)
    478c:	00650533          	add	a0,a0,t1
    4790:	01050023          	sb	a6,0(a0)
    4794:	95c7a503          	lw	a0,-1700(a5)
    4798:	01150533          	add	a0,a0,a7
    479c:	01050023          	sb	a6,0(a0)
    47a0:	95c7a503          	lw	a0,-1700(a5)
    47a4:	00e50633          	add	a2,a0,a4
    47a8:	00d603a3          	sb	a3,7(a2)
    47ac:	14070713          	addi	a4,a4,320
    47b0:	f08594e3          	bne	a1,s0,46b8 <clear_lines+0x2cc>
    47b4:	000d8c13          	mv	s8,s11
    47b8:	eb5ff06f          	j	466c <clear_lines+0x280>
    47bc:	01812e83          	lw	t4,24(sp)
    47c0:	80070e13          	addi	t3,a4,-2048
    47c4:	000b0813          	mv	a6,s6
    47c8:	ff6e8e93          	addi	t4,t4,-10
    47cc:	00028593          	mv	a1,t0
    47d0:	000c0b13          	mv	s6,s8
    47d4:	000b8293          	mv	t0,s7
    47d8:	e00e0e13          	addi	t3,t3,-512
    47dc:	e53e96e3          	bne	t4,s3,4628 <clear_lines+0x23c>
    47e0:	00058893          	mv	a7,a1
    47e4:	00080593          	mv	a1,a6
    47e8:	000c0813          	mv	a6,s8
    47ec:	00003e37          	lui	t3,0x3
    47f0:	278e0e13          	addi	t3,t3,632 # 3278 <rotate_piece+0xe4>
    47f4:	00028023          	sb	zero,0(t0)
    47f8:	000e0713          	mv	a4,t3
    47fc:	00000313          	li	t1,0
    4800:	95c7a503          	lw	a0,-1700(a5)
    4804:	0063d633          	srl	a2,t2,t1
    4808:	00170c93          	addi	s9,a4,1
    480c:	00e50533          	add	a0,a0,a4
    4810:	00d50023          	sb	a3,0(a0)
    4814:	95c7a503          	lw	a0,-1700(a5)
    4818:	00167613          	andi	a2,a2,1
    481c:	00270c13          	addi	s8,a4,2
    4820:	01950db3          	add	s11,a0,s9
    4824:	00370b93          	addi	s7,a4,3
    4828:	00470b13          	addi	s6,a4,4
    482c:	00570f13          	addi	t5,a4,5
    4830:	00670e93          	addi	t4,a4,6
    4834:	06060263          	beqz	a2,4898 <clear_lines+0x4ac>
    4838:	00dd8023          	sb	a3,0(s11)
    483c:	95c7a603          	lw	a2,-1700(a5)
    4840:	00770513          	addi	a0,a4,7
    4844:	01860633          	add	a2,a2,s8
    4848:	00d60023          	sb	a3,0(a2)
    484c:	95c7a603          	lw	a2,-1700(a5)
    4850:	01760633          	add	a2,a2,s7
    4854:	00d60023          	sb	a3,0(a2)
    4858:	95c7a603          	lw	a2,-1700(a5)
    485c:	01660633          	add	a2,a2,s6
    4860:	00d60023          	sb	a3,0(a2)
    4864:	95c7a603          	lw	a2,-1700(a5)
    4868:	01e60633          	add	a2,a2,t5
    486c:	00d60023          	sb	a3,0(a2)
    4870:	95c7a603          	lw	a2,-1700(a5)
    4874:	01d60633          	add	a2,a2,t4
    4878:	08031063          	bnez	t1,48f8 <clear_lines+0x50c>
    487c:	00d60023          	sb	a3,0(a2)
    4880:	95c7a603          	lw	a2,-1700(a5)
    4884:	14070713          	addi	a4,a4,320
    4888:	00100313          	li	t1,1
    488c:	00a60633          	add	a2,a2,a0
    4890:	00d60023          	sb	a3,0(a2)
    4894:	f6dff06f          	j	4800 <clear_lines+0x414>
    4898:	01950533          	add	a0,a0,s9
    489c:	00050023          	sb	zero,0(a0)
    48a0:	95c7a603          	lw	a2,-1700(a5)
    48a4:	00130313          	addi	t1,t1,1
    48a8:	01860633          	add	a2,a2,s8
    48ac:	00060023          	sb	zero,0(a2)
    48b0:	95c7a603          	lw	a2,-1700(a5)
    48b4:	01760633          	add	a2,a2,s7
    48b8:	00060023          	sb	zero,0(a2)
    48bc:	95c7a603          	lw	a2,-1700(a5)
    48c0:	01660633          	add	a2,a2,s6
    48c4:	00060023          	sb	zero,0(a2)
    48c8:	95c7a603          	lw	a2,-1700(a5)
    48cc:	01e60633          	add	a2,a2,t5
    48d0:	00060023          	sb	zero,0(a2)
    48d4:	95c7a603          	lw	a2,-1700(a5)
    48d8:	01d60633          	add	a2,a2,t4
    48dc:	00060023          	sb	zero,0(a2)
    48e0:	95c7a603          	lw	a2,-1700(a5)
    48e4:	00e60633          	add	a2,a2,a4
    48e8:	00d603a3          	sb	a3,7(a2)
    48ec:	14070713          	addi	a4,a4,320
    48f0:	f08318e3          	bne	t1,s0,4800 <clear_lines+0x414>
    48f4:	0140006f          	j	4908 <clear_lines+0x51c>
    48f8:	00d60023          	sb	a3,0(a2)
    48fc:	95c7a603          	lw	a2,-1700(a5)
    4900:	00e60733          	add	a4,a2,a4
    4904:	00d703a3          	sb	a3,7(a4)
    4908:	00128293          	addi	t0,t0,1
    490c:	008e0e13          	addi	t3,t3,8
    4910:	ee5892e3          	bne	a7,t0,47f4 <clear_lines+0x408>
    4914:	010f8733          	add	a4,t6,a6
    4918:	00171713          	slli	a4,a4,0x1
    491c:	00e48733          	add	a4,s1,a4
    4920:	00074603          	lbu	a2,0(a4)
    4924:	b4061ae3          	bnez	a2,4478 <clear_lines+0x8c>
    4928:	00058813          	mv	a6,a1
    492c:	01a58863          	beq	a1,s10,493c <clear_lines+0x550>
    4930:	00259f93          	slli	t6,a1,0x2
    4934:	fff58593          	addi	a1,a1,-1
    4938:	b2dff06f          	j	4464 <clear_lines+0x78>
    493c:	04c12403          	lw	s0,76(sp)
    4940:	04812483          	lw	s1,72(sp)
    4944:	04412903          	lw	s2,68(sp)
    4948:	04012983          	lw	s3,64(sp)
    494c:	03c12a03          	lw	s4,60(sp)
    4950:	03812a83          	lw	s5,56(sp)
    4954:	03412b03          	lw	s6,52(sp)
    4958:	03012b83          	lw	s7,48(sp)
    495c:	02c12c03          	lw	s8,44(sp)
    4960:	02812c83          	lw	s9,40(sp)
    4964:	02412d03          	lw	s10,36(sp)
    4968:	02012d83          	lw	s11,32(sp)
    496c:	05010113          	addi	sp,sp,80
    4970:	00008067          	ret

00004974 <tick>:
    4974:	f9010113          	addi	sp,sp,-112
    4978:	06912223          	sw	s1,100(sp)
    497c:	000074b7          	lui	s1,0x7
    4980:	96048493          	addi	s1,s1,-1696 # 6960 <grid>
    4984:	07212023          	sw	s2,96(sp)
    4988:	0c848913          	addi	s2,s1,200
    498c:	06812423          	sw	s0,104(sp)
    4990:	00050413          	mv	s0,a0
    4994:	00090513          	mv	a0,s2
    4998:	06112623          	sw	ra,108(sp)
    499c:	05312e23          	sw	s3,92(sp)
    49a0:	a35fe0ef          	jal	33d4 <move_piece>
    49a4:	00090513          	mv	a0,s2
    49a8:	bd9fb0ef          	jal	580 <update_shape.constprop.0>
    49ac:	0d84a683          	lw	a3,216(s1)
    49b0:	0d04a703          	lw	a4,208(s1)
    49b4:	0cc4a783          	lw	a5,204(s1)
    49b8:	1a068c63          	beqz	a3,4b70 <tick+0x1fc>
    49bc:	00170593          	addi	a1,a4,1
    49c0:	01300693          	li	a3,19
    49c4:	22b6cc63          	blt	a3,a1,4bfc <tick+0x288>
    49c8:	00259693          	slli	a3,a1,0x2
    49cc:	00b68633          	add	a2,a3,a1
    49d0:	00161613          	slli	a2,a2,0x1
    49d4:	00c48633          	add	a2,s1,a2
    49d8:	00f60633          	add	a2,a2,a5
    49dc:	00064603          	lbu	a2,0(a2)
    49e0:	20061e63          	bnez	a2,4bfc <tick+0x288>
    49e4:	0dc4a603          	lw	a2,220(s1)
    49e8:	00178513          	addi	a0,a5,1
    49ec:	1a061063          	bnez	a2,4b8c <tick+0x218>
    49f0:	0e04a603          	lw	a2,224(s1)
    49f4:	1e061663          	bnez	a2,4be0 <tick+0x26c>
    49f8:	0e44a603          	lw	a2,228(s1)
    49fc:	02060063          	beqz	a2,4a1c <tick+0xa8>
    4a00:	00b686b3          	add	a3,a3,a1
    4a04:	00169693          	slli	a3,a3,0x1
    4a08:	00378613          	addi	a2,a5,3
    4a0c:	00d486b3          	add	a3,s1,a3
    4a10:	00c686b3          	add	a3,a3,a2
    4a14:	0006c683          	lbu	a3,0(a3)
    4a18:	1e069263          	bnez	a3,4bfc <tick+0x288>
    4a1c:	0e84a683          	lw	a3,232(s1)
    4a20:	62068463          	beqz	a3,5048 <tick+0x6d4>
    4a24:	00270593          	addi	a1,a4,2
    4a28:	01300693          	li	a3,19
    4a2c:	1cb6c863          	blt	a3,a1,4bfc <tick+0x288>
    4a30:	00259693          	slli	a3,a1,0x2
    4a34:	00b68633          	add	a2,a3,a1
    4a38:	00161613          	slli	a2,a2,0x1
    4a3c:	00c48633          	add	a2,s1,a2
    4a40:	00f60633          	add	a2,a2,a5
    4a44:	00064603          	lbu	a2,0(a2)
    4a48:	1a061a63          	bnez	a2,4bfc <tick+0x288>
    4a4c:	0ec4a603          	lw	a2,236(s1)
    4a50:	00178513          	addi	a0,a5,1
    4a54:	60061863          	bnez	a2,5064 <tick+0x6f0>
    4a58:	0f04a603          	lw	a2,240(s1)
    4a5c:	62061463          	bnez	a2,5084 <tick+0x710>
    4a60:	0f44a603          	lw	a2,244(s1)
    4a64:	02060063          	beqz	a2,4a84 <tick+0x110>
    4a68:	00b686b3          	add	a3,a3,a1
    4a6c:	00169693          	slli	a3,a3,0x1
    4a70:	00378613          	addi	a2,a5,3
    4a74:	00d486b3          	add	a3,s1,a3
    4a78:	00c686b3          	add	a3,a3,a2
    4a7c:	0006c683          	lbu	a3,0(a3)
    4a80:	16069e63          	bnez	a3,4bfc <tick+0x288>
    4a84:	0f84a683          	lw	a3,248(s1)
    4a88:	00069463          	bnez	a3,4a90 <tick+0x11c>
    4a8c:	5b80106f          	j	6044 <tick+0x16d0>
    4a90:	00370593          	addi	a1,a4,3
    4a94:	01300693          	li	a3,19
    4a98:	16b6c263          	blt	a3,a1,4bfc <tick+0x288>
    4a9c:	00259613          	slli	a2,a1,0x2
    4aa0:	00b606b3          	add	a3,a2,a1
    4aa4:	00169693          	slli	a3,a3,0x1
    4aa8:	00d486b3          	add	a3,s1,a3
    4aac:	00f686b3          	add	a3,a3,a5
    4ab0:	0006c683          	lbu	a3,0(a3)
    4ab4:	14069463          	bnez	a3,4bfc <tick+0x288>
    4ab8:	0fc4a683          	lw	a3,252(s1)
    4abc:	00178513          	addi	a0,a5,1
    4ac0:	00069463          	bnez	a3,4ac8 <tick+0x154>
    4ac4:	6580106f          	j	611c <tick+0x17a8>
    4ac8:	00b606b3          	add	a3,a2,a1
    4acc:	00169693          	slli	a3,a3,0x1
    4ad0:	00d486b3          	add	a3,s1,a3
    4ad4:	00a686b3          	add	a3,a3,a0
    4ad8:	0006c683          	lbu	a3,0(a3)
    4adc:	12069063          	bnez	a3,4bfc <tick+0x288>
    4ae0:	1004a683          	lw	a3,256(s1)
    4ae4:	54068463          	beqz	a3,502c <tick+0x6b8>
    4ae8:	00b606b3          	add	a3,a2,a1
    4aec:	00169693          	slli	a3,a3,0x1
    4af0:	00278513          	addi	a0,a5,2
    4af4:	00d486b3          	add	a3,s1,a3
    4af8:	00a686b3          	add	a3,a3,a0
    4afc:	0006c683          	lbu	a3,0(a3)
    4b00:	0e069e63          	bnez	a3,4bfc <tick+0x288>
    4b04:	1044a683          	lw	a3,260(s1)
    4b08:	02068063          	beqz	a3,4b28 <tick+0x1b4>
    4b0c:	00b606b3          	add	a3,a2,a1
    4b10:	00169693          	slli	a3,a3,0x1
    4b14:	00378513          	addi	a0,a5,3
    4b18:	00d486b3          	add	a3,s1,a3
    4b1c:	00a686b3          	add	a3,a3,a0
    4b20:	0006c683          	lbu	a3,0(a3)
    4b24:	0c069c63          	bnez	a3,4bfc <tick+0x288>
    4b28:	1084a683          	lw	a3,264(s1)
    4b2c:	00069463          	bnez	a3,4b34 <tick+0x1c0>
    4b30:	5380106f          	j	6068 <tick+0x16f4>
    4b34:	00470593          	addi	a1,a4,4
    4b38:	01300693          	li	a3,19
    4b3c:	0cb6c063          	blt	a3,a1,4bfc <tick+0x288>
    4b40:	00259693          	slli	a3,a1,0x2
    4b44:	00b68633          	add	a2,a3,a1
    4b48:	00161613          	slli	a2,a2,0x1
    4b4c:	00c48633          	add	a2,s1,a2
    4b50:	00f60633          	add	a2,a2,a5
    4b54:	00064603          	lbu	a2,0(a2)
    4b58:	0a061263          	bnez	a2,4bfc <tick+0x288>
    4b5c:	10c4a603          	lw	a2,268(s1)
    4b60:	00061463          	bnez	a2,4b68 <tick+0x1f4>
    4b64:	6680106f          	j	61cc <tick+0x1858>
    4b68:	00178513          	addi	a0,a5,1
    4b6c:	51c0106f          	j	6088 <tick+0x1714>
    4b70:	0dc4a683          	lw	a3,220(s1)
    4b74:	04068a63          	beqz	a3,4bc8 <tick+0x254>
    4b78:	00170593          	addi	a1,a4,1
    4b7c:	01300693          	li	a3,19
    4b80:	06b6ce63          	blt	a3,a1,4bfc <tick+0x288>
    4b84:	00178513          	addi	a0,a5,1
    4b88:	00259693          	slli	a3,a1,0x2
    4b8c:	00b68633          	add	a2,a3,a1
    4b90:	00161613          	slli	a2,a2,0x1
    4b94:	00c48633          	add	a2,s1,a2
    4b98:	00a60633          	add	a2,a2,a0
    4b9c:	00064603          	lbu	a2,0(a2)
    4ba0:	04061e63          	bnez	a2,4bfc <tick+0x288>
    4ba4:	0e04a603          	lw	a2,224(s1)
    4ba8:	02061c63          	bnez	a2,4be0 <tick+0x26c>
    4bac:	0e44a683          	lw	a3,228(s1)
    4bb0:	e60686e3          	beqz	a3,4a1c <tick+0xa8>
    4bb4:	00170593          	addi	a1,a4,1
    4bb8:	01300693          	li	a3,19
    4bbc:	04b6c063          	blt	a3,a1,4bfc <tick+0x288>
    4bc0:	00259693          	slli	a3,a1,0x2
    4bc4:	e3dff06f          	j	4a00 <tick+0x8c>
    4bc8:	0e04a683          	lw	a3,224(s1)
    4bcc:	fe0680e3          	beqz	a3,4bac <tick+0x238>
    4bd0:	00170593          	addi	a1,a4,1
    4bd4:	01300693          	li	a3,19
    4bd8:	02b6c263          	blt	a3,a1,4bfc <tick+0x288>
    4bdc:	00259693          	slli	a3,a1,0x2
    4be0:	00b68633          	add	a2,a3,a1
    4be4:	00161613          	slli	a2,a2,0x1
    4be8:	00278513          	addi	a0,a5,2
    4bec:	00c48633          	add	a2,s1,a2
    4bf0:	00a60633          	add	a2,a2,a0
    4bf4:	00064603          	lbu	a2,0(a2)
    4bf8:	e00600e3          	beqz	a2,49f8 <tick+0x84>
    4bfc:	05412c23          	sw	s4,88(sp)
    4c00:	05512a23          	sw	s5,84(sp)
    4c04:	05612823          	sw	s6,80(sp)
    4c08:	05712623          	sw	s7,76(sp)
    4c0c:	05812423          	sw	s8,72(sp)
    4c10:	05912223          	sw	s9,68(sp)
    4c14:	05a12023          	sw	s10,64(sp)
    4c18:	03b12e23          	sw	s11,60(sp)
    4c1c:	00090293          	mv	t0,s2
    4c20:	00000f13          	li	t5,0
    4c24:	00007737          	lui	a4,0x7
    4c28:	01200693          	li	a3,18
    4c2c:	00700e93          	li	t4,7
    4c30:	00400f93          	li	t6,4
    4c34:	00028e13          	mv	t3,t0
    4c38:	00000313          	li	t1,0
    4c3c:	010e2783          	lw	a5,16(t3)
    4c40:	0c078663          	beqz	a5,4d0c <tick+0x398>
    4c44:	0d04a783          	lw	a5,208(s1)
    4c48:	0cc4a603          	lw	a2,204(s1)
    4c4c:	00ff07b3          	add	a5,t5,a5
    4c50:	0147b593          	sltiu	a1,a5,20
    4c54:	00c30633          	add	a2,t1,a2
    4c58:	0a058a63          	beqz	a1,4d0c <tick+0x398>
    4c5c:	00a63593          	sltiu	a1,a2,10
    4c60:	0a058663          	beqz	a1,4d0c <tick+0x398>
    4c64:	00578593          	addi	a1,a5,5
    4c68:	00259513          	slli	a0,a1,0x2
    4c6c:	00b50533          	add	a0,a0,a1
    4c70:	00279593          	slli	a1,a5,0x2
    4c74:	00f585b3          	add	a1,a1,a5
    4c78:	00651793          	slli	a5,a0,0x6
    4c7c:	00f60513          	addi	a0,a2,15
    4c80:	0d44c383          	lbu	t2,212(s1)
    4c84:	00a787b3          	add	a5,a5,a0
    4c88:	00159593          	slli	a1,a1,0x1
    4c8c:	95c72503          	lw	a0,-1700(a4) # 695c <VGA>
    4c90:	00b485b3          	add	a1,s1,a1
    4c94:	00379793          	slli	a5,a5,0x3
    4c98:	00c58633          	add	a2,a1,a2
    4c9c:	00760023          	sb	t2,0(a2)
    4ca0:	00f50633          	add	a2,a0,a5
    4ca4:	00d60023          	sb	a3,0(a2)
    4ca8:	95c72603          	lw	a2,-1700(a4)
    4cac:	00678893          	addi	a7,a5,6
    4cb0:	00000593          	li	a1,0
    4cb4:	00f60633          	add	a2,a2,a5
    4cb8:	00d600a3          	sb	a3,1(a2)
    4cbc:	00078613          	mv	a2,a5
    4cc0:	95c72503          	lw	a0,-1700(a4)
    4cc4:	00f50533          	add	a0,a0,a5
    4cc8:	00d50123          	sb	a3,2(a0)
    4ccc:	95c72503          	lw	a0,-1700(a4)
    4cd0:	00f50533          	add	a0,a0,a5
    4cd4:	00d501a3          	sb	a3,3(a0)
    4cd8:	95c72503          	lw	a0,-1700(a4)
    4cdc:	00f50533          	add	a0,a0,a5
    4ce0:	00d50223          	sb	a3,4(a0)
    4ce4:	95c72503          	lw	a0,-1700(a4)
    4ce8:	00f50533          	add	a0,a0,a5
    4cec:	00d502a3          	sb	a3,5(a0)
    4cf0:	95c72503          	lw	a0,-1700(a4)
    4cf4:	01150533          	add	a0,a0,a7
    4cf8:	00d50023          	sb	a3,0(a0)
    4cfc:	3e058863          	beqz	a1,50ec <tick+0x778>
    4d00:	95c72783          	lw	a5,-1700(a4)
    4d04:	00c787b3          	add	a5,a5,a2
    4d08:	00d783a3          	sb	a3,7(a5)
    4d0c:	00130313          	addi	t1,t1,1
    4d10:	004e0e13          	addi	t3,t3,4
    4d14:	f3f314e3          	bne	t1,t6,4c3c <tick+0x2c8>
    4d18:	001f0f13          	addi	t5,t5,1
    4d1c:	01028293          	addi	t0,t0,16
    4d20:	f06f1ae3          	bne	t5,t1,4c34 <tick+0x2c0>
    4d24:	ec8ff0ef          	jal	43ec <clear_lines>
    4d28:	0000d9b7          	lui	s3,0xd
    4d2c:	8889a703          	lw	a4,-1912(s3) # c888 <num_locked>
    4d30:	12b00793          	li	a5,299
    4d34:	00e7c463          	blt	a5,a4,4d3c <tick+0x3c8>
    4d38:	3f40106f          	j	612c <tick+0x17b8>
    4d3c:	00003637          	lui	a2,0x3
    4d40:	000038b7          	lui	a7,0x3
    4d44:	00003837          	lui	a6,0x3
    4d48:	000035b7          	lui	a1,0x3
    4d4c:	000037b7          	lui	a5,0x3
    4d50:	12848713          	addi	a4,s1,296
    4d54:	44480813          	addi	a6,a6,1092 # 3444 <move_piece+0x70>
    4d58:	20060613          	addi	a2,a2,512 # 3200 <rotate_piece+0x6c>
    4d5c:	00003bb7          	lui	s7,0x3
    4d60:	00003b37          	lui	s6,0x3
    4d64:	00003ab7          	lui	s5,0x3
    4d68:	00003a37          	lui	s4,0x3
    4d6c:	00003cb7          	lui	s9,0x3
    4d70:	00003d37          	lui	s10,0x3
    4d74:	00003db7          	lui	s11,0x3
    4d78:	30b88893          	addi	a7,a7,779 # 330b <rotate_piece+0x177>
    4d7c:	44558593          	addi	a1,a1,1093 # 3445 <move_piece+0x71>
    4d80:	44678793          	addi	a5,a5,1094 # 3446 <move_piece+0x72>
    4d84:	01012a23          	sw	a6,20(sp)
    4d88:	40c40533          	sub	a0,s0,a2
    4d8c:	00070693          	mv	a3,a4
    4d90:	304b8b93          	addi	s7,s7,772 # 3304 <rotate_piece+0x170>
    4d94:	305b0b13          	addi	s6,s6,773 # 3305 <rotate_piece+0x171>
    4d98:	306a8a93          	addi	s5,s5,774 # 3306 <rotate_piece+0x172>
    4d9c:	307a0a13          	addi	s4,s4,775 # 3307 <rotate_piece+0x173>
    4da0:	308c8c93          	addi	s9,s9,776 # 3308 <rotate_piece+0x174>
    4da4:	309d0d13          	addi	s10,s10,777 # 3309 <rotate_piece+0x175>
    4da8:	30ad8d93          	addi	s11,s11,778 # 330a <rotate_piece+0x176>
    4dac:	01112823          	sw	a7,16(sp)
    4db0:	00b12c23          	sw	a1,24(sp)
    4db4:	00f12e23          	sw	a5,28(sp)
    4db8:	02e12023          	sw	a4,32(sp)
    4dbc:	03312223          	sw	s3,36(sp)
    4dc0:	00040813          	mv	a6,s0
    4dc4:	00003437          	lui	s0,0x3
    4dc8:	00003c37          	lui	s8,0x3
    4dcc:	000039b7          	lui	s3,0x3
    4dd0:	44a40393          	addi	t2,s0,1098 # 344a <move_piece+0x76>
    4dd4:	44b40293          	addi	t0,s0,1099
    4dd8:	58440f93          	addi	t6,s0,1412
    4ddc:	58540f13          	addi	t5,s0,1413
    4de0:	58640e93          	addi	t4,s0,1414
    4de4:	58740e13          	addi	t3,s0,1415
    4de8:	58840313          	addi	t1,s0,1416
    4dec:	58940893          	addi	a7,s0,1417
    4df0:	447c0c13          	addi	s8,s8,1095 # 3447 <move_piece+0x73>
    4df4:	44898993          	addi	s3,s3,1096 # 3448 <move_piece+0x74>
    4df8:	44940413          	addi	s0,s0,1097
    4dfc:	ff068713          	addi	a4,a3,-16
    4e00:	00a607b3          	add	a5,a2,a0
    4e04:	00c12623          	sw	a2,12(sp)
    4e08:	01072603          	lw	a2,16(a4)
    4e0c:	6a0614e3          	bnez	a2,5cb4 <tick+0x1340>
    4e10:	00470713          	addi	a4,a4,4
    4e14:	00878793          	addi	a5,a5,8
    4e18:	fee698e3          	bne	a3,a4,4e08 <tick+0x494>
    4e1c:	00c12603          	lw	a2,12(sp)
    4e20:	000067b7          	lui	a5,0x6
    4e24:	a0078793          	addi	a5,a5,-1536 # 5a00 <tick+0x108c>
    4e28:	7ff60613          	addi	a2,a2,2047
    4e2c:	20160613          	addi	a2,a2,513
    4e30:	01068693          	addi	a3,a3,16
    4e34:	f8f618e3          	bne	a2,a5,4dc4 <tick+0x450>
    4e38:	02012703          	lw	a4,32(sp)
    4e3c:	02a12423          	sw	a0,40(sp)
    4e40:	02412983          	lw	s3,36(sp)
    4e44:	02e12623          	sw	a4,44(sp)
    4e48:	00080413          	mv	s0,a6
    4e4c:	cb0fc0ef          	jal	12fc <spawn_next>
    4e50:	00003737          	lui	a4,0x3
    4e54:	30870713          	addi	a4,a4,776 # 3308 <rotate_piece+0x174>
    4e58:	00e12623          	sw	a4,12(sp)
    4e5c:	00003737          	lui	a4,0x3
    4e60:	30970713          	addi	a4,a4,777 # 3309 <rotate_piece+0x175>
    4e64:	00e12823          	sw	a4,16(sp)
    4e68:	00003737          	lui	a4,0x3
    4e6c:	30a70713          	addi	a4,a4,778 # 330a <rotate_piece+0x176>
    4e70:	00e12a23          	sw	a4,20(sp)
    4e74:	00003737          	lui	a4,0x3
    4e78:	30b70713          	addi	a4,a4,779 # 330b <rotate_piece+0x177>
    4e7c:	00e12c23          	sw	a4,24(sp)
    4e80:	00003737          	lui	a4,0x3
    4e84:	44470713          	addi	a4,a4,1092 # 3444 <move_piece+0x70>
    4e88:	00e12e23          	sw	a4,28(sp)
    4e8c:	00003737          	lui	a4,0x3
    4e90:	44570713          	addi	a4,a4,1093 # 3445 <move_piece+0x71>
    4e94:	02e12023          	sw	a4,32(sp)
    4e98:	000037b7          	lui	a5,0x3
    4e9c:	02c12703          	lw	a4,44(sp)
    4ea0:	02812503          	lw	a0,40(sp)
    4ea4:	00003637          	lui	a2,0x3
    4ea8:	00003db7          	lui	s11,0x3
    4eac:	00003d37          	lui	s10,0x3
    4eb0:	00003cb7          	lui	s9,0x3
    4eb4:	00003c37          	lui	s8,0x3
    4eb8:	44678793          	addi	a5,a5,1094 # 3446 <move_piece+0x72>
    4ebc:	20060613          	addi	a2,a2,512 # 3200 <rotate_piece+0x6c>
    4ec0:	304d8d93          	addi	s11,s11,772 # 3304 <rotate_piece+0x170>
    4ec4:	305d0d13          	addi	s10,s10,773 # 3305 <rotate_piece+0x171>
    4ec8:	306c8c93          	addi	s9,s9,774 # 3306 <rotate_piece+0x172>
    4ecc:	307c0c13          	addi	s8,s8,775 # 3307 <rotate_piece+0x173>
    4ed0:	02f12223          	sw	a5,36(sp)
    4ed4:	00003ab7          	lui	s5,0x3
    4ed8:	00003a37          	lui	s4,0x3
    4edc:	000033b7          	lui	t2,0x3
    4ee0:	000032b7          	lui	t0,0x3
    4ee4:	00003fb7          	lui	t6,0x3
    4ee8:	00003f37          	lui	t5,0x3
    4eec:	00003eb7          	lui	t4,0x3
    4ef0:	00003e37          	lui	t3,0x3
    4ef4:	00003337          	lui	t1,0x3
    4ef8:	000038b7          	lui	a7,0x3
    4efc:	00003837          	lui	a6,0x3
    4f00:	447a8a93          	addi	s5,s5,1095 # 3447 <move_piece+0x73>
    4f04:	448a0a13          	addi	s4,s4,1096 # 3448 <move_piece+0x74>
    4f08:	44938393          	addi	t2,t2,1097 # 3449 <move_piece+0x75>
    4f0c:	44a28293          	addi	t0,t0,1098 # 344a <move_piece+0x76>
    4f10:	44bf8f93          	addi	t6,t6,1099 # 344b <move_piece+0x77>
    4f14:	584f0f13          	addi	t5,t5,1412 # 3584 <move_piece+0x1b0>
    4f18:	585e8e93          	addi	t4,t4,1413 # 3585 <move_piece+0x1b1>
    4f1c:	586e0e13          	addi	t3,t3,1414 # 3586 <move_piece+0x1b2>
    4f20:	58730313          	addi	t1,t1,1415 # 3587 <move_piece+0x1b3>
    4f24:	58888893          	addi	a7,a7,1416 # 3588 <move_piece+0x1b4>
    4f28:	58980813          	addi	a6,a6,1417 # 3589 <move_piece+0x1b5>
    4f2c:	ff070693          	addi	a3,a4,-16
    4f30:	00a607b3          	add	a5,a2,a0
    4f34:	0106a583          	lw	a1,16(a3)
    4f38:	180596e3          	bnez	a1,58c4 <tick+0xf50>
    4f3c:	00468693          	addi	a3,a3,4
    4f40:	00878793          	addi	a5,a5,8
    4f44:	fed718e3          	bne	a4,a3,4f34 <tick+0x5c0>
    4f48:	7ff60613          	addi	a2,a2,2047
    4f4c:	000067b7          	lui	a5,0x6
    4f50:	20160613          	addi	a2,a2,513
    4f54:	a0078793          	addi	a5,a5,-1536 # 5a00 <tick+0x108c>
    4f58:	01070713          	addi	a4,a4,16
    4f5c:	f6f61ce3          	bne	a2,a5,4ed4 <tick+0x560>
    4f60:	05812a03          	lw	s4,88(sp)
    4f64:	05412a83          	lw	s5,84(sp)
    4f68:	05012b03          	lw	s6,80(sp)
    4f6c:	04c12b83          	lw	s7,76(sp)
    4f70:	04812c03          	lw	s8,72(sp)
    4f74:	04412c83          	lw	s9,68(sp)
    4f78:	04012d03          	lw	s10,64(sp)
    4f7c:	03c12d83          	lw	s11,60(sp)
    4f80:	00040513          	mv	a0,s0
    4f84:	dc4fc0ef          	jal	1548 <draw_grid>
    4f88:	8889a783          	lw	a5,-1912(s3)
    4f8c:	04f05a63          	blez	a5,4fe0 <tick+0x66c>
    4f90:	00007737          	lui	a4,0x7
    4f94:	ac870713          	addi	a4,a4,-1336 # 6ac8 <locked_pieces>
    4f98:	00000e13          	li	t3,0
    4f9c:	00400813          	li	a6,4
    4fa0:	00070313          	mv	t1,a4
    4fa4:	00000893          	li	a7,0
    4fa8:	00030613          	mv	a2,t1
    4fac:	00000693          	li	a3,0
    4fb0:	01062783          	lw	a5,16(a2)
    4fb4:	16079c63          	bnez	a5,512c <tick+0x7b8>
    4fb8:	00168693          	addi	a3,a3,1
    4fbc:	00460613          	addi	a2,a2,4
    4fc0:	ff0698e3          	bne	a3,a6,4fb0 <tick+0x63c>
    4fc4:	00188893          	addi	a7,a7,1
    4fc8:	01030313          	addi	t1,t1,16
    4fcc:	fd089ee3          	bne	a7,a6,4fa8 <tick+0x634>
    4fd0:	8889a783          	lw	a5,-1912(s3)
    4fd4:	001e0e13          	addi	t3,t3,1
    4fd8:	05070713          	addi	a4,a4,80
    4fdc:	fcfe42e3          	blt	t3,a5,4fa0 <tick+0x62c>
    4fe0:	00000813          	li	a6,0
    4fe4:	00400513          	li	a0,4
    4fe8:	00090693          	mv	a3,s2
    4fec:	00000713          	li	a4,0
    4ff0:	0106a783          	lw	a5,16(a3)
    4ff4:	50079263          	bnez	a5,54f8 <tick+0xb84>
    4ff8:	00170713          	addi	a4,a4,1
    4ffc:	00468693          	addi	a3,a3,4
    5000:	fea718e3          	bne	a4,a0,4ff0 <tick+0x67c>
    5004:	00180813          	addi	a6,a6,1
    5008:	01090913          	addi	s2,s2,16
    500c:	fce81ee3          	bne	a6,a4,4fe8 <tick+0x674>
    5010:	06c12083          	lw	ra,108(sp)
    5014:	06812403          	lw	s0,104(sp)
    5018:	06412483          	lw	s1,100(sp)
    501c:	06012903          	lw	s2,96(sp)
    5020:	05c12983          	lw	s3,92(sp)
    5024:	07010113          	addi	sp,sp,112
    5028:	00008067          	ret
    502c:	1044a683          	lw	a3,260(s1)
    5030:	ae068ce3          	beqz	a3,4b28 <tick+0x1b4>
    5034:	00370593          	addi	a1,a4,3
    5038:	01300693          	li	a3,19
    503c:	bcb6c0e3          	blt	a3,a1,4bfc <tick+0x288>
    5040:	00259613          	slli	a2,a1,0x2
    5044:	ac9ff06f          	j	4b0c <tick+0x198>
    5048:	0ec4a683          	lw	a3,236(s1)
    504c:	7c0686e3          	beqz	a3,6018 <tick+0x16a4>
    5050:	00270593          	addi	a1,a4,2
    5054:	01300693          	li	a3,19
    5058:	bab6c2e3          	blt	a3,a1,4bfc <tick+0x288>
    505c:	00178513          	addi	a0,a5,1
    5060:	00259693          	slli	a3,a1,0x2
    5064:	00b68633          	add	a2,a3,a1
    5068:	00161613          	slli	a2,a2,0x1
    506c:	00c48633          	add	a2,s1,a2
    5070:	00a60633          	add	a2,a2,a0
    5074:	00064603          	lbu	a2,0(a2)
    5078:	b80612e3          	bnez	a2,4bfc <tick+0x288>
    507c:	0f04a603          	lw	a2,240(s1)
    5080:	7a0600e3          	beqz	a2,6020 <tick+0x16ac>
    5084:	00b68633          	add	a2,a3,a1
    5088:	00161613          	slli	a2,a2,0x1
    508c:	00278513          	addi	a0,a5,2
    5090:	00c48633          	add	a2,s1,a2
    5094:	00a60633          	add	a2,a2,a0
    5098:	00064603          	lbu	a2,0(a2)
    509c:	9c0602e3          	beqz	a2,4a60 <tick+0xec>
    50a0:	b5dff06f          	j	4bfc <tick+0x288>
    50a4:	00780023          	sb	t2,0(a6)
    50a8:	95c72503          	lw	a0,-1700(a4)
    50ac:	00078813          	mv	a6,a5
    50b0:	00f50533          	add	a0,a0,a5
    50b4:	14750123          	sb	t2,322(a0)
    50b8:	95c72503          	lw	a0,-1700(a4)
    50bc:	00f507b3          	add	a5,a0,a5
    50c0:	147781a3          	sb	t2,323(a5)
    50c4:	95c72503          	lw	a0,-1700(a4)
    50c8:	00060793          	mv	a5,a2
    50cc:	01050633          	add	a2,a0,a6
    50d0:	14760223          	sb	t2,324(a2)
    50d4:	95c72603          	lw	a2,-1700(a4)
    50d8:	01060633          	add	a2,a2,a6
    50dc:	147602a3          	sb	t2,325(a2)
    50e0:	95c72603          	lw	a2,-1700(a4)
    50e4:	01160633          	add	a2,a2,a7
    50e8:	00760023          	sb	t2,0(a2)
    50ec:	95c72503          	lw	a0,-1700(a4)
    50f0:	14078613          	addi	a2,a5,320
    50f4:	00158593          	addi	a1,a1,1
    50f8:	00f50533          	add	a0,a0,a5
    50fc:	00d503a3          	sb	a3,7(a0)
    5100:	95c72803          	lw	a6,-1700(a4)
    5104:	14178513          	addi	a0,a5,321
    5108:	14088893          	addi	a7,a7,320
    510c:	00c80833          	add	a6,a6,a2
    5110:	00d80023          	sb	a3,0(a6)
    5114:	95c72803          	lw	a6,-1700(a4)
    5118:	00a80833          	add	a6,a6,a0
    511c:	f9d594e3          	bne	a1,t4,50a4 <tick+0x730>
    5120:	00d80023          	sb	a3,0(a6)
    5124:	00060793          	mv	a5,a2
    5128:	b99ff06f          	j	4cc0 <tick+0x34c>
    512c:	00872583          	lw	a1,8(a4)
    5130:	00472503          	lw	a0,4(a4)
    5134:	00c74e83          	lbu	t4,12(a4)
    5138:	00b885b3          	add	a1,a7,a1
    513c:	00558593          	addi	a1,a1,5
    5140:	00259793          	slli	a5,a1,0x2
    5144:	00b787b3          	add	a5,a5,a1
    5148:	00a685b3          	add	a1,a3,a0
    514c:	00f58593          	addi	a1,a1,15
    5150:	00679793          	slli	a5,a5,0x6
    5154:	00b787b3          	add	a5,a5,a1
    5158:	00379793          	slli	a5,a5,0x3
    515c:	00f40533          	add	a0,s0,a5
    5160:	00178593          	addi	a1,a5,1
    5164:	01d50023          	sb	t4,0(a0)
    5168:	00b405b3          	add	a1,s0,a1
    516c:	01d58023          	sb	t4,0(a1)
    5170:	00c74e83          	lbu	t4,12(a4)
    5174:	00278513          	addi	a0,a5,2
    5178:	00a40533          	add	a0,s0,a0
    517c:	00378593          	addi	a1,a5,3
    5180:	01d50023          	sb	t4,0(a0)
    5184:	00b405b3          	add	a1,s0,a1
    5188:	01d58023          	sb	t4,0(a1)
    518c:	00c74e83          	lbu	t4,12(a4)
    5190:	00478513          	addi	a0,a5,4
    5194:	00a40533          	add	a0,s0,a0
    5198:	00578593          	addi	a1,a5,5
    519c:	01d50023          	sb	t4,0(a0)
    51a0:	00b405b3          	add	a1,s0,a1
    51a4:	01d58023          	sb	t4,0(a1)
    51a8:	00c74e83          	lbu	t4,12(a4)
    51ac:	00678513          	addi	a0,a5,6
    51b0:	00a40533          	add	a0,s0,a0
    51b4:	00778593          	addi	a1,a5,7
    51b8:	01d50023          	sb	t4,0(a0)
    51bc:	00b405b3          	add	a1,s0,a1
    51c0:	01d58023          	sb	t4,0(a1)
    51c4:	00c74e83          	lbu	t4,12(a4)
    51c8:	14078513          	addi	a0,a5,320
    51cc:	00a40533          	add	a0,s0,a0
    51d0:	14178593          	addi	a1,a5,321
    51d4:	01d50023          	sb	t4,0(a0)
    51d8:	00b405b3          	add	a1,s0,a1
    51dc:	01d58023          	sb	t4,0(a1)
    51e0:	00c74e83          	lbu	t4,12(a4)
    51e4:	14278513          	addi	a0,a5,322
    51e8:	00a40533          	add	a0,s0,a0
    51ec:	14378593          	addi	a1,a5,323
    51f0:	01d50023          	sb	t4,0(a0)
    51f4:	00b405b3          	add	a1,s0,a1
    51f8:	01d58023          	sb	t4,0(a1)
    51fc:	00c74e83          	lbu	t4,12(a4)
    5200:	14478513          	addi	a0,a5,324
    5204:	00a40533          	add	a0,s0,a0
    5208:	14578593          	addi	a1,a5,325
    520c:	01d50023          	sb	t4,0(a0)
    5210:	00b405b3          	add	a1,s0,a1
    5214:	01d58023          	sb	t4,0(a1)
    5218:	00c74e83          	lbu	t4,12(a4)
    521c:	14678513          	addi	a0,a5,326
    5220:	00a40533          	add	a0,s0,a0
    5224:	14778593          	addi	a1,a5,327
    5228:	01d50023          	sb	t4,0(a0)
    522c:	00b405b3          	add	a1,s0,a1
    5230:	01d58023          	sb	t4,0(a1)
    5234:	00c74e83          	lbu	t4,12(a4)
    5238:	28078513          	addi	a0,a5,640
    523c:	00a40533          	add	a0,s0,a0
    5240:	28178593          	addi	a1,a5,641
    5244:	01d50023          	sb	t4,0(a0)
    5248:	00b405b3          	add	a1,s0,a1
    524c:	01d58023          	sb	t4,0(a1)
    5250:	00c74e83          	lbu	t4,12(a4)
    5254:	28278513          	addi	a0,a5,642
    5258:	00a40533          	add	a0,s0,a0
    525c:	28378593          	addi	a1,a5,643
    5260:	01d50023          	sb	t4,0(a0)
    5264:	00b405b3          	add	a1,s0,a1
    5268:	01d58023          	sb	t4,0(a1)
    526c:	00c74e83          	lbu	t4,12(a4)
    5270:	28478513          	addi	a0,a5,644
    5274:	00a40533          	add	a0,s0,a0
    5278:	28578593          	addi	a1,a5,645
    527c:	01d50023          	sb	t4,0(a0)
    5280:	00b405b3          	add	a1,s0,a1
    5284:	01d58023          	sb	t4,0(a1)
    5288:	00c74e83          	lbu	t4,12(a4)
    528c:	28678513          	addi	a0,a5,646
    5290:	00a40533          	add	a0,s0,a0
    5294:	28778593          	addi	a1,a5,647
    5298:	01d50023          	sb	t4,0(a0)
    529c:	00b405b3          	add	a1,s0,a1
    52a0:	01d58023          	sb	t4,0(a1)
    52a4:	00c74e83          	lbu	t4,12(a4)
    52a8:	3c078513          	addi	a0,a5,960
    52ac:	00a40533          	add	a0,s0,a0
    52b0:	3c178593          	addi	a1,a5,961
    52b4:	01d50023          	sb	t4,0(a0)
    52b8:	00b405b3          	add	a1,s0,a1
    52bc:	01d58023          	sb	t4,0(a1)
    52c0:	00c74e83          	lbu	t4,12(a4)
    52c4:	3c278513          	addi	a0,a5,962
    52c8:	00a40533          	add	a0,s0,a0
    52cc:	3c378593          	addi	a1,a5,963
    52d0:	01d50023          	sb	t4,0(a0)
    52d4:	00b405b3          	add	a1,s0,a1
    52d8:	01d58023          	sb	t4,0(a1)
    52dc:	00c74e83          	lbu	t4,12(a4)
    52e0:	3c478513          	addi	a0,a5,964
    52e4:	00a40533          	add	a0,s0,a0
    52e8:	3c578593          	addi	a1,a5,965
    52ec:	01d50023          	sb	t4,0(a0)
    52f0:	00b405b3          	add	a1,s0,a1
    52f4:	01d58023          	sb	t4,0(a1)
    52f8:	00c74e83          	lbu	t4,12(a4)
    52fc:	3c678513          	addi	a0,a5,966
    5300:	00a40533          	add	a0,s0,a0
    5304:	3c778593          	addi	a1,a5,967
    5308:	01d50023          	sb	t4,0(a0)
    530c:	00b405b3          	add	a1,s0,a1
    5310:	01d58023          	sb	t4,0(a1)
    5314:	00c74e83          	lbu	t4,12(a4)
    5318:	50078513          	addi	a0,a5,1280
    531c:	00a40533          	add	a0,s0,a0
    5320:	50178593          	addi	a1,a5,1281
    5324:	01d50023          	sb	t4,0(a0)
    5328:	00b405b3          	add	a1,s0,a1
    532c:	01d58023          	sb	t4,0(a1)
    5330:	00c74e83          	lbu	t4,12(a4)
    5334:	50278513          	addi	a0,a5,1282
    5338:	00a40533          	add	a0,s0,a0
    533c:	50378593          	addi	a1,a5,1283
    5340:	01d50023          	sb	t4,0(a0)
    5344:	00b405b3          	add	a1,s0,a1
    5348:	01d58023          	sb	t4,0(a1)
    534c:	00c74e83          	lbu	t4,12(a4)
    5350:	50478513          	addi	a0,a5,1284
    5354:	00a40533          	add	a0,s0,a0
    5358:	50578593          	addi	a1,a5,1285
    535c:	01d50023          	sb	t4,0(a0)
    5360:	00b405b3          	add	a1,s0,a1
    5364:	01d58023          	sb	t4,0(a1)
    5368:	00c74e83          	lbu	t4,12(a4)
    536c:	50678513          	addi	a0,a5,1286
    5370:	00a40533          	add	a0,s0,a0
    5374:	50778593          	addi	a1,a5,1287
    5378:	01d50023          	sb	t4,0(a0)
    537c:	00b405b3          	add	a1,s0,a1
    5380:	01d58023          	sb	t4,0(a1)
    5384:	00c74e83          	lbu	t4,12(a4)
    5388:	64078513          	addi	a0,a5,1600
    538c:	00a40533          	add	a0,s0,a0
    5390:	64178593          	addi	a1,a5,1601
    5394:	01d50023          	sb	t4,0(a0)
    5398:	00b405b3          	add	a1,s0,a1
    539c:	01d58023          	sb	t4,0(a1)
    53a0:	00c74e83          	lbu	t4,12(a4)
    53a4:	64278513          	addi	a0,a5,1602
    53a8:	00a40533          	add	a0,s0,a0
    53ac:	64378593          	addi	a1,a5,1603
    53b0:	01d50023          	sb	t4,0(a0)
    53b4:	00b405b3          	add	a1,s0,a1
    53b8:	01d58023          	sb	t4,0(a1)
    53bc:	00c74e83          	lbu	t4,12(a4)
    53c0:	64478513          	addi	a0,a5,1604
    53c4:	00a40533          	add	a0,s0,a0
    53c8:	64578593          	addi	a1,a5,1605
    53cc:	01d50023          	sb	t4,0(a0)
    53d0:	00b405b3          	add	a1,s0,a1
    53d4:	01d58023          	sb	t4,0(a1)
    53d8:	00c74e83          	lbu	t4,12(a4)
    53dc:	64678513          	addi	a0,a5,1606
    53e0:	00a40533          	add	a0,s0,a0
    53e4:	64778593          	addi	a1,a5,1607
    53e8:	01d50023          	sb	t4,0(a0)
    53ec:	00b405b3          	add	a1,s0,a1
    53f0:	01d58023          	sb	t4,0(a1)
    53f4:	00c74e83          	lbu	t4,12(a4)
    53f8:	78078513          	addi	a0,a5,1920
    53fc:	00a40533          	add	a0,s0,a0
    5400:	78178593          	addi	a1,a5,1921
    5404:	01d50023          	sb	t4,0(a0)
    5408:	00b405b3          	add	a1,s0,a1
    540c:	01d58023          	sb	t4,0(a1)
    5410:	00c74e83          	lbu	t4,12(a4)
    5414:	78278513          	addi	a0,a5,1922
    5418:	00a40533          	add	a0,s0,a0
    541c:	78378593          	addi	a1,a5,1923
    5420:	01d50023          	sb	t4,0(a0)
    5424:	00b405b3          	add	a1,s0,a1
    5428:	01d58023          	sb	t4,0(a1)
    542c:	00c74e83          	lbu	t4,12(a4)
    5430:	78478513          	addi	a0,a5,1924
    5434:	00a40533          	add	a0,s0,a0
    5438:	78578593          	addi	a1,a5,1925
    543c:	01d50023          	sb	t4,0(a0)
    5440:	00b405b3          	add	a1,s0,a1
    5444:	01d58023          	sb	t4,0(a1)
    5448:	00c74e83          	lbu	t4,12(a4)
    544c:	78678513          	addi	a0,a5,1926
    5450:	00a40533          	add	a0,s0,a0
    5454:	78778593          	addi	a1,a5,1927
    5458:	01d50023          	sb	t4,0(a0)
    545c:	00b405b3          	add	a1,s0,a1
    5460:	01d58023          	sb	t4,0(a1)
    5464:	00c74e83          	lbu	t4,12(a4)
    5468:	7ff78513          	addi	a0,a5,2047
    546c:	7ff78593          	addi	a1,a5,2047
    5470:	0c150513          	addi	a0,a0,193
    5474:	00a40533          	add	a0,s0,a0
    5478:	0c258593          	addi	a1,a1,194
    547c:	01d50023          	sb	t4,0(a0)
    5480:	00b405b3          	add	a1,s0,a1
    5484:	01d58023          	sb	t4,0(a1)
    5488:	00c74e83          	lbu	t4,12(a4)
    548c:	7ff78513          	addi	a0,a5,2047
    5490:	7ff78593          	addi	a1,a5,2047
    5494:	0c350513          	addi	a0,a0,195
    5498:	00a40533          	add	a0,s0,a0
    549c:	0c458593          	addi	a1,a1,196
    54a0:	01d50023          	sb	t4,0(a0)
    54a4:	00b405b3          	add	a1,s0,a1
    54a8:	01d58023          	sb	t4,0(a1)
    54ac:	00c74e83          	lbu	t4,12(a4)
    54b0:	7ff78513          	addi	a0,a5,2047
    54b4:	7ff78593          	addi	a1,a5,2047
    54b8:	0c550513          	addi	a0,a0,197
    54bc:	00a40533          	add	a0,s0,a0
    54c0:	0c658593          	addi	a1,a1,198
    54c4:	01d50023          	sb	t4,0(a0)
    54c8:	00b405b3          	add	a1,s0,a1
    54cc:	01d58023          	sb	t4,0(a1)
    54d0:	00c74503          	lbu	a0,12(a4)
    54d4:	7ff78593          	addi	a1,a5,2047
    54d8:	0c758593          	addi	a1,a1,199
    54dc:	7ff78793          	addi	a5,a5,2047
    54e0:	00b405b3          	add	a1,s0,a1
    54e4:	0c878793          	addi	a5,a5,200
    54e8:	00a58023          	sb	a0,0(a1)
    54ec:	00f407b3          	add	a5,s0,a5
    54f0:	00a78023          	sb	a0,0(a5)
    54f4:	ac5ff06f          	j	4fb8 <tick+0x644>
    54f8:	0d04a603          	lw	a2,208(s1)
    54fc:	0cc4a583          	lw	a1,204(s1)
    5500:	0d44c883          	lbu	a7,212(s1)
    5504:	00c80633          	add	a2,a6,a2
    5508:	00560613          	addi	a2,a2,5
    550c:	00261793          	slli	a5,a2,0x2
    5510:	00c787b3          	add	a5,a5,a2
    5514:	00b70633          	add	a2,a4,a1
    5518:	00f60613          	addi	a2,a2,15
    551c:	00679793          	slli	a5,a5,0x6
    5520:	00c787b3          	add	a5,a5,a2
    5524:	00379793          	slli	a5,a5,0x3
    5528:	00f405b3          	add	a1,s0,a5
    552c:	00178613          	addi	a2,a5,1
    5530:	01158023          	sb	a7,0(a1)
    5534:	00c40633          	add	a2,s0,a2
    5538:	01160023          	sb	a7,0(a2)
    553c:	0d44c883          	lbu	a7,212(s1)
    5540:	00278593          	addi	a1,a5,2
    5544:	00b405b3          	add	a1,s0,a1
    5548:	00378613          	addi	a2,a5,3
    554c:	01158023          	sb	a7,0(a1)
    5550:	00c40633          	add	a2,s0,a2
    5554:	01160023          	sb	a7,0(a2)
    5558:	0d44c883          	lbu	a7,212(s1)
    555c:	00478593          	addi	a1,a5,4
    5560:	00b405b3          	add	a1,s0,a1
    5564:	00578613          	addi	a2,a5,5
    5568:	01158023          	sb	a7,0(a1)
    556c:	00c40633          	add	a2,s0,a2
    5570:	01160023          	sb	a7,0(a2)
    5574:	0d44c883          	lbu	a7,212(s1)
    5578:	00678593          	addi	a1,a5,6
    557c:	00b405b3          	add	a1,s0,a1
    5580:	00778613          	addi	a2,a5,7
    5584:	01158023          	sb	a7,0(a1)
    5588:	00c40633          	add	a2,s0,a2
    558c:	01160023          	sb	a7,0(a2)
    5590:	0d44c883          	lbu	a7,212(s1)
    5594:	14078593          	addi	a1,a5,320
    5598:	00b405b3          	add	a1,s0,a1
    559c:	14178613          	addi	a2,a5,321
    55a0:	01158023          	sb	a7,0(a1)
    55a4:	00c40633          	add	a2,s0,a2
    55a8:	01160023          	sb	a7,0(a2)
    55ac:	0d44c883          	lbu	a7,212(s1)
    55b0:	14278593          	addi	a1,a5,322
    55b4:	00b405b3          	add	a1,s0,a1
    55b8:	14378613          	addi	a2,a5,323
    55bc:	01158023          	sb	a7,0(a1)
    55c0:	00c40633          	add	a2,s0,a2
    55c4:	01160023          	sb	a7,0(a2)
    55c8:	0d44c883          	lbu	a7,212(s1)
    55cc:	14478593          	addi	a1,a5,324
    55d0:	00b405b3          	add	a1,s0,a1
    55d4:	14578613          	addi	a2,a5,325
    55d8:	01158023          	sb	a7,0(a1)
    55dc:	00c40633          	add	a2,s0,a2
    55e0:	01160023          	sb	a7,0(a2)
    55e4:	0d44c883          	lbu	a7,212(s1)
    55e8:	14678593          	addi	a1,a5,326
    55ec:	00b405b3          	add	a1,s0,a1
    55f0:	14778613          	addi	a2,a5,327
    55f4:	01158023          	sb	a7,0(a1)
    55f8:	00c40633          	add	a2,s0,a2
    55fc:	01160023          	sb	a7,0(a2)
    5600:	0d44c883          	lbu	a7,212(s1)
    5604:	28078593          	addi	a1,a5,640
    5608:	00b405b3          	add	a1,s0,a1
    560c:	28178613          	addi	a2,a5,641
    5610:	01158023          	sb	a7,0(a1)
    5614:	00c40633          	add	a2,s0,a2
    5618:	01160023          	sb	a7,0(a2)
    561c:	0d44c883          	lbu	a7,212(s1)
    5620:	28278593          	addi	a1,a5,642
    5624:	00b405b3          	add	a1,s0,a1
    5628:	28378613          	addi	a2,a5,643
    562c:	01158023          	sb	a7,0(a1)
    5630:	00c40633          	add	a2,s0,a2
    5634:	01160023          	sb	a7,0(a2)
    5638:	0d44c883          	lbu	a7,212(s1)
    563c:	28478593          	addi	a1,a5,644
    5640:	00b405b3          	add	a1,s0,a1
    5644:	28578613          	addi	a2,a5,645
    5648:	01158023          	sb	a7,0(a1)
    564c:	00c40633          	add	a2,s0,a2
    5650:	01160023          	sb	a7,0(a2)
    5654:	0d44c883          	lbu	a7,212(s1)
    5658:	28678593          	addi	a1,a5,646
    565c:	00b405b3          	add	a1,s0,a1
    5660:	28778613          	addi	a2,a5,647
    5664:	01158023          	sb	a7,0(a1)
    5668:	00c40633          	add	a2,s0,a2
    566c:	01160023          	sb	a7,0(a2)
    5670:	0d44c883          	lbu	a7,212(s1)
    5674:	3c078593          	addi	a1,a5,960
    5678:	00b405b3          	add	a1,s0,a1
    567c:	3c178613          	addi	a2,a5,961
    5680:	01158023          	sb	a7,0(a1)
    5684:	00c40633          	add	a2,s0,a2
    5688:	01160023          	sb	a7,0(a2)
    568c:	0d44c883          	lbu	a7,212(s1)
    5690:	3c278593          	addi	a1,a5,962
    5694:	00b405b3          	add	a1,s0,a1
    5698:	3c378613          	addi	a2,a5,963
    569c:	01158023          	sb	a7,0(a1)
    56a0:	00c40633          	add	a2,s0,a2
    56a4:	01160023          	sb	a7,0(a2)
    56a8:	0d44c883          	lbu	a7,212(s1)
    56ac:	3c478593          	addi	a1,a5,964
    56b0:	00b405b3          	add	a1,s0,a1
    56b4:	3c578613          	addi	a2,a5,965
    56b8:	01158023          	sb	a7,0(a1)
    56bc:	00c40633          	add	a2,s0,a2
    56c0:	01160023          	sb	a7,0(a2)
    56c4:	0d44c883          	lbu	a7,212(s1)
    56c8:	3c678593          	addi	a1,a5,966
    56cc:	00b405b3          	add	a1,s0,a1
    56d0:	3c778613          	addi	a2,a5,967
    56d4:	01158023          	sb	a7,0(a1)
    56d8:	00c40633          	add	a2,s0,a2
    56dc:	01160023          	sb	a7,0(a2)
    56e0:	0d44c883          	lbu	a7,212(s1)
    56e4:	50078593          	addi	a1,a5,1280
    56e8:	00b405b3          	add	a1,s0,a1
    56ec:	50178613          	addi	a2,a5,1281
    56f0:	01158023          	sb	a7,0(a1)
    56f4:	00c40633          	add	a2,s0,a2
    56f8:	01160023          	sb	a7,0(a2)
    56fc:	0d44c883          	lbu	a7,212(s1)
    5700:	50278593          	addi	a1,a5,1282
    5704:	00b405b3          	add	a1,s0,a1
    5708:	50378613          	addi	a2,a5,1283
    570c:	01158023          	sb	a7,0(a1)
    5710:	00c40633          	add	a2,s0,a2
    5714:	01160023          	sb	a7,0(a2)
    5718:	0d44c883          	lbu	a7,212(s1)
    571c:	50478593          	addi	a1,a5,1284
    5720:	00b405b3          	add	a1,s0,a1
    5724:	50578613          	addi	a2,a5,1285
    5728:	01158023          	sb	a7,0(a1)
    572c:	00c40633          	add	a2,s0,a2
    5730:	01160023          	sb	a7,0(a2)
    5734:	0d44c883          	lbu	a7,212(s1)
    5738:	50678593          	addi	a1,a5,1286
    573c:	00b405b3          	add	a1,s0,a1
    5740:	50778613          	addi	a2,a5,1287
    5744:	01158023          	sb	a7,0(a1)
    5748:	00c40633          	add	a2,s0,a2
    574c:	01160023          	sb	a7,0(a2)
    5750:	0d44c883          	lbu	a7,212(s1)
    5754:	64078593          	addi	a1,a5,1600
    5758:	00b405b3          	add	a1,s0,a1
    575c:	64178613          	addi	a2,a5,1601
    5760:	01158023          	sb	a7,0(a1)
    5764:	00c40633          	add	a2,s0,a2
    5768:	01160023          	sb	a7,0(a2)
    576c:	0d44c883          	lbu	a7,212(s1)
    5770:	64278593          	addi	a1,a5,1602
    5774:	00b405b3          	add	a1,s0,a1
    5778:	64378613          	addi	a2,a5,1603
    577c:	01158023          	sb	a7,0(a1)
    5780:	00c40633          	add	a2,s0,a2
    5784:	01160023          	sb	a7,0(a2)
    5788:	0d44c883          	lbu	a7,212(s1)
    578c:	64478593          	addi	a1,a5,1604
    5790:	00b405b3          	add	a1,s0,a1
    5794:	64578613          	addi	a2,a5,1605
    5798:	01158023          	sb	a7,0(a1)
    579c:	00c40633          	add	a2,s0,a2
    57a0:	01160023          	sb	a7,0(a2)
    57a4:	0d44c883          	lbu	a7,212(s1)
    57a8:	64678593          	addi	a1,a5,1606
    57ac:	00b405b3          	add	a1,s0,a1
    57b0:	64778613          	addi	a2,a5,1607
    57b4:	01158023          	sb	a7,0(a1)
    57b8:	00c40633          	add	a2,s0,a2
    57bc:	01160023          	sb	a7,0(a2)
    57c0:	0d44c883          	lbu	a7,212(s1)
    57c4:	78078593          	addi	a1,a5,1920
    57c8:	00b405b3          	add	a1,s0,a1
    57cc:	78178613          	addi	a2,a5,1921
    57d0:	01158023          	sb	a7,0(a1)
    57d4:	00c40633          	add	a2,s0,a2
    57d8:	01160023          	sb	a7,0(a2)
    57dc:	0d44c883          	lbu	a7,212(s1)
    57e0:	78278593          	addi	a1,a5,1922
    57e4:	00b405b3          	add	a1,s0,a1
    57e8:	78378613          	addi	a2,a5,1923
    57ec:	01158023          	sb	a7,0(a1)
    57f0:	00c40633          	add	a2,s0,a2
    57f4:	01160023          	sb	a7,0(a2)
    57f8:	0d44c883          	lbu	a7,212(s1)
    57fc:	78478593          	addi	a1,a5,1924
    5800:	00b405b3          	add	a1,s0,a1
    5804:	78578613          	addi	a2,a5,1925
    5808:	01158023          	sb	a7,0(a1)
    580c:	00c40633          	add	a2,s0,a2
    5810:	01160023          	sb	a7,0(a2)
    5814:	0d44c883          	lbu	a7,212(s1)
    5818:	78678593          	addi	a1,a5,1926
    581c:	00b405b3          	add	a1,s0,a1
    5820:	78778613          	addi	a2,a5,1927
    5824:	01158023          	sb	a7,0(a1)
    5828:	00c40633          	add	a2,s0,a2
    582c:	01160023          	sb	a7,0(a2)
    5830:	0d44c883          	lbu	a7,212(s1)
    5834:	7ff78593          	addi	a1,a5,2047
    5838:	7ff78613          	addi	a2,a5,2047
    583c:	0c158593          	addi	a1,a1,193
    5840:	00b405b3          	add	a1,s0,a1
    5844:	0c260613          	addi	a2,a2,194
    5848:	01158023          	sb	a7,0(a1)
    584c:	00c40633          	add	a2,s0,a2
    5850:	01160023          	sb	a7,0(a2)
    5854:	0d44c883          	lbu	a7,212(s1)
    5858:	7ff78593          	addi	a1,a5,2047
    585c:	7ff78613          	addi	a2,a5,2047
    5860:	0c358593          	addi	a1,a1,195
    5864:	00b405b3          	add	a1,s0,a1
    5868:	0c460613          	addi	a2,a2,196
    586c:	01158023          	sb	a7,0(a1)
    5870:	00c40633          	add	a2,s0,a2
    5874:	01160023          	sb	a7,0(a2)
    5878:	0d44c883          	lbu	a7,212(s1)
    587c:	7ff78593          	addi	a1,a5,2047
    5880:	7ff78613          	addi	a2,a5,2047
    5884:	0c558593          	addi	a1,a1,197
    5888:	00b405b3          	add	a1,s0,a1
    588c:	0c660613          	addi	a2,a2,198
    5890:	01158023          	sb	a7,0(a1)
    5894:	00c40633          	add	a2,s0,a2
    5898:	01160023          	sb	a7,0(a2)
    589c:	0d44c583          	lbu	a1,212(s1)
    58a0:	7ff78613          	addi	a2,a5,2047
    58a4:	0c760613          	addi	a2,a2,199
    58a8:	7ff78793          	addi	a5,a5,2047
    58ac:	00c40633          	add	a2,s0,a2
    58b0:	0c878793          	addi	a5,a5,200
    58b4:	00b60023          	sb	a1,0(a2)
    58b8:	00f407b3          	add	a5,s0,a5
    58bc:	00b78023          	sb	a1,0(a5)
    58c0:	f38ff06f          	j	4ff8 <tick+0x684>
    58c4:	1244cb03          	lbu	s6,292(s1)
    58c8:	01b78bb3          	add	s7,a5,s11
    58cc:	01a785b3          	add	a1,a5,s10
    58d0:	016b8023          	sb	s6,0(s7)
    58d4:	01658023          	sb	s6,0(a1)
    58d8:	1244cb03          	lbu	s6,292(s1)
    58dc:	01978bb3          	add	s7,a5,s9
    58e0:	018785b3          	add	a1,a5,s8
    58e4:	016b8023          	sb	s6,0(s7)
    58e8:	01658023          	sb	s6,0(a1)
    58ec:	00c12583          	lw	a1,12(sp)
    58f0:	1244cb03          	lbu	s6,292(s1)
    58f4:	00b78bb3          	add	s7,a5,a1
    58f8:	01012583          	lw	a1,16(sp)
    58fc:	016b8023          	sb	s6,0(s7)
    5900:	00b785b3          	add	a1,a5,a1
    5904:	01658023          	sb	s6,0(a1)
    5908:	01412583          	lw	a1,20(sp)
    590c:	1244cb03          	lbu	s6,292(s1)
    5910:	00b78bb3          	add	s7,a5,a1
    5914:	01812583          	lw	a1,24(sp)
    5918:	016b8023          	sb	s6,0(s7)
    591c:	00b785b3          	add	a1,a5,a1
    5920:	01658023          	sb	s6,0(a1)
    5924:	01c12583          	lw	a1,28(sp)
    5928:	1244cb03          	lbu	s6,292(s1)
    592c:	00b78bb3          	add	s7,a5,a1
    5930:	02012583          	lw	a1,32(sp)
    5934:	016b8023          	sb	s6,0(s7)
    5938:	00b785b3          	add	a1,a5,a1
    593c:	01658023          	sb	s6,0(a1)
    5940:	02412583          	lw	a1,36(sp)
    5944:	1244cb03          	lbu	s6,292(s1)
    5948:	00b78bb3          	add	s7,a5,a1
    594c:	016b8023          	sb	s6,0(s7)
    5950:	015785b3          	add	a1,a5,s5
    5954:	01658023          	sb	s6,0(a1)
    5958:	1244cb03          	lbu	s6,292(s1)
    595c:	01478bb3          	add	s7,a5,s4
    5960:	007785b3          	add	a1,a5,t2
    5964:	016b8023          	sb	s6,0(s7)
    5968:	01658023          	sb	s6,0(a1)
    596c:	1244cb03          	lbu	s6,292(s1)
    5970:	00578bb3          	add	s7,a5,t0
    5974:	01f785b3          	add	a1,a5,t6
    5978:	016b8023          	sb	s6,0(s7)
    597c:	01658023          	sb	s6,0(a1)
    5980:	1244cb03          	lbu	s6,292(s1)
    5984:	01e78bb3          	add	s7,a5,t5
    5988:	01d785b3          	add	a1,a5,t4
    598c:	016b8023          	sb	s6,0(s7)
    5990:	01658023          	sb	s6,0(a1)
    5994:	1244cb03          	lbu	s6,292(s1)
    5998:	01c78bb3          	add	s7,a5,t3
    599c:	006785b3          	add	a1,a5,t1
    59a0:	016b8023          	sb	s6,0(s7)
    59a4:	01658023          	sb	s6,0(a1)
    59a8:	1244cb03          	lbu	s6,292(s1)
    59ac:	01178bb3          	add	s7,a5,a7
    59b0:	010785b3          	add	a1,a5,a6
    59b4:	016b8023          	sb	s6,0(s7)
    59b8:	01658023          	sb	s6,0(a1)
    59bc:	1244cb03          	lbu	s6,292(s1)
    59c0:	000035b7          	lui	a1,0x3
    59c4:	58a58593          	addi	a1,a1,1418 # 358a <move_piece+0x1b6>
    59c8:	00b785b3          	add	a1,a5,a1
    59cc:	01658023          	sb	s6,0(a1)
    59d0:	000035b7          	lui	a1,0x3
    59d4:	58b58593          	addi	a1,a1,1419 # 358b <move_piece+0x1b7>
    59d8:	00b785b3          	add	a1,a5,a1
    59dc:	01658023          	sb	s6,0(a1)
    59e0:	1244cb03          	lbu	s6,292(s1)
    59e4:	000035b7          	lui	a1,0x3
    59e8:	6c458593          	addi	a1,a1,1732 # 36c4 <move_piece+0x2f0>
    59ec:	00b785b3          	add	a1,a5,a1
    59f0:	01658023          	sb	s6,0(a1)
    59f4:	000035b7          	lui	a1,0x3
    59f8:	6c558593          	addi	a1,a1,1733 # 36c5 <move_piece+0x2f1>
    59fc:	00b785b3          	add	a1,a5,a1
    5a00:	01658023          	sb	s6,0(a1)
    5a04:	1244cb03          	lbu	s6,292(s1)
    5a08:	000035b7          	lui	a1,0x3
    5a0c:	6c658593          	addi	a1,a1,1734 # 36c6 <move_piece+0x2f2>
    5a10:	00b785b3          	add	a1,a5,a1
    5a14:	01658023          	sb	s6,0(a1)
    5a18:	000035b7          	lui	a1,0x3
    5a1c:	6c758593          	addi	a1,a1,1735 # 36c7 <move_piece+0x2f3>
    5a20:	00b785b3          	add	a1,a5,a1
    5a24:	01658023          	sb	s6,0(a1)
    5a28:	1244cb03          	lbu	s6,292(s1)
    5a2c:	000035b7          	lui	a1,0x3
    5a30:	6c858593          	addi	a1,a1,1736 # 36c8 <move_piece+0x2f4>
    5a34:	00b785b3          	add	a1,a5,a1
    5a38:	01658023          	sb	s6,0(a1)
    5a3c:	000035b7          	lui	a1,0x3
    5a40:	6c958593          	addi	a1,a1,1737 # 36c9 <move_piece+0x2f5>
    5a44:	00b785b3          	add	a1,a5,a1
    5a48:	01658023          	sb	s6,0(a1)
    5a4c:	1244cb03          	lbu	s6,292(s1)
    5a50:	000035b7          	lui	a1,0x3
    5a54:	6ca58593          	addi	a1,a1,1738 # 36ca <move_piece+0x2f6>
    5a58:	00b785b3          	add	a1,a5,a1
    5a5c:	01658023          	sb	s6,0(a1)
    5a60:	000035b7          	lui	a1,0x3
    5a64:	6cb58593          	addi	a1,a1,1739 # 36cb <move_piece+0x2f7>
    5a68:	00b785b3          	add	a1,a5,a1
    5a6c:	01658023          	sb	s6,0(a1)
    5a70:	1244cb03          	lbu	s6,292(s1)
    5a74:	000045b7          	lui	a1,0x4
    5a78:	80458593          	addi	a1,a1,-2044 # 3804 <move_piece+0x430>
    5a7c:	00b785b3          	add	a1,a5,a1
    5a80:	01658023          	sb	s6,0(a1)
    5a84:	000045b7          	lui	a1,0x4
    5a88:	80558593          	addi	a1,a1,-2043 # 3805 <move_piece+0x431>
    5a8c:	00b785b3          	add	a1,a5,a1
    5a90:	01658023          	sb	s6,0(a1)
    5a94:	1244cb03          	lbu	s6,292(s1)
    5a98:	000045b7          	lui	a1,0x4
    5a9c:	80658593          	addi	a1,a1,-2042 # 3806 <move_piece+0x432>
    5aa0:	00b785b3          	add	a1,a5,a1
    5aa4:	01658023          	sb	s6,0(a1)
    5aa8:	000045b7          	lui	a1,0x4
    5aac:	80758593          	addi	a1,a1,-2041 # 3807 <move_piece+0x433>
    5ab0:	00b785b3          	add	a1,a5,a1
    5ab4:	01658023          	sb	s6,0(a1)
    5ab8:	1244cb03          	lbu	s6,292(s1)
    5abc:	000045b7          	lui	a1,0x4
    5ac0:	80858593          	addi	a1,a1,-2040 # 3808 <move_piece+0x434>
    5ac4:	00b785b3          	add	a1,a5,a1
    5ac8:	01658023          	sb	s6,0(a1)
    5acc:	000045b7          	lui	a1,0x4
    5ad0:	80958593          	addi	a1,a1,-2039 # 3809 <move_piece+0x435>
    5ad4:	00b785b3          	add	a1,a5,a1
    5ad8:	01658023          	sb	s6,0(a1)
    5adc:	1244cb03          	lbu	s6,292(s1)
    5ae0:	000045b7          	lui	a1,0x4
    5ae4:	80a58593          	addi	a1,a1,-2038 # 380a <move_piece+0x436>
    5ae8:	00b785b3          	add	a1,a5,a1
    5aec:	01658023          	sb	s6,0(a1)
    5af0:	000045b7          	lui	a1,0x4
    5af4:	80b58593          	addi	a1,a1,-2037 # 380b <move_piece+0x437>
    5af8:	00b785b3          	add	a1,a5,a1
    5afc:	01658023          	sb	s6,0(a1)
    5b00:	1244cb03          	lbu	s6,292(s1)
    5b04:	000045b7          	lui	a1,0x4
    5b08:	94458593          	addi	a1,a1,-1724 # 3944 <move_piece+0x570>
    5b0c:	00b785b3          	add	a1,a5,a1
    5b10:	01658023          	sb	s6,0(a1)
    5b14:	000045b7          	lui	a1,0x4
    5b18:	94558593          	addi	a1,a1,-1723 # 3945 <move_piece+0x571>
    5b1c:	00b785b3          	add	a1,a5,a1
    5b20:	01658023          	sb	s6,0(a1)
    5b24:	1244cb03          	lbu	s6,292(s1)
    5b28:	000045b7          	lui	a1,0x4
    5b2c:	94658593          	addi	a1,a1,-1722 # 3946 <move_piece+0x572>
    5b30:	00b785b3          	add	a1,a5,a1
    5b34:	01658023          	sb	s6,0(a1)
    5b38:	000045b7          	lui	a1,0x4
    5b3c:	94758593          	addi	a1,a1,-1721 # 3947 <move_piece+0x573>
    5b40:	00b785b3          	add	a1,a5,a1
    5b44:	01658023          	sb	s6,0(a1)
    5b48:	1244cb03          	lbu	s6,292(s1)
    5b4c:	000045b7          	lui	a1,0x4
    5b50:	94858593          	addi	a1,a1,-1720 # 3948 <move_piece+0x574>
    5b54:	00b785b3          	add	a1,a5,a1
    5b58:	01658023          	sb	s6,0(a1)
    5b5c:	000045b7          	lui	a1,0x4
    5b60:	94958593          	addi	a1,a1,-1719 # 3949 <move_piece+0x575>
    5b64:	00b785b3          	add	a1,a5,a1
    5b68:	01658023          	sb	s6,0(a1)
    5b6c:	1244cb03          	lbu	s6,292(s1)
    5b70:	000045b7          	lui	a1,0x4
    5b74:	94a58593          	addi	a1,a1,-1718 # 394a <move_piece+0x576>
    5b78:	00b785b3          	add	a1,a5,a1
    5b7c:	01658023          	sb	s6,0(a1)
    5b80:	000045b7          	lui	a1,0x4
    5b84:	94b58593          	addi	a1,a1,-1717 # 394b <move_piece+0x577>
    5b88:	00b785b3          	add	a1,a5,a1
    5b8c:	01658023          	sb	s6,0(a1)
    5b90:	1244cb03          	lbu	s6,292(s1)
    5b94:	000045b7          	lui	a1,0x4
    5b98:	a8458593          	addi	a1,a1,-1404 # 3a84 <move_piece+0x6b0>
    5b9c:	00b785b3          	add	a1,a5,a1
    5ba0:	01658023          	sb	s6,0(a1)
    5ba4:	000045b7          	lui	a1,0x4
    5ba8:	a8558593          	addi	a1,a1,-1403 # 3a85 <move_piece+0x6b1>
    5bac:	00b785b3          	add	a1,a5,a1
    5bb0:	01658023          	sb	s6,0(a1)
    5bb4:	1244cb03          	lbu	s6,292(s1)
    5bb8:	000045b7          	lui	a1,0x4
    5bbc:	a8658593          	addi	a1,a1,-1402 # 3a86 <move_piece+0x6b2>
    5bc0:	00b785b3          	add	a1,a5,a1
    5bc4:	01658023          	sb	s6,0(a1)
    5bc8:	000045b7          	lui	a1,0x4
    5bcc:	a8758593          	addi	a1,a1,-1401 # 3a87 <move_piece+0x6b3>
    5bd0:	00b785b3          	add	a1,a5,a1
    5bd4:	01658023          	sb	s6,0(a1)
    5bd8:	1244cb03          	lbu	s6,292(s1)
    5bdc:	000045b7          	lui	a1,0x4
    5be0:	a8858593          	addi	a1,a1,-1400 # 3a88 <move_piece+0x6b4>
    5be4:	00b785b3          	add	a1,a5,a1
    5be8:	01658023          	sb	s6,0(a1)
    5bec:	000045b7          	lui	a1,0x4
    5bf0:	a8958593          	addi	a1,a1,-1399 # 3a89 <move_piece+0x6b5>
    5bf4:	00b785b3          	add	a1,a5,a1
    5bf8:	01658023          	sb	s6,0(a1)
    5bfc:	1244cb03          	lbu	s6,292(s1)
    5c00:	000045b7          	lui	a1,0x4
    5c04:	a8a58593          	addi	a1,a1,-1398 # 3a8a <move_piece+0x6b6>
    5c08:	00b785b3          	add	a1,a5,a1
    5c0c:	01658023          	sb	s6,0(a1)
    5c10:	000045b7          	lui	a1,0x4
    5c14:	a8b58593          	addi	a1,a1,-1397 # 3a8b <move_piece+0x6b7>
    5c18:	00b785b3          	add	a1,a5,a1
    5c1c:	01658023          	sb	s6,0(a1)
    5c20:	1244cb03          	lbu	s6,292(s1)
    5c24:	000045b7          	lui	a1,0x4
    5c28:	bc458593          	addi	a1,a1,-1084 # 3bc4 <move_piece+0x7f0>
    5c2c:	00b785b3          	add	a1,a5,a1
    5c30:	01658023          	sb	s6,0(a1)
    5c34:	000045b7          	lui	a1,0x4
    5c38:	bc558593          	addi	a1,a1,-1083 # 3bc5 <move_piece+0x7f1>
    5c3c:	00b785b3          	add	a1,a5,a1
    5c40:	01658023          	sb	s6,0(a1)
    5c44:	1244cb03          	lbu	s6,292(s1)
    5c48:	000045b7          	lui	a1,0x4
    5c4c:	bc658593          	addi	a1,a1,-1082 # 3bc6 <move_piece+0x7f2>
    5c50:	00b785b3          	add	a1,a5,a1
    5c54:	01658023          	sb	s6,0(a1)
    5c58:	000045b7          	lui	a1,0x4
    5c5c:	bc758593          	addi	a1,a1,-1081 # 3bc7 <move_piece+0x7f3>
    5c60:	00b785b3          	add	a1,a5,a1
    5c64:	01658023          	sb	s6,0(a1)
    5c68:	1244cb03          	lbu	s6,292(s1)
    5c6c:	000045b7          	lui	a1,0x4
    5c70:	bc858593          	addi	a1,a1,-1080 # 3bc8 <move_piece+0x7f4>
    5c74:	00b785b3          	add	a1,a5,a1
    5c78:	01658023          	sb	s6,0(a1)
    5c7c:	000045b7          	lui	a1,0x4
    5c80:	bc958593          	addi	a1,a1,-1079 # 3bc9 <move_piece+0x7f5>
    5c84:	00b785b3          	add	a1,a5,a1
    5c88:	01658023          	sb	s6,0(a1)
    5c8c:	1244cb03          	lbu	s6,292(s1)
    5c90:	000045b7          	lui	a1,0x4
    5c94:	bca58593          	addi	a1,a1,-1078 # 3bca <move_piece+0x7f6>
    5c98:	00b785b3          	add	a1,a5,a1
    5c9c:	01658023          	sb	s6,0(a1)
    5ca0:	000045b7          	lui	a1,0x4
    5ca4:	bcb58593          	addi	a1,a1,-1077 # 3bcb <move_piece+0x7f7>
    5ca8:	00b785b3          	add	a1,a5,a1
    5cac:	01658023          	sb	s6,0(a1)
    5cb0:	a8cff06f          	j	4f3c <tick+0x5c8>
    5cb4:	01778633          	add	a2,a5,s7
    5cb8:	00060023          	sb	zero,0(a2)
    5cbc:	01678633          	add	a2,a5,s6
    5cc0:	00060023          	sb	zero,0(a2)
    5cc4:	01578633          	add	a2,a5,s5
    5cc8:	00060023          	sb	zero,0(a2)
    5ccc:	01478633          	add	a2,a5,s4
    5cd0:	00060023          	sb	zero,0(a2)
    5cd4:	01978633          	add	a2,a5,s9
    5cd8:	00060023          	sb	zero,0(a2)
    5cdc:	01a78633          	add	a2,a5,s10
    5ce0:	00060023          	sb	zero,0(a2)
    5ce4:	01b78633          	add	a2,a5,s11
    5ce8:	00060023          	sb	zero,0(a2)
    5cec:	01012603          	lw	a2,16(sp)
    5cf0:	000035b7          	lui	a1,0x3
    5cf4:	58a58593          	addi	a1,a1,1418 # 358a <move_piece+0x1b6>
    5cf8:	00c78633          	add	a2,a5,a2
    5cfc:	00060023          	sb	zero,0(a2)
    5d00:	01412603          	lw	a2,20(sp)
    5d04:	00b785b3          	add	a1,a5,a1
    5d08:	00c78633          	add	a2,a5,a2
    5d0c:	00060023          	sb	zero,0(a2)
    5d10:	01812603          	lw	a2,24(sp)
    5d14:	00c78633          	add	a2,a5,a2
    5d18:	00060023          	sb	zero,0(a2)
    5d1c:	01c12603          	lw	a2,28(sp)
    5d20:	00c78633          	add	a2,a5,a2
    5d24:	00060023          	sb	zero,0(a2)
    5d28:	01878633          	add	a2,a5,s8
    5d2c:	00060023          	sb	zero,0(a2)
    5d30:	01378633          	add	a2,a5,s3
    5d34:	00060023          	sb	zero,0(a2)
    5d38:	00878633          	add	a2,a5,s0
    5d3c:	00060023          	sb	zero,0(a2)
    5d40:	00778633          	add	a2,a5,t2
    5d44:	00060023          	sb	zero,0(a2)
    5d48:	00578633          	add	a2,a5,t0
    5d4c:	00060023          	sb	zero,0(a2)
    5d50:	01f78633          	add	a2,a5,t6
    5d54:	00060023          	sb	zero,0(a2)
    5d58:	01e78633          	add	a2,a5,t5
    5d5c:	00060023          	sb	zero,0(a2)
    5d60:	01d78633          	add	a2,a5,t4
    5d64:	00060023          	sb	zero,0(a2)
    5d68:	01c78633          	add	a2,a5,t3
    5d6c:	00060023          	sb	zero,0(a2)
    5d70:	00678633          	add	a2,a5,t1
    5d74:	00060023          	sb	zero,0(a2)
    5d78:	01178633          	add	a2,a5,a7
    5d7c:	00060023          	sb	zero,0(a2)
    5d80:	00003637          	lui	a2,0x3
    5d84:	58b60613          	addi	a2,a2,1419 # 358b <move_piece+0x1b7>
    5d88:	00058023          	sb	zero,0(a1)
    5d8c:	00c78633          	add	a2,a5,a2
    5d90:	000035b7          	lui	a1,0x3
    5d94:	00060023          	sb	zero,0(a2)
    5d98:	6c458593          	addi	a1,a1,1732 # 36c4 <move_piece+0x2f0>
    5d9c:	00003637          	lui	a2,0x3
    5da0:	00b785b3          	add	a1,a5,a1
    5da4:	6c560613          	addi	a2,a2,1733 # 36c5 <move_piece+0x2f1>
    5da8:	00058023          	sb	zero,0(a1)
    5dac:	00c78633          	add	a2,a5,a2
    5db0:	000035b7          	lui	a1,0x3
    5db4:	00060023          	sb	zero,0(a2)
    5db8:	6c658593          	addi	a1,a1,1734 # 36c6 <move_piece+0x2f2>
    5dbc:	00003637          	lui	a2,0x3
    5dc0:	00b785b3          	add	a1,a5,a1
    5dc4:	6c760613          	addi	a2,a2,1735 # 36c7 <move_piece+0x2f3>
    5dc8:	00058023          	sb	zero,0(a1)
    5dcc:	00c78633          	add	a2,a5,a2
    5dd0:	000035b7          	lui	a1,0x3
    5dd4:	00060023          	sb	zero,0(a2)
    5dd8:	6c858593          	addi	a1,a1,1736 # 36c8 <move_piece+0x2f4>
    5ddc:	00003637          	lui	a2,0x3
    5de0:	00b785b3          	add	a1,a5,a1
    5de4:	6c960613          	addi	a2,a2,1737 # 36c9 <move_piece+0x2f5>
    5de8:	00058023          	sb	zero,0(a1)
    5dec:	00c78633          	add	a2,a5,a2
    5df0:	000035b7          	lui	a1,0x3
    5df4:	00060023          	sb	zero,0(a2)
    5df8:	6ca58593          	addi	a1,a1,1738 # 36ca <move_piece+0x2f6>
    5dfc:	00003637          	lui	a2,0x3
    5e00:	00b785b3          	add	a1,a5,a1
    5e04:	6cb60613          	addi	a2,a2,1739 # 36cb <move_piece+0x2f7>
    5e08:	00058023          	sb	zero,0(a1)
    5e0c:	00c78633          	add	a2,a5,a2
    5e10:	000045b7          	lui	a1,0x4
    5e14:	00060023          	sb	zero,0(a2)
    5e18:	80458593          	addi	a1,a1,-2044 # 3804 <move_piece+0x430>
    5e1c:	00004637          	lui	a2,0x4
    5e20:	00b785b3          	add	a1,a5,a1
    5e24:	80560613          	addi	a2,a2,-2043 # 3805 <move_piece+0x431>
    5e28:	00058023          	sb	zero,0(a1)
    5e2c:	00c78633          	add	a2,a5,a2
    5e30:	000045b7          	lui	a1,0x4
    5e34:	00060023          	sb	zero,0(a2)
    5e38:	80658593          	addi	a1,a1,-2042 # 3806 <move_piece+0x432>
    5e3c:	00004637          	lui	a2,0x4
    5e40:	00b785b3          	add	a1,a5,a1
    5e44:	80760613          	addi	a2,a2,-2041 # 3807 <move_piece+0x433>
    5e48:	00058023          	sb	zero,0(a1)
    5e4c:	00c78633          	add	a2,a5,a2
    5e50:	000045b7          	lui	a1,0x4
    5e54:	00060023          	sb	zero,0(a2)
    5e58:	80858593          	addi	a1,a1,-2040 # 3808 <move_piece+0x434>
    5e5c:	00004637          	lui	a2,0x4
    5e60:	00b785b3          	add	a1,a5,a1
    5e64:	80960613          	addi	a2,a2,-2039 # 3809 <move_piece+0x435>
    5e68:	00058023          	sb	zero,0(a1)
    5e6c:	00c78633          	add	a2,a5,a2
    5e70:	000045b7          	lui	a1,0x4
    5e74:	00060023          	sb	zero,0(a2)
    5e78:	80a58593          	addi	a1,a1,-2038 # 380a <move_piece+0x436>
    5e7c:	00004637          	lui	a2,0x4
    5e80:	00b785b3          	add	a1,a5,a1
    5e84:	80b60613          	addi	a2,a2,-2037 # 380b <move_piece+0x437>
    5e88:	00058023          	sb	zero,0(a1)
    5e8c:	00c78633          	add	a2,a5,a2
    5e90:	000045b7          	lui	a1,0x4
    5e94:	00060023          	sb	zero,0(a2)
    5e98:	94458593          	addi	a1,a1,-1724 # 3944 <move_piece+0x570>
    5e9c:	00004637          	lui	a2,0x4
    5ea0:	00b785b3          	add	a1,a5,a1
    5ea4:	94560613          	addi	a2,a2,-1723 # 3945 <move_piece+0x571>
    5ea8:	00058023          	sb	zero,0(a1)
    5eac:	00c78633          	add	a2,a5,a2
    5eb0:	000045b7          	lui	a1,0x4
    5eb4:	00060023          	sb	zero,0(a2)
    5eb8:	94658593          	addi	a1,a1,-1722 # 3946 <move_piece+0x572>
    5ebc:	00004637          	lui	a2,0x4
    5ec0:	00b785b3          	add	a1,a5,a1
    5ec4:	94760613          	addi	a2,a2,-1721 # 3947 <move_piece+0x573>
    5ec8:	00058023          	sb	zero,0(a1)
    5ecc:	00c78633          	add	a2,a5,a2
    5ed0:	000045b7          	lui	a1,0x4
    5ed4:	00060023          	sb	zero,0(a2)
    5ed8:	94858593          	addi	a1,a1,-1720 # 3948 <move_piece+0x574>
    5edc:	00004637          	lui	a2,0x4
    5ee0:	00b785b3          	add	a1,a5,a1
    5ee4:	94960613          	addi	a2,a2,-1719 # 3949 <move_piece+0x575>
    5ee8:	00058023          	sb	zero,0(a1)
    5eec:	00c78633          	add	a2,a5,a2
    5ef0:	000045b7          	lui	a1,0x4
    5ef4:	00060023          	sb	zero,0(a2)
    5ef8:	94a58593          	addi	a1,a1,-1718 # 394a <move_piece+0x576>
    5efc:	00004637          	lui	a2,0x4
    5f00:	00b785b3          	add	a1,a5,a1
    5f04:	94b60613          	addi	a2,a2,-1717 # 394b <move_piece+0x577>
    5f08:	00058023          	sb	zero,0(a1)
    5f0c:	00c78633          	add	a2,a5,a2
    5f10:	000045b7          	lui	a1,0x4
    5f14:	00060023          	sb	zero,0(a2)
    5f18:	a8458593          	addi	a1,a1,-1404 # 3a84 <move_piece+0x6b0>
    5f1c:	00004637          	lui	a2,0x4
    5f20:	00b785b3          	add	a1,a5,a1
    5f24:	a8560613          	addi	a2,a2,-1403 # 3a85 <move_piece+0x6b1>
    5f28:	00058023          	sb	zero,0(a1)
    5f2c:	00c78633          	add	a2,a5,a2
    5f30:	000045b7          	lui	a1,0x4
    5f34:	00060023          	sb	zero,0(a2)
    5f38:	a8658593          	addi	a1,a1,-1402 # 3a86 <move_piece+0x6b2>
    5f3c:	00004637          	lui	a2,0x4
    5f40:	00b785b3          	add	a1,a5,a1
    5f44:	a8760613          	addi	a2,a2,-1401 # 3a87 <move_piece+0x6b3>
    5f48:	00058023          	sb	zero,0(a1)
    5f4c:	00c78633          	add	a2,a5,a2
    5f50:	000045b7          	lui	a1,0x4
    5f54:	00060023          	sb	zero,0(a2)
    5f58:	a8858593          	addi	a1,a1,-1400 # 3a88 <move_piece+0x6b4>
    5f5c:	00004637          	lui	a2,0x4
    5f60:	00b785b3          	add	a1,a5,a1
    5f64:	a8960613          	addi	a2,a2,-1399 # 3a89 <move_piece+0x6b5>
    5f68:	00058023          	sb	zero,0(a1)
    5f6c:	00c78633          	add	a2,a5,a2
    5f70:	000045b7          	lui	a1,0x4
    5f74:	00060023          	sb	zero,0(a2)
    5f78:	a8a58593          	addi	a1,a1,-1398 # 3a8a <move_piece+0x6b6>
    5f7c:	00004637          	lui	a2,0x4
    5f80:	00b785b3          	add	a1,a5,a1
    5f84:	a8b60613          	addi	a2,a2,-1397 # 3a8b <move_piece+0x6b7>
    5f88:	00058023          	sb	zero,0(a1)
    5f8c:	00c78633          	add	a2,a5,a2
    5f90:	000045b7          	lui	a1,0x4
    5f94:	00060023          	sb	zero,0(a2)
    5f98:	bc458593          	addi	a1,a1,-1084 # 3bc4 <move_piece+0x7f0>
    5f9c:	00004637          	lui	a2,0x4
    5fa0:	00b785b3          	add	a1,a5,a1
    5fa4:	bc560613          	addi	a2,a2,-1083 # 3bc5 <move_piece+0x7f1>
    5fa8:	00058023          	sb	zero,0(a1)
    5fac:	00c78633          	add	a2,a5,a2
    5fb0:	000045b7          	lui	a1,0x4
    5fb4:	00060023          	sb	zero,0(a2)
    5fb8:	bc658593          	addi	a1,a1,-1082 # 3bc6 <move_piece+0x7f2>
    5fbc:	00004637          	lui	a2,0x4
    5fc0:	00b785b3          	add	a1,a5,a1
    5fc4:	bc760613          	addi	a2,a2,-1081 # 3bc7 <move_piece+0x7f3>
    5fc8:	00058023          	sb	zero,0(a1)
    5fcc:	00c78633          	add	a2,a5,a2
    5fd0:	000045b7          	lui	a1,0x4
    5fd4:	00060023          	sb	zero,0(a2)
    5fd8:	bc858593          	addi	a1,a1,-1080 # 3bc8 <move_piece+0x7f4>
    5fdc:	00004637          	lui	a2,0x4
    5fe0:	00b785b3          	add	a1,a5,a1
    5fe4:	bc960613          	addi	a2,a2,-1079 # 3bc9 <move_piece+0x7f5>
    5fe8:	00058023          	sb	zero,0(a1)
    5fec:	00c78633          	add	a2,a5,a2
    5ff0:	000045b7          	lui	a1,0x4
    5ff4:	00060023          	sb	zero,0(a2)
    5ff8:	bca58593          	addi	a1,a1,-1078 # 3bca <move_piece+0x7f6>
    5ffc:	00004637          	lui	a2,0x4
    6000:	00b785b3          	add	a1,a5,a1
    6004:	bcb60613          	addi	a2,a2,-1077 # 3bcb <move_piece+0x7f7>
    6008:	00058023          	sb	zero,0(a1)
    600c:	00c78633          	add	a2,a5,a2
    6010:	00060023          	sb	zero,0(a2)
    6014:	dfdfe06f          	j	4e10 <tick+0x49c>
    6018:	0f04a683          	lw	a3,240(s1)
    601c:	1a069e63          	bnez	a3,61d8 <tick+0x1864>
    6020:	0f44a683          	lw	a3,244(s1)
    6024:	00069463          	bnez	a3,602c <tick+0x16b8>
    6028:	a5dfe06f          	j	4a84 <tick+0x110>
    602c:	00270593          	addi	a1,a4,2
    6030:	01300693          	li	a3,19
    6034:	00b6d463          	bge	a3,a1,603c <tick+0x16c8>
    6038:	bc5fe06f          	j	4bfc <tick+0x288>
    603c:	00259693          	slli	a3,a1,0x2
    6040:	a29fe06f          	j	4a68 <tick+0xf4>
    6044:	0fc4a683          	lw	a3,252(s1)
    6048:	0a068863          	beqz	a3,60f8 <tick+0x1784>
    604c:	00370593          	addi	a1,a4,3
    6050:	01300693          	li	a3,19
    6054:	00b6d463          	bge	a3,a1,605c <tick+0x16e8>
    6058:	ba5fe06f          	j	4bfc <tick+0x288>
    605c:	00178513          	addi	a0,a5,1
    6060:	00259613          	slli	a2,a1,0x2
    6064:	a65fe06f          	j	4ac8 <tick+0x154>
    6068:	10c4a683          	lw	a3,268(s1)
    606c:	10068c63          	beqz	a3,6184 <tick+0x1810>
    6070:	00470593          	addi	a1,a4,4
    6074:	01300693          	li	a3,19
    6078:	00b6d463          	bge	a3,a1,6080 <tick+0x170c>
    607c:	b81fe06f          	j	4bfc <tick+0x288>
    6080:	00178513          	addi	a0,a5,1
    6084:	00259693          	slli	a3,a1,0x2
    6088:	00b68633          	add	a2,a3,a1
    608c:	00161613          	slli	a2,a2,0x1
    6090:	00c48633          	add	a2,s1,a2
    6094:	00a60633          	add	a2,a2,a0
    6098:	00064603          	lbu	a2,0(a2)
    609c:	00060463          	beqz	a2,60a4 <tick+0x1730>
    60a0:	b5dfe06f          	j	4bfc <tick+0x288>
    60a4:	1104a603          	lw	a2,272(s1)
    60a8:	00278513          	addi	a0,a5,2
    60ac:	0e061c63          	bnez	a2,61a4 <tick+0x1830>
    60b0:	1144a683          	lw	a3,276(s1)
    60b4:	02068a63          	beqz	a3,60e8 <tick+0x1774>
    60b8:	00470593          	addi	a1,a4,4
    60bc:	01300693          	li	a3,19
    60c0:	00b6d463          	bge	a3,a1,60c8 <tick+0x1754>
    60c4:	b39fe06f          	j	4bfc <tick+0x288>
    60c8:	00259693          	slli	a3,a1,0x2
    60cc:	00b686b3          	add	a3,a3,a1
    60d0:	00169693          	slli	a3,a3,0x1
    60d4:	00d486b3          	add	a3,s1,a3
    60d8:	00f687b3          	add	a5,a3,a5
    60dc:	0037c783          	lbu	a5,3(a5)
    60e0:	00078463          	beqz	a5,60e8 <tick+0x1774>
    60e4:	b19fe06f          	j	4bfc <tick+0x288>
    60e8:	00170713          	addi	a4,a4,1
    60ec:	0ce4a823          	sw	a4,208(s1)
    60f0:	0000d9b7          	lui	s3,0xd
    60f4:	e8dfe06f          	j	4f80 <tick+0x60c>
    60f8:	1004a683          	lw	a3,256(s1)
    60fc:	00069463          	bnez	a3,6104 <tick+0x1790>
    6100:	f2dfe06f          	j	502c <tick+0x6b8>
    6104:	00370593          	addi	a1,a4,3
    6108:	01300693          	li	a3,19
    610c:	00b6d463          	bge	a3,a1,6114 <tick+0x17a0>
    6110:	aedfe06f          	j	4bfc <tick+0x288>
    6114:	00259613          	slli	a2,a1,0x2
    6118:	9d1fe06f          	j	4ae8 <tick+0x174>
    611c:	1004a683          	lw	a3,256(s1)
    6120:	00068463          	beqz	a3,6128 <tick+0x17b4>
    6124:	9c5fe06f          	j	4ae8 <tick+0x174>
    6128:	9ddfe06f          	j	4b04 <tick+0x190>
    612c:	00271693          	slli	a3,a4,0x2
    6130:	00e686b3          	add	a3,a3,a4
    6134:	000077b7          	lui	a5,0x7
    6138:	00469693          	slli	a3,a3,0x4
    613c:	00170713          	addi	a4,a4,1
    6140:	ac878793          	addi	a5,a5,-1336 # 6ac8 <locked_pieces>
    6144:	88e9a423          	sw	a4,-1912(s3) # c888 <num_locked>
    6148:	00d787b3          	add	a5,a5,a3
    614c:	00090713          	mv	a4,s2
    6150:	11848693          	addi	a3,s1,280
    6154:	00872603          	lw	a2,8(a4)
    6158:	00072503          	lw	a0,0(a4)
    615c:	00472583          	lw	a1,4(a4)
    6160:	00c7a423          	sw	a2,8(a5)
    6164:	00a7a023          	sw	a0,0(a5)
    6168:	00b7a223          	sw	a1,4(a5)
    616c:	00c72603          	lw	a2,12(a4)
    6170:	01070713          	addi	a4,a4,16
    6174:	01078793          	addi	a5,a5,16
    6178:	fec7ae23          	sw	a2,-4(a5)
    617c:	fcd71ce3          	bne	a4,a3,6154 <tick+0x17e0>
    6180:	bbdfe06f          	j	4d3c <tick+0x3c8>
    6184:	1104a683          	lw	a3,272(s1)
    6188:	f20684e3          	beqz	a3,60b0 <tick+0x173c>
    618c:	00470593          	addi	a1,a4,4
    6190:	01300693          	li	a3,19
    6194:	00b6d463          	bge	a3,a1,619c <tick+0x1828>
    6198:	a65fe06f          	j	4bfc <tick+0x288>
    619c:	00259693          	slli	a3,a1,0x2
    61a0:	00278513          	addi	a0,a5,2
    61a4:	00b68633          	add	a2,a3,a1
    61a8:	00161613          	slli	a2,a2,0x1
    61ac:	00c48633          	add	a2,s1,a2
    61b0:	00a60633          	add	a2,a2,a0
    61b4:	00064603          	lbu	a2,0(a2)
    61b8:	00060463          	beqz	a2,61c0 <tick+0x184c>
    61bc:	a41fe06f          	j	4bfc <tick+0x288>
    61c0:	1144a603          	lw	a2,276(s1)
    61c4:	f20602e3          	beqz	a2,60e8 <tick+0x1774>
    61c8:	f05ff06f          	j	60cc <tick+0x1758>
    61cc:	1104a603          	lw	a2,272(s1)
    61d0:	fe0608e3          	beqz	a2,61c0 <tick+0x184c>
    61d4:	fcdff06f          	j	61a0 <tick+0x182c>
    61d8:	00270593          	addi	a1,a4,2
    61dc:	01300693          	li	a3,19
    61e0:	00b6d463          	bge	a3,a1,61e8 <tick+0x1874>
    61e4:	a19fe06f          	j	4bfc <tick+0x288>
    61e8:	00259693          	slli	a3,a1,0x2
    61ec:	e99fe06f          	j	5084 <tick+0x710>

000061f0 <handle_interrupt>:
    61f0:	01000793          	li	a5,16
    61f4:	00f50463          	beq	a0,a5,61fc <handle_interrupt+0xc>
    61f8:	00008067          	ret
    61fc:	040007b7          	lui	a5,0x4000
    6200:	0000d737          	lui	a4,0xd
    6204:	02079023          	sh	zero,32(a5) # 4000020 <_stack_end+0x3ef3664>
    6208:	89072783          	lw	a5,-1904(a4) # c890 <timeoutcount>
    620c:	00800693          	li	a3,8
    6210:	00178793          	addi	a5,a5,1
    6214:	00d78663          	beq	a5,a3,6220 <handle_interrupt+0x30>
    6218:	88f72823          	sw	a5,-1904(a4)
    621c:	00008067          	ret
    6220:	000077b7          	lui	a5,0x7
    6224:	95c7a503          	lw	a0,-1700(a5) # 695c <VGA>
    6228:	88072823          	sw	zero,-1904(a4)
    622c:	f48fe06f          	j	4974 <tick>

00006230 <main>:
    6230:	f6010113          	addi	sp,sp,-160
    6234:	08112e23          	sw	ra,156(sp)
    6238:	040007b7          	lui	a5,0x4000
    623c:	08812c23          	sw	s0,152(sp)
    6240:	08912a23          	sw	s1,148(sp)
    6244:	09212823          	sw	s2,144(sp)
    6248:	09312623          	sw	s3,140(sp)
    624c:	09412423          	sw	s4,136(sp)
    6250:	09512223          	sw	s5,132(sp)
    6254:	09612023          	sw	s6,128(sp)
    6258:	07712e23          	sw	s7,124(sp)
    625c:	07812c23          	sw	s8,120(sp)
    6260:	07912a23          	sw	s9,116(sp)
    6264:	07a12823          	sw	s10,112(sp)
    6268:	07b12623          	sw	s11,108(sp)
    626c:	00007437          	lui	s0,0x7
    6270:	96040413          	addi	s0,s0,-1696 # 6960 <grid>
    6274:	0e07a223          	sw	zero,228(a5) # 40000e4 <_stack_end+0x3ef3728>
    6278:	d61fa0ef          	jal	fd8 <start>
    627c:	000074b7          	lui	s1,0x7
    6280:	00042023          	sw	zero,0(s0)
    6284:	00042223          	sw	zero,4(s0)
    6288:	00042423          	sw	zero,8(s0)
    628c:	00042623          	sw	zero,12(s0)
    6290:	00042823          	sw	zero,16(s0)
    6294:	00042a23          	sw	zero,20(s0)
    6298:	00042c23          	sw	zero,24(s0)
    629c:	00042e23          	sw	zero,28(s0)
    62a0:	02042023          	sw	zero,32(s0)
    62a4:	02042223          	sw	zero,36(s0)
    62a8:	02042423          	sw	zero,40(s0)
    62ac:	02042623          	sw	zero,44(s0)
    62b0:	02042823          	sw	zero,48(s0)
    62b4:	02042a23          	sw	zero,52(s0)
    62b8:	02042c23          	sw	zero,56(s0)
    62bc:	02042e23          	sw	zero,60(s0)
    62c0:	04042023          	sw	zero,64(s0)
    62c4:	04042223          	sw	zero,68(s0)
    62c8:	04042423          	sw	zero,72(s0)
    62cc:	04042623          	sw	zero,76(s0)
    62d0:	04042823          	sw	zero,80(s0)
    62d4:	04042a23          	sw	zero,84(s0)
    62d8:	04042c23          	sw	zero,88(s0)
    62dc:	04042e23          	sw	zero,92(s0)
    62e0:	06042023          	sw	zero,96(s0)
    62e4:	06042223          	sw	zero,100(s0)
    62e8:	06042423          	sw	zero,104(s0)
    62ec:	06042623          	sw	zero,108(s0)
    62f0:	06042823          	sw	zero,112(s0)
    62f4:	06042a23          	sw	zero,116(s0)
    62f8:	06042c23          	sw	zero,120(s0)
    62fc:	06042e23          	sw	zero,124(s0)
    6300:	08042023          	sw	zero,128(s0)
    6304:	95c4a503          	lw	a0,-1700(s1) # 695c <VGA>
    6308:	08042223          	sw	zero,132(s0)
    630c:	08042423          	sw	zero,136(s0)
    6310:	08042623          	sw	zero,140(s0)
    6314:	08042823          	sw	zero,144(s0)
    6318:	08042a23          	sw	zero,148(s0)
    631c:	08042c23          	sw	zero,152(s0)
    6320:	08042e23          	sw	zero,156(s0)
    6324:	0a042023          	sw	zero,160(s0)
    6328:	0a042223          	sw	zero,164(s0)
    632c:	0a042423          	sw	zero,168(s0)
    6330:	0a042623          	sw	zero,172(s0)
    6334:	0a042823          	sw	zero,176(s0)
    6338:	0a042a23          	sw	zero,180(s0)
    633c:	0a042c23          	sw	zero,184(s0)
    6340:	0a042e23          	sw	zero,188(s0)
    6344:	0c042023          	sw	zero,192(s0)
    6348:	0c042223          	sw	zero,196(s0)
    634c:	9fcfb0ef          	jal	1548 <draw_grid>
    6350:	ffffc737          	lui	a4,0xffffc
    6354:	040007b7          	lui	a5,0x4000
    6358:	6bf70713          	addi	a4,a4,1727 # ffffc6bf <_stack_end+0xffeefd03>
    635c:	02e79423          	sh	a4,40(a5) # 4000028 <_stack_end+0x3ef366c>
    6360:	040007b7          	lui	a5,0x4000
    6364:	02d00713          	li	a4,45
    6368:	02e79623          	sh	a4,44(a5) # 400002c <_stack_end+0x3ef3670>
    636c:	040007b7          	lui	a5,0x4000
    6370:	00700713          	li	a4,7
    6374:	02e79223          	sh	a4,36(a5) # 4000024 <_stack_end+0x3ef3668>
    6378:	00100713          	li	a4,1
    637c:	040007b7          	lui	a5,0x4000
    6380:	0ce7ac23          	sw	a4,216(a5) # 40000d8 <_stack_end+0x3ef371c>
    6384:	040007b7          	lui	a5,0x4000
    6388:	0ce7ae23          	sw	a4,220(a5) # 40000dc <_stack_end+0x3ef3720>
    638c:	de9f90ef          	jal	174 <enable_interrupt>
    6390:	040007b7          	lui	a5,0x4000
    6394:	0107a683          	lw	a3,16(a5) # 4000010 <_stack_end+0x3ef3654>
    6398:	24925737          	lui	a4,0x24925
    639c:	92570713          	addi	a4,a4,-1755 # 24924925 <_stack_end+0x24817f69>
    63a0:	0ff6f693          	zext.b	a3,a3
    63a4:	00269793          	slli	a5,a3,0x2
    63a8:	00d787b3          	add	a5,a5,a3
    63ac:	00479613          	slli	a2,a5,0x4
    63b0:	40f60633          	sub	a2,a2,a5
    63b4:	0b360613          	addi	a2,a2,179
    63b8:	03f67613          	andi	a2,a2,63
    63bc:	0ff67693          	zext.b	a3,a2
    63c0:	02e6b733          	mulhu	a4,a3,a4
    63c4:	0000d5b7          	lui	a1,0xd
    63c8:	88c5a623          	sw	a2,-1908(a1) # c88c <seed>
    63cc:	000067b7          	lui	a5,0x6
    63d0:	72c78793          	addi	a5,a5,1836 # 672c <pieces>
    63d4:	11840913          	addi	s2,s0,280
    63d8:	00090613          	mv	a2,s2
    63dc:	40e685b3          	sub	a1,a3,a4
    63e0:	0015d593          	srli	a1,a1,0x1
    63e4:	00b70733          	add	a4,a4,a1
    63e8:	00275713          	srli	a4,a4,0x2
    63ec:	00371593          	slli	a1,a4,0x3
    63f0:	40e58733          	sub	a4,a1,a4
    63f4:	40e68733          	sub	a4,a3,a4
    63f8:	0ff77713          	zext.b	a4,a4
    63fc:	00271693          	slli	a3,a4,0x2
    6400:	00e68733          	add	a4,a3,a4
    6404:	00471713          	slli	a4,a4,0x4
    6408:	00e787b3          	add	a5,a5,a4
    640c:	05078713          	addi	a4,a5,80
    6410:	0087a683          	lw	a3,8(a5)
    6414:	0007a503          	lw	a0,0(a5)
    6418:	0047a583          	lw	a1,4(a5)
    641c:	00d62423          	sw	a3,8(a2)
    6420:	00a62023          	sw	a0,0(a2)
    6424:	00b62223          	sw	a1,4(a2)
    6428:	00c7a683          	lw	a3,12(a5)
    642c:	01078793          	addi	a5,a5,16
    6430:	01060613          	addi	a2,a2,16
    6434:	fed62e23          	sw	a3,-4(a2)
    6438:	fce79ce3          	bne	a5,a4,6410 <main+0x1e0>
    643c:	ec1fa0ef          	jal	12fc <spawn_next>
    6440:	95c4a503          	lw	a0,-1700(s1)
    6444:	0c840593          	addi	a1,s0,200
    6448:	a20fb0ef          	jal	1668 <draw_shape>
    644c:	95c4a503          	lw	a0,-1700(s1)
    6450:	00090593          	mv	a1,s2
    6454:	e14fb0ef          	jal	1a68 <draw_next_piece>
    6458:	0d042783          	lw	a5,208(s0)
    645c:	0cc42583          	lw	a1,204(s0)
    6460:	0d842b83          	lw	s7,216(s0)
    6464:	00f12c23          	sw	a5,24(sp)
    6468:	01812703          	lw	a4,24(sp)
    646c:	00279793          	slli	a5,a5,0x2
    6470:	00258d93          	addi	s11,a1,2
    6474:	00e787b3          	add	a5,a5,a4
    6478:	00358713          	addi	a4,a1,3
    647c:	00e12a23          	sw	a4,20(sp)
    6480:	00179793          	slli	a5,a5,0x1
    6484:	00b40733          	add	a4,s0,a1
    6488:	00e787b3          	add	a5,a5,a4
    648c:	00f12e23          	sw	a5,28(sp)
    6490:	00358793          	addi	a5,a1,3
    6494:	00158d13          	addi	s10,a1,1
    6498:	00adb713          	sltiu	a4,s11,10
    649c:	00a7b793          	sltiu	a5,a5,10
    64a0:	0dc42b03          	lw	s6,220(s0)
    64a4:	0e042a83          	lw	s5,224(s0)
    64a8:	0e442a03          	lw	s4,228(s0)
    64ac:	0e842983          	lw	s3,232(s0)
    64b0:	0ec42903          	lw	s2,236(s0)
    64b4:	0f042483          	lw	s1,240(s0)
    64b8:	0f442383          	lw	t2,244(s0)
    64bc:	0f842283          	lw	t0,248(s0)
    64c0:	0fc42f83          	lw	t6,252(s0)
    64c4:	10042f03          	lw	t5,256(s0)
    64c8:	10442e83          	lw	t4,260(s0)
    64cc:	10842e03          	lw	t3,264(s0)
    64d0:	10c42303          	lw	t1,268(s0)
    64d4:	11042883          	lw	a7,272(s0)
    64d8:	11442803          	lw	a6,276(s0)
    64dc:	00ad3c93          	sltiu	s9,s10,10
    64e0:	00a5bc13          	sltiu	s8,a1,10
    64e4:	00174713          	xori	a4,a4,1
    64e8:	0017c793          	xori	a5,a5,1
    64ec:	04000537          	lui	a0,0x4000
    64f0:	001ccc93          	xori	s9,s9,1
    64f4:	00e12623          	sw	a4,12(sp)
    64f8:	00f12823          	sw	a5,16(sp)
    64fc:	001c4c13          	xori	s8,s8,1
    6500:	0d050513          	addi	a0,a0,208 # 40000d0 <_stack_end+0x3ef3714>
    6504:	00052783          	lw	a5,0(a0)
    6508:	0017f793          	andi	a5,a5,1
    650c:	fe078ce3          	beqz	a5,6504 <main+0x2d4>
    6510:	01812703          	lw	a4,24(sp)
    6514:	01c12683          	lw	a3,28(sp)
    6518:	03712623          	sw	s7,44(sp)
    651c:	03612e23          	sw	s6,60(sp)
    6520:	05512623          	sw	s5,76(sp)
    6524:	05412e23          	sw	s4,92(sp)
    6528:	03312423          	sw	s3,40(sp)
    652c:	03212c23          	sw	s2,56(sp)
    6530:	04912423          	sw	s1,72(sp)
    6534:	04712c23          	sw	t2,88(sp)
    6538:	02512223          	sw	t0,36(sp)
    653c:	03f12a23          	sw	t6,52(sp)
    6540:	05e12223          	sw	t5,68(sp)
    6544:	05d12a23          	sw	t4,84(sp)
    6548:	03c12023          	sw	t3,32(sp)
    654c:	02612823          	sw	t1,48(sp)
    6550:	05112023          	sw	a7,64(sp)
    6554:	05012823          	sw	a6,80(sp)
    6558:	02010793          	addi	a5,sp,32
    655c:	0007a603          	lw	a2,0(a5)
    6560:	00060c63          	beqz	a2,6578 <main+0x348>
    6564:	01473613          	sltiu	a2,a4,20
    6568:	f8060ee3          	beqz	a2,6504 <main+0x2d4>
    656c:	f80c1ce3          	bnez	s8,6504 <main+0x2d4>
    6570:	0006c603          	lbu	a2,0(a3)
    6574:	f80618e3          	bnez	a2,6504 <main+0x2d4>
    6578:	0047a603          	lw	a2,4(a5)
    657c:	02060063          	beqz	a2,659c <main+0x36c>
    6580:	01473613          	sltiu	a2,a4,20
    6584:	f80600e3          	beqz	a2,6504 <main+0x2d4>
    6588:	f60c9ee3          	bnez	s9,6504 <main+0x2d4>
    658c:	00dd0633          	add	a2,s10,a3
    6590:	40b60633          	sub	a2,a2,a1
    6594:	00064603          	lbu	a2,0(a2)
    6598:	f60616e3          	bnez	a2,6504 <main+0x2d4>
    659c:	0087a603          	lw	a2,8(a5)
    65a0:	02060263          	beqz	a2,65c4 <main+0x394>
    65a4:	01473613          	sltiu	a2,a4,20
    65a8:	f4060ee3          	beqz	a2,6504 <main+0x2d4>
    65ac:	00c12603          	lw	a2,12(sp)
    65b0:	f4061ae3          	bnez	a2,6504 <main+0x2d4>
    65b4:	01b68633          	add	a2,a3,s11
    65b8:	40b60633          	sub	a2,a2,a1
    65bc:	00064603          	lbu	a2,0(a2)
    65c0:	f40612e3          	bnez	a2,6504 <main+0x2d4>
    65c4:	00c7a603          	lw	a2,12(a5)
    65c8:	02060463          	beqz	a2,65f0 <main+0x3c0>
    65cc:	01473613          	sltiu	a2,a4,20
    65d0:	f2060ae3          	beqz	a2,6504 <main+0x2d4>
    65d4:	01012603          	lw	a2,16(sp)
    65d8:	f20616e3          	bnez	a2,6504 <main+0x2d4>
    65dc:	01412603          	lw	a2,20(sp)
    65e0:	00c68633          	add	a2,a3,a2
    65e4:	40b60633          	sub	a2,a2,a1
    65e8:	00064603          	lbu	a2,0(a2)
    65ec:	f0061ce3          	bnez	a2,6504 <main+0x2d4>
    65f0:	01078793          	addi	a5,a5,16
    65f4:	06010613          	addi	a2,sp,96
    65f8:	00a68693          	addi	a3,a3,10
    65fc:	00170713          	addi	a4,a4,1
    6600:	f4c79ee3          	bne	a5,a2,655c <main+0x32c>
    6604:	000b8793          	mv	a5,s7
    6608:	00090613          	mv	a2,s2
    660c:	000b0713          	mv	a4,s6
    6610:	000a8693          	mv	a3,s5
    6614:	0f742223          	sw	s7,228(s0)
    6618:	0f242823          	sw	s2,240(s0)
    661c:	0f642a23          	sw	s6,244(s0)
    6620:	11542223          	sw	s5,260(s0)
    6624:	0dc42c23          	sw	t3,216(s0)
    6628:	0c542e23          	sw	t0,220(s0)
    662c:	0f342023          	sw	s3,224(s0)
    6630:	0ff42623          	sw	t6,236(s0)
    6634:	000f8913          	mv	s2,t6
    6638:	00098a93          	mv	s5,s3
    663c:	00028b13          	mv	s6,t0
    6640:	000e0b93          	mv	s7,t3
    6644:	0e642423          	sw	t1,232(s0)
    6648:	0f142c23          	sw	a7,248(s0)
    664c:	0fe42e23          	sw	t5,252(s0)
    6650:	11042423          	sw	a6,264(s0)
    6654:	000f0f93          	mv	t6,t5
    6658:	00030993          	mv	s3,t1
    665c:	00088293          	mv	t0,a7
    6660:	00080e13          	mv	t3,a6
    6664:	10942023          	sw	s1,256(s0)
    6668:	11d42623          	sw	t4,268(s0)
    666c:	10742823          	sw	t2,272(s0)
    6670:	11442a23          	sw	s4,276(s0)
    6674:	00048f13          	mv	t5,s1
    6678:	000e8313          	mv	t1,t4
    667c:	00038893          	mv	a7,t2
    6680:	000a0813          	mv	a6,s4
    6684:	00060493          	mv	s1,a2
    6688:	00068e93          	mv	t4,a3
    668c:	00070393          	mv	t2,a4
    6690:	00078a13          	mv	s4,a5
    6694:	e71ff06f          	j	6504 <main+0x2d4>

Disassembly of section .data:

00006698 <welcome_msg>:
    6698:	3d3d                	.insn	2, 0x3d3d
    669a:	3d3d                	.insn	2, 0x3d3d
    669c:	3d3d                	.insn	2, 0x3d3d
    669e:	3d3d                	.insn	2, 0x3d3d
    66a0:	3d3d                	.insn	2, 0x3d3d
    66a2:	3d3d                	.insn	2, 0x3d3d
    66a4:	3d3d                	.insn	2, 0x3d3d
    66a6:	3d3d                	.insn	2, 0x3d3d
    66a8:	3d3d                	.insn	2, 0x3d3d
    66aa:	3d3d                	.insn	2, 0x3d3d
    66ac:	3d3d                	.insn	2, 0x3d3d
    66ae:	3d3d                	.insn	2, 0x3d3d
    66b0:	3d3d                	.insn	2, 0x3d3d
    66b2:	3d3d                	.insn	2, 0x3d3d
    66b4:	3d3d                	.insn	2, 0x3d3d
    66b6:	3d3d                	.insn	2, 0x3d3d
    66b8:	3d3d                	.insn	2, 0x3d3d
    66ba:	3d3d                	.insn	2, 0x3d3d
    66bc:	3d3d                	.insn	2, 0x3d3d
    66be:	3d3d                	.insn	2, 0x3d3d
    66c0:	3d3d                	.insn	2, 0x3d3d
    66c2:	3d3d                	.insn	2, 0x3d3d
    66c4:	3d3d                	.insn	2, 0x3d3d
    66c6:	3d3d                	.insn	2, 0x3d3d
    66c8:	3d0a                	.insn	2, 0x3d0a
    66ca:	3d3d                	.insn	2, 0x3d3d
    66cc:	3d3d                	.insn	2, 0x3d3d
    66ce:	5220                	.insn	2, 0x5220
    66d0:	5349                	.insn	2, 0x5349
    66d2:	20562d43          	.insn	4, 0x20562d43
    66d6:	6f42                	.insn	2, 0x6f42
    66d8:	552d746f          	jal	s0,ddc2a <font5x7+0xd1396>
    66dc:	2070                	.insn	2, 0x2070
    66de:	7250                	.insn	2, 0x7250
    66e0:	7365636f          	jal	t1,5ce16 <font5x7+0x50582>
    66e4:	6f4e2073          	csrs	0x6f4,t3
    66e8:	6f432077          	.insn	4, 0x6f432077
    66ec:	706d                	.insn	2, 0x706d
    66ee:	656c                	.insn	2, 0x656c
    66f0:	6574                	.insn	2, 0x6574
    66f2:	3d20                	.insn	2, 0x3d20
    66f4:	3d3d                	.insn	2, 0x3d3d
    66f6:	3d3d                	.insn	2, 0x3d3d
    66f8:	0a3d                	.insn	2, 0x0a3d
    66fa:	3d3d                	.insn	2, 0x3d3d
    66fc:	3d3d                	.insn	2, 0x3d3d
    66fe:	3d3d                	.insn	2, 0x3d3d
    6700:	3d3d                	.insn	2, 0x3d3d
    6702:	3d3d                	.insn	2, 0x3d3d
    6704:	3d3d                	.insn	2, 0x3d3d
    6706:	3d3d                	.insn	2, 0x3d3d
    6708:	3d3d                	.insn	2, 0x3d3d
    670a:	3d3d                	.insn	2, 0x3d3d
    670c:	3d3d                	.insn	2, 0x3d3d
    670e:	3d3d                	.insn	2, 0x3d3d
    6710:	3d3d                	.insn	2, 0x3d3d
    6712:	3d3d                	.insn	2, 0x3d3d
    6714:	3d3d                	.insn	2, 0x3d3d
    6716:	3d3d                	.insn	2, 0x3d3d
    6718:	3d3d                	.insn	2, 0x3d3d
    671a:	3d3d                	.insn	2, 0x3d3d
    671c:	3d3d                	.insn	2, 0x3d3d
    671e:	3d3d                	.insn	2, 0x3d3d
    6720:	3d3d                	.insn	2, 0x3d3d
    6722:	3d3d                	.insn	2, 0x3d3d
    6724:	3d3d                	.insn	2, 0x3d3d
    6726:	3d3d                	.insn	2, 0x3d3d
    6728:	3d3d                	.insn	2, 0x3d3d
    672a:	000a                	.insn	2, 0x000a

0000672c <pieces>:
	...
    6738:	001f 0000 0001      	.insn	6, 0x00010000001f
	...
    674a:	0000                	.insn	2, 0x0000
    674c:	0001                	.insn	2, 0x0001
	...
    675a:	0000                	.insn	2, 0x0000
    675c:	0001                	.insn	2, 0x0001
	...
    676a:	0000                	.insn	2, 0x0000
    676c:	0001                	.insn	2, 0x0001
	...
    677a:	0000                	.insn	2, 0x0000
    677c:	0001                	.insn	2, 0x0001
	...
    6786:	0000                	.insn	2, 0x0000
    6788:	00000003          	lb	zero,0(zero) # 0 <_isr_handler>
    678c:	0000                	.insn	2, 0x0000
    678e:	0000                	.insn	2, 0x0000
    6790:	0001                	.insn	2, 0x0001
	...
    679e:	0000                	.insn	2, 0x0000
    67a0:	0001                	.insn	2, 0x0001
	...
    67aa:	0000                	.insn	2, 0x0000
    67ac:	0001                	.insn	2, 0x0001
    67ae:	0000                	.insn	2, 0x0000
    67b0:	0001                	.insn	2, 0x0001
	...
    67ca:	0000                	.insn	2, 0x0000
    67cc:	0002                	.insn	2, 0x0002
	...
    67d6:	0000                	.insn	2, 0x0000
    67d8:	00ec                	.insn	2, 0x00ec
    67da:	0000                	.insn	2, 0x0000
    67dc:	0001                	.insn	2, 0x0001
	...
    67ea:	0000                	.insn	2, 0x0000
    67ec:	0001                	.insn	2, 0x0001
	...
    67fa:	0000                	.insn	2, 0x0000
    67fc:	0001                	.insn	2, 0x0001
    67fe:	0000                	.insn	2, 0x0000
    6800:	0001                	.insn	2, 0x0001
	...
    681a:	0000                	.insn	2, 0x0000
    681c:	00000003          	lb	zero,0(zero) # 0 <_isr_handler>
	...
    6828:	00fc                	.insn	2, 0x00fc
    682a:	0000                	.insn	2, 0x0000
    682c:	0001                	.insn	2, 0x0001
    682e:	0000                	.insn	2, 0x0000
    6830:	0001                	.insn	2, 0x0001
	...
    683a:	0000                	.insn	2, 0x0000
    683c:	0001                	.insn	2, 0x0001
    683e:	0000                	.insn	2, 0x0000
    6840:	0001                	.insn	2, 0x0001
	...
    686a:	0000                	.insn	2, 0x0000
    686c:	0004                	.insn	2, 0x0004
	...
    6876:	0000                	.insn	2, 0x0000
    6878:	001c                	.insn	2, 0x001c
    687a:	0000                	.insn	2, 0x0000
    687c:	0001                	.insn	2, 0x0001
	...
    688a:	0000                	.insn	2, 0x0000
    688c:	0001                	.insn	2, 0x0001
    688e:	0000                	.insn	2, 0x0000
    6890:	0001                	.insn	2, 0x0001
	...
    689e:	0000                	.insn	2, 0x0000
    68a0:	0001                	.insn	2, 0x0001
	...
    68ba:	0000                	.insn	2, 0x0000
    68bc:	0005                	.insn	2, 0x0005
	...
    68c6:	0000                	.insn	2, 0x0000
    68c8:	00000063          	beqz	zero,68c8 <pieces+0x19c>
    68cc:	0000                	.insn	2, 0x0000
    68ce:	0000                	.insn	2, 0x0000
    68d0:	0001                	.insn	2, 0x0001
	...
    68da:	0000                	.insn	2, 0x0000
    68dc:	0001                	.insn	2, 0x0001
    68de:	0000                	.insn	2, 0x0000
    68e0:	0001                	.insn	2, 0x0001
    68e2:	0000                	.insn	2, 0x0000
    68e4:	0001                	.insn	2, 0x0001
	...
    690a:	0000                	.insn	2, 0x0000
    690c:	0006                	.insn	2, 0x0006
	...
    6916:	0000                	.insn	2, 0x0000
    6918:	00e0                	.insn	2, 0x00e0
    691a:	0000                	.insn	2, 0x0000
    691c:	0001                	.insn	2, 0x0001
    691e:	0000                	.insn	2, 0x0000
    6920:	0001                	.insn	2, 0x0001
	...
    692e:	0000                	.insn	2, 0x0000
    6930:	0001                	.insn	2, 0x0001
    6932:	0000                	.insn	2, 0x0000
    6934:	0001                	.insn	2, 0x0001
	...

0000695c <VGA>:
    695c:	0000                	.insn	2, 0x0000
    695e:	0800                	.insn	2, 0x0800

Disassembly of section .rodata:

0000c894 <font5x7>:
    c894:	117e                	.insn	2, 0x117e
    c896:	7e11                	.insn	2, 0x7e11
    c898:	7f00                	.insn	2, 0x7f00
    c89a:	4949                	.insn	2, 0x4949
    c89c:	0036                	.insn	2, 0x0036
    c89e:	413e                	.insn	2, 0x413e
    c8a0:	2241                	.insn	2, 0x2241
    c8a2:	7f00                	.insn	2, 0x7f00
    c8a4:	4141                	.insn	2, 0x4141
    c8a6:	003e                	.insn	2, 0x003e
    c8a8:	497f 4149 7f00 0909 	.insn	18, 0x08087f007251413e000109097f004149497f
    c8b0:	0001 413e 7251 7f00 
    c8b8:	0808 
    c8ba:	007f 4100 417f 2000 	.insn	10, 0x41402000417f4100007f
    c8c2:	4140 
    c8c4:	087f003f 7f006314 	.insn	8, 0x7f006314087f003f
    c8cc:	4040                	.insn	2, 0x4040
    c8ce:	0040                	.insn	2, 0x0040
    c8d0:	067f 7f06 7f00 1806 	.insn	10, 0x007f18067f007f06067f
    c8d8:	007f 
    c8da:	413e                	.insn	2, 0x413e
    c8dc:	3e41                	.insn	2, 0x3e41
    c8de:	7f00                	.insn	2, 0x7f00
    c8e0:	0909                	.insn	2, 0x0909
    c8e2:	0006                	.insn	2, 0x0006
    c8e4:	413e                	.insn	2, 0x413e
    c8e6:	7e61                	.insn	2, 0x7e61
    c8e8:	7f00                	.insn	2, 0x7f00
    c8ea:	1909                	.insn	2, 0x1909
    c8ec:	0066                	.insn	2, 0x0066
    c8ee:	4926                	.insn	2, 0x4926
    c8f0:	3249                	.insn	2, 0x3249
    c8f2:	0100                	.insn	2, 0x0100
    c8f4:	017f 0001 403f 3f40 	.insn	10, 0x1f003f40403f0001017f
    c8fc:	1f00 
    c8fe:	6060                	.insn	2, 0x6060
    c900:	001f 307f 7f30      	.insn	6, 0x7f30307f001f
    c906:	6300                	.insn	2, 0x6300
    c908:	1c1c                	.insn	2, 0x1c1c
    c90a:	78070063          	beqz	a4,d08a <font5x7+0x7f6>
    c90e:	0708                	.insn	2, 0x0708
    c910:	6100                	.insn	2, 0x6100
    c912:	4951                	.insn	2, 0x4951
    c914:	0047                	.short	0x0047

Disassembly of section .rodata.str1.4:

0000c918 <.rodata.str1.4>:
    c918:	5b0a                	.insn	2, 0x5b0a
    c91a:	5845                	.insn	2, 0x5845
    c91c:	54504543          	.insn	4, 0x54504543
    c920:	4f49                	.insn	2, 0x4f49
    c922:	5d4e                	.insn	2, 0x5d4e
    c924:	4920                	.insn	2, 0x4920
    c926:	736e                	.insn	2, 0x736e
    c928:	7274                	.insn	2, 0x7274
    c92a:	6375                	.insn	2, 0x6375
    c92c:	6974                	.insn	2, 0x6974
    c92e:	61206e6f          	jal	t3,12f40 <font5x7+0x66ac>
    c932:	6464                	.insn	2, 0x6464
    c934:	6572                	.insn	2, 0x6572
    c936:	6d207373          	csrrci	t1,0x6d2,0
    c93a:	7369                	.insn	2, 0x7369
    c93c:	6c61                	.insn	2, 0x6c61
    c93e:	6769                	.insn	2, 0x6769
    c940:	6d6e                	.insn	2, 0x6d6e
    c942:	6e65                	.insn	2, 0x6e65
    c944:	2e74                	.insn	2, 0x2e74
    c946:	0020                	.insn	2, 0x0020
    c948:	5b0a                	.insn	2, 0x5b0a
    c94a:	5845                	.insn	2, 0x5845
    c94c:	54504543          	.insn	4, 0x54504543
    c950:	4f49                	.insn	2, 0x4f49
    c952:	5d4e                	.insn	2, 0x5d4e
    c954:	4920                	.insn	2, 0x4920
    c956:	6c6c                	.insn	2, 0x6c6c
    c958:	6765                	.insn	2, 0x6765
    c95a:	6c61                	.insn	2, 0x6c61
    c95c:	6920                	.insn	2, 0x6920
    c95e:	736e                	.insn	2, 0x736e
    c960:	7274                	.insn	2, 0x7274
    c962:	6375                	.insn	2, 0x6375
    c964:	6974                	.insn	2, 0x6974
    c966:	202e6e6f          	jal	t3,f2b68 <font5x7+0xe62d4>
    c96a:	0000                	.insn	2, 0x0000
    c96c:	5b0a                	.insn	2, 0x5b0a
    c96e:	5845                	.insn	2, 0x5845
    c970:	54504543          	.insn	4, 0x54504543
    c974:	4f49                	.insn	2, 0x4f49
    c976:	5d4e                	.insn	2, 0x5d4e
    c978:	5520                	.insn	2, 0x5520
    c97a:	6b6e                	.insn	2, 0x6b6e
    c97c:	6f6e                	.insn	2, 0x6f6e
    c97e:	65206e77          	.insn	4, 0x65206e77
    c982:	7272                	.insn	2, 0x7272
    c984:	202e726f          	jal	tp,f3b86 <font5x7+0xe72f2>
    c988:	0000                	.insn	2, 0x0000
    c98a:	0000                	.insn	2, 0x0000
    c98c:	7845                	.insn	2, 0x7845
    c98e:	74706563          	bltu	zero,t2,d0d8 <font5x7+0x844>
    c992:	6f69                	.insn	2, 0x6f69
    c994:	206e                	.insn	2, 0x206e
    c996:	6441                	.insn	2, 0x6441
    c998:	7264                	.insn	2, 0x7264
    c99a:	7365                	.insn	2, 0x7365
    c99c:	00203a73          	csrrc	s4,frm,zero
    c9a0:	4554                	.insn	2, 0x4554
    c9a2:	5254                	.insn	2, 0x5254
    c9a4:	5349                	.insn	2, 0x5349
    c9a6:	0000                	.insn	2, 0x0000
    c9a8:	454d4147          	.insn	4, 0x454d4147
    c9ac:	4f20                	.insn	2, 0x4f20
    c9ae:	4556                	.insn	2, 0x4556
    c9b0:	0052                	.insn	2, 0x0052
    c9b2:	0000                	.insn	2, 0x0000
    c9b4:	524f4353          	.insn	4, 0x524f4353
    c9b8:	0045                	.insn	2, 0x0045

Disassembly of section .comment:

00000000 <.comment>:
   0:	3a434347          	.insn	4, 0x3a434347
   4:	2820                	.insn	2, 0x2820
   6:	2029                	.insn	2, 0x2029
   8:	3531                	.insn	2, 0x3531
   a:	312e                	.insn	2, 0x312e
   c:	302e                	.insn	2, 0x302e
	...

Disassembly of section .riscv.attributes:

00000000 <.riscv.attributes>:
   0:	3641                	.insn	2, 0x3641
   2:	0000                	.insn	2, 0x0000
   4:	7200                	.insn	2, 0x7200
   6:	7369                	.insn	2, 0x7369
   8:	01007663          	bgeu	zero,a6,14 <_isr_routine+0xc>
   c:	002c                	.insn	2, 0x002c
   e:	0000                	.insn	2, 0x0000
  10:	1004                	.insn	2, 0x1004
  12:	7205                	.insn	2, 0x7205
  14:	3376                	.insn	2, 0x3376
  16:	6932                	.insn	2, 0x6932
  18:	7032                	.insn	2, 0x7032
  1a:	5f31                	.insn	2, 0x5f31
  1c:	326d                	.insn	2, 0x326d
  1e:	3070                	.insn	2, 0x3070
  20:	7a5f 6369 7273      	.insn	6, 0x727363697a5f
  26:	7032                	.insn	2, 0x7032
  28:	5f30                	.insn	2, 0x5f30
  2a:	6d7a                	.insn	2, 0x6d7a
  2c:	756d                	.insn	2, 0x756d
  2e:	316c                	.insn	2, 0x316c
  30:	3070                	.insn	2, 0x3070
  32:	0800                	.insn	2, 0x0800
  34:	0a01                	.insn	2, 0x0a01
  36:	0b                	.byte	0x0b
