
main.elf:     file format elf32-littleriscv


Disassembly of section .text:

00000000 <_isr_handler>:
       0:	0080006f          	j	8 <_isr_routine>
       4:	1440006f          	j	148 <_start>

00000008 <_isr_routine>:
       8:	f8010113          	addi	sp,sp,-128
       c:	00112023          	sw	ra,0(sp)
      10:	00312423          	sw	gp,8(sp)
      14:	00412623          	sw	tp,12(sp)
      18:	00512823          	sw	t0,16(sp)
      1c:	00612a23          	sw	t1,20(sp)
      20:	00712c23          	sw	t2,24(sp)
      24:	00812e23          	sw	s0,28(sp)
      28:	02912023          	sw	s1,32(sp)
      2c:	02a12223          	sw	a0,36(sp)
      30:	02b12423          	sw	a1,40(sp)
      34:	02c12623          	sw	a2,44(sp)
      38:	02d12823          	sw	a3,48(sp)
      3c:	02e12a23          	sw	a4,52(sp)
      40:	02f12c23          	sw	a5,56(sp)
      44:	03012e23          	sw	a6,60(sp)
      48:	05112023          	sw	a7,64(sp)
      4c:	05212223          	sw	s2,68(sp)
      50:	05312423          	sw	s3,72(sp)
      54:	05412623          	sw	s4,76(sp)
      58:	05512823          	sw	s5,80(sp)
      5c:	05612a23          	sw	s6,84(sp)
      60:	05712c23          	sw	s7,88(sp)
      64:	05812e23          	sw	s8,92(sp)
      68:	07912023          	sw	s9,96(sp)
      6c:	07a12223          	sw	s10,100(sp)
      70:	07b12423          	sw	s11,104(sp)
      74:	07c12623          	sw	t3,108(sp)
      78:	07d12823          	sw	t4,112(sp)
      7c:	07e12a23          	sw	t5,116(sp)
      80:	07f12c23          	sw	t6,120(sp)
      84:	342022f3          	csrr	t0,mcause
      88:	80000337          	lui	t1,0x80000
      8c:	02536463          	bltu	t1,t0,b4 <external_irq>
      90:	00028833          	add	a6,t0,zero
      94:	00b00313          	li	t1,11
      98:	00628463          	beq	t0,t1,a0 <skip_init_args>
      9c:	34102573          	csrr	a0,mepc

000000a0 <skip_init_args>:
      a0:	24c000ef          	jal	2ec <handle_exception>
      a4:	341022f3          	csrr	t0,mepc
      a8:	00428293          	addi	t0,t0,4
      ac:	34129073          	csrw	mepc,t0
      b0:	0180006f          	j	c8 <restore>

000000b4 <external_irq>:
      b4:	800002b7          	lui	t0,0x80000
      b8:	fff28293          	addi	t0,t0,-1 # 7fffffff <_stack_end+0x7fef2e5f>
      bc:	34202373          	csrr	t1,mcause
      c0:	0062f533          	and	a0,t0,t1
      c4:	371060ef          	jal	6c34 <handle_interrupt>

000000c8 <restore>:
      c8:	00012083          	lw	ra,0(sp)
      cc:	00812183          	lw	gp,8(sp)
      d0:	00c12203          	lw	tp,12(sp)
      d4:	01012283          	lw	t0,16(sp)
      d8:	01412303          	lw	t1,20(sp)
      dc:	01812383          	lw	t2,24(sp)
      e0:	01c12403          	lw	s0,28(sp)
      e4:	02012483          	lw	s1,32(sp)
      e8:	02412503          	lw	a0,36(sp)
      ec:	02812583          	lw	a1,40(sp)
      f0:	02c12603          	lw	a2,44(sp)
      f4:	03012683          	lw	a3,48(sp)
      f8:	03412703          	lw	a4,52(sp)
      fc:	03812783          	lw	a5,56(sp)
     100:	03c12803          	lw	a6,60(sp)
     104:	04012883          	lw	a7,64(sp)
     108:	04412903          	lw	s2,68(sp)
     10c:	04812983          	lw	s3,72(sp)
     110:	04c12a03          	lw	s4,76(sp)
     114:	05012a83          	lw	s5,80(sp)
     118:	05412b03          	lw	s6,84(sp)
     11c:	05812b83          	lw	s7,88(sp)
     120:	05c12c03          	lw	s8,92(sp)
     124:	06012c83          	lw	s9,96(sp)
     128:	06412d03          	lw	s10,100(sp)
     12c:	06812d83          	lw	s11,104(sp)
     130:	06c12e03          	lw	t3,108(sp)
     134:	07012e83          	lw	t4,112(sp)
     138:	07412f03          	lw	t5,116(sp)
     13c:	07812f83          	lw	t6,120(sp)
     140:	08010113          	addi	sp,sp,128
     144:	30200073          	mret

00000148 <_start>:
     148:	30401073          	csrw	mie,zero
     14c:	0010d117          	auipc	sp,0x10d
     150:	05410113          	addi	sp,sp,84 # 10d1a0 <_stack_end>
     154:	00007197          	auipc	gp,0x7
     158:	7f418193          	addi	gp,gp,2036 # 7948 <__global_pointer>
     15c:	00007517          	auipc	a0,0x7
     160:	d2850513          	addi	a0,a0,-728 # 6e84 <welcome_msg>
     164:	00400893          	li	a7,4
     168:	00000073          	ecall
     16c:	309060ef          	jal	6c74 <main>

00000170 <loop>:
     170:	0000006f          	j	170 <loop>

00000174 <enable_interrupt>:
     174:	30486073          	csrsi	mie,16
     178:	30496073          	csrsi	mie,18
     17c:	3001e073          	csrsi	mstatus,3
     180:	00008067          	ret

00000184 <printc>:
     184:	04000737          	lui	a4,0x4000
     188:	04470713          	addi	a4,a4,68 # 4000044 <_stack_end+0x3ef2ea4>
     18c:	000106b7          	lui	a3,0x10
     190:	00072783          	lw	a5,0(a4)
     194:	fed7eee3          	bltu	a5,a3,190 <printc+0xc>
     198:	040007b7          	lui	a5,0x4000
     19c:	04a7a023          	sw	a0,64(a5) # 4000040 <_stack_end+0x3ef2ea0>
     1a0:	00008067          	ret

000001a4 <print>:
     1a4:	00054603          	lbu	a2,0(a0)
     1a8:	02060863          	beqz	a2,1d8 <print+0x34>
     1ac:	04000737          	lui	a4,0x4000
     1b0:	040005b7          	lui	a1,0x4000
     1b4:	04470713          	addi	a4,a4,68 # 4000044 <_stack_end+0x3ef2ea4>
     1b8:	000106b7          	lui	a3,0x10
     1bc:	04058593          	addi	a1,a1,64 # 4000040 <_stack_end+0x3ef2ea0>
     1c0:	00072783          	lw	a5,0(a4)
     1c4:	fed7eee3          	bltu	a5,a3,1c0 <print+0x1c>
     1c8:	00c5a023          	sw	a2,0(a1)
     1cc:	00154603          	lbu	a2,1(a0)
     1d0:	00150513          	addi	a0,a0,1
     1d4:	fe0616e3          	bnez	a2,1c0 <print+0x1c>
     1d8:	00008067          	ret

000001dc <print_dec>:
     1dc:	3b9ad737          	lui	a4,0x3b9ad
     1e0:	040006b7          	lui	a3,0x4000
     1e4:	04000337          	lui	t1,0x4000
     1e8:	00a00593          	li	a1,10
     1ec:	00000793          	li	a5,0
     1f0:	a0070713          	addi	a4,a4,-1536 # 3b9aca00 <_stack_end+0x3b89f860>
     1f4:	04468693          	addi	a3,a3,68 # 4000044 <_stack_end+0x3ef2ea4>
     1f8:	00010637          	lui	a2,0x10
     1fc:	04030313          	addi	t1,t1,64 # 4000040 <_stack_end+0x3ef2ea0>
     200:	00a00893          	li	a7,10
     204:	04e57063          	bgeu	a0,a4,244 <print_dec+0x68>
     208:	02079e63          	bnez	a5,244 <print_dec+0x68>
     20c:	fff58593          	addi	a1,a1,-1
     210:	02e57533          	remu	a0,a0,a4
     214:	03175733          	divu	a4,a4,a7
     218:	fe0596e3          	bnez	a1,204 <print_dec+0x28>
     21c:	02079263          	bnez	a5,240 <print_dec+0x64>
     220:	04000737          	lui	a4,0x4000
     224:	04470713          	addi	a4,a4,68 # 4000044 <_stack_end+0x3ef2ea4>
     228:	000106b7          	lui	a3,0x10
     22c:	00072783          	lw	a5,0(a4)
     230:	fed7eee3          	bltu	a5,a3,22c <print_dec+0x50>
     234:	040007b7          	lui	a5,0x4000
     238:	03000713          	li	a4,48
     23c:	04e7a023          	sw	a4,64(a5) # 4000040 <_stack_end+0x3ef2ea0>
     240:	00008067          	ret
     244:	02e55833          	divu	a6,a0,a4
     248:	03080813          	addi	a6,a6,48
     24c:	0ff87813          	zext.b	a6,a6
     250:	0006a783          	lw	a5,0(a3) # 10000 <font5x7+0x2f80>
     254:	fec7eee3          	bltu	a5,a2,250 <print_dec+0x74>
     258:	01032023          	sw	a6,0(t1)
     25c:	00100793          	li	a5,1
     260:	fadff06f          	j	20c <print_dec+0x30>

00000264 <print_hex32>:
     264:	04000737          	lui	a4,0x4000
     268:	04470713          	addi	a4,a4,68 # 4000044 <_stack_end+0x3ef2ea4>
     26c:	000106b7          	lui	a3,0x10
     270:	00072783          	lw	a5,0(a4)
     274:	fed7eee3          	bltu	a5,a3,270 <print_hex32+0xc>
     278:	03000693          	li	a3,48
     27c:	040007b7          	lui	a5,0x4000
     280:	04000737          	lui	a4,0x4000
     284:	04d7a023          	sw	a3,64(a5) # 4000040 <_stack_end+0x3ef2ea0>
     288:	04470713          	addi	a4,a4,68 # 4000044 <_stack_end+0x3ef2ea4>
     28c:	000106b7          	lui	a3,0x10
     290:	00072783          	lw	a5,0(a4)
     294:	fed7eee3          	bltu	a5,a3,290 <print_hex32+0x2c>
     298:	04000837          	lui	a6,0x4000
     29c:	04080813          	addi	a6,a6,64 # 4000040 <_stack_end+0x3ef2ea0>
     2a0:	04000737          	lui	a4,0x4000
     2a4:	07800793          	li	a5,120
     2a8:	00f82023          	sw	a5,0(a6)
     2ac:	01c00613          	li	a2,28
     2b0:	00900313          	li	t1,9
     2b4:	04470713          	addi	a4,a4,68 # 4000044 <_stack_end+0x3ef2ea4>
     2b8:	000106b7          	lui	a3,0x10
     2bc:	ffc00893          	li	a7,-4
     2c0:	00c557b3          	srl	a5,a0,a2
     2c4:	00f7f793          	andi	a5,a5,15
     2c8:	03778593          	addi	a1,a5,55
     2cc:	00f36463          	bltu	t1,a5,2d4 <print_hex32+0x70>
     2d0:	03078593          	addi	a1,a5,48
     2d4:	00072783          	lw	a5,0(a4)
     2d8:	fed7eee3          	bltu	a5,a3,2d4 <print_hex32+0x70>
     2dc:	00b82023          	sw	a1,0(a6)
     2e0:	ffc60613          	addi	a2,a2,-4 # fffc <font5x7+0x2f7c>
     2e4:	fd161ee3          	bne	a2,a7,2c0 <print_hex32+0x5c>
     2e8:	00008067          	ret

000002ec <handle_exception>:
     2ec:	00200793          	li	a5,2
     2f0:	18f80863          	beq	a6,a5,480 <handle_exception+0x194>
     2f4:	00b00793          	li	a5,11
     2f8:	12f80063          	beq	a6,a5,418 <handle_exception+0x12c>
     2fc:	04000737          	lui	a4,0x4000
     300:	14081463          	bnez	a6,448 <handle_exception+0x15c>
     304:	04000837          	lui	a6,0x4000
     308:	0000d637          	lui	a2,0xd
     30c:	10460613          	addi	a2,a2,260 # d104 <font5x7+0x84>
     310:	00a00593          	li	a1,10
     314:	04470713          	addi	a4,a4,68 # 4000044 <_stack_end+0x3ef2ea4>
     318:	000106b7          	lui	a3,0x10
     31c:	04080813          	addi	a6,a6,64 # 4000040 <_stack_end+0x3ef2ea0>
     320:	00072783          	lw	a5,0(a4)
     324:	fed7eee3          	bltu	a5,a3,320 <handle_exception+0x34>
     328:	00b82023          	sw	a1,0(a6)
     32c:	00164583          	lbu	a1,1(a2)
     330:	00160613          	addi	a2,a2,1
     334:	fe0596e3          	bnez	a1,320 <handle_exception+0x34>
     338:	04000737          	lui	a4,0x4000
     33c:	04000837          	lui	a6,0x4000
     340:	0000d637          	lui	a2,0xd
     344:	17860613          	addi	a2,a2,376 # d178 <font5x7+0xf8>
     348:	04500593          	li	a1,69
     34c:	04470713          	addi	a4,a4,68 # 4000044 <_stack_end+0x3ef2ea4>
     350:	000106b7          	lui	a3,0x10
     354:	04080813          	addi	a6,a6,64 # 4000040 <_stack_end+0x3ef2ea0>
     358:	00072783          	lw	a5,0(a4)
     35c:	fed7eee3          	bltu	a5,a3,358 <handle_exception+0x6c>
     360:	00b82023          	sw	a1,0(a6)
     364:	00164583          	lbu	a1,1(a2)
     368:	00160613          	addi	a2,a2,1
     36c:	fe0596e3          	bnez	a1,358 <handle_exception+0x6c>
     370:	04000737          	lui	a4,0x4000
     374:	04470713          	addi	a4,a4,68 # 4000044 <_stack_end+0x3ef2ea4>
     378:	000106b7          	lui	a3,0x10
     37c:	00072783          	lw	a5,0(a4)
     380:	fed7eee3          	bltu	a5,a3,37c <handle_exception+0x90>
     384:	03000693          	li	a3,48
     388:	040007b7          	lui	a5,0x4000
     38c:	04000737          	lui	a4,0x4000
     390:	04d7a023          	sw	a3,64(a5) # 4000040 <_stack_end+0x3ef2ea0>
     394:	04470713          	addi	a4,a4,68 # 4000044 <_stack_end+0x3ef2ea4>
     398:	000106b7          	lui	a3,0x10
     39c:	00072783          	lw	a5,0(a4)
     3a0:	fed7eee3          	bltu	a5,a3,39c <handle_exception+0xb0>
     3a4:	04000837          	lui	a6,0x4000
     3a8:	04080813          	addi	a6,a6,64 # 4000040 <_stack_end+0x3ef2ea0>
     3ac:	04000737          	lui	a4,0x4000
     3b0:	07800793          	li	a5,120
     3b4:	00f82023          	sw	a5,0(a6)
     3b8:	01c00613          	li	a2,28
     3bc:	00900313          	li	t1,9
     3c0:	04470713          	addi	a4,a4,68 # 4000044 <_stack_end+0x3ef2ea4>
     3c4:	000106b7          	lui	a3,0x10
     3c8:	ffc00893          	li	a7,-4
     3cc:	00c557b3          	srl	a5,a0,a2
     3d0:	00f7f793          	andi	a5,a5,15
     3d4:	03778593          	addi	a1,a5,55
     3d8:	00f36463          	bltu	t1,a5,3e0 <handle_exception+0xf4>
     3dc:	03078593          	addi	a1,a5,48
     3e0:	00072783          	lw	a5,0(a4)
     3e4:	fed7eee3          	bltu	a5,a3,3e0 <handle_exception+0xf4>
     3e8:	00b82023          	sw	a1,0(a6)
     3ec:	ffc60613          	addi	a2,a2,-4
     3f0:	fd161ee3          	bne	a2,a7,3cc <handle_exception+0xe0>
     3f4:	04000737          	lui	a4,0x4000
     3f8:	04470713          	addi	a4,a4,68 # 4000044 <_stack_end+0x3ef2ea4>
     3fc:	000106b7          	lui	a3,0x10
     400:	00072783          	lw	a5,0(a4)
     404:	fed7eee3          	bltu	a5,a3,400 <handle_exception+0x114>
     408:	040007b7          	lui	a5,0x4000
     40c:	00a00713          	li	a4,10
     410:	04e7a023          	sw	a4,64(a5) # 4000040 <_stack_end+0x3ef2ea0>
     414:	0000006f          	j	414 <handle_exception+0x128>
     418:	00400793          	li	a5,4
     41c:	0af88063          	beq	a7,a5,4bc <handle_exception+0x1d0>
     420:	0d089a63          	bne	a7,a6,4f4 <handle_exception+0x208>
     424:	04000737          	lui	a4,0x4000
     428:	04470713          	addi	a4,a4,68 # 4000044 <_stack_end+0x3ef2ea4>
     42c:	000106b7          	lui	a3,0x10
     430:	00072783          	lw	a5,0(a4)
     434:	fed7eee3          	bltu	a5,a3,430 <handle_exception+0x144>
     438:	040007b7          	lui	a5,0x4000
     43c:	0ff57513          	zext.b	a0,a0
     440:	04a7a023          	sw	a0,64(a5) # 4000040 <_stack_end+0x3ef2ea0>
     444:	00008067          	ret
     448:	04000837          	lui	a6,0x4000
     44c:	0000d637          	lui	a2,0xd
     450:	15860613          	addi	a2,a2,344 # d158 <font5x7+0xd8>
     454:	00a00593          	li	a1,10
     458:	04470713          	addi	a4,a4,68
     45c:	000106b7          	lui	a3,0x10
     460:	04080813          	addi	a6,a6,64 # 4000040 <_stack_end+0x3ef2ea0>
     464:	00072783          	lw	a5,0(a4)
     468:	fed7eee3          	bltu	a5,a3,464 <handle_exception+0x178>
     46c:	00b82023          	sw	a1,0(a6)
     470:	00164583          	lbu	a1,1(a2)
     474:	00160613          	addi	a2,a2,1
     478:	fe0596e3          	bnez	a1,464 <handle_exception+0x178>
     47c:	ebdff06f          	j	338 <handle_exception+0x4c>
     480:	04000737          	lui	a4,0x4000
     484:	04000837          	lui	a6,0x4000
     488:	0000d637          	lui	a2,0xd
     48c:	13460613          	addi	a2,a2,308 # d134 <font5x7+0xb4>
     490:	00a00593          	li	a1,10
     494:	04470713          	addi	a4,a4,68 # 4000044 <_stack_end+0x3ef2ea4>
     498:	000106b7          	lui	a3,0x10
     49c:	04080813          	addi	a6,a6,64 # 4000040 <_stack_end+0x3ef2ea0>
     4a0:	00072783          	lw	a5,0(a4)
     4a4:	fed7eee3          	bltu	a5,a3,4a0 <handle_exception+0x1b4>
     4a8:	00b82023          	sw	a1,0(a6)
     4ac:	00164583          	lbu	a1,1(a2)
     4b0:	00160613          	addi	a2,a2,1
     4b4:	fe0596e3          	bnez	a1,4a0 <handle_exception+0x1b4>
     4b8:	e81ff06f          	j	338 <handle_exception+0x4c>
     4bc:	00054603          	lbu	a2,0(a0)
     4c0:	02060a63          	beqz	a2,4f4 <handle_exception+0x208>
     4c4:	04000737          	lui	a4,0x4000
     4c8:	040005b7          	lui	a1,0x4000
     4cc:	04470713          	addi	a4,a4,68 # 4000044 <_stack_end+0x3ef2ea4>
     4d0:	000106b7          	lui	a3,0x10
     4d4:	04058593          	addi	a1,a1,64 # 4000040 <_stack_end+0x3ef2ea0>
     4d8:	00072783          	lw	a5,0(a4)
     4dc:	fed7eee3          	bltu	a5,a3,4d8 <handle_exception+0x1ec>
     4e0:	00c5a023          	sw	a2,0(a1)
     4e4:	00154603          	lbu	a2,1(a0)
     4e8:	00150513          	addi	a0,a0,1
     4ec:	fe0616e3          	bnez	a2,4d8 <handle_exception+0x1ec>
     4f0:	00008067          	ret
     4f4:	00008067          	ret

000004f8 <nextprime>:
     4f8:	00200713          	li	a4,2
     4fc:	00050793          	mv	a5,a0
     500:	02a74063          	blt	a4,a0,520 <nextprime+0x28>
     504:	00100513          	li	a0,1
     508:	00f05a63          	blez	a5,51c <nextprime+0x24>
     50c:	fff78793          	addi	a5,a5,-1
     510:	00f037b3          	snez	a5,a5
     514:	00278513          	addi	a0,a5,2
     518:	00008067          	ret
     51c:	00008067          	ret
     520:	00150793          	addi	a5,a0,1
     524:	0017e513          	ori	a0,a5,1
     528:	00300613          	li	a2,3
     52c:	02c567b3          	rem	a5,a0,a2
     530:	40155693          	srai	a3,a0,0x1
     534:	02078263          	beqz	a5,558 <nextprime+0x60>
     538:	00268693          	addi	a3,a3,2 # 10002 <font5x7+0x2f82>
     53c:	00300793          	li	a5,3
     540:	00c0006f          	j	54c <nextprime+0x54>
     544:	02f56733          	rem	a4,a0,a5
     548:	00070863          	beqz	a4,558 <nextprime+0x60>
     54c:	00178793          	addi	a5,a5,1
     550:	fef69ae3          	bne	a3,a5,544 <nextprime+0x4c>
     554:	00008067          	ret
     558:	00250513          	addi	a0,a0,2
     55c:	fd1ff06f          	j	52c <nextprime+0x34>

00000560 <update_shape.constprop.0>:
     560:	fd010113          	addi	sp,sp,-48
     564:	01412e23          	sw	s4,28(sp)
     568:	00007a37          	lui	s4,0x7
     56c:	02812623          	sw	s0,44(sp)
     570:	02912423          	sw	s1,40(sp)
     574:	03212223          	sw	s2,36(sp)
     578:	03312023          	sw	s3,32(sp)
     57c:	01512c23          	sw	s5,24(sp)
     580:	01612a23          	sw	s6,20(sp)
     584:	01712823          	sw	s7,16(sp)
     588:	01812623          	sw	s8,12(sp)
     58c:	01912423          	sw	s9,8(sp)
     590:	00000e93          	li	t4,0
     594:	01300913          	li	s2,19
     598:	00900993          	li	s3,9
     59c:	00400393          	li	t2,4
     5a0:	14ca0a13          	addi	s4,s4,332 # 714c <grid>
     5a4:	00007737          	lui	a4,0x7
     5a8:	01200613          	li	a2,18
     5ac:	08100413          	li	s0,129
     5b0:	00800493          	li	s1,8
     5b4:	00700f13          	li	t5,7
     5b8:	004e9813          	slli	a6,t4,0x4
     5bc:	01050833          	add	a6,a0,a6
     5c0:	00000593          	li	a1,0
     5c4:	01082783          	lw	a5,16(a6)
     5c8:	1c078c63          	beqz	a5,7a0 <update_shape.constprop.0+0x240>
     5cc:	00852783          	lw	a5,8(a0)
     5d0:	00fe87b3          	add	a5,t4,a5
     5d4:	1cf96663          	bltu	s2,a5,7a0 <update_shape.constprop.0+0x240>
     5d8:	00452683          	lw	a3,4(a0)
     5dc:	00d586b3          	add	a3,a1,a3
     5e0:	1cd9e063          	bltu	s3,a3,7a0 <update_shape.constprop.0+0x240>
     5e4:	00279313          	slli	t1,a5,0x2
     5e8:	00f30333          	add	t1,t1,a5
     5ec:	00131313          	slli	t1,t1,0x1
     5f0:	00578793          	addi	a5,a5,5
     5f4:	006a0333          	add	t1,s4,t1
     5f8:	00d30333          	add	t1,t1,a3
     5fc:	00279893          	slli	a7,a5,0x2
     600:	00f887b3          	add	a5,a7,a5
     604:	00034e03          	lbu	t3,0(t1)
     608:	00679793          	slli	a5,a5,0x6
     60c:	00f68693          	addi	a3,a3,15
     610:	00d787b3          	add	a5,a5,a3
     614:	00379793          	slli	a5,a5,0x3
     618:	1c0e1a63          	bnez	t3,7ec <update_shape.constprop.0+0x28c>
     61c:	14872883          	lw	a7,328(a4) # 7148 <VGA>
     620:	00178313          	addi	t1,a5,1
     624:	00278693          	addi	a3,a5,2
     628:	00f887b3          	add	a5,a7,a5
     62c:	00c78023          	sb	a2,0(a5)
     630:	14872783          	lw	a5,328(a4)
     634:	006787b3          	add	a5,a5,t1
     638:	00c78023          	sb	a2,0(a5)
     63c:	14872783          	lw	a5,328(a4)
     640:	00168893          	addi	a7,a3,1
     644:	00268293          	addi	t0,a3,2
     648:	00d787b3          	add	a5,a5,a3
     64c:	00c78023          	sb	a2,0(a5)
     650:	14872783          	lw	a5,328(a4)
     654:	00368f93          	addi	t6,a3,3
     658:	00468313          	addi	t1,a3,4
     65c:	011787b3          	add	a5,a5,a7
     660:	00c78023          	sb	a2,0(a5)
     664:	14872783          	lw	a5,328(a4)
     668:	00568893          	addi	a7,a3,5
     66c:	14068693          	addi	a3,a3,320
     670:	005787b3          	add	a5,a5,t0
     674:	00c78023          	sb	a2,0(a5)
     678:	14872783          	lw	a5,328(a4)
     67c:	01f787b3          	add	a5,a5,t6
     680:	00c78023          	sb	a2,0(a5)
     684:	14872783          	lw	a5,328(a4)
     688:	006787b3          	add	a5,a5,t1
     68c:	00c78023          	sb	a2,0(a5)
     690:	14872783          	lw	a5,328(a4)
     694:	011787b3          	add	a5,a5,a7
     698:	00c78023          	sb	a2,0(a5)
     69c:	11ee0263          	beq	t3,t5,7a0 <update_shape.constprop.0+0x240>
     6a0:	00100e13          	li	t3,1
     6a4:	14872783          	lw	a5,328(a4)
     6a8:	ffe68893          	addi	a7,a3,-2
     6ac:	00168b13          	addi	s6,a3,1
     6b0:	011787b3          	add	a5,a5,a7
     6b4:	00c78023          	sb	a2,0(a5)
     6b8:	14872783          	lw	a5,328(a4)
     6bc:	fff68893          	addi	a7,a3,-1
     6c0:	00268a93          	addi	s5,a3,2
     6c4:	00368293          	addi	t0,a3,3
     6c8:	00468f93          	addi	t6,a3,4
     6cc:	00568313          	addi	t1,a3,5
     6d0:	011787b3          	add	a5,a5,a7
     6d4:	11ee0863          	beq	t3,t5,7e4 <update_shape.constprop.0+0x284>
     6d8:	00078023          	sb	zero,0(a5)
     6dc:	14872783          	lw	a5,328(a4)
     6e0:	001e0e13          	addi	t3,t3,1
     6e4:	00d787b3          	add	a5,a5,a3
     6e8:	00078023          	sb	zero,0(a5)
     6ec:	14872783          	lw	a5,328(a4)
     6f0:	14068693          	addi	a3,a3,320
     6f4:	016787b3          	add	a5,a5,s6
     6f8:	00078023          	sb	zero,0(a5)
     6fc:	14872783          	lw	a5,328(a4)
     700:	015787b3          	add	a5,a5,s5
     704:	00078023          	sb	zero,0(a5)
     708:	14872783          	lw	a5,328(a4)
     70c:	005787b3          	add	a5,a5,t0
     710:	00078023          	sb	zero,0(a5)
     714:	14872783          	lw	a5,328(a4)
     718:	01f787b3          	add	a5,a5,t6
     71c:	00078023          	sb	zero,0(a5)
     720:	14872783          	lw	a5,328(a4)
     724:	006787b3          	add	a5,a5,t1
     728:	00c78023          	sb	a2,0(a5)
     72c:	f79ff06f          	j	6a4 <update_shape.constprop.0+0x144>
     730:	14872683          	lw	a3,328(a4)
     734:	00378a93          	addi	s5,a5,3
     738:	00478293          	addi	t0,a5,4
     73c:	00f686b3          	add	a3,a3,a5
     740:	00c68023          	sb	a2,0(a3)
     744:	14872683          	lw	a3,328(a4)
     748:	00578f93          	addi	t6,a5,5
     74c:	00678313          	addi	t1,a5,6
     750:	018686b3          	add	a3,a3,s8
     754:	00c68023          	sb	a2,0(a3)
     758:	14872683          	lw	a3,328(a4)
     75c:	00188893          	addi	a7,a7,1
     760:	14078793          	addi	a5,a5,320
     764:	017686b3          	add	a3,a3,s7
     768:	00c68023          	sb	a2,0(a3)
     76c:	14872683          	lw	a3,328(a4)
     770:	015686b3          	add	a3,a3,s5
     774:	00c68023          	sb	a2,0(a3)
     778:	14872683          	lw	a3,328(a4)
     77c:	005686b3          	add	a3,a3,t0
     780:	00c68023          	sb	a2,0(a3)
     784:	14872683          	lw	a3,328(a4)
     788:	01f686b3          	add	a3,a3,t6
     78c:	00c68023          	sb	a2,0(a3)
     790:	14872683          	lw	a3,328(a4)
     794:	006686b3          	add	a3,a3,t1
     798:	00c68023          	sb	a2,0(a3)
     79c:	04989c63          	bne	a7,s1,7f4 <update_shape.constprop.0+0x294>
     7a0:	00158593          	addi	a1,a1,1
     7a4:	00480813          	addi	a6,a6,4
     7a8:	e0759ee3          	bne	a1,t2,5c4 <update_shape.constprop.0+0x64>
     7ac:	001e8e93          	addi	t4,t4,1
     7b0:	e0be94e3          	bne	t4,a1,5b8 <update_shape.constprop.0+0x58>
     7b4:	02c12403          	lw	s0,44(sp)
     7b8:	02812483          	lw	s1,40(sp)
     7bc:	02412903          	lw	s2,36(sp)
     7c0:	02012983          	lw	s3,32(sp)
     7c4:	01c12a03          	lw	s4,28(sp)
     7c8:	01812a83          	lw	s5,24(sp)
     7cc:	01412b03          	lw	s6,20(sp)
     7d0:	01012b83          	lw	s7,16(sp)
     7d4:	00c12c03          	lw	s8,12(sp)
     7d8:	00812c83          	lw	s9,8(sp)
     7dc:	03010113          	addi	sp,sp,48
     7e0:	00008067          	ret
     7e4:	00c78023          	sb	a2,0(a5)
     7e8:	e55ff06f          	j	63c <update_shape.constprop.0+0xdc>
     7ec:	00178793          	addi	a5,a5,1
     7f0:	00000893          	li	a7,0
     7f4:	14872303          	lw	t1,328(a4)
     7f8:	fff78c93          	addi	s9,a5,-1
     7fc:	011456b3          	srl	a3,s0,a7
     800:	01930333          	add	t1,t1,s9
     804:	00c30023          	sb	a2,0(t1)
     808:	0016f693          	andi	a3,a3,1
     80c:	00178c13          	addi	s8,a5,1
     810:	00278b93          	addi	s7,a5,2
     814:	00378b13          	addi	s6,a5,3
     818:	00478a93          	addi	s5,a5,4
     81c:	00578293          	addi	t0,a5,5
     820:	00678f93          	addi	t6,a5,6
     824:	f00696e3          	bnez	a3,730 <update_shape.constprop.0+0x1d0>
     828:	14872683          	lw	a3,328(a4)
     82c:	00188893          	addi	a7,a7,1
     830:	00f686b3          	add	a3,a3,a5
     834:	01c68023          	sb	t3,0(a3)
     838:	14872683          	lw	a3,328(a4)
     83c:	14078793          	addi	a5,a5,320
     840:	018686b3          	add	a3,a3,s8
     844:	01c68023          	sb	t3,0(a3)
     848:	14872683          	lw	a3,328(a4)
     84c:	017686b3          	add	a3,a3,s7
     850:	01c68023          	sb	t3,0(a3)
     854:	14872683          	lw	a3,328(a4)
     858:	016686b3          	add	a3,a3,s6
     85c:	01c68023          	sb	t3,0(a3)
     860:	14872683          	lw	a3,328(a4)
     864:	015686b3          	add	a3,a3,s5
     868:	01c68023          	sb	t3,0(a3)
     86c:	14872683          	lw	a3,328(a4)
     870:	005686b3          	add	a3,a3,t0
     874:	01c68023          	sb	t3,0(a3)
     878:	14872683          	lw	a3,328(a4)
     87c:	01f686b3          	add	a3,a3,t6
     880:	00c68023          	sb	a2,0(a3)
     884:	f69898e3          	bne	a7,s1,7f4 <update_shape.constprop.0+0x294>
     888:	00158593          	addi	a1,a1,1
     88c:	00480813          	addi	a6,a6,4
     890:	d2759ae3          	bne	a1,t2,5c4 <update_shape.constprop.0+0x64>
     894:	f19ff06f          	j	7ac <update_shape.constprop.0+0x24c>

00000898 <set_rand_seed>:
     898:	0000d7b7          	lui	a5,0xd
     89c:	06a7ac23          	sw	a0,120(a5) # d078 <seed>
     8a0:	00008067          	ret

000008a4 <rand>:
     8a4:	0000d737          	lui	a4,0xd
     8a8:	07872683          	lw	a3,120(a4) # d078 <seed>
     8ac:	00269793          	slli	a5,a3,0x2
     8b0:	00d787b3          	add	a5,a5,a3
     8b4:	00479513          	slli	a0,a5,0x4
     8b8:	40f50533          	sub	a0,a0,a5
     8bc:	0b350513          	addi	a0,a0,179
     8c0:	03f57513          	andi	a0,a0,63
     8c4:	06a72c23          	sw	a0,120(a4)
     8c8:	00008067          	ret

000008cc <delay>:
     8cc:	00008067          	ret

000008d0 <spawn_piece>:
     8d0:	00007737          	lui	a4,0x7
     8d4:	14c70713          	addi	a4,a4,332 # 714c <grid>
     8d8:	0c870793          	addi	a5,a4,200
     8dc:	05050693          	addi	a3,a0,80
     8e0:	00052883          	lw	a7,0(a0)
     8e4:	00452803          	lw	a6,4(a0)
     8e8:	00852583          	lw	a1,8(a0)
     8ec:	00c52603          	lw	a2,12(a0)
     8f0:	0117a023          	sw	a7,0(a5)
     8f4:	0107a223          	sw	a6,4(a5)
     8f8:	00b7a423          	sw	a1,8(a5)
     8fc:	00c7a623          	sw	a2,12(a5)
     900:	01050513          	addi	a0,a0,16
     904:	01078793          	addi	a5,a5,16
     908:	fcd51ce3          	bne	a0,a3,8e0 <spawn_piece+0x10>
     90c:	00300793          	li	a5,3
     910:	0cf72623          	sw	a5,204(a4)
     914:	0c072823          	sw	zero,208(a4)
     918:	00008067          	ret

0000091c <is_filled>:
     91c:	01052703          	lw	a4,16(a0)
     920:	00050793          	mv	a5,a0
     924:	02070863          	beqz	a4,954 <is_filled+0x38>
     928:	00852703          	lw	a4,8(a0)
     92c:	00452603          	lw	a2,4(a0)
     930:	00271693          	slli	a3,a4,0x2
     934:	00e686b3          	add	a3,a3,a4
     938:	00007737          	lui	a4,0x7
     93c:	00169693          	slli	a3,a3,0x1
     940:	14c70713          	addi	a4,a4,332 # 714c <grid>
     944:	00d70733          	add	a4,a4,a3
     948:	00c70733          	add	a4,a4,a2
     94c:	00074703          	lbu	a4,0(a4)
     950:	34071263          	bnez	a4,c94 <is_filled+0x378>
     954:	0147a703          	lw	a4,20(a5)
     958:	02070863          	beqz	a4,988 <is_filled+0x6c>
     95c:	0087a703          	lw	a4,8(a5)
     960:	0047a603          	lw	a2,4(a5)
     964:	00271693          	slli	a3,a4,0x2
     968:	00e686b3          	add	a3,a3,a4
     96c:	00007737          	lui	a4,0x7
     970:	00169693          	slli	a3,a3,0x1
     974:	14c70713          	addi	a4,a4,332 # 714c <grid>
     978:	00d70733          	add	a4,a4,a3
     97c:	00c70733          	add	a4,a4,a2
     980:	00174703          	lbu	a4,1(a4)
     984:	30071863          	bnez	a4,c94 <is_filled+0x378>
     988:	0187a703          	lw	a4,24(a5)
     98c:	02070863          	beqz	a4,9bc <is_filled+0xa0>
     990:	0087a703          	lw	a4,8(a5)
     994:	0047a603          	lw	a2,4(a5)
     998:	00271693          	slli	a3,a4,0x2
     99c:	00e686b3          	add	a3,a3,a4
     9a0:	00007737          	lui	a4,0x7
     9a4:	00169693          	slli	a3,a3,0x1
     9a8:	14c70713          	addi	a4,a4,332 # 714c <grid>
     9ac:	00d70733          	add	a4,a4,a3
     9b0:	00c70733          	add	a4,a4,a2
     9b4:	00274703          	lbu	a4,2(a4)
     9b8:	2c071e63          	bnez	a4,c94 <is_filled+0x378>
     9bc:	01c7a703          	lw	a4,28(a5)
     9c0:	02070863          	beqz	a4,9f0 <is_filled+0xd4>
     9c4:	0087a703          	lw	a4,8(a5)
     9c8:	0047a603          	lw	a2,4(a5)
     9cc:	00271693          	slli	a3,a4,0x2
     9d0:	00e686b3          	add	a3,a3,a4
     9d4:	00007737          	lui	a4,0x7
     9d8:	00169693          	slli	a3,a3,0x1
     9dc:	14c70713          	addi	a4,a4,332 # 714c <grid>
     9e0:	00d70733          	add	a4,a4,a3
     9e4:	00c70733          	add	a4,a4,a2
     9e8:	00374703          	lbu	a4,3(a4)
     9ec:	2a071463          	bnez	a4,c94 <is_filled+0x378>
     9f0:	0207a703          	lw	a4,32(a5)
     9f4:	02070a63          	beqz	a4,a28 <is_filled+0x10c>
     9f8:	0087a703          	lw	a4,8(a5)
     9fc:	0047a603          	lw	a2,4(a5)
     a00:	00170713          	addi	a4,a4,1
     a04:	00271693          	slli	a3,a4,0x2
     a08:	00e686b3          	add	a3,a3,a4
     a0c:	00007737          	lui	a4,0x7
     a10:	00169693          	slli	a3,a3,0x1
     a14:	14c70713          	addi	a4,a4,332 # 714c <grid>
     a18:	00d70733          	add	a4,a4,a3
     a1c:	00c70733          	add	a4,a4,a2
     a20:	00074703          	lbu	a4,0(a4)
     a24:	26071863          	bnez	a4,c94 <is_filled+0x378>
     a28:	0247a703          	lw	a4,36(a5)
     a2c:	02070a63          	beqz	a4,a60 <is_filled+0x144>
     a30:	0087a703          	lw	a4,8(a5)
     a34:	0047a603          	lw	a2,4(a5)
     a38:	00170713          	addi	a4,a4,1
     a3c:	00271693          	slli	a3,a4,0x2
     a40:	00e686b3          	add	a3,a3,a4
     a44:	00007737          	lui	a4,0x7
     a48:	00169693          	slli	a3,a3,0x1
     a4c:	14c70713          	addi	a4,a4,332 # 714c <grid>
     a50:	00d70733          	add	a4,a4,a3
     a54:	00c70733          	add	a4,a4,a2
     a58:	00174703          	lbu	a4,1(a4)
     a5c:	22071c63          	bnez	a4,c94 <is_filled+0x378>
     a60:	0287a703          	lw	a4,40(a5)
     a64:	02070a63          	beqz	a4,a98 <is_filled+0x17c>
     a68:	0087a703          	lw	a4,8(a5)
     a6c:	0047a603          	lw	a2,4(a5)
     a70:	00170713          	addi	a4,a4,1
     a74:	00271693          	slli	a3,a4,0x2
     a78:	00e686b3          	add	a3,a3,a4
     a7c:	00007737          	lui	a4,0x7
     a80:	00169693          	slli	a3,a3,0x1
     a84:	14c70713          	addi	a4,a4,332 # 714c <grid>
     a88:	00d70733          	add	a4,a4,a3
     a8c:	00c70733          	add	a4,a4,a2
     a90:	00274703          	lbu	a4,2(a4)
     a94:	20071063          	bnez	a4,c94 <is_filled+0x378>
     a98:	02c7a703          	lw	a4,44(a5)
     a9c:	02070a63          	beqz	a4,ad0 <is_filled+0x1b4>
     aa0:	0087a703          	lw	a4,8(a5)
     aa4:	0047a603          	lw	a2,4(a5)
     aa8:	00170713          	addi	a4,a4,1
     aac:	00271693          	slli	a3,a4,0x2
     ab0:	00e686b3          	add	a3,a3,a4
     ab4:	00007737          	lui	a4,0x7
     ab8:	00169693          	slli	a3,a3,0x1
     abc:	14c70713          	addi	a4,a4,332 # 714c <grid>
     ac0:	00d70733          	add	a4,a4,a3
     ac4:	00c70733          	add	a4,a4,a2
     ac8:	00374703          	lbu	a4,3(a4)
     acc:	1c071463          	bnez	a4,c94 <is_filled+0x378>
     ad0:	0307a703          	lw	a4,48(a5)
     ad4:	02070a63          	beqz	a4,b08 <is_filled+0x1ec>
     ad8:	0087a703          	lw	a4,8(a5)
     adc:	0047a603          	lw	a2,4(a5)
     ae0:	00270713          	addi	a4,a4,2
     ae4:	00271693          	slli	a3,a4,0x2
     ae8:	00e686b3          	add	a3,a3,a4
     aec:	00007737          	lui	a4,0x7
     af0:	00169693          	slli	a3,a3,0x1
     af4:	14c70713          	addi	a4,a4,332 # 714c <grid>
     af8:	00d70733          	add	a4,a4,a3
     afc:	00c70733          	add	a4,a4,a2
     b00:	00074703          	lbu	a4,0(a4)
     b04:	18071863          	bnez	a4,c94 <is_filled+0x378>
     b08:	0347a703          	lw	a4,52(a5)
     b0c:	02070a63          	beqz	a4,b40 <is_filled+0x224>
     b10:	0087a703          	lw	a4,8(a5)
     b14:	0047a603          	lw	a2,4(a5)
     b18:	00270713          	addi	a4,a4,2
     b1c:	00271693          	slli	a3,a4,0x2
     b20:	00e686b3          	add	a3,a3,a4
     b24:	00007737          	lui	a4,0x7
     b28:	00169693          	slli	a3,a3,0x1
     b2c:	14c70713          	addi	a4,a4,332 # 714c <grid>
     b30:	00d70733          	add	a4,a4,a3
     b34:	00c70733          	add	a4,a4,a2
     b38:	00174703          	lbu	a4,1(a4)
     b3c:	14071c63          	bnez	a4,c94 <is_filled+0x378>
     b40:	0387a703          	lw	a4,56(a5)
     b44:	02070a63          	beqz	a4,b78 <is_filled+0x25c>
     b48:	0087a703          	lw	a4,8(a5)
     b4c:	0047a603          	lw	a2,4(a5)
     b50:	00270713          	addi	a4,a4,2
     b54:	00271693          	slli	a3,a4,0x2
     b58:	00e686b3          	add	a3,a3,a4
     b5c:	00007737          	lui	a4,0x7
     b60:	00169693          	slli	a3,a3,0x1
     b64:	14c70713          	addi	a4,a4,332 # 714c <grid>
     b68:	00d70733          	add	a4,a4,a3
     b6c:	00c70733          	add	a4,a4,a2
     b70:	00274703          	lbu	a4,2(a4)
     b74:	12071063          	bnez	a4,c94 <is_filled+0x378>
     b78:	03c7a703          	lw	a4,60(a5)
     b7c:	02070a63          	beqz	a4,bb0 <is_filled+0x294>
     b80:	0087a703          	lw	a4,8(a5)
     b84:	0047a603          	lw	a2,4(a5)
     b88:	00270713          	addi	a4,a4,2
     b8c:	00271693          	slli	a3,a4,0x2
     b90:	00e686b3          	add	a3,a3,a4
     b94:	00007737          	lui	a4,0x7
     b98:	00169693          	slli	a3,a3,0x1
     b9c:	14c70713          	addi	a4,a4,332 # 714c <grid>
     ba0:	00d70733          	add	a4,a4,a3
     ba4:	00c70733          	add	a4,a4,a2
     ba8:	00374703          	lbu	a4,3(a4)
     bac:	0e071463          	bnez	a4,c94 <is_filled+0x378>
     bb0:	0407a703          	lw	a4,64(a5)
     bb4:	02070a63          	beqz	a4,be8 <is_filled+0x2cc>
     bb8:	0087a703          	lw	a4,8(a5)
     bbc:	0047a603          	lw	a2,4(a5)
     bc0:	00370713          	addi	a4,a4,3
     bc4:	00271693          	slli	a3,a4,0x2
     bc8:	00e686b3          	add	a3,a3,a4
     bcc:	00007737          	lui	a4,0x7
     bd0:	00169693          	slli	a3,a3,0x1
     bd4:	14c70713          	addi	a4,a4,332 # 714c <grid>
     bd8:	00d70733          	add	a4,a4,a3
     bdc:	00c70733          	add	a4,a4,a2
     be0:	00074703          	lbu	a4,0(a4)
     be4:	0a071863          	bnez	a4,c94 <is_filled+0x378>
     be8:	0447a703          	lw	a4,68(a5)
     bec:	02070a63          	beqz	a4,c20 <is_filled+0x304>
     bf0:	0087a703          	lw	a4,8(a5)
     bf4:	0047a603          	lw	a2,4(a5)
     bf8:	00370713          	addi	a4,a4,3
     bfc:	00271693          	slli	a3,a4,0x2
     c00:	00e686b3          	add	a3,a3,a4
     c04:	00007737          	lui	a4,0x7
     c08:	00169693          	slli	a3,a3,0x1
     c0c:	14c70713          	addi	a4,a4,332 # 714c <grid>
     c10:	00d70733          	add	a4,a4,a3
     c14:	00c70733          	add	a4,a4,a2
     c18:	00174703          	lbu	a4,1(a4)
     c1c:	06071c63          	bnez	a4,c94 <is_filled+0x378>
     c20:	0487a703          	lw	a4,72(a5)
     c24:	02070a63          	beqz	a4,c58 <is_filled+0x33c>
     c28:	0087a703          	lw	a4,8(a5)
     c2c:	0047a603          	lw	a2,4(a5)
     c30:	00370713          	addi	a4,a4,3
     c34:	00271693          	slli	a3,a4,0x2
     c38:	00e686b3          	add	a3,a3,a4
     c3c:	00007737          	lui	a4,0x7
     c40:	00169693          	slli	a3,a3,0x1
     c44:	14c70713          	addi	a4,a4,332 # 714c <grid>
     c48:	00d70733          	add	a4,a4,a3
     c4c:	00c70733          	add	a4,a4,a2
     c50:	00274703          	lbu	a4,2(a4)
     c54:	04071063          	bnez	a4,c94 <is_filled+0x378>
     c58:	04c7a503          	lw	a0,76(a5)
     c5c:	02050e63          	beqz	a0,c98 <is_filled+0x37c>
     c60:	0087a703          	lw	a4,8(a5)
     c64:	0047a683          	lw	a3,4(a5)
     c68:	00370793          	addi	a5,a4,3
     c6c:	00279713          	slli	a4,a5,0x2
     c70:	00f70733          	add	a4,a4,a5
     c74:	000077b7          	lui	a5,0x7
     c78:	00171713          	slli	a4,a4,0x1
     c7c:	14c78793          	addi	a5,a5,332 # 714c <grid>
     c80:	00e787b3          	add	a5,a5,a4
     c84:	00d787b3          	add	a5,a5,a3
     c88:	0037c503          	lbu	a0,3(a5)
     c8c:	00a03533          	snez	a0,a0
     c90:	00008067          	ret
     c94:	00100513          	li	a0,1
     c98:	00008067          	ret

00000c9c <draw_char>:
     c9c:	fbf60613          	addi	a2,a2,-65
     ca0:	0ff67713          	zext.b	a4,a2
     ca4:	01900793          	li	a5,25
     ca8:	48e7ea63          	bltu	a5,a4,113c <draw_char+0x4a0>
     cac:	00261793          	slli	a5,a2,0x2
     cb0:	0000d737          	lui	a4,0xd
     cb4:	00c787b3          	add	a5,a5,a2
     cb8:	08070713          	addi	a4,a4,128 # d080 <font5x7>
     cbc:	00f70733          	add	a4,a4,a5
     cc0:	00074603          	lbu	a2,0(a4)
     cc4:	00259793          	slli	a5,a1,0x2
     cc8:	00b787b3          	add	a5,a5,a1
     ccc:	00679793          	slli	a5,a5,0x6
     cd0:	00167f13          	andi	t5,a2,1
     cd4:	14078e93          	addi	t4,a5,320
     cd8:	28078e13          	addi	t3,a5,640
     cdc:	3c078313          	addi	t1,a5,960
     ce0:	50078893          	addi	a7,a5,1280
     ce4:	64078813          	addi	a6,a5,1600
     ce8:	78078593          	addi	a1,a5,1920
     cec:	000f0c63          	beqz	t5,d04 <draw_char+0x68>
     cf0:	00007f37          	lui	t5,0x7
     cf4:	148f2f03          	lw	t5,328(t5) # 7148 <VGA>
     cf8:	00f50fb3          	add	t6,a0,a5
     cfc:	01ff0f33          	add	t5,t5,t6
     d00:	00df0023          	sb	a3,0(t5)
     d04:	00267f13          	andi	t5,a2,2
     d08:	000f0c63          	beqz	t5,d20 <draw_char+0x84>
     d0c:	00007f37          	lui	t5,0x7
     d10:	148f2f03          	lw	t5,328(t5) # 7148 <VGA>
     d14:	01d50fb3          	add	t6,a0,t4
     d18:	01ff0f33          	add	t5,t5,t6
     d1c:	00df0023          	sb	a3,0(t5)
     d20:	00467f13          	andi	t5,a2,4
     d24:	000f0c63          	beqz	t5,d3c <draw_char+0xa0>
     d28:	00007f37          	lui	t5,0x7
     d2c:	148f2f03          	lw	t5,328(t5) # 7148 <VGA>
     d30:	01c50fb3          	add	t6,a0,t3
     d34:	01ff0f33          	add	t5,t5,t6
     d38:	00df0023          	sb	a3,0(t5)
     d3c:	00867f13          	andi	t5,a2,8
     d40:	000f0c63          	beqz	t5,d58 <draw_char+0xbc>
     d44:	00007f37          	lui	t5,0x7
     d48:	148f2f03          	lw	t5,328(t5) # 7148 <VGA>
     d4c:	00650fb3          	add	t6,a0,t1
     d50:	01ff0f33          	add	t5,t5,t6
     d54:	00df0023          	sb	a3,0(t5)
     d58:	01067f13          	andi	t5,a2,16
     d5c:	000f0c63          	beqz	t5,d74 <draw_char+0xd8>
     d60:	00007f37          	lui	t5,0x7
     d64:	148f2f03          	lw	t5,328(t5) # 7148 <VGA>
     d68:	01150fb3          	add	t6,a0,a7
     d6c:	01ff0f33          	add	t5,t5,t6
     d70:	00df0023          	sb	a3,0(t5)
     d74:	02067f13          	andi	t5,a2,32
     d78:	000f0c63          	beqz	t5,d90 <draw_char+0xf4>
     d7c:	00007f37          	lui	t5,0x7
     d80:	148f2f03          	lw	t5,328(t5) # 7148 <VGA>
     d84:	01050fb3          	add	t6,a0,a6
     d88:	01ff0f33          	add	t5,t5,t6
     d8c:	00df0023          	sb	a3,0(t5)
     d90:	04067613          	andi	a2,a2,64
     d94:	00060c63          	beqz	a2,dac <draw_char+0x110>
     d98:	00007637          	lui	a2,0x7
     d9c:	14862603          	lw	a2,328(a2) # 7148 <VGA>
     da0:	00b50f33          	add	t5,a0,a1
     da4:	01e60633          	add	a2,a2,t5
     da8:	00d60023          	sb	a3,0(a2)
     dac:	00174603          	lbu	a2,1(a4)
     db0:	00167f13          	andi	t5,a2,1
     db4:	000f0e63          	beqz	t5,dd0 <draw_char+0x134>
     db8:	00007f37          	lui	t5,0x7
     dbc:	148f2f03          	lw	t5,328(t5) # 7148 <VGA>
     dc0:	00150f93          	addi	t6,a0,1
     dc4:	00ff8fb3          	add	t6,t6,a5
     dc8:	01ff0f33          	add	t5,t5,t6
     dcc:	00df0023          	sb	a3,0(t5)
     dd0:	00267f13          	andi	t5,a2,2
     dd4:	000f0e63          	beqz	t5,df0 <draw_char+0x154>
     dd8:	00007f37          	lui	t5,0x7
     ddc:	148f2f03          	lw	t5,328(t5) # 7148 <VGA>
     de0:	00150f93          	addi	t6,a0,1
     de4:	01df8fb3          	add	t6,t6,t4
     de8:	01ff0f33          	add	t5,t5,t6
     dec:	00df0023          	sb	a3,0(t5)
     df0:	00467f13          	andi	t5,a2,4
     df4:	000f0e63          	beqz	t5,e10 <draw_char+0x174>
     df8:	00007f37          	lui	t5,0x7
     dfc:	148f2f03          	lw	t5,328(t5) # 7148 <VGA>
     e00:	00150f93          	addi	t6,a0,1
     e04:	01cf8fb3          	add	t6,t6,t3
     e08:	01ff0f33          	add	t5,t5,t6
     e0c:	00df0023          	sb	a3,0(t5)
     e10:	00867f13          	andi	t5,a2,8
     e14:	000f0e63          	beqz	t5,e30 <draw_char+0x194>
     e18:	00007f37          	lui	t5,0x7
     e1c:	148f2f03          	lw	t5,328(t5) # 7148 <VGA>
     e20:	00150f93          	addi	t6,a0,1
     e24:	006f8fb3          	add	t6,t6,t1
     e28:	01ff0f33          	add	t5,t5,t6
     e2c:	00df0023          	sb	a3,0(t5)
     e30:	01067f13          	andi	t5,a2,16
     e34:	000f0e63          	beqz	t5,e50 <draw_char+0x1b4>
     e38:	00007f37          	lui	t5,0x7
     e3c:	148f2f03          	lw	t5,328(t5) # 7148 <VGA>
     e40:	00150f93          	addi	t6,a0,1
     e44:	011f8fb3          	add	t6,t6,a7
     e48:	01ff0f33          	add	t5,t5,t6
     e4c:	00df0023          	sb	a3,0(t5)
     e50:	02067f13          	andi	t5,a2,32
     e54:	000f0e63          	beqz	t5,e70 <draw_char+0x1d4>
     e58:	00007f37          	lui	t5,0x7
     e5c:	148f2f03          	lw	t5,328(t5) # 7148 <VGA>
     e60:	00150f93          	addi	t6,a0,1
     e64:	010f8fb3          	add	t6,t6,a6
     e68:	01ff0f33          	add	t5,t5,t6
     e6c:	00df0023          	sb	a3,0(t5)
     e70:	04067613          	andi	a2,a2,64
     e74:	00060e63          	beqz	a2,e90 <draw_char+0x1f4>
     e78:	00007637          	lui	a2,0x7
     e7c:	14862603          	lw	a2,328(a2) # 7148 <VGA>
     e80:	00150f13          	addi	t5,a0,1
     e84:	00bf0f33          	add	t5,t5,a1
     e88:	01e60633          	add	a2,a2,t5
     e8c:	00d60023          	sb	a3,0(a2)
     e90:	00274603          	lbu	a2,2(a4)
     e94:	00167f13          	andi	t5,a2,1
     e98:	000f0e63          	beqz	t5,eb4 <draw_char+0x218>
     e9c:	00007f37          	lui	t5,0x7
     ea0:	148f2f03          	lw	t5,328(t5) # 7148 <VGA>
     ea4:	00250f93          	addi	t6,a0,2
     ea8:	00ff8fb3          	add	t6,t6,a5
     eac:	01ff0f33          	add	t5,t5,t6
     eb0:	00df0023          	sb	a3,0(t5)
     eb4:	00267f13          	andi	t5,a2,2
     eb8:	000f0e63          	beqz	t5,ed4 <draw_char+0x238>
     ebc:	00007f37          	lui	t5,0x7
     ec0:	148f2f03          	lw	t5,328(t5) # 7148 <VGA>
     ec4:	00250f93          	addi	t6,a0,2
     ec8:	01df8fb3          	add	t6,t6,t4
     ecc:	01ff0f33          	add	t5,t5,t6
     ed0:	00df0023          	sb	a3,0(t5)
     ed4:	00467f13          	andi	t5,a2,4
     ed8:	000f0e63          	beqz	t5,ef4 <draw_char+0x258>
     edc:	00007f37          	lui	t5,0x7
     ee0:	148f2f03          	lw	t5,328(t5) # 7148 <VGA>
     ee4:	00250f93          	addi	t6,a0,2
     ee8:	01cf8fb3          	add	t6,t6,t3
     eec:	01ff0f33          	add	t5,t5,t6
     ef0:	00df0023          	sb	a3,0(t5)
     ef4:	00867f13          	andi	t5,a2,8
     ef8:	000f0e63          	beqz	t5,f14 <draw_char+0x278>
     efc:	00007f37          	lui	t5,0x7
     f00:	148f2f03          	lw	t5,328(t5) # 7148 <VGA>
     f04:	00250f93          	addi	t6,a0,2
     f08:	006f8fb3          	add	t6,t6,t1
     f0c:	01ff0f33          	add	t5,t5,t6
     f10:	00df0023          	sb	a3,0(t5)
     f14:	01067f13          	andi	t5,a2,16
     f18:	000f0e63          	beqz	t5,f34 <draw_char+0x298>
     f1c:	00007f37          	lui	t5,0x7
     f20:	148f2f03          	lw	t5,328(t5) # 7148 <VGA>
     f24:	00250f93          	addi	t6,a0,2
     f28:	011f8fb3          	add	t6,t6,a7
     f2c:	01ff0f33          	add	t5,t5,t6
     f30:	00df0023          	sb	a3,0(t5)
     f34:	02067f13          	andi	t5,a2,32
     f38:	000f0e63          	beqz	t5,f54 <draw_char+0x2b8>
     f3c:	00007f37          	lui	t5,0x7
     f40:	148f2f03          	lw	t5,328(t5) # 7148 <VGA>
     f44:	00250f93          	addi	t6,a0,2
     f48:	010f8fb3          	add	t6,t6,a6
     f4c:	01ff0f33          	add	t5,t5,t6
     f50:	00df0023          	sb	a3,0(t5)
     f54:	04067613          	andi	a2,a2,64
     f58:	00060e63          	beqz	a2,f74 <draw_char+0x2d8>
     f5c:	00007637          	lui	a2,0x7
     f60:	14862603          	lw	a2,328(a2) # 7148 <VGA>
     f64:	00250f13          	addi	t5,a0,2
     f68:	00bf0f33          	add	t5,t5,a1
     f6c:	01e60633          	add	a2,a2,t5
     f70:	00d60023          	sb	a3,0(a2)
     f74:	00374603          	lbu	a2,3(a4)
     f78:	00167f13          	andi	t5,a2,1
     f7c:	000f0e63          	beqz	t5,f98 <draw_char+0x2fc>
     f80:	00007f37          	lui	t5,0x7
     f84:	148f2f03          	lw	t5,328(t5) # 7148 <VGA>
     f88:	00350f93          	addi	t6,a0,3
     f8c:	00ff8fb3          	add	t6,t6,a5
     f90:	01ff0f33          	add	t5,t5,t6
     f94:	00df0023          	sb	a3,0(t5)
     f98:	00267f13          	andi	t5,a2,2
     f9c:	000f0e63          	beqz	t5,fb8 <draw_char+0x31c>
     fa0:	00007f37          	lui	t5,0x7
     fa4:	148f2f03          	lw	t5,328(t5) # 7148 <VGA>
     fa8:	00350f93          	addi	t6,a0,3
     fac:	01df8fb3          	add	t6,t6,t4
     fb0:	01ff0f33          	add	t5,t5,t6
     fb4:	00df0023          	sb	a3,0(t5)
     fb8:	00467f13          	andi	t5,a2,4
     fbc:	000f0e63          	beqz	t5,fd8 <draw_char+0x33c>
     fc0:	00007f37          	lui	t5,0x7
     fc4:	148f2f03          	lw	t5,328(t5) # 7148 <VGA>
     fc8:	00350f93          	addi	t6,a0,3
     fcc:	01cf8fb3          	add	t6,t6,t3
     fd0:	01ff0f33          	add	t5,t5,t6
     fd4:	00df0023          	sb	a3,0(t5)
     fd8:	00867f13          	andi	t5,a2,8
     fdc:	000f0e63          	beqz	t5,ff8 <draw_char+0x35c>
     fe0:	00007f37          	lui	t5,0x7
     fe4:	148f2f03          	lw	t5,328(t5) # 7148 <VGA>
     fe8:	00350f93          	addi	t6,a0,3
     fec:	006f8fb3          	add	t6,t6,t1
     ff0:	01ff0f33          	add	t5,t5,t6
     ff4:	00df0023          	sb	a3,0(t5)
     ff8:	01067f13          	andi	t5,a2,16
     ffc:	000f0e63          	beqz	t5,1018 <draw_char+0x37c>
    1000:	00007f37          	lui	t5,0x7
    1004:	148f2f03          	lw	t5,328(t5) # 7148 <VGA>
    1008:	00350f93          	addi	t6,a0,3
    100c:	011f8fb3          	add	t6,t6,a7
    1010:	01ff0f33          	add	t5,t5,t6
    1014:	00df0023          	sb	a3,0(t5)
    1018:	02067f13          	andi	t5,a2,32
    101c:	000f0e63          	beqz	t5,1038 <draw_char+0x39c>
    1020:	00007f37          	lui	t5,0x7
    1024:	148f2f03          	lw	t5,328(t5) # 7148 <VGA>
    1028:	00350f93          	addi	t6,a0,3
    102c:	010f8fb3          	add	t6,t6,a6
    1030:	01ff0f33          	add	t5,t5,t6
    1034:	00df0023          	sb	a3,0(t5)
    1038:	04067613          	andi	a2,a2,64
    103c:	00060e63          	beqz	a2,1058 <draw_char+0x3bc>
    1040:	00007637          	lui	a2,0x7
    1044:	14862603          	lw	a2,328(a2) # 7148 <VGA>
    1048:	00350f13          	addi	t5,a0,3
    104c:	00bf0f33          	add	t5,t5,a1
    1050:	01e60633          	add	a2,a2,t5
    1054:	00d60023          	sb	a3,0(a2)
    1058:	00474703          	lbu	a4,4(a4)
    105c:	00177613          	andi	a2,a4,1
    1060:	00060e63          	beqz	a2,107c <draw_char+0x3e0>
    1064:	00007637          	lui	a2,0x7
    1068:	14862603          	lw	a2,328(a2) # 7148 <VGA>
    106c:	00450f13          	addi	t5,a0,4
    1070:	00ff07b3          	add	a5,t5,a5
    1074:	00f607b3          	add	a5,a2,a5
    1078:	00d78023          	sb	a3,0(a5)
    107c:	00277793          	andi	a5,a4,2
    1080:	00078e63          	beqz	a5,109c <draw_char+0x400>
    1084:	000077b7          	lui	a5,0x7
    1088:	1487a783          	lw	a5,328(a5) # 7148 <VGA>
    108c:	00450613          	addi	a2,a0,4
    1090:	01d60633          	add	a2,a2,t4
    1094:	00c787b3          	add	a5,a5,a2
    1098:	00d78023          	sb	a3,0(a5)
    109c:	00477793          	andi	a5,a4,4
    10a0:	00078e63          	beqz	a5,10bc <draw_char+0x420>
    10a4:	000077b7          	lui	a5,0x7
    10a8:	1487a783          	lw	a5,328(a5) # 7148 <VGA>
    10ac:	00450613          	addi	a2,a0,4
    10b0:	01c60633          	add	a2,a2,t3
    10b4:	00c787b3          	add	a5,a5,a2
    10b8:	00d78023          	sb	a3,0(a5)
    10bc:	00877793          	andi	a5,a4,8
    10c0:	00078e63          	beqz	a5,10dc <draw_char+0x440>
    10c4:	000077b7          	lui	a5,0x7
    10c8:	1487a783          	lw	a5,328(a5) # 7148 <VGA>
    10cc:	00450613          	addi	a2,a0,4
    10d0:	00660633          	add	a2,a2,t1
    10d4:	00c787b3          	add	a5,a5,a2
    10d8:	00d78023          	sb	a3,0(a5)
    10dc:	01077793          	andi	a5,a4,16
    10e0:	00078e63          	beqz	a5,10fc <draw_char+0x460>
    10e4:	000077b7          	lui	a5,0x7
    10e8:	1487a783          	lw	a5,328(a5) # 7148 <VGA>
    10ec:	00450613          	addi	a2,a0,4
    10f0:	01160633          	add	a2,a2,a7
    10f4:	00c787b3          	add	a5,a5,a2
    10f8:	00d78023          	sb	a3,0(a5)
    10fc:	02077793          	andi	a5,a4,32
    1100:	00078e63          	beqz	a5,111c <draw_char+0x480>
    1104:	000077b7          	lui	a5,0x7
    1108:	1487a783          	lw	a5,328(a5) # 7148 <VGA>
    110c:	00450613          	addi	a2,a0,4
    1110:	01060633          	add	a2,a2,a6
    1114:	00c787b3          	add	a5,a5,a2
    1118:	00d78023          	sb	a3,0(a5)
    111c:	04077793          	andi	a5,a4,64
    1120:	00078e63          	beqz	a5,113c <draw_char+0x4a0>
    1124:	000077b7          	lui	a5,0x7
    1128:	1487a783          	lw	a5,328(a5) # 7148 <VGA>
    112c:	00450513          	addi	a0,a0,4
    1130:	00b50533          	add	a0,a0,a1
    1134:	00a787b3          	add	a5,a5,a0
    1138:	00d78023          	sb	a3,0(a5)
    113c:	00008067          	ret

00001140 <game_over>:
    1140:	fb010113          	addi	sp,sp,-80
    1144:	00013637          	lui	a2,0x13
    1148:	04112623          	sw	ra,76(sp)
    114c:	04812423          	sw	s0,72(sp)
    1150:	04912223          	sw	s1,68(sp)
    1154:	05212023          	sw	s2,64(sp)
    1158:	03312e23          	sw	s3,60(sp)
    115c:	03412c23          	sw	s4,56(sp)
    1160:	03512a23          	sw	s5,52(sp)
    1164:	03612823          	sw	s6,48(sp)
    1168:	03712623          	sw	s7,44(sp)
    116c:	03812423          	sw	s8,40(sp)
    1170:	03912223          	sw	s9,36(sp)
    1174:	03a12023          	sw	s10,32(sp)
    1178:	01b12e23          	sw	s11,28(sp)
    117c:	00000713          	li	a4,0
    1180:	000077b7          	lui	a5,0x7
    1184:	c0060613          	addi	a2,a2,-1024 # 12c00 <font5x7+0x5b80>
    1188:	1487a683          	lw	a3,328(a5) # 7148 <VGA>
    118c:	00e686b3          	add	a3,a3,a4
    1190:	00068023          	sb	zero,0(a3)
    1194:	00170713          	addi	a4,a4,1
    1198:	fec718e3          	bne	a4,a2,1188 <game_over+0x48>
    119c:	000096b7          	lui	a3,0x9
    11a0:	b3e68693          	addi	a3,a3,-1218 # 8b3e <__global_pointer+0x11f6>
    11a4:	00009637          	lui	a2,0x9
    11a8:	00009d37          	lui	s10,0x9
    11ac:	00d12223          	sw	a3,4(sp)
    11b0:	2bd60693          	addi	a3,a2,701 # 92bd <__global_pointer+0x1975>
    11b4:	00009cb7          	lui	s9,0x9
    11b8:	00009c37          	lui	s8,0x9
    11bc:	00009bb7          	lui	s7,0x9
    11c0:	00009b37          	lui	s6,0x9
    11c4:	00009ab7          	lui	s5,0x9
    11c8:	00009a37          	lui	s4,0x9
    11cc:	000099b7          	lui	s3,0x9
    11d0:	00009937          	lui	s2,0x9
    11d4:	000094b7          	lui	s1,0x9
    11d8:	00009437          	lui	s0,0x9
    11dc:	000090b7          	lui	ra,0x9
    11e0:	000093b7          	lui	t2,0x9
    11e4:	000092b7          	lui	t0,0x9
    11e8:	00009fb7          	lui	t6,0x9
    11ec:	00009f37          	lui	t5,0x9
    11f0:	00009eb7          	lui	t4,0x9
    11f4:	00009e37          	lui	t3,0x9
    11f8:	00009337          	lui	t1,0x9
    11fc:	000098b7          	lui	a7,0x9
    1200:	00009837          	lui	a6,0x9
    1204:	0000d5b7          	lui	a1,0xd
    1208:	0000d537          	lui	a0,0xd
    120c:	00d12423          	sw	a3,8(sp)
    1210:	17dd0693          	addi	a3,s10,381 # 917d <__global_pointer+0x1835>
    1214:	18c58593          	addi	a1,a1,396 # d18c <font5x7+0x10c>
    1218:	00000713          	li	a4,0
    121c:	08050513          	addi	a0,a0,128 # d080 <font5x7>
    1220:	2c0c8c93          	addi	s9,s9,704 # 92c0 <__global_pointer+0x1978>
    1224:	180c0c13          	addi	s8,s8,384 # 9180 <__global_pointer+0x1838>
    1228:	040b8b93          	addi	s7,s7,64 # 9040 <__global_pointer+0x16f8>
    122c:	f00b0b13          	addi	s6,s6,-256 # 8f00 <__global_pointer+0x15b8>
    1230:	dc0a8a93          	addi	s5,s5,-576 # 8dc0 <__global_pointer+0x1478>
    1234:	c80a0a13          	addi	s4,s4,-896 # 8c80 <__global_pointer+0x1338>
    1238:	b4098993          	addi	s3,s3,-1216 # 8b40 <__global_pointer+0x11f8>
    123c:	2bf90913          	addi	s2,s2,703 # 92bf <__global_pointer+0x1977>
    1240:	17f48493          	addi	s1,s1,383 # 917f <__global_pointer+0x1837>
    1244:	03f40413          	addi	s0,s0,63 # 903f <__global_pointer+0x16f7>
    1248:	eff08093          	addi	ra,ra,-257 # 8eff <__global_pointer+0x15b7>
    124c:	dbf38393          	addi	t2,t2,-577 # 8dbf <__global_pointer+0x1477>
    1250:	c7f28293          	addi	t0,t0,-897 # 8c7f <__global_pointer+0x1337>
    1254:	b3ff8f93          	addi	t6,t6,-1217 # 8b3f <__global_pointer+0x11f7>
    1258:	2bef0f13          	addi	t5,t5,702 # 92be <__global_pointer+0x1976>
    125c:	17ee8e93          	addi	t4,t4,382 # 917e <__global_pointer+0x1836>
    1260:	03ee0e13          	addi	t3,t3,62 # 903e <__global_pointer+0x16f6>
    1264:	efe30313          	addi	t1,t1,-258 # 8efe <__global_pointer+0x15b6>
    1268:	dbe88893          	addi	a7,a7,-578 # 8dbe <__global_pointer+0x1476>
    126c:	c7e80813          	addi	a6,a6,-898 # 8c7e <__global_pointer+0x1336>
    1270:	00d12623          	sw	a3,12(sp)
    1274:	0005c603          	lbu	a2,0(a1)
    1278:	01900693          	li	a3,25
    127c:	fbf60613          	addi	a2,a2,-65
    1280:	0ff67d13          	zext.b	s10,a2
    1284:	47a6e263          	bltu	a3,s10,16e8 <game_over+0x5a8>
    1288:	00261693          	slli	a3,a2,0x2
    128c:	00c686b3          	add	a3,a3,a2
    1290:	00d506b3          	add	a3,a0,a3
    1294:	0006c603          	lbu	a2,0(a3)
    1298:	00167d13          	andi	s10,a2,1
    129c:	020d0063          	beqz	s10,12bc <game_over+0x17c>
    12a0:	1487ad83          	lw	s11,328(a5)
    12a4:	00009d37          	lui	s10,0x9
    12a8:	b3cd0d13          	addi	s10,s10,-1220 # 8b3c <__global_pointer+0x11f4>
    12ac:	01a70d33          	add	s10,a4,s10
    12b0:	01ad8d33          	add	s10,s11,s10
    12b4:	fe000d93          	li	s11,-32
    12b8:	01bd0023          	sb	s11,0(s10)
    12bc:	00267d13          	andi	s10,a2,2
    12c0:	020d0063          	beqz	s10,12e0 <game_over+0x1a0>
    12c4:	1487ad83          	lw	s11,328(a5)
    12c8:	00009d37          	lui	s10,0x9
    12cc:	c7cd0d13          	addi	s10,s10,-900 # 8c7c <__global_pointer+0x1334>
    12d0:	01a70d33          	add	s10,a4,s10
    12d4:	01ad8d33          	add	s10,s11,s10
    12d8:	fe000d93          	li	s11,-32
    12dc:	01bd0023          	sb	s11,0(s10)
    12e0:	00467d13          	andi	s10,a2,4
    12e4:	020d0063          	beqz	s10,1304 <game_over+0x1c4>
    12e8:	1487ad83          	lw	s11,328(a5)
    12ec:	00009d37          	lui	s10,0x9
    12f0:	dbcd0d13          	addi	s10,s10,-580 # 8dbc <__global_pointer+0x1474>
    12f4:	01a70d33          	add	s10,a4,s10
    12f8:	01ad8d33          	add	s10,s11,s10
    12fc:	fe000d93          	li	s11,-32
    1300:	01bd0023          	sb	s11,0(s10)
    1304:	00867d13          	andi	s10,a2,8
    1308:	020d0063          	beqz	s10,1328 <game_over+0x1e8>
    130c:	1487ad83          	lw	s11,328(a5)
    1310:	00009d37          	lui	s10,0x9
    1314:	efcd0d13          	addi	s10,s10,-260 # 8efc <__global_pointer+0x15b4>
    1318:	01a70d33          	add	s10,a4,s10
    131c:	01ad8d33          	add	s10,s11,s10
    1320:	fe000d93          	li	s11,-32
    1324:	01bd0023          	sb	s11,0(s10)
    1328:	01067d13          	andi	s10,a2,16
    132c:	020d0063          	beqz	s10,134c <game_over+0x20c>
    1330:	1487ad83          	lw	s11,328(a5)
    1334:	00009d37          	lui	s10,0x9
    1338:	03cd0d13          	addi	s10,s10,60 # 903c <__global_pointer+0x16f4>
    133c:	01a70d33          	add	s10,a4,s10
    1340:	01ad8d33          	add	s10,s11,s10
    1344:	fe000d93          	li	s11,-32
    1348:	01bd0023          	sb	s11,0(s10)
    134c:	02067d13          	andi	s10,a2,32
    1350:	020d0063          	beqz	s10,1370 <game_over+0x230>
    1354:	1487ad83          	lw	s11,328(a5)
    1358:	00009d37          	lui	s10,0x9
    135c:	17cd0d13          	addi	s10,s10,380 # 917c <__global_pointer+0x1834>
    1360:	01a70d33          	add	s10,a4,s10
    1364:	01ad8d33          	add	s10,s11,s10
    1368:	fe000d93          	li	s11,-32
    136c:	01bd0023          	sb	s11,0(s10)
    1370:	04067613          	andi	a2,a2,64
    1374:	02060063          	beqz	a2,1394 <game_over+0x254>
    1378:	1487ad03          	lw	s10,328(a5)
    137c:	00009637          	lui	a2,0x9
    1380:	2bc60613          	addi	a2,a2,700 # 92bc <__global_pointer+0x1974>
    1384:	00c70633          	add	a2,a4,a2
    1388:	00cd0633          	add	a2,s10,a2
    138c:	fe000d13          	li	s10,-32
    1390:	01a60023          	sb	s10,0(a2)
    1394:	0016c603          	lbu	a2,1(a3)
    1398:	00167d13          	andi	s10,a2,1
    139c:	020d0063          	beqz	s10,13bc <game_over+0x27c>
    13a0:	1487ad83          	lw	s11,328(a5)
    13a4:	00009d37          	lui	s10,0x9
    13a8:	b3dd0d13          	addi	s10,s10,-1219 # 8b3d <__global_pointer+0x11f5>
    13ac:	01a70d33          	add	s10,a4,s10
    13b0:	01ad8d33          	add	s10,s11,s10
    13b4:	fe000d93          	li	s11,-32
    13b8:	01bd0023          	sb	s11,0(s10)
    13bc:	00267d13          	andi	s10,a2,2
    13c0:	020d0063          	beqz	s10,13e0 <game_over+0x2a0>
    13c4:	1487ad83          	lw	s11,328(a5)
    13c8:	00009d37          	lui	s10,0x9
    13cc:	c7dd0d13          	addi	s10,s10,-899 # 8c7d <__global_pointer+0x1335>
    13d0:	01a70d33          	add	s10,a4,s10
    13d4:	01ad8d33          	add	s10,s11,s10
    13d8:	fe000d93          	li	s11,-32
    13dc:	01bd0023          	sb	s11,0(s10)
    13e0:	00467d13          	andi	s10,a2,4
    13e4:	020d0063          	beqz	s10,1404 <game_over+0x2c4>
    13e8:	1487ad83          	lw	s11,328(a5)
    13ec:	00009d37          	lui	s10,0x9
    13f0:	dbdd0d13          	addi	s10,s10,-579 # 8dbd <__global_pointer+0x1475>
    13f4:	01a70d33          	add	s10,a4,s10
    13f8:	01ad8d33          	add	s10,s11,s10
    13fc:	fe000d93          	li	s11,-32
    1400:	01bd0023          	sb	s11,0(s10)
    1404:	00867d13          	andi	s10,a2,8
    1408:	020d0063          	beqz	s10,1428 <game_over+0x2e8>
    140c:	1487ad83          	lw	s11,328(a5)
    1410:	00009d37          	lui	s10,0x9
    1414:	efdd0d13          	addi	s10,s10,-259 # 8efd <__global_pointer+0x15b5>
    1418:	01a70d33          	add	s10,a4,s10
    141c:	01ad8d33          	add	s10,s11,s10
    1420:	fe000d93          	li	s11,-32
    1424:	01bd0023          	sb	s11,0(s10)
    1428:	01067d13          	andi	s10,a2,16
    142c:	020d0063          	beqz	s10,144c <game_over+0x30c>
    1430:	1487ad83          	lw	s11,328(a5)
    1434:	00009d37          	lui	s10,0x9
    1438:	03dd0d13          	addi	s10,s10,61 # 903d <__global_pointer+0x16f5>
    143c:	01a70d33          	add	s10,a4,s10
    1440:	01ad8d33          	add	s10,s11,s10
    1444:	fe000d93          	li	s11,-32
    1448:	01bd0023          	sb	s11,0(s10)
    144c:	02067d13          	andi	s10,a2,32
    1450:	000d0e63          	beqz	s10,146c <game_over+0x32c>
    1454:	00c12d03          	lw	s10,12(sp)
    1458:	1487ad83          	lw	s11,328(a5)
    145c:	01a70d33          	add	s10,a4,s10
    1460:	01ad8d33          	add	s10,s11,s10
    1464:	fe000d93          	li	s11,-32
    1468:	01bd0023          	sb	s11,0(s10)
    146c:	04067613          	andi	a2,a2,64
    1470:	00060e63          	beqz	a2,148c <game_over+0x34c>
    1474:	00812603          	lw	a2,8(sp)
    1478:	1487ad03          	lw	s10,328(a5)
    147c:	00c70633          	add	a2,a4,a2
    1480:	00cd0633          	add	a2,s10,a2
    1484:	fe000d13          	li	s10,-32
    1488:	01a60023          	sb	s10,0(a2)
    148c:	0026c603          	lbu	a2,2(a3)
    1490:	00167d13          	andi	s10,a2,1
    1494:	000d0e63          	beqz	s10,14b0 <game_over+0x370>
    1498:	00412d03          	lw	s10,4(sp)
    149c:	1487ad83          	lw	s11,328(a5)
    14a0:	01a70d33          	add	s10,a4,s10
    14a4:	01ad8d33          	add	s10,s11,s10
    14a8:	fe000d93          	li	s11,-32
    14ac:	01bd0023          	sb	s11,0(s10)
    14b0:	00267d13          	andi	s10,a2,2
    14b4:	000d0c63          	beqz	s10,14cc <game_over+0x38c>
    14b8:	1487ad83          	lw	s11,328(a5)
    14bc:	01070d33          	add	s10,a4,a6
    14c0:	01ad8d33          	add	s10,s11,s10
    14c4:	fe000d93          	li	s11,-32
    14c8:	01bd0023          	sb	s11,0(s10)
    14cc:	00467d13          	andi	s10,a2,4
    14d0:	000d0c63          	beqz	s10,14e8 <game_over+0x3a8>
    14d4:	1487ad83          	lw	s11,328(a5)
    14d8:	01170d33          	add	s10,a4,a7
    14dc:	01ad8d33          	add	s10,s11,s10
    14e0:	fe000d93          	li	s11,-32
    14e4:	01bd0023          	sb	s11,0(s10)
    14e8:	00867d13          	andi	s10,a2,8
    14ec:	000d0c63          	beqz	s10,1504 <game_over+0x3c4>
    14f0:	1487ad83          	lw	s11,328(a5)
    14f4:	00670d33          	add	s10,a4,t1
    14f8:	01ad8d33          	add	s10,s11,s10
    14fc:	fe000d93          	li	s11,-32
    1500:	01bd0023          	sb	s11,0(s10)
    1504:	01067d13          	andi	s10,a2,16
    1508:	000d0c63          	beqz	s10,1520 <game_over+0x3e0>
    150c:	1487ad83          	lw	s11,328(a5)
    1510:	01c70d33          	add	s10,a4,t3
    1514:	01ad8d33          	add	s10,s11,s10
    1518:	fe000d93          	li	s11,-32
    151c:	01bd0023          	sb	s11,0(s10)
    1520:	02067d13          	andi	s10,a2,32
    1524:	000d0c63          	beqz	s10,153c <game_over+0x3fc>
    1528:	1487ad83          	lw	s11,328(a5)
    152c:	01d70d33          	add	s10,a4,t4
    1530:	01ad8d33          	add	s10,s11,s10
    1534:	fe000d93          	li	s11,-32
    1538:	01bd0023          	sb	s11,0(s10)
    153c:	04067613          	andi	a2,a2,64
    1540:	00060c63          	beqz	a2,1558 <game_over+0x418>
    1544:	1487ad03          	lw	s10,328(a5)
    1548:	01e70633          	add	a2,a4,t5
    154c:	00cd0633          	add	a2,s10,a2
    1550:	fe000d13          	li	s10,-32
    1554:	01a60023          	sb	s10,0(a2)
    1558:	0036c603          	lbu	a2,3(a3)
    155c:	00167d13          	andi	s10,a2,1
    1560:	000d0c63          	beqz	s10,1578 <game_over+0x438>
    1564:	1487ad83          	lw	s11,328(a5)
    1568:	01f70d33          	add	s10,a4,t6
    156c:	01ad8d33          	add	s10,s11,s10
    1570:	fe000d93          	li	s11,-32
    1574:	01bd0023          	sb	s11,0(s10)
    1578:	00267d13          	andi	s10,a2,2
    157c:	000d0c63          	beqz	s10,1594 <game_over+0x454>
    1580:	1487ad83          	lw	s11,328(a5)
    1584:	00570d33          	add	s10,a4,t0
    1588:	01ad8d33          	add	s10,s11,s10
    158c:	fe000d93          	li	s11,-32
    1590:	01bd0023          	sb	s11,0(s10)
    1594:	00467d13          	andi	s10,a2,4
    1598:	000d0c63          	beqz	s10,15b0 <game_over+0x470>
    159c:	1487ad83          	lw	s11,328(a5)
    15a0:	00770d33          	add	s10,a4,t2
    15a4:	01ad8d33          	add	s10,s11,s10
    15a8:	fe000d93          	li	s11,-32
    15ac:	01bd0023          	sb	s11,0(s10)
    15b0:	00867d13          	andi	s10,a2,8
    15b4:	000d0c63          	beqz	s10,15cc <game_over+0x48c>
    15b8:	1487ad83          	lw	s11,328(a5)
    15bc:	00170d33          	add	s10,a4,ra
    15c0:	01ad8d33          	add	s10,s11,s10
    15c4:	fe000d93          	li	s11,-32
    15c8:	01bd0023          	sb	s11,0(s10)
    15cc:	01067d13          	andi	s10,a2,16
    15d0:	000d0c63          	beqz	s10,15e8 <game_over+0x4a8>
    15d4:	1487ad83          	lw	s11,328(a5)
    15d8:	00870d33          	add	s10,a4,s0
    15dc:	01ad8d33          	add	s10,s11,s10
    15e0:	fe000d93          	li	s11,-32
    15e4:	01bd0023          	sb	s11,0(s10)
    15e8:	02067d13          	andi	s10,a2,32
    15ec:	000d0c63          	beqz	s10,1604 <game_over+0x4c4>
    15f0:	1487ad83          	lw	s11,328(a5)
    15f4:	00970d33          	add	s10,a4,s1
    15f8:	01ad8d33          	add	s10,s11,s10
    15fc:	fe000d93          	li	s11,-32
    1600:	01bd0023          	sb	s11,0(s10)
    1604:	04067613          	andi	a2,a2,64
    1608:	00060c63          	beqz	a2,1620 <game_over+0x4e0>
    160c:	1487ad03          	lw	s10,328(a5)
    1610:	01270633          	add	a2,a4,s2
    1614:	00cd0633          	add	a2,s10,a2
    1618:	fe000d13          	li	s10,-32
    161c:	01a60023          	sb	s10,0(a2)
    1620:	0046c683          	lbu	a3,4(a3)
    1624:	0016f613          	andi	a2,a3,1
    1628:	00060c63          	beqz	a2,1640 <game_over+0x500>
    162c:	1487ad03          	lw	s10,328(a5)
    1630:	01370633          	add	a2,a4,s3
    1634:	00cd0633          	add	a2,s10,a2
    1638:	fe000d13          	li	s10,-32
    163c:	01a60023          	sb	s10,0(a2)
    1640:	0026f613          	andi	a2,a3,2
    1644:	00060c63          	beqz	a2,165c <game_over+0x51c>
    1648:	1487ad03          	lw	s10,328(a5)
    164c:	01470633          	add	a2,a4,s4
    1650:	00cd0633          	add	a2,s10,a2
    1654:	fe000d13          	li	s10,-32
    1658:	01a60023          	sb	s10,0(a2)
    165c:	0046f613          	andi	a2,a3,4
    1660:	00060c63          	beqz	a2,1678 <game_over+0x538>
    1664:	1487ad03          	lw	s10,328(a5)
    1668:	01570633          	add	a2,a4,s5
    166c:	00cd0633          	add	a2,s10,a2
    1670:	fe000d13          	li	s10,-32
    1674:	01a60023          	sb	s10,0(a2)
    1678:	0086f613          	andi	a2,a3,8
    167c:	00060c63          	beqz	a2,1694 <game_over+0x554>
    1680:	1487ad03          	lw	s10,328(a5)
    1684:	01670633          	add	a2,a4,s6
    1688:	00cd0633          	add	a2,s10,a2
    168c:	fe000d13          	li	s10,-32
    1690:	01a60023          	sb	s10,0(a2)
    1694:	0106f613          	andi	a2,a3,16
    1698:	00060c63          	beqz	a2,16b0 <game_over+0x570>
    169c:	1487ad03          	lw	s10,328(a5)
    16a0:	01770633          	add	a2,a4,s7
    16a4:	00cd0633          	add	a2,s10,a2
    16a8:	fe000d13          	li	s10,-32
    16ac:	01a60023          	sb	s10,0(a2)
    16b0:	0206f613          	andi	a2,a3,32
    16b4:	00060c63          	beqz	a2,16cc <game_over+0x58c>
    16b8:	1487ad03          	lw	s10,328(a5)
    16bc:	01870633          	add	a2,a4,s8
    16c0:	00cd0633          	add	a2,s10,a2
    16c4:	fe000d13          	li	s10,-32
    16c8:	01a60023          	sb	s10,0(a2)
    16cc:	0406f693          	andi	a3,a3,64
    16d0:	00068c63          	beqz	a3,16e8 <game_over+0x5a8>
    16d4:	1487a603          	lw	a2,328(a5)
    16d8:	019706b3          	add	a3,a4,s9
    16dc:	00d606b3          	add	a3,a2,a3
    16e0:	fe000613          	li	a2,-32
    16e4:	00c68023          	sb	a2,0(a3)
    16e8:	00870713          	addi	a4,a4,8
    16ec:	04800693          	li	a3,72
    16f0:	00158593          	addi	a1,a1,1
    16f4:	b8d710e3          	bne	a4,a3,1274 <game_over+0x134>
    16f8:	000096b7          	lui	a3,0x9
    16fc:	7d068693          	addi	a3,a3,2000 # 97d0 <__global_pointer+0x1e88>
    1700:	00009637          	lui	a2,0x9
    1704:	0000ad37          	lui	s10,0xa
    1708:	00d12223          	sw	a3,4(sp)
    170c:	69060693          	addi	a3,a2,1680 # 9690 <__global_pointer+0x1d48>
    1710:	0000acb7          	lui	s9,0xa
    1714:	0000ac37          	lui	s8,0xa
    1718:	0000abb7          	lui	s7,0xa
    171c:	0000ab37          	lui	s6,0xa
    1720:	0000aab7          	lui	s5,0xa
    1724:	00009a37          	lui	s4,0x9
    1728:	000099b7          	lui	s3,0x9
    172c:	0000a937          	lui	s2,0xa
    1730:	0000a4b7          	lui	s1,0xa
    1734:	0000a437          	lui	s0,0xa
    1738:	0000a0b7          	lui	ra,0xa
    173c:	0000a3b7          	lui	t2,0xa
    1740:	000092b7          	lui	t0,0x9
    1744:	00009fb7          	lui	t6,0x9
    1748:	0000af37          	lui	t5,0xa
    174c:	0000aeb7          	lui	t4,0xa
    1750:	0000ae37          	lui	t3,0xa
    1754:	0000a337          	lui	t1,0xa
    1758:	0000a8b7          	lui	a7,0xa
    175c:	0000d5b7          	lui	a1,0xd
    1760:	00d12423          	sw	a3,8(sp)
    1764:	e0fd0693          	addi	a3,s10,-497 # 9e0f <__global_pointer+0x24c7>
    1768:	19858593          	addi	a1,a1,408 # d198 <font5x7+0x118>
    176c:	00000713          	li	a4,0
    1770:	01900813          	li	a6,25
    1774:	e12c8c93          	addi	s9,s9,-494 # 9e12 <__global_pointer+0x24ca>
    1778:	cd2c0c13          	addi	s8,s8,-814 # 9cd2 <__global_pointer+0x238a>
    177c:	b92b8b93          	addi	s7,s7,-1134 # 9b92 <__global_pointer+0x224a>
    1780:	a52b0b13          	addi	s6,s6,-1454 # 9a52 <__global_pointer+0x210a>
    1784:	912a8a93          	addi	s5,s5,-1774 # 9912 <__global_pointer+0x1fca>
    1788:	7d2a0a13          	addi	s4,s4,2002 # 97d2 <__global_pointer+0x1e8a>
    178c:	69298993          	addi	s3,s3,1682 # 9692 <__global_pointer+0x1d4a>
    1790:	e1190913          	addi	s2,s2,-495 # 9e11 <__global_pointer+0x24c9>
    1794:	cd148493          	addi	s1,s1,-815 # 9cd1 <__global_pointer+0x2389>
    1798:	b9140413          	addi	s0,s0,-1135 # 9b91 <__global_pointer+0x2249>
    179c:	a5108093          	addi	ra,ra,-1455 # 9a51 <__global_pointer+0x2109>
    17a0:	91138393          	addi	t2,t2,-1775 # 9911 <__global_pointer+0x1fc9>
    17a4:	7d128293          	addi	t0,t0,2001 # 97d1 <__global_pointer+0x1e89>
    17a8:	691f8f93          	addi	t6,t6,1681 # 9691 <__global_pointer+0x1d49>
    17ac:	e10f0f13          	addi	t5,t5,-496 # 9e10 <__global_pointer+0x24c8>
    17b0:	cd0e8e93          	addi	t4,t4,-816 # 9cd0 <__global_pointer+0x2388>
    17b4:	b90e0e13          	addi	t3,t3,-1136 # 9b90 <__global_pointer+0x2248>
    17b8:	a5030313          	addi	t1,t1,-1456 # 9a50 <__global_pointer+0x2108>
    17bc:	91088893          	addi	a7,a7,-1776 # 9910 <__global_pointer+0x1fc8>
    17c0:	00d12623          	sw	a3,12(sp)
    17c4:	0005c603          	lbu	a2,0(a1)
    17c8:	fbf60613          	addi	a2,a2,-65
    17cc:	0ff67693          	zext.b	a3,a2
    17d0:	46d86663          	bltu	a6,a3,1c3c <game_over+0xafc>
    17d4:	00261693          	slli	a3,a2,0x2
    17d8:	00c686b3          	add	a3,a3,a2
    17dc:	00d506b3          	add	a3,a0,a3
    17e0:	0006c603          	lbu	a2,0(a3)
    17e4:	00167d13          	andi	s10,a2,1
    17e8:	020d0063          	beqz	s10,1808 <game_over+0x6c8>
    17ec:	1487ad83          	lw	s11,328(a5)
    17f0:	00009d37          	lui	s10,0x9
    17f4:	68ed0d13          	addi	s10,s10,1678 # 968e <__global_pointer+0x1d46>
    17f8:	01a70d33          	add	s10,a4,s10
    17fc:	01ad8d33          	add	s10,s11,s10
    1800:	fe000d93          	li	s11,-32
    1804:	01bd0023          	sb	s11,0(s10)
    1808:	00267d13          	andi	s10,a2,2
    180c:	020d0063          	beqz	s10,182c <game_over+0x6ec>
    1810:	1487ad83          	lw	s11,328(a5)
    1814:	00009d37          	lui	s10,0x9
    1818:	7ced0d13          	addi	s10,s10,1998 # 97ce <__global_pointer+0x1e86>
    181c:	01a70d33          	add	s10,a4,s10
    1820:	01ad8d33          	add	s10,s11,s10
    1824:	fe000d93          	li	s11,-32
    1828:	01bd0023          	sb	s11,0(s10)
    182c:	00467d13          	andi	s10,a2,4
    1830:	020d0063          	beqz	s10,1850 <game_over+0x710>
    1834:	1487ad83          	lw	s11,328(a5)
    1838:	0000ad37          	lui	s10,0xa
    183c:	90ed0d13          	addi	s10,s10,-1778 # 990e <__global_pointer+0x1fc6>
    1840:	01a70d33          	add	s10,a4,s10
    1844:	01ad8d33          	add	s10,s11,s10
    1848:	fe000d93          	li	s11,-32
    184c:	01bd0023          	sb	s11,0(s10)
    1850:	00867d13          	andi	s10,a2,8
    1854:	020d0063          	beqz	s10,1874 <game_over+0x734>
    1858:	1487ad83          	lw	s11,328(a5)
    185c:	0000ad37          	lui	s10,0xa
    1860:	a4ed0d13          	addi	s10,s10,-1458 # 9a4e <__global_pointer+0x2106>
    1864:	01a70d33          	add	s10,a4,s10
    1868:	01ad8d33          	add	s10,s11,s10
    186c:	fe000d93          	li	s11,-32
    1870:	01bd0023          	sb	s11,0(s10)
    1874:	01067d13          	andi	s10,a2,16
    1878:	020d0063          	beqz	s10,1898 <game_over+0x758>
    187c:	1487ad83          	lw	s11,328(a5)
    1880:	0000ad37          	lui	s10,0xa
    1884:	b8ed0d13          	addi	s10,s10,-1138 # 9b8e <__global_pointer+0x2246>
    1888:	01a70d33          	add	s10,a4,s10
    188c:	01ad8d33          	add	s10,s11,s10
    1890:	fe000d93          	li	s11,-32
    1894:	01bd0023          	sb	s11,0(s10)
    1898:	02067d13          	andi	s10,a2,32
    189c:	020d0063          	beqz	s10,18bc <game_over+0x77c>
    18a0:	1487ad83          	lw	s11,328(a5)
    18a4:	0000ad37          	lui	s10,0xa
    18a8:	cced0d13          	addi	s10,s10,-818 # 9cce <__global_pointer+0x2386>
    18ac:	01a70d33          	add	s10,a4,s10
    18b0:	01ad8d33          	add	s10,s11,s10
    18b4:	fe000d93          	li	s11,-32
    18b8:	01bd0023          	sb	s11,0(s10)
    18bc:	04067613          	andi	a2,a2,64
    18c0:	02060063          	beqz	a2,18e0 <game_over+0x7a0>
    18c4:	1487ad03          	lw	s10,328(a5)
    18c8:	0000a637          	lui	a2,0xa
    18cc:	e0e60613          	addi	a2,a2,-498 # 9e0e <__global_pointer+0x24c6>
    18d0:	00c70633          	add	a2,a4,a2
    18d4:	00cd0633          	add	a2,s10,a2
    18d8:	fe000d13          	li	s10,-32
    18dc:	01a60023          	sb	s10,0(a2)
    18e0:	0016c603          	lbu	a2,1(a3)
    18e4:	00167d13          	andi	s10,a2,1
    18e8:	020d0063          	beqz	s10,1908 <game_over+0x7c8>
    18ec:	1487ad83          	lw	s11,328(a5)
    18f0:	00009d37          	lui	s10,0x9
    18f4:	68fd0d13          	addi	s10,s10,1679 # 968f <__global_pointer+0x1d47>
    18f8:	01a70d33          	add	s10,a4,s10
    18fc:	01ad8d33          	add	s10,s11,s10
    1900:	fe000d93          	li	s11,-32
    1904:	01bd0023          	sb	s11,0(s10)
    1908:	00267d13          	andi	s10,a2,2
    190c:	020d0063          	beqz	s10,192c <game_over+0x7ec>
    1910:	1487ad83          	lw	s11,328(a5)
    1914:	00009d37          	lui	s10,0x9
    1918:	7cfd0d13          	addi	s10,s10,1999 # 97cf <__global_pointer+0x1e87>
    191c:	01a70d33          	add	s10,a4,s10
    1920:	01ad8d33          	add	s10,s11,s10
    1924:	fe000d93          	li	s11,-32
    1928:	01bd0023          	sb	s11,0(s10)
    192c:	00467d13          	andi	s10,a2,4
    1930:	020d0063          	beqz	s10,1950 <game_over+0x810>
    1934:	1487ad83          	lw	s11,328(a5)
    1938:	0000ad37          	lui	s10,0xa
    193c:	90fd0d13          	addi	s10,s10,-1777 # 990f <__global_pointer+0x1fc7>
    1940:	01a70d33          	add	s10,a4,s10
    1944:	01ad8d33          	add	s10,s11,s10
    1948:	fe000d93          	li	s11,-32
    194c:	01bd0023          	sb	s11,0(s10)
    1950:	00867d13          	andi	s10,a2,8
    1954:	020d0063          	beqz	s10,1974 <game_over+0x834>
    1958:	1487ad83          	lw	s11,328(a5)
    195c:	0000ad37          	lui	s10,0xa
    1960:	a4fd0d13          	addi	s10,s10,-1457 # 9a4f <__global_pointer+0x2107>
    1964:	01a70d33          	add	s10,a4,s10
    1968:	01ad8d33          	add	s10,s11,s10
    196c:	fe000d93          	li	s11,-32
    1970:	01bd0023          	sb	s11,0(s10)
    1974:	01067d13          	andi	s10,a2,16
    1978:	020d0063          	beqz	s10,1998 <game_over+0x858>
    197c:	1487ad83          	lw	s11,328(a5)
    1980:	0000ad37          	lui	s10,0xa
    1984:	b8fd0d13          	addi	s10,s10,-1137 # 9b8f <__global_pointer+0x2247>
    1988:	01a70d33          	add	s10,a4,s10
    198c:	01ad8d33          	add	s10,s11,s10
    1990:	fe000d93          	li	s11,-32
    1994:	01bd0023          	sb	s11,0(s10)
    1998:	02067d13          	andi	s10,a2,32
    199c:	020d0063          	beqz	s10,19bc <game_over+0x87c>
    19a0:	1487ad83          	lw	s11,328(a5)
    19a4:	0000ad37          	lui	s10,0xa
    19a8:	ccfd0d13          	addi	s10,s10,-817 # 9ccf <__global_pointer+0x2387>
    19ac:	01a70d33          	add	s10,a4,s10
    19b0:	01ad8d33          	add	s10,s11,s10
    19b4:	fe000d93          	li	s11,-32
    19b8:	01bd0023          	sb	s11,0(s10)
    19bc:	04067613          	andi	a2,a2,64
    19c0:	00060e63          	beqz	a2,19dc <game_over+0x89c>
    19c4:	00c12603          	lw	a2,12(sp)
    19c8:	1487ad03          	lw	s10,328(a5)
    19cc:	00c70633          	add	a2,a4,a2
    19d0:	00cd0633          	add	a2,s10,a2
    19d4:	fe000d13          	li	s10,-32
    19d8:	01a60023          	sb	s10,0(a2)
    19dc:	0026c603          	lbu	a2,2(a3)
    19e0:	00167d13          	andi	s10,a2,1
    19e4:	000d0e63          	beqz	s10,1a00 <game_over+0x8c0>
    19e8:	00812d03          	lw	s10,8(sp)
    19ec:	1487ad83          	lw	s11,328(a5)
    19f0:	01a70d33          	add	s10,a4,s10
    19f4:	01ad8d33          	add	s10,s11,s10
    19f8:	fe000d93          	li	s11,-32
    19fc:	01bd0023          	sb	s11,0(s10)
    1a00:	00267d13          	andi	s10,a2,2
    1a04:	000d0e63          	beqz	s10,1a20 <game_over+0x8e0>
    1a08:	00412d03          	lw	s10,4(sp)
    1a0c:	1487ad83          	lw	s11,328(a5)
    1a10:	01a70d33          	add	s10,a4,s10
    1a14:	01ad8d33          	add	s10,s11,s10
    1a18:	fe000d93          	li	s11,-32
    1a1c:	01bd0023          	sb	s11,0(s10)
    1a20:	00467d13          	andi	s10,a2,4
    1a24:	000d0c63          	beqz	s10,1a3c <game_over+0x8fc>
    1a28:	1487ad83          	lw	s11,328(a5)
    1a2c:	01170d33          	add	s10,a4,a7
    1a30:	01ad8d33          	add	s10,s11,s10
    1a34:	fe000d93          	li	s11,-32
    1a38:	01bd0023          	sb	s11,0(s10)
    1a3c:	00867d13          	andi	s10,a2,8
    1a40:	000d0c63          	beqz	s10,1a58 <game_over+0x918>
    1a44:	1487ad83          	lw	s11,328(a5)
    1a48:	00670d33          	add	s10,a4,t1
    1a4c:	01ad8d33          	add	s10,s11,s10
    1a50:	fe000d93          	li	s11,-32
    1a54:	01bd0023          	sb	s11,0(s10)
    1a58:	01067d13          	andi	s10,a2,16
    1a5c:	000d0c63          	beqz	s10,1a74 <game_over+0x934>
    1a60:	1487ad83          	lw	s11,328(a5)
    1a64:	01c70d33          	add	s10,a4,t3
    1a68:	01ad8d33          	add	s10,s11,s10
    1a6c:	fe000d93          	li	s11,-32
    1a70:	01bd0023          	sb	s11,0(s10)
    1a74:	02067d13          	andi	s10,a2,32
    1a78:	000d0c63          	beqz	s10,1a90 <game_over+0x950>
    1a7c:	1487ad83          	lw	s11,328(a5)
    1a80:	01d70d33          	add	s10,a4,t4
    1a84:	01ad8d33          	add	s10,s11,s10
    1a88:	fe000d93          	li	s11,-32
    1a8c:	01bd0023          	sb	s11,0(s10)
    1a90:	04067613          	andi	a2,a2,64
    1a94:	00060c63          	beqz	a2,1aac <game_over+0x96c>
    1a98:	1487ad03          	lw	s10,328(a5)
    1a9c:	01e70633          	add	a2,a4,t5
    1aa0:	00cd0633          	add	a2,s10,a2
    1aa4:	fe000d13          	li	s10,-32
    1aa8:	01a60023          	sb	s10,0(a2)
    1aac:	0036c603          	lbu	a2,3(a3)
    1ab0:	00167d13          	andi	s10,a2,1
    1ab4:	000d0c63          	beqz	s10,1acc <game_over+0x98c>
    1ab8:	1487ad83          	lw	s11,328(a5)
    1abc:	01f70d33          	add	s10,a4,t6
    1ac0:	01ad8d33          	add	s10,s11,s10
    1ac4:	fe000d93          	li	s11,-32
    1ac8:	01bd0023          	sb	s11,0(s10)
    1acc:	00267d13          	andi	s10,a2,2
    1ad0:	000d0c63          	beqz	s10,1ae8 <game_over+0x9a8>
    1ad4:	1487ad83          	lw	s11,328(a5)
    1ad8:	00570d33          	add	s10,a4,t0
    1adc:	01ad8d33          	add	s10,s11,s10
    1ae0:	fe000d93          	li	s11,-32
    1ae4:	01bd0023          	sb	s11,0(s10)
    1ae8:	00467d13          	andi	s10,a2,4
    1aec:	000d0c63          	beqz	s10,1b04 <game_over+0x9c4>
    1af0:	1487ad83          	lw	s11,328(a5)
    1af4:	00770d33          	add	s10,a4,t2
    1af8:	01ad8d33          	add	s10,s11,s10
    1afc:	fe000d93          	li	s11,-32
    1b00:	01bd0023          	sb	s11,0(s10)
    1b04:	00867d13          	andi	s10,a2,8
    1b08:	000d0c63          	beqz	s10,1b20 <game_over+0x9e0>
    1b0c:	1487ad83          	lw	s11,328(a5)
    1b10:	00170d33          	add	s10,a4,ra
    1b14:	01ad8d33          	add	s10,s11,s10
    1b18:	fe000d93          	li	s11,-32
    1b1c:	01bd0023          	sb	s11,0(s10)
    1b20:	01067d13          	andi	s10,a2,16
    1b24:	000d0c63          	beqz	s10,1b3c <game_over+0x9fc>
    1b28:	1487ad83          	lw	s11,328(a5)
    1b2c:	00870d33          	add	s10,a4,s0
    1b30:	01ad8d33          	add	s10,s11,s10
    1b34:	fe000d93          	li	s11,-32
    1b38:	01bd0023          	sb	s11,0(s10)
    1b3c:	02067d13          	andi	s10,a2,32
    1b40:	000d0c63          	beqz	s10,1b58 <game_over+0xa18>
    1b44:	1487ad83          	lw	s11,328(a5)
    1b48:	00970d33          	add	s10,a4,s1
    1b4c:	01ad8d33          	add	s10,s11,s10
    1b50:	fe000d93          	li	s11,-32
    1b54:	01bd0023          	sb	s11,0(s10)
    1b58:	04067613          	andi	a2,a2,64
    1b5c:	00060c63          	beqz	a2,1b74 <game_over+0xa34>
    1b60:	1487ad03          	lw	s10,328(a5)
    1b64:	01270633          	add	a2,a4,s2
    1b68:	00cd0633          	add	a2,s10,a2
    1b6c:	fe000d13          	li	s10,-32
    1b70:	01a60023          	sb	s10,0(a2)
    1b74:	0046c683          	lbu	a3,4(a3)
    1b78:	0016f613          	andi	a2,a3,1
    1b7c:	00060c63          	beqz	a2,1b94 <game_over+0xa54>
    1b80:	1487ad03          	lw	s10,328(a5)
    1b84:	01370633          	add	a2,a4,s3
    1b88:	00cd0633          	add	a2,s10,a2
    1b8c:	fe000d13          	li	s10,-32
    1b90:	01a60023          	sb	s10,0(a2)
    1b94:	0026f613          	andi	a2,a3,2
    1b98:	00060c63          	beqz	a2,1bb0 <game_over+0xa70>
    1b9c:	1487ad03          	lw	s10,328(a5)
    1ba0:	01470633          	add	a2,a4,s4
    1ba4:	00cd0633          	add	a2,s10,a2
    1ba8:	fe000d13          	li	s10,-32
    1bac:	01a60023          	sb	s10,0(a2)
    1bb0:	0046f613          	andi	a2,a3,4
    1bb4:	00060c63          	beqz	a2,1bcc <game_over+0xa8c>
    1bb8:	1487ad03          	lw	s10,328(a5)
    1bbc:	01570633          	add	a2,a4,s5
    1bc0:	00cd0633          	add	a2,s10,a2
    1bc4:	fe000d13          	li	s10,-32
    1bc8:	01a60023          	sb	s10,0(a2)
    1bcc:	0086f613          	andi	a2,a3,8
    1bd0:	00060c63          	beqz	a2,1be8 <game_over+0xaa8>
    1bd4:	1487ad03          	lw	s10,328(a5)
    1bd8:	01670633          	add	a2,a4,s6
    1bdc:	00cd0633          	add	a2,s10,a2
    1be0:	fe000d13          	li	s10,-32
    1be4:	01a60023          	sb	s10,0(a2)
    1be8:	0106f613          	andi	a2,a3,16
    1bec:	00060c63          	beqz	a2,1c04 <game_over+0xac4>
    1bf0:	1487ad03          	lw	s10,328(a5)
    1bf4:	01770633          	add	a2,a4,s7
    1bf8:	00cd0633          	add	a2,s10,a2
    1bfc:	fe000d13          	li	s10,-32
    1c00:	01a60023          	sb	s10,0(a2)
    1c04:	0206f613          	andi	a2,a3,32
    1c08:	00060c63          	beqz	a2,1c20 <game_over+0xae0>
    1c0c:	1487ad03          	lw	s10,328(a5)
    1c10:	01870633          	add	a2,a4,s8
    1c14:	00cd0633          	add	a2,s10,a2
    1c18:	fe000d13          	li	s10,-32
    1c1c:	01a60023          	sb	s10,0(a2)
    1c20:	0406f693          	andi	a3,a3,64
    1c24:	00068c63          	beqz	a3,1c3c <game_over+0xafc>
    1c28:	1487a603          	lw	a2,328(a5)
    1c2c:	019706b3          	add	a3,a4,s9
    1c30:	00d606b3          	add	a3,a2,a3
    1c34:	fe000613          	li	a2,-32
    1c38:	00c68023          	sb	a2,0(a3)
    1c3c:	00570713          	addi	a4,a4,5
    1c40:	00158593          	addi	a1,a1,1
    1c44:	b90710e3          	bne	a4,a6,17c4 <game_over+0x684>
    1c48:	0000006f          	j	1c48 <game_over+0xb08>

00001c4c <spawn_next>:
    1c4c:	000077b7          	lui	a5,0x7
    1c50:	14c78793          	addi	a5,a5,332 # 714c <grid>
    1c54:	11878693          	addi	a3,a5,280
    1c58:	00068713          	mv	a4,a3
    1c5c:	0c878613          	addi	a2,a5,200
    1c60:	16878313          	addi	t1,a5,360
    1c64:	00072883          	lw	a7,0(a4)
    1c68:	00472803          	lw	a6,4(a4)
    1c6c:	00872503          	lw	a0,8(a4)
    1c70:	00c72583          	lw	a1,12(a4)
    1c74:	01162023          	sw	a7,0(a2)
    1c78:	01062223          	sw	a6,4(a2)
    1c7c:	00a62423          	sw	a0,8(a2)
    1c80:	00b62623          	sw	a1,12(a2)
    1c84:	01070713          	addi	a4,a4,16
    1c88:	01060613          	addi	a2,a2,16
    1c8c:	fc671ce3          	bne	a4,t1,1c64 <spawn_next+0x18>
    1c90:	0000d537          	lui	a0,0xd
    1c94:	07852703          	lw	a4,120(a0) # d078 <seed>
    1c98:	00700593          	li	a1,7
    1c9c:	00271613          	slli	a2,a4,0x2
    1ca0:	00e60633          	add	a2,a2,a4
    1ca4:	00461713          	slli	a4,a2,0x4
    1ca8:	40c70733          	sub	a4,a4,a2
    1cac:	0b370713          	addi	a4,a4,179
    1cb0:	03f77713          	andi	a4,a4,63
    1cb4:	02b775b3          	remu	a1,a4,a1
    1cb8:	06e52c23          	sw	a4,120(a0)
    1cbc:	00007737          	lui	a4,0x7
    1cc0:	f1870713          	addi	a4,a4,-232 # 6f18 <pieces>
    1cc4:	00259613          	slli	a2,a1,0x2
    1cc8:	00b60633          	add	a2,a2,a1
    1ccc:	00461613          	slli	a2,a2,0x4
    1cd0:	00c70733          	add	a4,a4,a2
    1cd4:	05070893          	addi	a7,a4,80
    1cd8:	00072803          	lw	a6,0(a4)
    1cdc:	00472503          	lw	a0,4(a4)
    1ce0:	00872583          	lw	a1,8(a4)
    1ce4:	00c72603          	lw	a2,12(a4)
    1ce8:	0106a023          	sw	a6,0(a3)
    1cec:	00a6a223          	sw	a0,4(a3)
    1cf0:	00b6a423          	sw	a1,8(a3)
    1cf4:	00c6a623          	sw	a2,12(a3)
    1cf8:	01070713          	addi	a4,a4,16
    1cfc:	01068693          	addi	a3,a3,16
    1d00:	fd171ce3          	bne	a4,a7,1cd8 <spawn_next+0x8c>
    1d04:	0d87a703          	lw	a4,216(a5)
    1d08:	00300693          	li	a3,3
    1d0c:	0cd7a623          	sw	a3,204(a5)
    1d10:	0c07a823          	sw	zero,208(a5)
    1d14:	00070663          	beqz	a4,1d20 <spawn_next+0xd4>
    1d18:	0037c703          	lbu	a4,3(a5)
    1d1c:	0e071c63          	bnez	a4,1e14 <spawn_next+0x1c8>
    1d20:	0dc7a703          	lw	a4,220(a5)
    1d24:	00070663          	beqz	a4,1d30 <spawn_next+0xe4>
    1d28:	0047c703          	lbu	a4,4(a5)
    1d2c:	0e071463          	bnez	a4,1e14 <spawn_next+0x1c8>
    1d30:	0e07a703          	lw	a4,224(a5)
    1d34:	00070663          	beqz	a4,1d40 <spawn_next+0xf4>
    1d38:	0057c703          	lbu	a4,5(a5)
    1d3c:	0c071c63          	bnez	a4,1e14 <spawn_next+0x1c8>
    1d40:	0e47a703          	lw	a4,228(a5)
    1d44:	00070663          	beqz	a4,1d50 <spawn_next+0x104>
    1d48:	0067c703          	lbu	a4,6(a5)
    1d4c:	0c071463          	bnez	a4,1e14 <spawn_next+0x1c8>
    1d50:	0e87a703          	lw	a4,232(a5)
    1d54:	00070663          	beqz	a4,1d60 <spawn_next+0x114>
    1d58:	00d7c703          	lbu	a4,13(a5)
    1d5c:	0a071c63          	bnez	a4,1e14 <spawn_next+0x1c8>
    1d60:	0ec7a703          	lw	a4,236(a5)
    1d64:	00070663          	beqz	a4,1d70 <spawn_next+0x124>
    1d68:	00e7c703          	lbu	a4,14(a5)
    1d6c:	0a071463          	bnez	a4,1e14 <spawn_next+0x1c8>
    1d70:	0f07a703          	lw	a4,240(a5)
    1d74:	00070663          	beqz	a4,1d80 <spawn_next+0x134>
    1d78:	00f7c703          	lbu	a4,15(a5)
    1d7c:	08071c63          	bnez	a4,1e14 <spawn_next+0x1c8>
    1d80:	0f47a703          	lw	a4,244(a5)
    1d84:	00070663          	beqz	a4,1d90 <spawn_next+0x144>
    1d88:	0107c703          	lbu	a4,16(a5)
    1d8c:	08071463          	bnez	a4,1e14 <spawn_next+0x1c8>
    1d90:	0f87a703          	lw	a4,248(a5)
    1d94:	00070663          	beqz	a4,1da0 <spawn_next+0x154>
    1d98:	0177c703          	lbu	a4,23(a5)
    1d9c:	06071c63          	bnez	a4,1e14 <spawn_next+0x1c8>
    1da0:	0fc7a703          	lw	a4,252(a5)
    1da4:	00070663          	beqz	a4,1db0 <spawn_next+0x164>
    1da8:	0187c703          	lbu	a4,24(a5)
    1dac:	06071463          	bnez	a4,1e14 <spawn_next+0x1c8>
    1db0:	1007a703          	lw	a4,256(a5)
    1db4:	00070663          	beqz	a4,1dc0 <spawn_next+0x174>
    1db8:	0197c703          	lbu	a4,25(a5)
    1dbc:	04071c63          	bnez	a4,1e14 <spawn_next+0x1c8>
    1dc0:	1047a703          	lw	a4,260(a5)
    1dc4:	00070663          	beqz	a4,1dd0 <spawn_next+0x184>
    1dc8:	01a7c703          	lbu	a4,26(a5)
    1dcc:	04071463          	bnez	a4,1e14 <spawn_next+0x1c8>
    1dd0:	1087a703          	lw	a4,264(a5)
    1dd4:	00070663          	beqz	a4,1de0 <spawn_next+0x194>
    1dd8:	0217c703          	lbu	a4,33(a5)
    1ddc:	02071c63          	bnez	a4,1e14 <spawn_next+0x1c8>
    1de0:	10c7a703          	lw	a4,268(a5)
    1de4:	00070663          	beqz	a4,1df0 <spawn_next+0x1a4>
    1de8:	0227c703          	lbu	a4,34(a5)
    1dec:	02071463          	bnez	a4,1e14 <spawn_next+0x1c8>
    1df0:	1107a703          	lw	a4,272(a5)
    1df4:	00070663          	beqz	a4,1e00 <spawn_next+0x1b4>
    1df8:	0237c703          	lbu	a4,35(a5)
    1dfc:	00071c63          	bnez	a4,1e14 <spawn_next+0x1c8>
    1e00:	1147a703          	lw	a4,276(a5)
    1e04:	00070663          	beqz	a4,1e10 <spawn_next+0x1c4>
    1e08:	0247c783          	lbu	a5,36(a5)
    1e0c:	00079463          	bnez	a5,1e14 <spawn_next+0x1c8>
    1e10:	00008067          	ret
    1e14:	ff010113          	addi	sp,sp,-16
    1e18:	00112623          	sw	ra,12(sp)
    1e1c:	b24ff0ef          	jal	1140 <game_over>

00001e20 <labinit>:
    1e20:	ffffc6b7          	lui	a3,0xffffc
    1e24:	040007b7          	lui	a5,0x4000
    1e28:	6bf68693          	addi	a3,a3,1727 # ffffc6bf <_stack_end+0xffeef51f>
    1e2c:	02d79423          	sh	a3,40(a5) # 4000028 <_stack_end+0x3ef2e88>
    1e30:	04000737          	lui	a4,0x4000
    1e34:	02d00693          	li	a3,45
    1e38:	02d71623          	sh	a3,44(a4) # 400002c <_stack_end+0x3ef2e8c>
    1e3c:	040007b7          	lui	a5,0x4000
    1e40:	00700693          	li	a3,7
    1e44:	02d79223          	sh	a3,36(a5) # 4000024 <_stack_end+0x3ef2e84>
    1e48:	04000737          	lui	a4,0x4000
    1e4c:	00100693          	li	a3,1
    1e50:	040007b7          	lui	a5,0x4000
    1e54:	0cd72c23          	sw	a3,216(a4) # 40000d8 <_stack_end+0x3ef2f38>
    1e58:	0cd7ae23          	sw	a3,220(a5) # 40000dc <_stack_end+0x3ef2f3c>
    1e5c:	b18fe06f          	j	174 <enable_interrupt>

00001e60 <get_btn>:
    1e60:	040007b7          	lui	a5,0x4000
    1e64:	0d07a503          	lw	a0,208(a5) # 40000d0 <_stack_end+0x3ef2f30>
    1e68:	00157513          	andi	a0,a0,1
    1e6c:	00008067          	ret

00001e70 <get_sw>:
    1e70:	040007b7          	lui	a5,0x4000
    1e74:	0107a503          	lw	a0,16(a5) # 4000010 <_stack_end+0x3ef2e70>
    1e78:	3ff57513          	andi	a0,a0,1023
    1e7c:	00008067          	ret

00001e80 <draw_grid>:
    1e80:	00007f37          	lui	t5,0x7
    1e84:	14cf0f13          	addi	t5,t5,332 # 714c <grid>
    1e88:	00003e37          	lui	t3,0x3
    1e8c:	00001fb7          	lui	t6,0x1
    1e90:	0c8f0293          	addi	t0,t5,200
    1e94:	2c8e0e13          	addi	t3,t3,712 # 32c8 <update_shape+0x324>
    1e98:	00250e93          	addi	t4,a0,2
    1e9c:	01200713          	li	a4,18
    1ea0:	00700593          	li	a1,7
    1ea4:	a00f8f93          	addi	t6,t6,-1536 # a00 <is_filled+0xe4>
    1ea8:	fb0e0313          	addi	t1,t3,-80
    1eac:	000f0613          	mv	a2,t5
    1eb0:	00064803          	lbu	a6,0(a2)
    1eb4:	00081463          	bnez	a6,1ebc <draw_grid+0x3c>
    1eb8:	01200813          	li	a6,18
    1ebc:	006e87b3          	add	a5,t4,t1
    1ec0:	fee78f23          	sb	a4,-2(a5)
    1ec4:	fee78fa3          	sb	a4,-1(a5)
    1ec8:	00e78023          	sb	a4,0(a5)
    1ecc:	00e780a3          	sb	a4,1(a5)
    1ed0:	00e78123          	sb	a4,2(a5)
    1ed4:	00e781a3          	sb	a4,3(a5)
    1ed8:	00e78223          	sb	a4,4(a5)
    1edc:	00e782a3          	sb	a4,5(a5)
    1ee0:	00000693          	li	a3,0
    1ee4:	14078793          	addi	a5,a5,320
    1ee8:	08b68c63          	beq	a3,a1,1f80 <draw_grid+0x100>
    1eec:	00100693          	li	a3,1
    1ef0:	fee78f23          	sb	a4,-2(a5)
    1ef4:	fff78513          	addi	a0,a5,-1
    1ef8:	06b68263          	beq	a3,a1,1f5c <draw_grid+0xdc>
    1efc:	00064883          	lbu	a7,0(a2)
    1f00:	0c089263          	bnez	a7,1fc4 <draw_grid+0x144>
    1f04:	00050023          	sb	zero,0(a0)
    1f08:	00064503          	lbu	a0,0(a2)
    1f0c:	0a051863          	bnez	a0,1fbc <draw_grid+0x13c>
    1f10:	00078023          	sb	zero,0(a5)
    1f14:	00064503          	lbu	a0,0(a2)
    1f18:	08051e63          	bnez	a0,1fb4 <draw_grid+0x134>
    1f1c:	000780a3          	sb	zero,1(a5)
    1f20:	00064503          	lbu	a0,0(a2)
    1f24:	08051463          	bnez	a0,1fac <draw_grid+0x12c>
    1f28:	00078123          	sb	zero,2(a5)
    1f2c:	00064503          	lbu	a0,0(a2)
    1f30:	06051a63          	bnez	a0,1fa4 <draw_grid+0x124>
    1f34:	000781a3          	sb	zero,3(a5)
    1f38:	00064503          	lbu	a0,0(a2)
    1f3c:	06051063          	bnez	a0,1f9c <draw_grid+0x11c>
    1f40:	00078223          	sb	zero,4(a5)
    1f44:	00e782a3          	sb	a4,5(a5)
    1f48:	00168693          	addi	a3,a3,1
    1f4c:	14078793          	addi	a5,a5,320
    1f50:	fee78f23          	sb	a4,-2(a5)
    1f54:	fff78513          	addi	a0,a5,-1
    1f58:	fab692e3          	bne	a3,a1,1efc <draw_grid+0x7c>
    1f5c:	fee78fa3          	sb	a4,-1(a5)
    1f60:	00e78023          	sb	a4,0(a5)
    1f64:	00e780a3          	sb	a4,1(a5)
    1f68:	00e78123          	sb	a4,2(a5)
    1f6c:	00e781a3          	sb	a4,3(a5)
    1f70:	00e78223          	sb	a4,4(a5)
    1f74:	00e782a3          	sb	a4,5(a5)
    1f78:	14078793          	addi	a5,a5,320
    1f7c:	f6b698e3          	bne	a3,a1,1eec <draw_grid+0x6c>
    1f80:	00830313          	addi	t1,t1,8
    1f84:	00160613          	addi	a2,a2,1
    1f88:	f26e14e3          	bne	t3,t1,1eb0 <draw_grid+0x30>
    1f8c:	00af0f13          	addi	t5,t5,10
    1f90:	01fe0e33          	add	t3,t3,t6
    1f94:	f1e29ae3          	bne	t0,t5,1ea8 <draw_grid+0x28>
    1f98:	00008067          	ret
    1f9c:	01078223          	sb	a6,4(a5)
    1fa0:	fa5ff06f          	j	1f44 <draw_grid+0xc4>
    1fa4:	010781a3          	sb	a6,3(a5)
    1fa8:	f91ff06f          	j	1f38 <draw_grid+0xb8>
    1fac:	01078123          	sb	a6,2(a5)
    1fb0:	f7dff06f          	j	1f2c <draw_grid+0xac>
    1fb4:	010780a3          	sb	a6,1(a5)
    1fb8:	f69ff06f          	j	1f20 <draw_grid+0xa0>
    1fbc:	01078023          	sb	a6,0(a5)
    1fc0:	f55ff06f          	j	1f14 <draw_grid+0x94>
    1fc4:	01050023          	sb	a6,0(a0)
    1fc8:	f41ff06f          	j	1f08 <draw_grid+0x88>

00001fcc <draw_shape>:
    1fcc:	ff010113          	addi	sp,sp,-16
    1fd0:	00812623          	sw	s0,12(sp)
    1fd4:	000013b7          	lui	t2,0x1
    1fd8:	00001437          	lui	s0,0x1
    1fdc:	000012b7          	lui	t0,0x1
    1fe0:	00001fb7          	lui	t6,0x1
    1fe4:	00001f37          	lui	t5,0x1
    1fe8:	00001eb7          	lui	t4,0x1
    1fec:	00001e37          	lui	t3,0x1
    1ff0:	00001337          	lui	t1,0x1
    1ff4:	00912423          	sw	s1,8(sp)
    1ff8:	01212223          	sw	s2,4(sp)
    1ffc:	00000813          	li	a6,0
    2000:	8c040413          	addi	s0,s0,-1856 # 8c0 <rand+0x1c>
    2004:	8c138393          	addi	t2,t2,-1855 # 8c1 <rand+0x1d>
    2008:	8c228293          	addi	t0,t0,-1854 # 8c2 <rand+0x1e>
    200c:	8c3f8f93          	addi	t6,t6,-1853 # 8c3 <rand+0x1f>
    2010:	8c4f0f13          	addi	t5,t5,-1852 # 8c4 <rand+0x20>
    2014:	8c5e8e93          	addi	t4,t4,-1851 # 8c5 <rand+0x21>
    2018:	8c6e0e13          	addi	t3,t3,-1850 # 8c6 <rand+0x22>
    201c:	8c730313          	addi	t1,t1,-1849 # 8c7 <rand+0x23>
    2020:	00400893          	li	a7,4
    2024:	00481693          	slli	a3,a6,0x4
    2028:	00d586b3          	add	a3,a1,a3
    202c:	00000713          	li	a4,0
    2030:	0106a783          	lw	a5,16(a3)
    2034:	02079663          	bnez	a5,2060 <draw_shape+0x94>
    2038:	00170713          	addi	a4,a4,1
    203c:	00468693          	addi	a3,a3,4
    2040:	ff1718e3          	bne	a4,a7,2030 <draw_shape+0x64>
    2044:	00180813          	addi	a6,a6,1
    2048:	fce81ee3          	bne	a6,a4,2024 <draw_shape+0x58>
    204c:	00c12403          	lw	s0,12(sp)
    2050:	00812483          	lw	s1,8(sp)
    2054:	00412903          	lw	s2,4(sp)
    2058:	01010113          	addi	sp,sp,16
    205c:	00008067          	ret
    2060:	0085a603          	lw	a2,8(a1)
    2064:	00c5c483          	lbu	s1,12(a1)
    2068:	00c80633          	add	a2,a6,a2
    206c:	00560613          	addi	a2,a2,5
    2070:	00261793          	slli	a5,a2,0x2
    2074:	00c787b3          	add	a5,a5,a2
    2078:	0045a603          	lw	a2,4(a1)
    207c:	00679793          	slli	a5,a5,0x6
    2080:	00c70633          	add	a2,a4,a2
    2084:	00f60613          	addi	a2,a2,15
    2088:	00c787b3          	add	a5,a5,a2
    208c:	00379793          	slli	a5,a5,0x3
    2090:	00f50933          	add	s2,a0,a5
    2094:	00178613          	addi	a2,a5,1
    2098:	00990023          	sb	s1,0(s2)
    209c:	00c50633          	add	a2,a0,a2
    20a0:	00960023          	sb	s1,0(a2)
    20a4:	00c5c903          	lbu	s2,12(a1)
    20a8:	00278493          	addi	s1,a5,2
    20ac:	009504b3          	add	s1,a0,s1
    20b0:	00378613          	addi	a2,a5,3
    20b4:	01248023          	sb	s2,0(s1)
    20b8:	00c50633          	add	a2,a0,a2
    20bc:	01260023          	sb	s2,0(a2)
    20c0:	00c5c903          	lbu	s2,12(a1)
    20c4:	00478493          	addi	s1,a5,4
    20c8:	009504b3          	add	s1,a0,s1
    20cc:	00578613          	addi	a2,a5,5
    20d0:	01248023          	sb	s2,0(s1)
    20d4:	00c50633          	add	a2,a0,a2
    20d8:	01260023          	sb	s2,0(a2)
    20dc:	00c5c903          	lbu	s2,12(a1)
    20e0:	00678493          	addi	s1,a5,6
    20e4:	009504b3          	add	s1,a0,s1
    20e8:	00778613          	addi	a2,a5,7
    20ec:	01248023          	sb	s2,0(s1)
    20f0:	00c50633          	add	a2,a0,a2
    20f4:	01260023          	sb	s2,0(a2)
    20f8:	00c5c903          	lbu	s2,12(a1)
    20fc:	14078493          	addi	s1,a5,320
    2100:	009504b3          	add	s1,a0,s1
    2104:	14178613          	addi	a2,a5,321
    2108:	01248023          	sb	s2,0(s1)
    210c:	00c50633          	add	a2,a0,a2
    2110:	01260023          	sb	s2,0(a2)
    2114:	00c5c903          	lbu	s2,12(a1)
    2118:	14278493          	addi	s1,a5,322
    211c:	009504b3          	add	s1,a0,s1
    2120:	14378613          	addi	a2,a5,323
    2124:	01248023          	sb	s2,0(s1)
    2128:	00c50633          	add	a2,a0,a2
    212c:	01260023          	sb	s2,0(a2)
    2130:	00c5c903          	lbu	s2,12(a1)
    2134:	14478493          	addi	s1,a5,324
    2138:	009504b3          	add	s1,a0,s1
    213c:	14578613          	addi	a2,a5,325
    2140:	01248023          	sb	s2,0(s1)
    2144:	00c50633          	add	a2,a0,a2
    2148:	01260023          	sb	s2,0(a2)
    214c:	00c5c903          	lbu	s2,12(a1)
    2150:	14678493          	addi	s1,a5,326
    2154:	009504b3          	add	s1,a0,s1
    2158:	14778613          	addi	a2,a5,327
    215c:	01248023          	sb	s2,0(s1)
    2160:	00c50633          	add	a2,a0,a2
    2164:	01260023          	sb	s2,0(a2)
    2168:	00c5c903          	lbu	s2,12(a1)
    216c:	28078493          	addi	s1,a5,640
    2170:	009504b3          	add	s1,a0,s1
    2174:	28178613          	addi	a2,a5,641
    2178:	01248023          	sb	s2,0(s1)
    217c:	00c50633          	add	a2,a0,a2
    2180:	01260023          	sb	s2,0(a2)
    2184:	00c5c903          	lbu	s2,12(a1)
    2188:	28278493          	addi	s1,a5,642
    218c:	009504b3          	add	s1,a0,s1
    2190:	28378613          	addi	a2,a5,643
    2194:	01248023          	sb	s2,0(s1)
    2198:	00c50633          	add	a2,a0,a2
    219c:	01260023          	sb	s2,0(a2)
    21a0:	00c5c903          	lbu	s2,12(a1)
    21a4:	28478493          	addi	s1,a5,644
    21a8:	009504b3          	add	s1,a0,s1
    21ac:	28578613          	addi	a2,a5,645
    21b0:	01248023          	sb	s2,0(s1)
    21b4:	00c50633          	add	a2,a0,a2
    21b8:	01260023          	sb	s2,0(a2)
    21bc:	00c5c903          	lbu	s2,12(a1)
    21c0:	28678493          	addi	s1,a5,646
    21c4:	009504b3          	add	s1,a0,s1
    21c8:	28778613          	addi	a2,a5,647
    21cc:	01248023          	sb	s2,0(s1)
    21d0:	00c50633          	add	a2,a0,a2
    21d4:	01260023          	sb	s2,0(a2)
    21d8:	00c5c903          	lbu	s2,12(a1)
    21dc:	3c078493          	addi	s1,a5,960
    21e0:	009504b3          	add	s1,a0,s1
    21e4:	3c178613          	addi	a2,a5,961
    21e8:	01248023          	sb	s2,0(s1)
    21ec:	00c50633          	add	a2,a0,a2
    21f0:	01260023          	sb	s2,0(a2)
    21f4:	00c5c903          	lbu	s2,12(a1)
    21f8:	3c278493          	addi	s1,a5,962
    21fc:	009504b3          	add	s1,a0,s1
    2200:	3c378613          	addi	a2,a5,963
    2204:	01248023          	sb	s2,0(s1)
    2208:	00c50633          	add	a2,a0,a2
    220c:	01260023          	sb	s2,0(a2)
    2210:	00c5c903          	lbu	s2,12(a1)
    2214:	3c478493          	addi	s1,a5,964
    2218:	009504b3          	add	s1,a0,s1
    221c:	3c578613          	addi	a2,a5,965
    2220:	01248023          	sb	s2,0(s1)
    2224:	00c50633          	add	a2,a0,a2
    2228:	01260023          	sb	s2,0(a2)
    222c:	00c5c903          	lbu	s2,12(a1)
    2230:	3c678493          	addi	s1,a5,966
    2234:	009504b3          	add	s1,a0,s1
    2238:	3c778613          	addi	a2,a5,967
    223c:	01248023          	sb	s2,0(s1)
    2240:	00c50633          	add	a2,a0,a2
    2244:	01260023          	sb	s2,0(a2)
    2248:	00c5c903          	lbu	s2,12(a1)
    224c:	50078493          	addi	s1,a5,1280
    2250:	009504b3          	add	s1,a0,s1
    2254:	50178613          	addi	a2,a5,1281
    2258:	01248023          	sb	s2,0(s1)
    225c:	00c50633          	add	a2,a0,a2
    2260:	01260023          	sb	s2,0(a2)
    2264:	00c5c903          	lbu	s2,12(a1)
    2268:	50278493          	addi	s1,a5,1282
    226c:	009504b3          	add	s1,a0,s1
    2270:	50378613          	addi	a2,a5,1283
    2274:	01248023          	sb	s2,0(s1)
    2278:	00c50633          	add	a2,a0,a2
    227c:	01260023          	sb	s2,0(a2)
    2280:	00c5c903          	lbu	s2,12(a1)
    2284:	50478493          	addi	s1,a5,1284
    2288:	009504b3          	add	s1,a0,s1
    228c:	50578613          	addi	a2,a5,1285
    2290:	01248023          	sb	s2,0(s1)
    2294:	00c50633          	add	a2,a0,a2
    2298:	01260023          	sb	s2,0(a2)
    229c:	00c5c903          	lbu	s2,12(a1)
    22a0:	50678493          	addi	s1,a5,1286
    22a4:	009504b3          	add	s1,a0,s1
    22a8:	50778613          	addi	a2,a5,1287
    22ac:	01248023          	sb	s2,0(s1)
    22b0:	00c50633          	add	a2,a0,a2
    22b4:	01260023          	sb	s2,0(a2)
    22b8:	00c5c903          	lbu	s2,12(a1)
    22bc:	64078493          	addi	s1,a5,1600
    22c0:	009504b3          	add	s1,a0,s1
    22c4:	64178613          	addi	a2,a5,1601
    22c8:	01248023          	sb	s2,0(s1)
    22cc:	00c50633          	add	a2,a0,a2
    22d0:	01260023          	sb	s2,0(a2)
    22d4:	00c5c903          	lbu	s2,12(a1)
    22d8:	64278493          	addi	s1,a5,1602
    22dc:	009504b3          	add	s1,a0,s1
    22e0:	64378613          	addi	a2,a5,1603
    22e4:	01248023          	sb	s2,0(s1)
    22e8:	00c50633          	add	a2,a0,a2
    22ec:	01260023          	sb	s2,0(a2)
    22f0:	00c5c903          	lbu	s2,12(a1)
    22f4:	64478493          	addi	s1,a5,1604
    22f8:	009504b3          	add	s1,a0,s1
    22fc:	64578613          	addi	a2,a5,1605
    2300:	01248023          	sb	s2,0(s1)
    2304:	00c50633          	add	a2,a0,a2
    2308:	01260023          	sb	s2,0(a2)
    230c:	00c5c903          	lbu	s2,12(a1)
    2310:	64678493          	addi	s1,a5,1606
    2314:	009504b3          	add	s1,a0,s1
    2318:	64778613          	addi	a2,a5,1607
    231c:	01248023          	sb	s2,0(s1)
    2320:	00c50633          	add	a2,a0,a2
    2324:	01260023          	sb	s2,0(a2)
    2328:	00c5c903          	lbu	s2,12(a1)
    232c:	78078493          	addi	s1,a5,1920
    2330:	009504b3          	add	s1,a0,s1
    2334:	78178613          	addi	a2,a5,1921
    2338:	01248023          	sb	s2,0(s1)
    233c:	00c50633          	add	a2,a0,a2
    2340:	01260023          	sb	s2,0(a2)
    2344:	00c5c903          	lbu	s2,12(a1)
    2348:	78278493          	addi	s1,a5,1922
    234c:	009504b3          	add	s1,a0,s1
    2350:	78378613          	addi	a2,a5,1923
    2354:	01248023          	sb	s2,0(s1)
    2358:	00c50633          	add	a2,a0,a2
    235c:	01260023          	sb	s2,0(a2)
    2360:	00c5c903          	lbu	s2,12(a1)
    2364:	78478493          	addi	s1,a5,1924
    2368:	009504b3          	add	s1,a0,s1
    236c:	78578613          	addi	a2,a5,1925
    2370:	01248023          	sb	s2,0(s1)
    2374:	00c50633          	add	a2,a0,a2
    2378:	01260023          	sb	s2,0(a2)
    237c:	00c5c903          	lbu	s2,12(a1)
    2380:	78678493          	addi	s1,a5,1926
    2384:	009504b3          	add	s1,a0,s1
    2388:	78778613          	addi	a2,a5,1927
    238c:	01248023          	sb	s2,0(s1)
    2390:	00c50633          	add	a2,a0,a2
    2394:	01260023          	sb	s2,0(a2)
    2398:	00c5c903          	lbu	s2,12(a1)
    239c:	008784b3          	add	s1,a5,s0
    23a0:	009504b3          	add	s1,a0,s1
    23a4:	00778633          	add	a2,a5,t2
    23a8:	01248023          	sb	s2,0(s1)
    23ac:	00c50633          	add	a2,a0,a2
    23b0:	01260023          	sb	s2,0(a2)
    23b4:	00c5c903          	lbu	s2,12(a1)
    23b8:	005784b3          	add	s1,a5,t0
    23bc:	009504b3          	add	s1,a0,s1
    23c0:	01f78633          	add	a2,a5,t6
    23c4:	01248023          	sb	s2,0(s1)
    23c8:	00c50633          	add	a2,a0,a2
    23cc:	01260023          	sb	s2,0(a2)
    23d0:	00c5c903          	lbu	s2,12(a1)
    23d4:	01e784b3          	add	s1,a5,t5
    23d8:	009504b3          	add	s1,a0,s1
    23dc:	01d78633          	add	a2,a5,t4
    23e0:	01248023          	sb	s2,0(s1)
    23e4:	00c50633          	add	a2,a0,a2
    23e8:	01260023          	sb	s2,0(a2)
    23ec:	00c5c483          	lbu	s1,12(a1)
    23f0:	01c78633          	add	a2,a5,t3
    23f4:	00c50633          	add	a2,a0,a2
    23f8:	006787b3          	add	a5,a5,t1
    23fc:	00960023          	sb	s1,0(a2)
    2400:	00f507b3          	add	a5,a0,a5
    2404:	00978023          	sb	s1,0(a5)
    2408:	c31ff06f          	j	2038 <draw_shape+0x6c>

0000240c <draw_next_piece>:
    240c:	000037b7          	lui	a5,0x3
    2410:	fb010113          	addi	sp,sp,-80
    2414:	30b78793          	addi	a5,a5,779 # 330b <update_shape+0x367>
    2418:	00003737          	lui	a4,0x3
    241c:	00003837          	lui	a6,0x3
    2420:	00003637          	lui	a2,0x3
    2424:	00f12623          	sw	a5,12(sp)
    2428:	44470793          	addi	a5,a4,1092 # 3444 <update_shape+0x4a0>
    242c:	20080813          	addi	a6,a6,512 # 3200 <update_shape+0x25c>
    2430:	000038b7          	lui	a7,0x3
    2434:	00f12823          	sw	a5,16(sp)
    2438:	44560793          	addi	a5,a2,1093 # 3445 <update_shape+0x4a1>
    243c:	03512c23          	sw	s5,56(sp)
    2440:	03612a23          	sw	s6,52(sp)
    2444:	03712823          	sw	s7,48(sp)
    2448:	03812623          	sw	s8,44(sp)
    244c:	03912423          	sw	s9,40(sp)
    2450:	03a12223          	sw	s10,36(sp)
    2454:	03b12023          	sw	s11,32(sp)
    2458:	00003d37          	lui	s10,0x3
    245c:	00003db7          	lui	s11,0x3
    2460:	00003cb7          	lui	s9,0x3
    2464:	00003c37          	lui	s8,0x3
    2468:	00003bb7          	lui	s7,0x3
    246c:	00003b37          	lui	s6,0x3
    2470:	00003ab7          	lui	s5,0x3
    2474:	41050533          	sub	a0,a0,a6
    2478:	00f12a23          	sw	a5,20(sp)
    247c:	44688793          	addi	a5,a7,1094 # 3446 <update_shape+0x4a2>
    2480:	04812623          	sw	s0,76(sp)
    2484:	04912423          	sw	s1,72(sp)
    2488:	05212223          	sw	s2,68(sp)
    248c:	05312023          	sw	s3,64(sp)
    2490:	03412e23          	sw	s4,60(sp)
    2494:	01058693          	addi	a3,a1,16
    2498:	304d8d93          	addi	s11,s11,772 # 3304 <update_shape+0x360>
    249c:	305d0d13          	addi	s10,s10,773 # 3305 <update_shape+0x361>
    24a0:	306c8c93          	addi	s9,s9,774 # 3306 <update_shape+0x362>
    24a4:	307c0c13          	addi	s8,s8,775 # 3307 <update_shape+0x363>
    24a8:	308b8b93          	addi	s7,s7,776 # 3308 <update_shape+0x364>
    24ac:	309b0b13          	addi	s6,s6,777 # 3309 <update_shape+0x365>
    24b0:	30aa8a93          	addi	s5,s5,778 # 330a <update_shape+0x366>
    24b4:	00f12c23          	sw	a5,24(sp)
    24b8:	00a12e23          	sw	a0,28(sp)
    24bc:	01c12783          	lw	a5,28(sp)
    24c0:	000039b7          	lui	s3,0x3
    24c4:	00003937          	lui	s2,0x3
    24c8:	000034b7          	lui	s1,0x3
    24cc:	00003437          	lui	s0,0x3
    24d0:	000033b7          	lui	t2,0x3
    24d4:	000032b7          	lui	t0,0x3
    24d8:	00003fb7          	lui	t6,0x3
    24dc:	00003f37          	lui	t5,0x3
    24e0:	00003eb7          	lui	t4,0x3
    24e4:	00003e37          	lui	t3,0x3
    24e8:	00003337          	lui	t1,0x3
    24ec:	000038b7          	lui	a7,0x3
    24f0:	44798993          	addi	s3,s3,1095 # 3447 <update_shape+0x4a3>
    24f4:	ff068713          	addi	a4,a3,-16
    24f8:	010787b3          	add	a5,a5,a6
    24fc:	44890913          	addi	s2,s2,1096 # 3448 <update_shape+0x4a4>
    2500:	44948493          	addi	s1,s1,1097 # 3449 <update_shape+0x4a5>
    2504:	44a40413          	addi	s0,s0,1098 # 344a <update_shape+0x4a6>
    2508:	44b38393          	addi	t2,t2,1099 # 344b <update_shape+0x4a7>
    250c:	58428293          	addi	t0,t0,1412 # 3584 <update_shape+0x5e0>
    2510:	585f8f93          	addi	t6,t6,1413 # 3585 <update_shape+0x5e1>
    2514:	586f0f13          	addi	t5,t5,1414 # 3586 <update_shape+0x5e2>
    2518:	587e8e93          	addi	t4,t4,1415 # 3587 <update_shape+0x5e3>
    251c:	588e0e13          	addi	t3,t3,1416 # 3588 <update_shape+0x5e4>
    2520:	58930313          	addi	t1,t1,1417 # 3589 <update_shape+0x5e5>
    2524:	58a88893          	addi	a7,a7,1418 # 358a <update_shape+0x5e6>
    2528:	00098513          	mv	a0,s3
    252c:	01072603          	lw	a2,16(a4)
    2530:	06061263          	bnez	a2,2594 <draw_next_piece+0x188>
    2534:	00470713          	addi	a4,a4,4
    2538:	00878793          	addi	a5,a5,8
    253c:	fee698e3          	bne	a3,a4,252c <draw_next_piece+0x120>
    2540:	00001737          	lui	a4,0x1
    2544:	a0070713          	addi	a4,a4,-1536 # a00 <is_filled+0xe4>
    2548:	000067b7          	lui	a5,0x6
    254c:	00e80833          	add	a6,a6,a4
    2550:	a0078793          	addi	a5,a5,-1536 # 5a00 <tick+0x840>
    2554:	01068693          	addi	a3,a3,16
    2558:	f6f812e3          	bne	a6,a5,24bc <draw_next_piece+0xb0>
    255c:	04c12403          	lw	s0,76(sp)
    2560:	04812483          	lw	s1,72(sp)
    2564:	04412903          	lw	s2,68(sp)
    2568:	04012983          	lw	s3,64(sp)
    256c:	03c12a03          	lw	s4,60(sp)
    2570:	03812a83          	lw	s5,56(sp)
    2574:	03412b03          	lw	s6,52(sp)
    2578:	03012b83          	lw	s7,48(sp)
    257c:	02c12c03          	lw	s8,44(sp)
    2580:	02812c83          	lw	s9,40(sp)
    2584:	02412d03          	lw	s10,36(sp)
    2588:	02012d83          	lw	s11,32(sp)
    258c:	05010113          	addi	sp,sp,80
    2590:	00008067          	ret
    2594:	00c5ca03          	lbu	s4,12(a1)
    2598:	01b789b3          	add	s3,a5,s11
    259c:	01a78633          	add	a2,a5,s10
    25a0:	01498023          	sb	s4,0(s3)
    25a4:	01460023          	sb	s4,0(a2)
    25a8:	00c5ca03          	lbu	s4,12(a1)
    25ac:	019789b3          	add	s3,a5,s9
    25b0:	01878633          	add	a2,a5,s8
    25b4:	01498023          	sb	s4,0(s3)
    25b8:	01460023          	sb	s4,0(a2)
    25bc:	00c5ca03          	lbu	s4,12(a1)
    25c0:	017789b3          	add	s3,a5,s7
    25c4:	01678633          	add	a2,a5,s6
    25c8:	01498023          	sb	s4,0(s3)
    25cc:	01460023          	sb	s4,0(a2)
    25d0:	00c5ca03          	lbu	s4,12(a1)
    25d4:	00c12603          	lw	a2,12(sp)
    25d8:	015789b3          	add	s3,a5,s5
    25dc:	01498023          	sb	s4,0(s3)
    25e0:	00c78633          	add	a2,a5,a2
    25e4:	01460023          	sb	s4,0(a2)
    25e8:	01012603          	lw	a2,16(sp)
    25ec:	00c5ca03          	lbu	s4,12(a1)
    25f0:	00c789b3          	add	s3,a5,a2
    25f4:	01412603          	lw	a2,20(sp)
    25f8:	01498023          	sb	s4,0(s3)
    25fc:	00c78633          	add	a2,a5,a2
    2600:	01460023          	sb	s4,0(a2)
    2604:	01812603          	lw	a2,24(sp)
    2608:	00c5ca03          	lbu	s4,12(a1)
    260c:	00c789b3          	add	s3,a5,a2
    2610:	01498023          	sb	s4,0(s3)
    2614:	00a78633          	add	a2,a5,a0
    2618:	01460023          	sb	s4,0(a2)
    261c:	00c5ca03          	lbu	s4,12(a1)
    2620:	012789b3          	add	s3,a5,s2
    2624:	00978633          	add	a2,a5,s1
    2628:	01498023          	sb	s4,0(s3)
    262c:	01460023          	sb	s4,0(a2)
    2630:	00c5ca03          	lbu	s4,12(a1)
    2634:	008789b3          	add	s3,a5,s0
    2638:	00778633          	add	a2,a5,t2
    263c:	01498023          	sb	s4,0(s3)
    2640:	01460023          	sb	s4,0(a2)
    2644:	00c5ca03          	lbu	s4,12(a1)
    2648:	005789b3          	add	s3,a5,t0
    264c:	01f78633          	add	a2,a5,t6
    2650:	01498023          	sb	s4,0(s3)
    2654:	01460023          	sb	s4,0(a2)
    2658:	00c5ca03          	lbu	s4,12(a1)
    265c:	01e789b3          	add	s3,a5,t5
    2660:	01d78633          	add	a2,a5,t4
    2664:	01498023          	sb	s4,0(s3)
    2668:	01460023          	sb	s4,0(a2)
    266c:	00c5ca03          	lbu	s4,12(a1)
    2670:	01c789b3          	add	s3,a5,t3
    2674:	00678633          	add	a2,a5,t1
    2678:	01498023          	sb	s4,0(s3)
    267c:	01460023          	sb	s4,0(a2)
    2680:	00c5ca03          	lbu	s4,12(a1)
    2684:	00003637          	lui	a2,0x3
    2688:	011789b3          	add	s3,a5,a7
    268c:	58b60613          	addi	a2,a2,1419 # 358b <update_shape+0x5e7>
    2690:	01498023          	sb	s4,0(s3)
    2694:	00c78633          	add	a2,a5,a2
    2698:	01460023          	sb	s4,0(a2)
    269c:	00c5ca03          	lbu	s4,12(a1)
    26a0:	000039b7          	lui	s3,0x3
    26a4:	6c498993          	addi	s3,s3,1732 # 36c4 <collision+0xd0>
    26a8:	00003637          	lui	a2,0x3
    26ac:	013789b3          	add	s3,a5,s3
    26b0:	6c560613          	addi	a2,a2,1733 # 36c5 <collision+0xd1>
    26b4:	01498023          	sb	s4,0(s3)
    26b8:	00c78633          	add	a2,a5,a2
    26bc:	01460023          	sb	s4,0(a2)
    26c0:	00c5ca03          	lbu	s4,12(a1)
    26c4:	000039b7          	lui	s3,0x3
    26c8:	6c698993          	addi	s3,s3,1734 # 36c6 <collision+0xd2>
    26cc:	00003637          	lui	a2,0x3
    26d0:	013789b3          	add	s3,a5,s3
    26d4:	6c760613          	addi	a2,a2,1735 # 36c7 <collision+0xd3>
    26d8:	01498023          	sb	s4,0(s3)
    26dc:	00c78633          	add	a2,a5,a2
    26e0:	01460023          	sb	s4,0(a2)
    26e4:	00c5ca03          	lbu	s4,12(a1)
    26e8:	000039b7          	lui	s3,0x3
    26ec:	6c898993          	addi	s3,s3,1736 # 36c8 <collision+0xd4>
    26f0:	00003637          	lui	a2,0x3
    26f4:	013789b3          	add	s3,a5,s3
    26f8:	6c960613          	addi	a2,a2,1737 # 36c9 <collision+0xd5>
    26fc:	01498023          	sb	s4,0(s3)
    2700:	00c78633          	add	a2,a5,a2
    2704:	01460023          	sb	s4,0(a2)
    2708:	00c5ca03          	lbu	s4,12(a1)
    270c:	000039b7          	lui	s3,0x3
    2710:	6ca98993          	addi	s3,s3,1738 # 36ca <collision+0xd6>
    2714:	00003637          	lui	a2,0x3
    2718:	013789b3          	add	s3,a5,s3
    271c:	6cb60613          	addi	a2,a2,1739 # 36cb <collision+0xd7>
    2720:	01498023          	sb	s4,0(s3)
    2724:	00c78633          	add	a2,a5,a2
    2728:	01460023          	sb	s4,0(a2)
    272c:	00c5ca03          	lbu	s4,12(a1)
    2730:	000049b7          	lui	s3,0x4
    2734:	80498993          	addi	s3,s3,-2044 # 3804 <collision+0x210>
    2738:	00004637          	lui	a2,0x4
    273c:	013789b3          	add	s3,a5,s3
    2740:	80560613          	addi	a2,a2,-2043 # 3805 <collision+0x211>
    2744:	01498023          	sb	s4,0(s3)
    2748:	00c78633          	add	a2,a5,a2
    274c:	01460023          	sb	s4,0(a2)
    2750:	00c5ca03          	lbu	s4,12(a1)
    2754:	000049b7          	lui	s3,0x4
    2758:	80698993          	addi	s3,s3,-2042 # 3806 <collision+0x212>
    275c:	00004637          	lui	a2,0x4
    2760:	013789b3          	add	s3,a5,s3
    2764:	80760613          	addi	a2,a2,-2041 # 3807 <collision+0x213>
    2768:	01498023          	sb	s4,0(s3)
    276c:	00c78633          	add	a2,a5,a2
    2770:	01460023          	sb	s4,0(a2)
    2774:	00c5ca03          	lbu	s4,12(a1)
    2778:	000049b7          	lui	s3,0x4
    277c:	80898993          	addi	s3,s3,-2040 # 3808 <collision+0x214>
    2780:	00004637          	lui	a2,0x4
    2784:	013789b3          	add	s3,a5,s3
    2788:	80960613          	addi	a2,a2,-2039 # 3809 <collision+0x215>
    278c:	01498023          	sb	s4,0(s3)
    2790:	00c78633          	add	a2,a5,a2
    2794:	01460023          	sb	s4,0(a2)
    2798:	00c5ca03          	lbu	s4,12(a1)
    279c:	000049b7          	lui	s3,0x4
    27a0:	80a98993          	addi	s3,s3,-2038 # 380a <collision+0x216>
    27a4:	00004637          	lui	a2,0x4
    27a8:	013789b3          	add	s3,a5,s3
    27ac:	80b60613          	addi	a2,a2,-2037 # 380b <collision+0x217>
    27b0:	01498023          	sb	s4,0(s3)
    27b4:	00c78633          	add	a2,a5,a2
    27b8:	01460023          	sb	s4,0(a2)
    27bc:	00c5ca03          	lbu	s4,12(a1)
    27c0:	000049b7          	lui	s3,0x4
    27c4:	00004637          	lui	a2,0x4
    27c8:	94498993          	addi	s3,s3,-1724 # 3944 <collision+0x350>
    27cc:	94560613          	addi	a2,a2,-1723 # 3945 <collision+0x351>
    27d0:	013789b3          	add	s3,a5,s3
    27d4:	00c78633          	add	a2,a5,a2
    27d8:	01498023          	sb	s4,0(s3)
    27dc:	01460023          	sb	s4,0(a2)
    27e0:	00c5ca03          	lbu	s4,12(a1)
    27e4:	000049b7          	lui	s3,0x4
    27e8:	94698993          	addi	s3,s3,-1722 # 3946 <collision+0x352>
    27ec:	00004637          	lui	a2,0x4
    27f0:	013789b3          	add	s3,a5,s3
    27f4:	94760613          	addi	a2,a2,-1721 # 3947 <collision+0x353>
    27f8:	01498023          	sb	s4,0(s3)
    27fc:	00c78633          	add	a2,a5,a2
    2800:	01460023          	sb	s4,0(a2)
    2804:	00c5ca03          	lbu	s4,12(a1)
    2808:	000049b7          	lui	s3,0x4
    280c:	94898993          	addi	s3,s3,-1720 # 3948 <collision+0x354>
    2810:	00004637          	lui	a2,0x4
    2814:	013789b3          	add	s3,a5,s3
    2818:	94960613          	addi	a2,a2,-1719 # 3949 <collision+0x355>
    281c:	01498023          	sb	s4,0(s3)
    2820:	00c78633          	add	a2,a5,a2
    2824:	01460023          	sb	s4,0(a2)
    2828:	00c5ca03          	lbu	s4,12(a1)
    282c:	000049b7          	lui	s3,0x4
    2830:	94a98993          	addi	s3,s3,-1718 # 394a <collision+0x356>
    2834:	00004637          	lui	a2,0x4
    2838:	013789b3          	add	s3,a5,s3
    283c:	94b60613          	addi	a2,a2,-1717 # 394b <collision+0x357>
    2840:	01498023          	sb	s4,0(s3)
    2844:	00c78633          	add	a2,a5,a2
    2848:	01460023          	sb	s4,0(a2)
    284c:	00c5ca03          	lbu	s4,12(a1)
    2850:	000049b7          	lui	s3,0x4
    2854:	a8498993          	addi	s3,s3,-1404 # 3a84 <collision+0x490>
    2858:	00004637          	lui	a2,0x4
    285c:	013789b3          	add	s3,a5,s3
    2860:	a8560613          	addi	a2,a2,-1403 # 3a85 <collision+0x491>
    2864:	01498023          	sb	s4,0(s3)
    2868:	00c78633          	add	a2,a5,a2
    286c:	01460023          	sb	s4,0(a2)
    2870:	00c5ca03          	lbu	s4,12(a1)
    2874:	000049b7          	lui	s3,0x4
    2878:	a8698993          	addi	s3,s3,-1402 # 3a86 <collision+0x492>
    287c:	00004637          	lui	a2,0x4
    2880:	013789b3          	add	s3,a5,s3
    2884:	a8760613          	addi	a2,a2,-1401 # 3a87 <collision+0x493>
    2888:	01498023          	sb	s4,0(s3)
    288c:	00c78633          	add	a2,a5,a2
    2890:	01460023          	sb	s4,0(a2)
    2894:	00c5ca03          	lbu	s4,12(a1)
    2898:	000049b7          	lui	s3,0x4
    289c:	a8898993          	addi	s3,s3,-1400 # 3a88 <collision+0x494>
    28a0:	00004637          	lui	a2,0x4
    28a4:	013789b3          	add	s3,a5,s3
    28a8:	a8960613          	addi	a2,a2,-1399 # 3a89 <collision+0x495>
    28ac:	01498023          	sb	s4,0(s3)
    28b0:	00c78633          	add	a2,a5,a2
    28b4:	01460023          	sb	s4,0(a2)
    28b8:	00c5ca03          	lbu	s4,12(a1)
    28bc:	000049b7          	lui	s3,0x4
    28c0:	a8a98993          	addi	s3,s3,-1398 # 3a8a <collision+0x496>
    28c4:	00004637          	lui	a2,0x4
    28c8:	013789b3          	add	s3,a5,s3
    28cc:	a8b60613          	addi	a2,a2,-1397 # 3a8b <collision+0x497>
    28d0:	01498023          	sb	s4,0(s3)
    28d4:	00c78633          	add	a2,a5,a2
    28d8:	01460023          	sb	s4,0(a2)
    28dc:	00c5ca03          	lbu	s4,12(a1)
    28e0:	000049b7          	lui	s3,0x4
    28e4:	bc498993          	addi	s3,s3,-1084 # 3bc4 <rotate_piece+0x94>
    28e8:	00004637          	lui	a2,0x4
    28ec:	013789b3          	add	s3,a5,s3
    28f0:	bc560613          	addi	a2,a2,-1083 # 3bc5 <rotate_piece+0x95>
    28f4:	01498023          	sb	s4,0(s3)
    28f8:	00c78633          	add	a2,a5,a2
    28fc:	01460023          	sb	s4,0(a2)
    2900:	00c5ca03          	lbu	s4,12(a1)
    2904:	000049b7          	lui	s3,0x4
    2908:	bc698993          	addi	s3,s3,-1082 # 3bc6 <rotate_piece+0x96>
    290c:	00004637          	lui	a2,0x4
    2910:	013789b3          	add	s3,a5,s3
    2914:	bc760613          	addi	a2,a2,-1081 # 3bc7 <rotate_piece+0x97>
    2918:	01498023          	sb	s4,0(s3)
    291c:	00c78633          	add	a2,a5,a2
    2920:	01460023          	sb	s4,0(a2)
    2924:	00c5ca03          	lbu	s4,12(a1)
    2928:	000049b7          	lui	s3,0x4
    292c:	bc898993          	addi	s3,s3,-1080 # 3bc8 <rotate_piece+0x98>
    2930:	00004637          	lui	a2,0x4
    2934:	013789b3          	add	s3,a5,s3
    2938:	bc960613          	addi	a2,a2,-1079 # 3bc9 <rotate_piece+0x99>
    293c:	01498023          	sb	s4,0(s3)
    2940:	00c78633          	add	a2,a5,a2
    2944:	01460023          	sb	s4,0(a2)
    2948:	00c5ca03          	lbu	s4,12(a1)
    294c:	000049b7          	lui	s3,0x4
    2950:	00004637          	lui	a2,0x4
    2954:	bca98993          	addi	s3,s3,-1078 # 3bca <rotate_piece+0x9a>
    2958:	bcb60613          	addi	a2,a2,-1077 # 3bcb <rotate_piece+0x9b>
    295c:	013789b3          	add	s3,a5,s3
    2960:	00c78633          	add	a2,a5,a2
    2964:	01498023          	sb	s4,0(s3)
    2968:	01460023          	sb	s4,0(a2)
    296c:	bc9ff06f          	j	2534 <draw_next_piece+0x128>

00002970 <clear_next_shape>:
    2970:	000037b7          	lui	a5,0x3
    2974:	fb010113          	addi	sp,sp,-80
    2978:	30b78793          	addi	a5,a5,779 # 330b <update_shape+0x367>
    297c:	00003737          	lui	a4,0x3
    2980:	00003837          	lui	a6,0x3
    2984:	00003637          	lui	a2,0x3
    2988:	00f12623          	sw	a5,12(sp)
    298c:	44470793          	addi	a5,a4,1092 # 3444 <update_shape+0x4a0>
    2990:	20080813          	addi	a6,a6,512 # 3200 <update_shape+0x25c>
    2994:	000038b7          	lui	a7,0x3
    2998:	00f12823          	sw	a5,16(sp)
    299c:	44560793          	addi	a5,a2,1093 # 3445 <update_shape+0x4a1>
    29a0:	03412e23          	sw	s4,60(sp)
    29a4:	03512c23          	sw	s5,56(sp)
    29a8:	03612a23          	sw	s6,52(sp)
    29ac:	03712823          	sw	s7,48(sp)
    29b0:	03812623          	sw	s8,44(sp)
    29b4:	03912423          	sw	s9,40(sp)
    29b8:	03a12223          	sw	s10,36(sp)
    29bc:	00003cb7          	lui	s9,0x3
    29c0:	00003d37          	lui	s10,0x3
    29c4:	00003c37          	lui	s8,0x3
    29c8:	00003bb7          	lui	s7,0x3
    29cc:	00003b37          	lui	s6,0x3
    29d0:	00003ab7          	lui	s5,0x3
    29d4:	00003a37          	lui	s4,0x3
    29d8:	01058693          	addi	a3,a1,16
    29dc:	00f12a23          	sw	a5,20(sp)
    29e0:	410505b3          	sub	a1,a0,a6
    29e4:	44688793          	addi	a5,a7,1094 # 3446 <update_shape+0x4a2>
    29e8:	04812623          	sw	s0,76(sp)
    29ec:	04912423          	sw	s1,72(sp)
    29f0:	05212223          	sw	s2,68(sp)
    29f4:	05312023          	sw	s3,64(sp)
    29f8:	03b12023          	sw	s11,32(sp)
    29fc:	304d0d13          	addi	s10,s10,772 # 3304 <update_shape+0x360>
    2a00:	305c8c93          	addi	s9,s9,773 # 3305 <update_shape+0x361>
    2a04:	306c0c13          	addi	s8,s8,774 # 3306 <update_shape+0x362>
    2a08:	307b8b93          	addi	s7,s7,775 # 3307 <update_shape+0x363>
    2a0c:	308b0b13          	addi	s6,s6,776 # 3308 <update_shape+0x364>
    2a10:	309a8a93          	addi	s5,s5,777 # 3309 <update_shape+0x365>
    2a14:	30aa0a13          	addi	s4,s4,778 # 330a <update_shape+0x366>
    2a18:	00f12c23          	sw	a5,24(sp)
    2a1c:	00b12e23          	sw	a1,28(sp)
    2a20:	01c12783          	lw	a5,28(sp)
    2a24:	000039b7          	lui	s3,0x3
    2a28:	00003937          	lui	s2,0x3
    2a2c:	000034b7          	lui	s1,0x3
    2a30:	00003437          	lui	s0,0x3
    2a34:	000033b7          	lui	t2,0x3
    2a38:	000032b7          	lui	t0,0x3
    2a3c:	00003fb7          	lui	t6,0x3
    2a40:	00003f37          	lui	t5,0x3
    2a44:	00003eb7          	lui	t4,0x3
    2a48:	00003e37          	lui	t3,0x3
    2a4c:	00003337          	lui	t1,0x3
    2a50:	000038b7          	lui	a7,0x3
    2a54:	44798993          	addi	s3,s3,1095 # 3447 <update_shape+0x4a3>
    2a58:	ff068713          	addi	a4,a3,-16
    2a5c:	010787b3          	add	a5,a5,a6
    2a60:	44890913          	addi	s2,s2,1096 # 3448 <update_shape+0x4a4>
    2a64:	44948493          	addi	s1,s1,1097 # 3449 <update_shape+0x4a5>
    2a68:	44a40413          	addi	s0,s0,1098 # 344a <update_shape+0x4a6>
    2a6c:	44b38393          	addi	t2,t2,1099 # 344b <update_shape+0x4a7>
    2a70:	58428293          	addi	t0,t0,1412 # 3584 <update_shape+0x5e0>
    2a74:	585f8f93          	addi	t6,t6,1413 # 3585 <update_shape+0x5e1>
    2a78:	586f0f13          	addi	t5,t5,1414 # 3586 <update_shape+0x5e2>
    2a7c:	587e8e93          	addi	t4,t4,1415 # 3587 <update_shape+0x5e3>
    2a80:	588e0e13          	addi	t3,t3,1416 # 3588 <update_shape+0x5e4>
    2a84:	58930313          	addi	t1,t1,1417 # 3589 <update_shape+0x5e5>
    2a88:	58a88893          	addi	a7,a7,1418 # 358a <update_shape+0x5e6>
    2a8c:	00098593          	mv	a1,s3
    2a90:	01072603          	lw	a2,16(a4)
    2a94:	06061263          	bnez	a2,2af8 <clear_next_shape+0x188>
    2a98:	00470713          	addi	a4,a4,4
    2a9c:	00878793          	addi	a5,a5,8
    2aa0:	fee698e3          	bne	a3,a4,2a90 <clear_next_shape+0x120>
    2aa4:	00001737          	lui	a4,0x1
    2aa8:	a0070713          	addi	a4,a4,-1536 # a00 <is_filled+0xe4>
    2aac:	000067b7          	lui	a5,0x6
    2ab0:	00e80833          	add	a6,a6,a4
    2ab4:	a0078793          	addi	a5,a5,-1536 # 5a00 <tick+0x840>
    2ab8:	01068693          	addi	a3,a3,16
    2abc:	f6f812e3          	bne	a6,a5,2a20 <clear_next_shape+0xb0>
    2ac0:	04c12403          	lw	s0,76(sp)
    2ac4:	04812483          	lw	s1,72(sp)
    2ac8:	04412903          	lw	s2,68(sp)
    2acc:	04012983          	lw	s3,64(sp)
    2ad0:	03c12a03          	lw	s4,60(sp)
    2ad4:	03812a83          	lw	s5,56(sp)
    2ad8:	03412b03          	lw	s6,52(sp)
    2adc:	03012b83          	lw	s7,48(sp)
    2ae0:	02c12c03          	lw	s8,44(sp)
    2ae4:	02812c83          	lw	s9,40(sp)
    2ae8:	02412d03          	lw	s10,36(sp)
    2aec:	02012d83          	lw	s11,32(sp)
    2af0:	05010113          	addi	sp,sp,80
    2af4:	00008067          	ret
    2af8:	01a78633          	add	a2,a5,s10
    2afc:	00060023          	sb	zero,0(a2)
    2b00:	01978633          	add	a2,a5,s9
    2b04:	00060023          	sb	zero,0(a2)
    2b08:	01878633          	add	a2,a5,s8
    2b0c:	00060023          	sb	zero,0(a2)
    2b10:	01778633          	add	a2,a5,s7
    2b14:	00060023          	sb	zero,0(a2)
    2b18:	01678633          	add	a2,a5,s6
    2b1c:	00060023          	sb	zero,0(a2)
    2b20:	01578633          	add	a2,a5,s5
    2b24:	00060023          	sb	zero,0(a2)
    2b28:	01478633          	add	a2,a5,s4
    2b2c:	00060023          	sb	zero,0(a2)
    2b30:	00c12603          	lw	a2,12(sp)
    2b34:	00678533          	add	a0,a5,t1
    2b38:	011789b3          	add	s3,a5,a7
    2b3c:	00c78633          	add	a2,a5,a2
    2b40:	00060023          	sb	zero,0(a2)
    2b44:	01012603          	lw	a2,16(sp)
    2b48:	00003db7          	lui	s11,0x3
    2b4c:	6cad8d93          	addi	s11,s11,1738 # 36ca <collision+0xd6>
    2b50:	00c78633          	add	a2,a5,a2
    2b54:	00060023          	sb	zero,0(a2)
    2b58:	01412603          	lw	a2,20(sp)
    2b5c:	01b78db3          	add	s11,a5,s11
    2b60:	00c78633          	add	a2,a5,a2
    2b64:	00060023          	sb	zero,0(a2)
    2b68:	01812603          	lw	a2,24(sp)
    2b6c:	00c78633          	add	a2,a5,a2
    2b70:	00060023          	sb	zero,0(a2)
    2b74:	00b78633          	add	a2,a5,a1
    2b78:	00060023          	sb	zero,0(a2)
    2b7c:	01278633          	add	a2,a5,s2
    2b80:	00060023          	sb	zero,0(a2)
    2b84:	00978633          	add	a2,a5,s1
    2b88:	00060023          	sb	zero,0(a2)
    2b8c:	00878633          	add	a2,a5,s0
    2b90:	00060023          	sb	zero,0(a2)
    2b94:	00778633          	add	a2,a5,t2
    2b98:	00060023          	sb	zero,0(a2)
    2b9c:	00578633          	add	a2,a5,t0
    2ba0:	00060023          	sb	zero,0(a2)
    2ba4:	01f78633          	add	a2,a5,t6
    2ba8:	00060023          	sb	zero,0(a2)
    2bac:	01e78633          	add	a2,a5,t5
    2bb0:	00060023          	sb	zero,0(a2)
    2bb4:	01d78633          	add	a2,a5,t4
    2bb8:	00060023          	sb	zero,0(a2)
    2bbc:	01c78633          	add	a2,a5,t3
    2bc0:	00060023          	sb	zero,0(a2)
    2bc4:	00003637          	lui	a2,0x3
    2bc8:	00050023          	sb	zero,0(a0)
    2bcc:	58b60613          	addi	a2,a2,1419 # 358b <update_shape+0x5e7>
    2bd0:	00003537          	lui	a0,0x3
    2bd4:	00098023          	sb	zero,0(s3)
    2bd8:	6c450513          	addi	a0,a0,1732 # 36c4 <collision+0xd0>
    2bdc:	00c789b3          	add	s3,a5,a2
    2be0:	00003637          	lui	a2,0x3
    2be4:	00098023          	sb	zero,0(s3)
    2be8:	6c560613          	addi	a2,a2,1733 # 36c5 <collision+0xd1>
    2bec:	00a789b3          	add	s3,a5,a0
    2bf0:	00003537          	lui	a0,0x3
    2bf4:	00098023          	sb	zero,0(s3)
    2bf8:	6c650513          	addi	a0,a0,1734 # 36c6 <collision+0xd2>
    2bfc:	00c789b3          	add	s3,a5,a2
    2c00:	00003637          	lui	a2,0x3
    2c04:	00098023          	sb	zero,0(s3)
    2c08:	6c760613          	addi	a2,a2,1735 # 36c7 <collision+0xd3>
    2c0c:	00a789b3          	add	s3,a5,a0
    2c10:	00003537          	lui	a0,0x3
    2c14:	00098023          	sb	zero,0(s3)
    2c18:	6c850513          	addi	a0,a0,1736 # 36c8 <collision+0xd4>
    2c1c:	00c789b3          	add	s3,a5,a2
    2c20:	00003637          	lui	a2,0x3
    2c24:	00098023          	sb	zero,0(s3)
    2c28:	00a78533          	add	a0,a5,a0
    2c2c:	6c960613          	addi	a2,a2,1737 # 36c9 <collision+0xd5>
    2c30:	00050023          	sb	zero,0(a0)
    2c34:	00c78633          	add	a2,a5,a2
    2c38:	00003537          	lui	a0,0x3
    2c3c:	00060023          	sb	zero,0(a2)
    2c40:	6cb50513          	addi	a0,a0,1739 # 36cb <collision+0xd7>
    2c44:	000049b7          	lui	s3,0x4
    2c48:	000d8023          	sb	zero,0(s11)
    2c4c:	00004637          	lui	a2,0x4
    2c50:	00a78db3          	add	s11,a5,a0
    2c54:	80498993          	addi	s3,s3,-2044 # 3804 <collision+0x210>
    2c58:	000d8023          	sb	zero,0(s11)
    2c5c:	80560613          	addi	a2,a2,-2043 # 3805 <collision+0x211>
    2c60:	013789b3          	add	s3,a5,s3
    2c64:	00004537          	lui	a0,0x4
    2c68:	00098023          	sb	zero,0(s3)
    2c6c:	00c78db3          	add	s11,a5,a2
    2c70:	80650513          	addi	a0,a0,-2042 # 3806 <collision+0x212>
    2c74:	00004637          	lui	a2,0x4
    2c78:	000d8023          	sb	zero,0(s11)
    2c7c:	00a78533          	add	a0,a5,a0
    2c80:	80760613          	addi	a2,a2,-2041 # 3807 <collision+0x213>
    2c84:	000049b7          	lui	s3,0x4
    2c88:	00050023          	sb	zero,0(a0)
    2c8c:	00c78633          	add	a2,a5,a2
    2c90:	80898993          	addi	s3,s3,-2040 # 3808 <collision+0x214>
    2c94:	00004db7          	lui	s11,0x4
    2c98:	00060023          	sb	zero,0(a2)
    2c9c:	013789b3          	add	s3,a5,s3
    2ca0:	809d8d93          	addi	s11,s11,-2039 # 3809 <collision+0x215>
    2ca4:	00004537          	lui	a0,0x4
    2ca8:	00098023          	sb	zero,0(s3)
    2cac:	80a50513          	addi	a0,a0,-2038 # 380a <collision+0x216>
    2cb0:	01b78db3          	add	s11,a5,s11
    2cb4:	00004637          	lui	a2,0x4
    2cb8:	000d8023          	sb	zero,0(s11)
    2cbc:	00a789b3          	add	s3,a5,a0
    2cc0:	80b60613          	addi	a2,a2,-2037 # 380b <collision+0x217>
    2cc4:	00004537          	lui	a0,0x4
    2cc8:	00098023          	sb	zero,0(s3)
    2ccc:	94450513          	addi	a0,a0,-1724 # 3944 <collision+0x350>
    2cd0:	00c789b3          	add	s3,a5,a2
    2cd4:	00004637          	lui	a2,0x4
    2cd8:	00098023          	sb	zero,0(s3)
    2cdc:	94560613          	addi	a2,a2,-1723 # 3945 <collision+0x351>
    2ce0:	00a789b3          	add	s3,a5,a0
    2ce4:	00004537          	lui	a0,0x4
    2ce8:	00098023          	sb	zero,0(s3)
    2cec:	94650513          	addi	a0,a0,-1722 # 3946 <collision+0x352>
    2cf0:	00c789b3          	add	s3,a5,a2
    2cf4:	00004637          	lui	a2,0x4
    2cf8:	00098023          	sb	zero,0(s3)
    2cfc:	94760613          	addi	a2,a2,-1721 # 3947 <collision+0x353>
    2d00:	00a789b3          	add	s3,a5,a0
    2d04:	00004537          	lui	a0,0x4
    2d08:	00098023          	sb	zero,0(s3)
    2d0c:	94850513          	addi	a0,a0,-1720 # 3948 <collision+0x354>
    2d10:	00c789b3          	add	s3,a5,a2
    2d14:	00004637          	lui	a2,0x4
    2d18:	00098023          	sb	zero,0(s3)
    2d1c:	94960613          	addi	a2,a2,-1719 # 3949 <collision+0x355>
    2d20:	00a789b3          	add	s3,a5,a0
    2d24:	00004537          	lui	a0,0x4
    2d28:	00098023          	sb	zero,0(s3)
    2d2c:	94a50513          	addi	a0,a0,-1718 # 394a <collision+0x356>
    2d30:	00c789b3          	add	s3,a5,a2
    2d34:	00004637          	lui	a2,0x4
    2d38:	00098023          	sb	zero,0(s3)
    2d3c:	94b60613          	addi	a2,a2,-1717 # 394b <collision+0x357>
    2d40:	00a789b3          	add	s3,a5,a0
    2d44:	00004537          	lui	a0,0x4
    2d48:	00098023          	sb	zero,0(s3)
    2d4c:	a8450513          	addi	a0,a0,-1404 # 3a84 <collision+0x490>
    2d50:	00c789b3          	add	s3,a5,a2
    2d54:	00004637          	lui	a2,0x4
    2d58:	00098023          	sb	zero,0(s3)
    2d5c:	a8560613          	addi	a2,a2,-1403 # 3a85 <collision+0x491>
    2d60:	00a789b3          	add	s3,a5,a0
    2d64:	00004537          	lui	a0,0x4
    2d68:	00098023          	sb	zero,0(s3)
    2d6c:	a8650513          	addi	a0,a0,-1402 # 3a86 <collision+0x492>
    2d70:	00c789b3          	add	s3,a5,a2
    2d74:	00004637          	lui	a2,0x4
    2d78:	00098023          	sb	zero,0(s3)
    2d7c:	a8760613          	addi	a2,a2,-1401 # 3a87 <collision+0x493>
    2d80:	00a789b3          	add	s3,a5,a0
    2d84:	00004537          	lui	a0,0x4
    2d88:	00098023          	sb	zero,0(s3)
    2d8c:	a8850513          	addi	a0,a0,-1400 # 3a88 <collision+0x494>
    2d90:	00c789b3          	add	s3,a5,a2
    2d94:	00004637          	lui	a2,0x4
    2d98:	00098023          	sb	zero,0(s3)
    2d9c:	a8960613          	addi	a2,a2,-1399 # 3a89 <collision+0x495>
    2da0:	00a789b3          	add	s3,a5,a0
    2da4:	00004537          	lui	a0,0x4
    2da8:	00098023          	sb	zero,0(s3)
    2dac:	a8a50513          	addi	a0,a0,-1398 # 3a8a <collision+0x496>
    2db0:	00c789b3          	add	s3,a5,a2
    2db4:	00004637          	lui	a2,0x4
    2db8:	00098023          	sb	zero,0(s3)
    2dbc:	a8b60613          	addi	a2,a2,-1397 # 3a8b <collision+0x497>
    2dc0:	00a789b3          	add	s3,a5,a0
    2dc4:	00004537          	lui	a0,0x4
    2dc8:	00098023          	sb	zero,0(s3)
    2dcc:	bc450513          	addi	a0,a0,-1084 # 3bc4 <rotate_piece+0x94>
    2dd0:	00c789b3          	add	s3,a5,a2
    2dd4:	00004637          	lui	a2,0x4
    2dd8:	00098023          	sb	zero,0(s3)
    2ddc:	bc560613          	addi	a2,a2,-1083 # 3bc5 <rotate_piece+0x95>
    2de0:	00a789b3          	add	s3,a5,a0
    2de4:	00004537          	lui	a0,0x4
    2de8:	00098023          	sb	zero,0(s3)
    2dec:	bc650513          	addi	a0,a0,-1082 # 3bc6 <rotate_piece+0x96>
    2df0:	00c789b3          	add	s3,a5,a2
    2df4:	00004637          	lui	a2,0x4
    2df8:	00098023          	sb	zero,0(s3)
    2dfc:	bc760613          	addi	a2,a2,-1081 # 3bc7 <rotate_piece+0x97>
    2e00:	00a789b3          	add	s3,a5,a0
    2e04:	00004537          	lui	a0,0x4
    2e08:	00098023          	sb	zero,0(s3)
    2e0c:	bc850513          	addi	a0,a0,-1080 # 3bc8 <rotate_piece+0x98>
    2e10:	00c789b3          	add	s3,a5,a2
    2e14:	00004637          	lui	a2,0x4
    2e18:	00098023          	sb	zero,0(s3)
    2e1c:	bc960613          	addi	a2,a2,-1079 # 3bc9 <rotate_piece+0x99>
    2e20:	00a789b3          	add	s3,a5,a0
    2e24:	00004537          	lui	a0,0x4
    2e28:	00098023          	sb	zero,0(s3)
    2e2c:	bca50513          	addi	a0,a0,-1078 # 3bca <rotate_piece+0x9a>
    2e30:	00c789b3          	add	s3,a5,a2
    2e34:	00004637          	lui	a2,0x4
    2e38:	00a78533          	add	a0,a5,a0
    2e3c:	bcb60613          	addi	a2,a2,-1077 # 3bcb <rotate_piece+0x9b>
    2e40:	00098023          	sb	zero,0(s3)
    2e44:	00c78633          	add	a2,a5,a2
    2e48:	00050023          	sb	zero,0(a0)
    2e4c:	00060023          	sb	zero,0(a2)
    2e50:	c49ff06f          	j	2a98 <clear_next_shape+0x128>

00002e54 <update_cell>:
    2e54:	00550693          	addi	a3,a0,5
    2e58:	00269793          	slli	a5,a3,0x2
    2e5c:	00007737          	lui	a4,0x7
    2e60:	00d787b3          	add	a5,a5,a3
    2e64:	00f58593          	addi	a1,a1,15
    2e68:	14872683          	lw	a3,328(a4) # 7148 <VGA>
    2e6c:	00679793          	slli	a5,a5,0x6
    2e70:	00b787b3          	add	a5,a5,a1
    2e74:	00379793          	slli	a5,a5,0x3
    2e78:	00f686b3          	add	a3,a3,a5
    2e7c:	01200593          	li	a1,18
    2e80:	00b68023          	sb	a1,0(a3)
    2e84:	14872683          	lw	a3,328(a4)
    2e88:	00178513          	addi	a0,a5,1
    2e8c:	00000e13          	li	t3,0
    2e90:	00a686b3          	add	a3,a3,a0
    2e94:	00b68023          	sb	a1,0(a3)
    2e98:	00278793          	addi	a5,a5,2
    2e9c:	01200693          	li	a3,18
    2ea0:	00700e93          	li	t4,7
    2ea4:	14872583          	lw	a1,328(a4)
    2ea8:	00178513          	addi	a0,a5,1
    2eac:	00278313          	addi	t1,a5,2
    2eb0:	00f585b3          	add	a1,a1,a5
    2eb4:	00d58023          	sb	a3,0(a1)
    2eb8:	14872583          	lw	a1,328(a4)
    2ebc:	00378893          	addi	a7,a5,3
    2ec0:	00478813          	addi	a6,a5,4
    2ec4:	00a585b3          	add	a1,a1,a0
    2ec8:	00d58023          	sb	a3,0(a1)
    2ecc:	14872583          	lw	a1,328(a4)
    2ed0:	00578513          	addi	a0,a5,5
    2ed4:	14078793          	addi	a5,a5,320
    2ed8:	006585b3          	add	a1,a1,t1
    2edc:	00d58023          	sb	a3,0(a1)
    2ee0:	14872583          	lw	a1,328(a4)
    2ee4:	011585b3          	add	a1,a1,a7
    2ee8:	00d58023          	sb	a3,0(a1)
    2eec:	14872583          	lw	a1,328(a4)
    2ef0:	010585b3          	add	a1,a1,a6
    2ef4:	00d58023          	sb	a3,0(a1)
    2ef8:	14872583          	lw	a1,328(a4)
    2efc:	00a585b3          	add	a1,a1,a0
    2f00:	00d58023          	sb	a3,0(a1)
    2f04:	09de0e63          	beq	t3,t4,2fa0 <update_cell+0x14c>
    2f08:	00100e13          	li	t3,1
    2f0c:	14872583          	lw	a1,328(a4)
    2f10:	ffe78513          	addi	a0,a5,-2
    2f14:	00178f93          	addi	t6,a5,1
    2f18:	00a585b3          	add	a1,a1,a0
    2f1c:	00d58023          	sb	a3,0(a1)
    2f20:	14872583          	lw	a1,328(a4)
    2f24:	fff78513          	addi	a0,a5,-1
    2f28:	00278f13          	addi	t5,a5,2
    2f2c:	00378313          	addi	t1,a5,3
    2f30:	00478893          	addi	a7,a5,4
    2f34:	00578813          	addi	a6,a5,5
    2f38:	00a585b3          	add	a1,a1,a0
    2f3c:	05de0e63          	beq	t3,t4,2f98 <update_cell+0x144>
    2f40:	00c58023          	sb	a2,0(a1)
    2f44:	14872583          	lw	a1,328(a4)
    2f48:	001e0e13          	addi	t3,t3,1
    2f4c:	00f585b3          	add	a1,a1,a5
    2f50:	00c58023          	sb	a2,0(a1)
    2f54:	14872583          	lw	a1,328(a4)
    2f58:	14078793          	addi	a5,a5,320
    2f5c:	01f585b3          	add	a1,a1,t6
    2f60:	00c58023          	sb	a2,0(a1)
    2f64:	14872583          	lw	a1,328(a4)
    2f68:	01e585b3          	add	a1,a1,t5
    2f6c:	00c58023          	sb	a2,0(a1)
    2f70:	14872583          	lw	a1,328(a4)
    2f74:	006585b3          	add	a1,a1,t1
    2f78:	00c58023          	sb	a2,0(a1)
    2f7c:	14872583          	lw	a1,328(a4)
    2f80:	011585b3          	add	a1,a1,a7
    2f84:	00c58023          	sb	a2,0(a1)
    2f88:	14872583          	lw	a1,328(a4)
    2f8c:	010585b3          	add	a1,a1,a6
    2f90:	00d58023          	sb	a3,0(a1)
    2f94:	f79ff06f          	j	2f0c <update_cell+0xb8>
    2f98:	00d58023          	sb	a3,0(a1)
    2f9c:	f09ff06f          	j	2ea4 <update_cell+0x50>
    2fa0:	00008067          	ret

00002fa4 <update_shape>:
    2fa4:	00000313          	li	t1,0
    2fa8:	01300e93          	li	t4,19
    2fac:	00900f13          	li	t5,9
    2fb0:	00400e13          	li	t3,4
    2fb4:	00100f93          	li	t6,1
    2fb8:	00200293          	li	t0,2
    2fbc:	00431613          	slli	a2,t1,0x4
    2fc0:	00c50633          	add	a2,a0,a2
    2fc4:	00000693          	li	a3,0
    2fc8:	01062783          	lw	a5,16(a2)
    2fcc:	34078663          	beqz	a5,3318 <update_shape+0x374>
    2fd0:	00852783          	lw	a5,8(a0)
    2fd4:	00452803          	lw	a6,4(a0)
    2fd8:	00f307b3          	add	a5,t1,a5
    2fdc:	32feee63          	bltu	t4,a5,3318 <update_shape+0x374>
    2fe0:	00d80833          	add	a6,a6,a3
    2fe4:	330f6a63          	bltu	t5,a6,3318 <update_shape+0x374>
    2fe8:	fd010113          	addi	sp,sp,-48
    2fec:	02812623          	sw	s0,44(sp)
    2ff0:	02912423          	sw	s1,40(sp)
    2ff4:	03212223          	sw	s2,36(sp)
    2ff8:	03312023          	sw	s3,32(sp)
    2ffc:	01412e23          	sw	s4,28(sp)
    3000:	01512c23          	sw	s5,24(sp)
    3004:	01612a23          	sw	s6,20(sp)
    3008:	01712823          	sw	s7,16(sp)
    300c:	01812623          	sw	s8,12(sp)
    3010:	01912423          	sw	s9,8(sp)
    3014:	01a12223          	sw	s10,4(sp)
    3018:	21f58863          	beq	a1,t6,3228 <update_shape+0x284>
    301c:	30558a63          	beq	a1,t0,3330 <update_shape+0x38c>
    3020:	1c059c63          	bnez	a1,31f8 <update_shape+0x254>
    3024:	00279713          	slli	a4,a5,0x2
    3028:	00f70733          	add	a4,a4,a5
    302c:	000078b7          	lui	a7,0x7
    3030:	00171713          	slli	a4,a4,0x1
    3034:	14c88893          	addi	a7,a7,332 # 714c <grid>
    3038:	00578793          	addi	a5,a5,5
    303c:	00e888b3          	add	a7,a7,a4
    3040:	010888b3          	add	a7,a7,a6
    3044:	00279713          	slli	a4,a5,0x2
    3048:	00f70733          	add	a4,a4,a5
    304c:	0008c483          	lbu	s1,0(a7)
    3050:	00671713          	slli	a4,a4,0x6
    3054:	00f80813          	addi	a6,a6,15
    3058:	01070733          	add	a4,a4,a6
    305c:	00371713          	slli	a4,a4,0x3
    3060:	46049463          	bnez	s1,34c8 <update_shape+0x524>
    3064:	000077b7          	lui	a5,0x7
    3068:	1487a803          	lw	a6,328(a5) # 7148 <VGA>
    306c:	01200893          	li	a7,18
    3070:	00170393          	addi	t2,a4,1
    3074:	00e80833          	add	a6,a6,a4
    3078:	01180023          	sb	a7,0(a6)
    307c:	1487a803          	lw	a6,328(a5)
    3080:	00270713          	addi	a4,a4,2
    3084:	00700913          	li	s2,7
    3088:	00780833          	add	a6,a6,t2
    308c:	01180023          	sb	a7,0(a6)
    3090:	01200813          	li	a6,18
    3094:	1487a883          	lw	a7,328(a5)
    3098:	00170393          	addi	t2,a4,1
    309c:	00270a13          	addi	s4,a4,2
    30a0:	00e888b3          	add	a7,a7,a4
    30a4:	01088023          	sb	a6,0(a7)
    30a8:	1487a883          	lw	a7,328(a5)
    30ac:	00370993          	addi	s3,a4,3
    30b0:	00470413          	addi	s0,a4,4
    30b4:	007888b3          	add	a7,a7,t2
    30b8:	01088023          	sb	a6,0(a7)
    30bc:	1487a883          	lw	a7,328(a5)
    30c0:	00570393          	addi	t2,a4,5
    30c4:	14070713          	addi	a4,a4,320
    30c8:	014888b3          	add	a7,a7,s4
    30cc:	01088023          	sb	a6,0(a7)
    30d0:	1487a883          	lw	a7,328(a5)
    30d4:	013888b3          	add	a7,a7,s3
    30d8:	01088023          	sb	a6,0(a7)
    30dc:	1487a883          	lw	a7,328(a5)
    30e0:	008888b3          	add	a7,a7,s0
    30e4:	01088023          	sb	a6,0(a7)
    30e8:	1487a883          	lw	a7,328(a5)
    30ec:	007888b3          	add	a7,a7,t2
    30f0:	01088023          	sb	a6,0(a7)
    30f4:	11248263          	beq	s1,s2,31f8 <update_shape+0x254>
    30f8:	00100493          	li	s1,1
    30fc:	1487a883          	lw	a7,328(a5)
    3100:	ffe70393          	addi	t2,a4,-2
    3104:	00170b13          	addi	s6,a4,1
    3108:	007888b3          	add	a7,a7,t2
    310c:	01088023          	sb	a6,0(a7)
    3110:	1487a883          	lw	a7,328(a5)
    3114:	fff70393          	addi	t2,a4,-1
    3118:	00270a93          	addi	s5,a4,2
    311c:	00370a13          	addi	s4,a4,3
    3120:	00470993          	addi	s3,a4,4
    3124:	00570413          	addi	s0,a4,5
    3128:	007888b3          	add	a7,a7,t2
    312c:	4d248063          	beq	s1,s2,35ec <update_shape+0x648>
    3130:	00088023          	sb	zero,0(a7)
    3134:	1487a883          	lw	a7,328(a5)
    3138:	00148493          	addi	s1,s1,1
    313c:	00e888b3          	add	a7,a7,a4
    3140:	00088023          	sb	zero,0(a7)
    3144:	1487a883          	lw	a7,328(a5)
    3148:	14070713          	addi	a4,a4,320
    314c:	016888b3          	add	a7,a7,s6
    3150:	00088023          	sb	zero,0(a7)
    3154:	1487a883          	lw	a7,328(a5)
    3158:	015888b3          	add	a7,a7,s5
    315c:	00088023          	sb	zero,0(a7)
    3160:	1487a883          	lw	a7,328(a5)
    3164:	014888b3          	add	a7,a7,s4
    3168:	00088023          	sb	zero,0(a7)
    316c:	1487a883          	lw	a7,328(a5)
    3170:	013888b3          	add	a7,a7,s3
    3174:	00088023          	sb	zero,0(a7)
    3178:	1487a883          	lw	a7,328(a5)
    317c:	008888b3          	add	a7,a7,s0
    3180:	01088023          	sb	a6,0(a7)
    3184:	f79ff06f          	j	30fc <update_shape+0x158>
    3188:	1487a883          	lw	a7,328(a5)
    318c:	00370a13          	addi	s4,a4,3
    3190:	00470993          	addi	s3,a4,4
    3194:	00e888b3          	add	a7,a7,a4
    3198:	01088023          	sb	a6,0(a7)
    319c:	1487a883          	lw	a7,328(a5)
    31a0:	00570913          	addi	s2,a4,5
    31a4:	00670413          	addi	s0,a4,6
    31a8:	017888b3          	add	a7,a7,s7
    31ac:	01088023          	sb	a6,0(a7)
    31b0:	1487a883          	lw	a7,328(a5)
    31b4:	00138393          	addi	t2,t2,1
    31b8:	14070713          	addi	a4,a4,320
    31bc:	016888b3          	add	a7,a7,s6
    31c0:	01088023          	sb	a6,0(a7)
    31c4:	1487a883          	lw	a7,328(a5)
    31c8:	014888b3          	add	a7,a7,s4
    31cc:	01088023          	sb	a6,0(a7)
    31d0:	1487a883          	lw	a7,328(a5)
    31d4:	013888b3          	add	a7,a7,s3
    31d8:	01088023          	sb	a6,0(a7)
    31dc:	1487a883          	lw	a7,328(a5)
    31e0:	012888b3          	add	a7,a7,s2
    31e4:	01088023          	sb	a6,0(a7)
    31e8:	1487a883          	lw	a7,328(a5)
    31ec:	008888b3          	add	a7,a7,s0
    31f0:	01088023          	sb	a6,0(a7)
    31f4:	07939663          	bne	t2,s9,3260 <update_shape+0x2bc>
    31f8:	00168693          	addi	a3,a3,1
    31fc:	00460613          	addi	a2,a2,4
    3200:	11c68063          	beq	a3,t3,3300 <update_shape+0x35c>
    3204:	01062783          	lw	a5,16(a2)
    3208:	fe0788e3          	beqz	a5,31f8 <update_shape+0x254>
    320c:	00852783          	lw	a5,8(a0)
    3210:	00452803          	lw	a6,4(a0)
    3214:	00f307b3          	add	a5,t1,a5
    3218:	fefee0e3          	bltu	t4,a5,31f8 <update_shape+0x254>
    321c:	00d80833          	add	a6,a6,a3
    3220:	fd0f6ce3          	bltu	t5,a6,31f8 <update_shape+0x254>
    3224:	dff59ce3          	bne	a1,t6,301c <update_shape+0x78>
    3228:	00578793          	addi	a5,a5,5
    322c:	00279713          	slli	a4,a5,0x2
    3230:	00f70733          	add	a4,a4,a5
    3234:	00f80813          	addi	a6,a6,15
    3238:	00671713          	slli	a4,a4,0x6
    323c:	01070733          	add	a4,a4,a6
    3240:	00c54483          	lbu	s1,12(a0)
    3244:	00371713          	slli	a4,a4,0x3
    3248:	00170713          	addi	a4,a4,1
    324c:	00000393          	li	t2,0
    3250:	000077b7          	lui	a5,0x7
    3254:	01200813          	li	a6,18
    3258:	08100c13          	li	s8,129
    325c:	00800c93          	li	s9,8
    3260:	1487a403          	lw	s0,328(a5) # 7148 <VGA>
    3264:	fff70d13          	addi	s10,a4,-1
    3268:	007c58b3          	srl	a7,s8,t2
    326c:	01a40433          	add	s0,s0,s10
    3270:	01040023          	sb	a6,0(s0)
    3274:	0018f893          	andi	a7,a7,1
    3278:	00170b93          	addi	s7,a4,1
    327c:	00270b13          	addi	s6,a4,2
    3280:	00370a93          	addi	s5,a4,3
    3284:	00470a13          	addi	s4,a4,4
    3288:	00570993          	addi	s3,a4,5
    328c:	00670913          	addi	s2,a4,6
    3290:	ee089ce3          	bnez	a7,3188 <update_shape+0x1e4>
    3294:	1487a883          	lw	a7,328(a5)
    3298:	00138393          	addi	t2,t2,1
    329c:	00e888b3          	add	a7,a7,a4
    32a0:	00988023          	sb	s1,0(a7)
    32a4:	1487a883          	lw	a7,328(a5)
    32a8:	14070713          	addi	a4,a4,320
    32ac:	017888b3          	add	a7,a7,s7
    32b0:	00988023          	sb	s1,0(a7)
    32b4:	1487a883          	lw	a7,328(a5)
    32b8:	016888b3          	add	a7,a7,s6
    32bc:	00988023          	sb	s1,0(a7)
    32c0:	1487a883          	lw	a7,328(a5)
    32c4:	015888b3          	add	a7,a7,s5
    32c8:	00988023          	sb	s1,0(a7)
    32cc:	1487a883          	lw	a7,328(a5)
    32d0:	014888b3          	add	a7,a7,s4
    32d4:	00988023          	sb	s1,0(a7)
    32d8:	1487a883          	lw	a7,328(a5)
    32dc:	013888b3          	add	a7,a7,s3
    32e0:	00988023          	sb	s1,0(a7)
    32e4:	1487a883          	lw	a7,328(a5)
    32e8:	012888b3          	add	a7,a7,s2
    32ec:	01088023          	sb	a6,0(a7)
    32f0:	f79398e3          	bne	t2,s9,3260 <update_shape+0x2bc>
    32f4:	00168693          	addi	a3,a3,1
    32f8:	00460613          	addi	a2,a2,4
    32fc:	f1c694e3          	bne	a3,t3,3204 <update_shape+0x260>
    3300:	00130313          	addi	t1,t1,1
    3304:	18d30863          	beq	t1,a3,3494 <update_shape+0x4f0>
    3308:	00431613          	slli	a2,t1,0x4
    330c:	00c50633          	add	a2,a0,a2
    3310:	00000693          	li	a3,0
    3314:	ef1ff06f          	j	3204 <update_shape+0x260>
    3318:	00168693          	addi	a3,a3,1
    331c:	00460613          	addi	a2,a2,4
    3320:	cbc694e3          	bne	a3,t3,2fc8 <update_shape+0x24>
    3324:	00130313          	addi	t1,t1,1
    3328:	c8d31ae3          	bne	t1,a3,2fbc <update_shape+0x18>
    332c:	00008067          	ret
    3330:	00578393          	addi	t2,a5,5
    3334:	00279893          	slli	a7,a5,0x2
    3338:	00239713          	slli	a4,t2,0x2
    333c:	00f888b3          	add	a7,a7,a5
    3340:	00770733          	add	a4,a4,t2
    3344:	000077b7          	lui	a5,0x7
    3348:	00f80393          	addi	t2,a6,15
    334c:	00c54483          	lbu	s1,12(a0)
    3350:	00189893          	slli	a7,a7,0x1
    3354:	00671713          	slli	a4,a4,0x6
    3358:	14c78793          	addi	a5,a5,332 # 714c <grid>
    335c:	00770733          	add	a4,a4,t2
    3360:	011787b3          	add	a5,a5,a7
    3364:	010787b3          	add	a5,a5,a6
    3368:	00371713          	slli	a4,a4,0x3
    336c:	00978023          	sb	s1,0(a5)
    3370:	00170713          	addi	a4,a4,1
    3374:	00000393          	li	t2,0
    3378:	000077b7          	lui	a5,0x7
    337c:	01200813          	li	a6,18
    3380:	08100c13          	li	s8,129
    3384:	00800c93          	li	s9,8
    3388:	1487a403          	lw	s0,328(a5) # 7148 <VGA>
    338c:	fff70d13          	addi	s10,a4,-1
    3390:	007c58b3          	srl	a7,s8,t2
    3394:	01a40433          	add	s0,s0,s10
    3398:	01040023          	sb	a6,0(s0)
    339c:	0018f893          	andi	a7,a7,1
    33a0:	00170b93          	addi	s7,a4,1
    33a4:	00270b13          	addi	s6,a4,2
    33a8:	00370a93          	addi	s5,a4,3
    33ac:	00470a13          	addi	s4,a4,4
    33b0:	00570993          	addi	s3,a4,5
    33b4:	00670913          	addi	s2,a4,6
    33b8:	06089463          	bnez	a7,3420 <update_shape+0x47c>
    33bc:	1487a883          	lw	a7,328(a5)
    33c0:	00138393          	addi	t2,t2,1
    33c4:	00e888b3          	add	a7,a7,a4
    33c8:	00988023          	sb	s1,0(a7)
    33cc:	1487a883          	lw	a7,328(a5)
    33d0:	14070713          	addi	a4,a4,320
    33d4:	017888b3          	add	a7,a7,s7
    33d8:	00988023          	sb	s1,0(a7)
    33dc:	1487a883          	lw	a7,328(a5)
    33e0:	016888b3          	add	a7,a7,s6
    33e4:	00988023          	sb	s1,0(a7)
    33e8:	1487a883          	lw	a7,328(a5)
    33ec:	015888b3          	add	a7,a7,s5
    33f0:	00988023          	sb	s1,0(a7)
    33f4:	1487a883          	lw	a7,328(a5)
    33f8:	014888b3          	add	a7,a7,s4
    33fc:	00988023          	sb	s1,0(a7)
    3400:	1487a883          	lw	a7,328(a5)
    3404:	013888b3          	add	a7,a7,s3
    3408:	00988023          	sb	s1,0(a7)
    340c:	1487a883          	lw	a7,328(a5)
    3410:	012888b3          	add	a7,a7,s2
    3414:	01088023          	sb	a6,0(a7)
    3418:	f79398e3          	bne	t2,s9,3388 <update_shape+0x3e4>
    341c:	dddff06f          	j	31f8 <update_shape+0x254>
    3420:	1487a883          	lw	a7,328(a5)
    3424:	00370a13          	addi	s4,a4,3
    3428:	00470993          	addi	s3,a4,4
    342c:	00e888b3          	add	a7,a7,a4
    3430:	01088023          	sb	a6,0(a7)
    3434:	1487a883          	lw	a7,328(a5)
    3438:	00570913          	addi	s2,a4,5
    343c:	00670413          	addi	s0,a4,6
    3440:	017888b3          	add	a7,a7,s7
    3444:	01088023          	sb	a6,0(a7)
    3448:	1487a883          	lw	a7,328(a5)
    344c:	00138393          	addi	t2,t2,1
    3450:	14070713          	addi	a4,a4,320
    3454:	016888b3          	add	a7,a7,s6
    3458:	01088023          	sb	a6,0(a7)
    345c:	1487a883          	lw	a7,328(a5)
    3460:	014888b3          	add	a7,a7,s4
    3464:	01088023          	sb	a6,0(a7)
    3468:	1487a883          	lw	a7,328(a5)
    346c:	013888b3          	add	a7,a7,s3
    3470:	01088023          	sb	a6,0(a7)
    3474:	1487a883          	lw	a7,328(a5)
    3478:	012888b3          	add	a7,a7,s2
    347c:	01088023          	sb	a6,0(a7)
    3480:	1487a883          	lw	a7,328(a5)
    3484:	008888b3          	add	a7,a7,s0
    3488:	01088023          	sb	a6,0(a7)
    348c:	ef939ee3          	bne	t2,s9,3388 <update_shape+0x3e4>
    3490:	d69ff06f          	j	31f8 <update_shape+0x254>
    3494:	02c12403          	lw	s0,44(sp)
    3498:	02812483          	lw	s1,40(sp)
    349c:	02412903          	lw	s2,36(sp)
    34a0:	02012983          	lw	s3,32(sp)
    34a4:	01c12a03          	lw	s4,28(sp)
    34a8:	01812a83          	lw	s5,24(sp)
    34ac:	01412b03          	lw	s6,20(sp)
    34b0:	01012b83          	lw	s7,16(sp)
    34b4:	00c12c03          	lw	s8,12(sp)
    34b8:	00812c83          	lw	s9,8(sp)
    34bc:	00412d03          	lw	s10,4(sp)
    34c0:	03010113          	addi	sp,sp,48
    34c4:	00008067          	ret
    34c8:	00170713          	addi	a4,a4,1
    34cc:	00000393          	li	t2,0
    34d0:	000077b7          	lui	a5,0x7
    34d4:	01200893          	li	a7,18
    34d8:	08100c13          	li	s8,129
    34dc:	00800c93          	li	s9,8
    34e0:	1487a403          	lw	s0,328(a5) # 7148 <VGA>
    34e4:	fff70d13          	addi	s10,a4,-1
    34e8:	007c5833          	srl	a6,s8,t2
    34ec:	01a40433          	add	s0,s0,s10
    34f0:	01140023          	sb	a7,0(s0)
    34f4:	00187813          	andi	a6,a6,1
    34f8:	00170b93          	addi	s7,a4,1
    34fc:	00270b13          	addi	s6,a4,2
    3500:	00370a93          	addi	s5,a4,3
    3504:	00470a13          	addi	s4,a4,4
    3508:	00570993          	addi	s3,a4,5
    350c:	00670913          	addi	s2,a4,6
    3510:	06081463          	bnez	a6,3578 <update_shape+0x5d4>
    3514:	1487a803          	lw	a6,328(a5)
    3518:	00138393          	addi	t2,t2,1
    351c:	00e80833          	add	a6,a6,a4
    3520:	00980023          	sb	s1,0(a6)
    3524:	1487a803          	lw	a6,328(a5)
    3528:	14070713          	addi	a4,a4,320
    352c:	01780833          	add	a6,a6,s7
    3530:	00980023          	sb	s1,0(a6)
    3534:	1487a803          	lw	a6,328(a5)
    3538:	01680833          	add	a6,a6,s6
    353c:	00980023          	sb	s1,0(a6)
    3540:	1487a803          	lw	a6,328(a5)
    3544:	01580833          	add	a6,a6,s5
    3548:	00980023          	sb	s1,0(a6)
    354c:	1487a803          	lw	a6,328(a5)
    3550:	01480833          	add	a6,a6,s4
    3554:	00980023          	sb	s1,0(a6)
    3558:	1487a803          	lw	a6,328(a5)
    355c:	01380833          	add	a6,a6,s3
    3560:	00980023          	sb	s1,0(a6)
    3564:	1487a803          	lw	a6,328(a5)
    3568:	01280833          	add	a6,a6,s2
    356c:	01180023          	sb	a7,0(a6)
    3570:	f79398e3          	bne	t2,s9,34e0 <update_shape+0x53c>
    3574:	c85ff06f          	j	31f8 <update_shape+0x254>
    3578:	1487a803          	lw	a6,328(a5)
    357c:	00370a13          	addi	s4,a4,3
    3580:	00470993          	addi	s3,a4,4
    3584:	00e80833          	add	a6,a6,a4
    3588:	01180023          	sb	a7,0(a6)
    358c:	1487a803          	lw	a6,328(a5)
    3590:	00570913          	addi	s2,a4,5
    3594:	00670413          	addi	s0,a4,6
    3598:	01780833          	add	a6,a6,s7
    359c:	01180023          	sb	a7,0(a6)
    35a0:	1487a803          	lw	a6,328(a5)
    35a4:	00138393          	addi	t2,t2,1
    35a8:	14070713          	addi	a4,a4,320
    35ac:	01680833          	add	a6,a6,s6
    35b0:	01180023          	sb	a7,0(a6)
    35b4:	1487a803          	lw	a6,328(a5)
    35b8:	01480833          	add	a6,a6,s4
    35bc:	01180023          	sb	a7,0(a6)
    35c0:	1487a803          	lw	a6,328(a5)
    35c4:	01380833          	add	a6,a6,s3
    35c8:	01180023          	sb	a7,0(a6)
    35cc:	1487a803          	lw	a6,328(a5)
    35d0:	01280833          	add	a6,a6,s2
    35d4:	01180023          	sb	a7,0(a6)
    35d8:	1487a803          	lw	a6,328(a5)
    35dc:	00880833          	add	a6,a6,s0
    35e0:	01180023          	sb	a7,0(a6)
    35e4:	ef939ee3          	bne	t2,s9,34e0 <update_shape+0x53c>
    35e8:	c11ff06f          	j	31f8 <update_shape+0x254>
    35ec:	01088023          	sb	a6,0(a7)
    35f0:	aa5ff06f          	j	3094 <update_shape+0xf0>

000035f4 <collision>:
    35f4:	00050793          	mv	a5,a0
    35f8:	01052503          	lw	a0,16(a0)
    35fc:	20050463          	beqz	a0,3804 <collision+0x210>
    3600:	0087a683          	lw	a3,8(a5)
    3604:	01300713          	li	a4,19
    3608:	0047a803          	lw	a6,4(a5)
    360c:	00168693          	addi	a3,a3,1
    3610:	2ad74063          	blt	a4,a3,38b0 <collision+0x2bc>
    3614:	00269513          	slli	a0,a3,0x2
    3618:	00007737          	lui	a4,0x7
    361c:	00d50633          	add	a2,a0,a3
    3620:	14c70713          	addi	a4,a4,332 # 714c <grid>
    3624:	00161613          	slli	a2,a2,0x1
    3628:	00c70633          	add	a2,a4,a2
    362c:	01060633          	add	a2,a2,a6
    3630:	00064583          	lbu	a1,0(a2)
    3634:	26059e63          	bnez	a1,38b0 <collision+0x2bc>
    3638:	0147a583          	lw	a1,20(a5)
    363c:	02058063          	beqz	a1,365c <collision+0x68>
    3640:	00180593          	addi	a1,a6,1
    3644:	00d50633          	add	a2,a0,a3
    3648:	00161613          	slli	a2,a2,0x1
    364c:	00c70633          	add	a2,a4,a2
    3650:	00b60633          	add	a2,a2,a1
    3654:	00064583          	lbu	a1,0(a2)
    3658:	24059c63          	bnez	a1,38b0 <collision+0x2bc>
    365c:	0187a603          	lw	a2,24(a5)
    3660:	00280593          	addi	a1,a6,2
    3664:	1c060c63          	beqz	a2,383c <collision+0x248>
    3668:	00d50633          	add	a2,a0,a3
    366c:	00161613          	slli	a2,a2,0x1
    3670:	00c70633          	add	a2,a4,a2
    3674:	00b60633          	add	a2,a2,a1
    3678:	00064583          	lbu	a1,0(a2)
    367c:	22059a63          	bnez	a1,38b0 <collision+0x2bc>
    3680:	01c7a603          	lw	a2,28(a5)
    3684:	02060063          	beqz	a2,36a4 <collision+0xb0>
    3688:	00380613          	addi	a2,a6,3
    368c:	00d506b3          	add	a3,a0,a3
    3690:	00169693          	slli	a3,a3,0x1
    3694:	00d70733          	add	a4,a4,a3
    3698:	00c70733          	add	a4,a4,a2
    369c:	00074703          	lbu	a4,0(a4)
    36a0:	20071863          	bnez	a4,38b0 <collision+0x2bc>
    36a4:	0207a503          	lw	a0,32(a5)
    36a8:	20050a63          	beqz	a0,38bc <collision+0x2c8>
    36ac:	0087a683          	lw	a3,8(a5)
    36b0:	01300713          	li	a4,19
    36b4:	0047a883          	lw	a7,4(a5)
    36b8:	00268693          	addi	a3,a3,2
    36bc:	1ed74a63          	blt	a4,a3,38b0 <collision+0x2bc>
    36c0:	00269613          	slli	a2,a3,0x2
    36c4:	00007737          	lui	a4,0x7
    36c8:	00d605b3          	add	a1,a2,a3
    36cc:	14c70713          	addi	a4,a4,332 # 714c <grid>
    36d0:	00159593          	slli	a1,a1,0x1
    36d4:	00b705b3          	add	a1,a4,a1
    36d8:	011585b3          	add	a1,a1,a7
    36dc:	0005c503          	lbu	a0,0(a1)
    36e0:	1c051863          	bnez	a0,38b0 <collision+0x2bc>
    36e4:	0247a503          	lw	a0,36(a5)
    36e8:	00188813          	addi	a6,a7,1
    36ec:	00050e63          	beqz	a0,3708 <collision+0x114>
    36f0:	00d605b3          	add	a1,a2,a3
    36f4:	00159593          	slli	a1,a1,0x1
    36f8:	00b705b3          	add	a1,a4,a1
    36fc:	010585b3          	add	a1,a1,a6
    3700:	0005c503          	lbu	a0,0(a1)
    3704:	1a051663          	bnez	a0,38b0 <collision+0x2bc>
    3708:	0287a583          	lw	a1,40(a5)
    370c:	00288813          	addi	a6,a7,2
    3710:	1e058263          	beqz	a1,38f4 <collision+0x300>
    3714:	00d605b3          	add	a1,a2,a3
    3718:	00159593          	slli	a1,a1,0x1
    371c:	00b705b3          	add	a1,a4,a1
    3720:	010585b3          	add	a1,a1,a6
    3724:	0005c583          	lbu	a1,0(a1)
    3728:	18059463          	bnez	a1,38b0 <collision+0x2bc>
    372c:	02c7a583          	lw	a1,44(a5)
    3730:	2e059e63          	bnez	a1,3a2c <collision+0x438>
    3734:	0307a503          	lw	a0,48(a5)
    3738:	12050a63          	beqz	a0,386c <collision+0x278>
    373c:	0087a603          	lw	a2,8(a5)
    3740:	01300713          	li	a4,19
    3744:	0047a883          	lw	a7,4(a5)
    3748:	00360613          	addi	a2,a2,3
    374c:	16c74263          	blt	a4,a2,38b0 <collision+0x2bc>
    3750:	00261693          	slli	a3,a2,0x2
    3754:	00007737          	lui	a4,0x7
    3758:	00c685b3          	add	a1,a3,a2
    375c:	14c70713          	addi	a4,a4,332 # 714c <grid>
    3760:	00159593          	slli	a1,a1,0x1
    3764:	00b705b3          	add	a1,a4,a1
    3768:	011585b3          	add	a1,a1,a7
    376c:	0005c503          	lbu	a0,0(a1)
    3770:	14051063          	bnez	a0,38b0 <collision+0x2bc>
    3774:	0347a503          	lw	a0,52(a5)
    3778:	00188813          	addi	a6,a7,1
    377c:	10051e63          	bnez	a0,3898 <collision+0x2a4>
    3780:	0387a583          	lw	a1,56(a5)
    3784:	00288813          	addi	a6,a7,2
    3788:	1a058e63          	beqz	a1,3944 <collision+0x350>
    378c:	00c685b3          	add	a1,a3,a2
    3790:	00159593          	slli	a1,a1,0x1
    3794:	00b705b3          	add	a1,a4,a1
    3798:	010585b3          	add	a1,a1,a6
    379c:	0005c583          	lbu	a1,0(a1)
    37a0:	10059863          	bnez	a1,38b0 <collision+0x2bc>
    37a4:	03c7a583          	lw	a1,60(a5)
    37a8:	2e059063          	bnez	a1,3a88 <collision+0x494>
    37ac:	0407a503          	lw	a0,64(a5)
    37b0:	1e050063          	beqz	a0,3990 <collision+0x39c>
    37b4:	0087a603          	lw	a2,8(a5)
    37b8:	01300713          	li	a4,19
    37bc:	0047a803          	lw	a6,4(a5)
    37c0:	00460613          	addi	a2,a2,4
    37c4:	0ec74663          	blt	a4,a2,38b0 <collision+0x2bc>
    37c8:	00261693          	slli	a3,a2,0x2
    37cc:	00007737          	lui	a4,0x7
    37d0:	00c685b3          	add	a1,a3,a2
    37d4:	14c70713          	addi	a4,a4,332 # 714c <grid>
    37d8:	00159593          	slli	a1,a1,0x1
    37dc:	00b705b3          	add	a1,a4,a1
    37e0:	010585b3          	add	a1,a1,a6
    37e4:	0005c583          	lbu	a1,0(a1)
    37e8:	0c059463          	bnez	a1,38b0 <collision+0x2bc>
    37ec:	0447a583          	lw	a1,68(a5)
    37f0:	2a059063          	bnez	a1,3a90 <collision+0x49c>
    37f4:	0487a583          	lw	a1,72(a5)
    37f8:	1e058463          	beqz	a1,39e0 <collision+0x3ec>
    37fc:	00280893          	addi	a7,a6,2
    3800:	2600006f          	j	3a60 <collision+0x46c>
    3804:	0147a703          	lw	a4,20(a5)
    3808:	02070663          	beqz	a4,3834 <collision+0x240>
    380c:	0087a683          	lw	a3,8(a5)
    3810:	0047a803          	lw	a6,4(a5)
    3814:	01300713          	li	a4,19
    3818:	00168693          	addi	a3,a3,1
    381c:	00180593          	addi	a1,a6,1
    3820:	08d74c63          	blt	a4,a3,38b8 <collision+0x2c4>
    3824:	00007737          	lui	a4,0x7
    3828:	14c70713          	addi	a4,a4,332 # 714c <grid>
    382c:	00269513          	slli	a0,a3,0x2
    3830:	e15ff06f          	j	3644 <collision+0x50>
    3834:	0187a703          	lw	a4,24(a5)
    3838:	26071063          	bnez	a4,3a98 <collision+0x4a4>
    383c:	01c7a703          	lw	a4,28(a5)
    3840:	e60702e3          	beqz	a4,36a4 <collision+0xb0>
    3844:	0087a683          	lw	a3,8(a5)
    3848:	0047a603          	lw	a2,4(a5)
    384c:	01300713          	li	a4,19
    3850:	00168693          	addi	a3,a3,1
    3854:	00360613          	addi	a2,a2,3
    3858:	04d74c63          	blt	a4,a3,38b0 <collision+0x2bc>
    385c:	00007737          	lui	a4,0x7
    3860:	14c70713          	addi	a4,a4,332 # 714c <grid>
    3864:	00269513          	slli	a0,a3,0x2
    3868:	e25ff06f          	j	368c <collision+0x98>
    386c:	0347a703          	lw	a4,52(a5)
    3870:	0c070663          	beqz	a4,393c <collision+0x348>
    3874:	0087a603          	lw	a2,8(a5)
    3878:	0047a883          	lw	a7,4(a5)
    387c:	01300713          	li	a4,19
    3880:	00360613          	addi	a2,a2,3
    3884:	00188813          	addi	a6,a7,1
    3888:	02c74863          	blt	a4,a2,38b8 <collision+0x2c4>
    388c:	00007737          	lui	a4,0x7
    3890:	14c70713          	addi	a4,a4,332 # 714c <grid>
    3894:	00261693          	slli	a3,a2,0x2
    3898:	00c685b3          	add	a1,a3,a2
    389c:	00159593          	slli	a1,a1,0x1
    38a0:	00b705b3          	add	a1,a4,a1
    38a4:	010585b3          	add	a1,a1,a6
    38a8:	0005c503          	lbu	a0,0(a1)
    38ac:	ec050ae3          	beqz	a0,3780 <collision+0x18c>
    38b0:	00000513          	li	a0,0
    38b4:	00008067          	ret
    38b8:	00008067          	ret
    38bc:	0247a703          	lw	a4,36(a5)
    38c0:	02070663          	beqz	a4,38ec <collision+0x2f8>
    38c4:	0087a683          	lw	a3,8(a5)
    38c8:	0047a883          	lw	a7,4(a5)
    38cc:	01300713          	li	a4,19
    38d0:	00268693          	addi	a3,a3,2
    38d4:	00188813          	addi	a6,a7,1
    38d8:	fed740e3          	blt	a4,a3,38b8 <collision+0x2c4>
    38dc:	00007737          	lui	a4,0x7
    38e0:	14c70713          	addi	a4,a4,332 # 714c <grid>
    38e4:	00269613          	slli	a2,a3,0x2
    38e8:	e09ff06f          	j	36f0 <collision+0xfc>
    38ec:	0287a703          	lw	a4,40(a5)
    38f0:	1c071863          	bnez	a4,3ac0 <collision+0x4cc>
    38f4:	02c7a703          	lw	a4,44(a5)
    38f8:	e2070ee3          	beqz	a4,3734 <collision+0x140>
    38fc:	0087a683          	lw	a3,8(a5)
    3900:	0047a583          	lw	a1,4(a5)
    3904:	01300713          	li	a4,19
    3908:	00268693          	addi	a3,a3,2
    390c:	00358593          	addi	a1,a1,3
    3910:	fad740e3          	blt	a4,a3,38b0 <collision+0x2bc>
    3914:	00007737          	lui	a4,0x7
    3918:	14c70713          	addi	a4,a4,332 # 714c <grid>
    391c:	00269613          	slli	a2,a3,0x2
    3920:	00d60633          	add	a2,a2,a3
    3924:	00161613          	slli	a2,a2,0x1
    3928:	00c70733          	add	a4,a4,a2
    392c:	00b70733          	add	a4,a4,a1
    3930:	00074703          	lbu	a4,0(a4)
    3934:	e00700e3          	beqz	a4,3734 <collision+0x140>
    3938:	f79ff06f          	j	38b0 <collision+0x2bc>
    393c:	0387a703          	lw	a4,56(a5)
    3940:	1a071463          	bnez	a4,3ae8 <collision+0x4f4>
    3944:	03c7a703          	lw	a4,60(a5)
    3948:	e60702e3          	beqz	a4,37ac <collision+0x1b8>
    394c:	0087a603          	lw	a2,8(a5)
    3950:	0047a583          	lw	a1,4(a5)
    3954:	01300713          	li	a4,19
    3958:	00360613          	addi	a2,a2,3
    395c:	00358593          	addi	a1,a1,3
    3960:	f4c748e3          	blt	a4,a2,38b0 <collision+0x2bc>
    3964:	00007737          	lui	a4,0x7
    3968:	14c70713          	addi	a4,a4,332 # 714c <grid>
    396c:	00261693          	slli	a3,a2,0x2
    3970:	00c686b3          	add	a3,a3,a2
    3974:	00169693          	slli	a3,a3,0x1
    3978:	00d70733          	add	a4,a4,a3
    397c:	00b70733          	add	a4,a4,a1
    3980:	00074703          	lbu	a4,0(a4)
    3984:	f20716e3          	bnez	a4,38b0 <collision+0x2bc>
    3988:	0407a503          	lw	a0,64(a5)
    398c:	e20514e3          	bnez	a0,37b4 <collision+0x1c0>
    3990:	0447a703          	lw	a4,68(a5)
    3994:	0a070063          	beqz	a4,3a34 <collision+0x440>
    3998:	0087a603          	lw	a2,8(a5)
    399c:	0047a803          	lw	a6,4(a5)
    39a0:	01300713          	li	a4,19
    39a4:	00460613          	addi	a2,a2,4
    39a8:	00180893          	addi	a7,a6,1
    39ac:	f0c746e3          	blt	a4,a2,38b8 <collision+0x2c4>
    39b0:	00007737          	lui	a4,0x7
    39b4:	14c70713          	addi	a4,a4,332 # 714c <grid>
    39b8:	00261693          	slli	a3,a2,0x2
    39bc:	00c685b3          	add	a1,a3,a2
    39c0:	00159593          	slli	a1,a1,0x1
    39c4:	00b705b3          	add	a1,a4,a1
    39c8:	011585b3          	add	a1,a1,a7
    39cc:	0005c583          	lbu	a1,0(a1)
    39d0:	ee0590e3          	bnez	a1,38b0 <collision+0x2bc>
    39d4:	0487a583          	lw	a1,72(a5)
    39d8:	00280893          	addi	a7,a6,2
    39dc:	08059263          	bnez	a1,3a60 <collision+0x46c>
    39e0:	04c7a703          	lw	a4,76(a5)
    39e4:	00100513          	li	a0,1
    39e8:	ec0708e3          	beqz	a4,38b8 <collision+0x2c4>
    39ec:	0087a603          	lw	a2,8(a5)
    39f0:	0047a803          	lw	a6,4(a5)
    39f4:	01300793          	li	a5,19
    39f8:	00460613          	addi	a2,a2,4
    39fc:	00380813          	addi	a6,a6,3
    3a00:	eac7c8e3          	blt	a5,a2,38b0 <collision+0x2bc>
    3a04:	00261693          	slli	a3,a2,0x2
    3a08:	00c687b3          	add	a5,a3,a2
    3a0c:	00007737          	lui	a4,0x7
    3a10:	14c70713          	addi	a4,a4,332 # 714c <grid>
    3a14:	00179793          	slli	a5,a5,0x1
    3a18:	00f707b3          	add	a5,a4,a5
    3a1c:	010787b3          	add	a5,a5,a6
    3a20:	0007c503          	lbu	a0,0(a5)
    3a24:	00153513          	seqz	a0,a0
    3a28:	00008067          	ret
    3a2c:	00388593          	addi	a1,a7,3
    3a30:	ef1ff06f          	j	3920 <collision+0x32c>
    3a34:	0487a703          	lw	a4,72(a5)
    3a38:	fa0704e3          	beqz	a4,39e0 <collision+0x3ec>
    3a3c:	0087a603          	lw	a2,8(a5)
    3a40:	0047a803          	lw	a6,4(a5)
    3a44:	01300713          	li	a4,19
    3a48:	00460613          	addi	a2,a2,4
    3a4c:	00280893          	addi	a7,a6,2
    3a50:	e6c744e3          	blt	a4,a2,38b8 <collision+0x2c4>
    3a54:	00007737          	lui	a4,0x7
    3a58:	14c70713          	addi	a4,a4,332 # 714c <grid>
    3a5c:	00261693          	slli	a3,a2,0x2
    3a60:	00c685b3          	add	a1,a3,a2
    3a64:	00159593          	slli	a1,a1,0x1
    3a68:	00b705b3          	add	a1,a4,a1
    3a6c:	011585b3          	add	a1,a1,a7
    3a70:	0005c583          	lbu	a1,0(a1)
    3a74:	e2059ee3          	bnez	a1,38b0 <collision+0x2bc>
    3a78:	04c7a783          	lw	a5,76(a5)
    3a7c:	08079a63          	bnez	a5,3b10 <collision+0x51c>
    3a80:	00100513          	li	a0,1
    3a84:	00008067          	ret
    3a88:	00388593          	addi	a1,a7,3
    3a8c:	ee5ff06f          	j	3970 <collision+0x37c>
    3a90:	00180893          	addi	a7,a6,1
    3a94:	f29ff06f          	j	39bc <collision+0x3c8>
    3a98:	0087a683          	lw	a3,8(a5)
    3a9c:	0047a803          	lw	a6,4(a5)
    3aa0:	01300713          	li	a4,19
    3aa4:	00168693          	addi	a3,a3,1
    3aa8:	00280593          	addi	a1,a6,2
    3aac:	e0d746e3          	blt	a4,a3,38b8 <collision+0x2c4>
    3ab0:	00007737          	lui	a4,0x7
    3ab4:	14c70713          	addi	a4,a4,332 # 714c <grid>
    3ab8:	00269513          	slli	a0,a3,0x2
    3abc:	badff06f          	j	3668 <collision+0x74>
    3ac0:	0087a683          	lw	a3,8(a5)
    3ac4:	0047a883          	lw	a7,4(a5)
    3ac8:	01300713          	li	a4,19
    3acc:	00268693          	addi	a3,a3,2
    3ad0:	00288813          	addi	a6,a7,2
    3ad4:	ded742e3          	blt	a4,a3,38b8 <collision+0x2c4>
    3ad8:	00007737          	lui	a4,0x7
    3adc:	14c70713          	addi	a4,a4,332 # 714c <grid>
    3ae0:	00269613          	slli	a2,a3,0x2
    3ae4:	c31ff06f          	j	3714 <collision+0x120>
    3ae8:	0087a603          	lw	a2,8(a5)
    3aec:	0047a883          	lw	a7,4(a5)
    3af0:	01300713          	li	a4,19
    3af4:	00360613          	addi	a2,a2,3
    3af8:	00288813          	addi	a6,a7,2
    3afc:	dac74ee3          	blt	a4,a2,38b8 <collision+0x2c4>
    3b00:	00007737          	lui	a4,0x7
    3b04:	14c70713          	addi	a4,a4,332 # 714c <grid>
    3b08:	00261693          	slli	a3,a2,0x2
    3b0c:	c81ff06f          	j	378c <collision+0x198>
    3b10:	00c687b3          	add	a5,a3,a2
    3b14:	00179793          	slli	a5,a5,0x1
    3b18:	00380813          	addi	a6,a6,3
    3b1c:	00f707b3          	add	a5,a4,a5
    3b20:	010787b3          	add	a5,a5,a6
    3b24:	0007c503          	lbu	a0,0(a5)
    3b28:	00153513          	seqz	a0,a0
    3b2c:	00008067          	ret

00003b30 <rotate_piece>:
    3b30:	04000737          	lui	a4,0x4000
    3b34:	0d072783          	lw	a5,208(a4) # 40000d0 <_stack_end+0x3ef2f30>
    3b38:	f5010113          	addi	sp,sp,-176
    3b3c:	0a812623          	sw	s0,172(sp)
    3b40:	0017f793          	andi	a5,a5,1
    3b44:	02f12e23          	sw	a5,60(sp)
    3b48:	03c12783          	lw	a5,60(sp)
    3b4c:	0a912423          	sw	s1,168(sp)
    3b50:	0b212223          	sw	s2,164(sp)
    3b54:	0b312023          	sw	s3,160(sp)
    3b58:	09412e23          	sw	s4,156(sp)
    3b5c:	09512c23          	sw	s5,152(sp)
    3b60:	09612a23          	sw	s6,148(sp)
    3b64:	09712823          	sw	s7,144(sp)
    3b68:	09812623          	sw	s8,140(sp)
    3b6c:	09912423          	sw	s9,136(sp)
    3b70:	09a12223          	sw	s10,132(sp)
    3b74:	09b12023          	sw	s11,128(sp)
    3b78:	00050613          	mv	a2,a0
    3b7c:	08078263          	beqz	a5,3c00 <rotate_piece+0xd0>
    3b80:	01052283          	lw	t0,16(a0)
    3b84:	01452e03          	lw	t3,20(a0)
    3b88:	01c62783          	lw	a5,28(a2)
    3b8c:	01852503          	lw	a0,24(a0)
    3b90:	02062403          	lw	s0,32(a2)
    3b94:	02462e83          	lw	t4,36(a2)
    3b98:	02862803          	lw	a6,40(a2)
    3b9c:	02c62703          	lw	a4,44(a2)
    3ba0:	03062483          	lw	s1,48(a2)
    3ba4:	03462f03          	lw	t5,52(a2)
    3ba8:	03862883          	lw	a7,56(a2)
    3bac:	03c62683          	lw	a3,60(a2)
    3bb0:	04462f83          	lw	t6,68(a2)
    3bb4:	04862303          	lw	t1,72(a2)
    3bb8:	04c62583          	lw	a1,76(a2)
    3bbc:	04062383          	lw	t2,64(a2)
    3bc0:	04912223          	sw	s1,68(sp)
    3bc4:	04812423          	sw	s0,72(sp)
    3bc8:	04712023          	sw	t2,64(sp)
    3bcc:	04512623          	sw	t0,76(sp)
    3bd0:	05f12823          	sw	t6,80(sp)
    3bd4:	05e12a23          	sw	t5,84(sp)
    3bd8:	05d12c23          	sw	t4,88(sp)
    3bdc:	05c12e23          	sw	t3,92(sp)
    3be0:	06612023          	sw	t1,96(sp)
    3be4:	07112223          	sw	a7,100(sp)
    3be8:	07012423          	sw	a6,104(sp)
    3bec:	06a12623          	sw	a0,108(sp)
    3bf0:	06b12823          	sw	a1,112(sp)
    3bf4:	06d12a23          	sw	a3,116(sp)
    3bf8:	06e12c23          	sw	a4,120(sp)
    3bfc:	06f12e23          	sw	a5,124(sp)
    3c00:	000077b7          	lui	a5,0x7
    3c04:	14c78793          	addi	a5,a5,332 # 714c <grid>
    3c08:	0d07a883          	lw	a7,208(a5)
    3c0c:	0cc7a683          	lw	a3,204(a5)
    3c10:	0d87af03          	lw	t5,216(a5)
    3c14:	00188593          	addi	a1,a7,1
    3c18:	00388313          	addi	t1,a7,3
    3c1c:	00231713          	slli	a4,t1,0x2
    3c20:	00259e93          	slli	t4,a1,0x2
    3c24:	00288813          	addi	a6,a7,2
    3c28:	00670cb3          	add	s9,a4,t1
    3c2c:	00488893          	addi	a7,a7,4
    3c30:	02e12423          	sw	a4,40(sp)
    3c34:	01d12423          	sw	t4,8(sp)
    3c38:	00be8733          	add	a4,t4,a1
    3c3c:	1107ae83          	lw	t4,272(a5)
    3c40:	00289513          	slli	a0,a7,0x2
    3c44:	00281e13          	slli	t3,a6,0x2
    3c48:	01150c33          	add	s8,a0,a7
    3c4c:	03c12223          	sw	t3,36(sp)
    3c50:	001c9c93          	slli	s9,s9,0x1
    3c54:	010e0e33          	add	t3,t3,a6
    3c58:	001c1c13          	slli	s8,s8,0x1
    3c5c:	001e1e13          	slli	t3,t3,0x1
    3c60:	00171713          	slli	a4,a4,0x1
    3c64:	01978cb3          	add	s9,a5,s9
    3c68:	01d12023          	sw	t4,0(sp)
    3c6c:	1147ae83          	lw	t4,276(a5)
    3c70:	01878d33          	add	s10,a5,s8
    3c74:	00dc8cb3          	add	s9,s9,a3
    3c78:	02a12623          	sw	a0,44(sp)
    3c7c:	01c78e33          	add	t3,a5,t3
    3c80:	00e78733          	add	a4,a5,a4
    3c84:	0dc7af83          	lw	t6,220(a5)
    3c88:	0e07a283          	lw	t0,224(a5)
    3c8c:	0e47a383          	lw	t2,228(a5)
    3c90:	0e87a503          	lw	a0,232(a5)
    3c94:	0ec7a403          	lw	s0,236(a5)
    3c98:	0f07a483          	lw	s1,240(a5)
    3c9c:	0f47a983          	lw	s3,244(a5)
    3ca0:	0f87a903          	lw	s2,248(a5)
    3ca4:	0fc7aa03          	lw	s4,252(a5)
    3ca8:	1007ab03          	lw	s6,256(a5)
    3cac:	1047ab83          	lw	s7,260(a5)
    3cb0:	1087ad83          	lw	s11,264(a5)
    3cb4:	10c7ac03          	lw	s8,268(a5)
    3cb8:	01912e23          	sw	s9,28(sp)
    3cbc:	00de0e33          	add	t3,t3,a3
    3cc0:	00dd0cb3          	add	s9,s10,a3
    3cc4:	00d70733          	add	a4,a4,a3
    3cc8:	01d12223          	sw	t4,4(sp)
    3ccc:	03912023          	sw	s9,32(sp)
    3cd0:	00400a93          	li	s5,4
    3cd4:	00100e93          	li	t4,1
    3cd8:	01c12c23          	sw	t3,24(sp)
    3cdc:	00e12623          	sw	a4,12(sp)
    3ce0:	00060c93          	mv	s9,a2
    3ce4:	00168713          	addi	a4,a3,1
    3ce8:	00400613          	li	a2,4
    3cec:	01300e13          	li	t3,19
    3cf0:	00e12823          	sw	a4,16(sp)
    3cf4:	01512a23          	sw	s5,20(sp)
    3cf8:	280f0863          	beqz	t5,3f88 <rotate_piece+0x458>
    3cfc:	28be4263          	blt	t3,a1,3f80 <rotate_piece+0x450>
    3d00:	00c12703          	lw	a4,12(sp)
    3d04:	00074703          	lbu	a4,0(a4)
    3d08:	26071c63          	bnez	a4,3f80 <rotate_piece+0x450>
    3d0c:	00168a93          	addi	s5,a3,1
    3d10:	020f8063          	beqz	t6,3d30 <rotate_piece+0x200>
    3d14:	00812703          	lw	a4,8(sp)
    3d18:	00b70733          	add	a4,a4,a1
    3d1c:	00171713          	slli	a4,a4,0x1
    3d20:	00e78733          	add	a4,a5,a4
    3d24:	01570733          	add	a4,a4,s5
    3d28:	00074703          	lbu	a4,0(a4)
    3d2c:	24071a63          	bnez	a4,3f80 <rotate_piece+0x450>
    3d30:	34028263          	beqz	t0,4074 <rotate_piece+0x544>
    3d34:	00268d13          	addi	s10,a3,2
    3d38:	00259713          	slli	a4,a1,0x2
    3d3c:	00b70ab3          	add	s5,a4,a1
    3d40:	001a9a93          	slli	s5,s5,0x1
    3d44:	01578ab3          	add	s5,a5,s5
    3d48:	01aa8ab3          	add	s5,s5,s10
    3d4c:	000aca83          	lbu	s5,0(s5)
    3d50:	220a9863          	bnez	s5,3f80 <rotate_piece+0x450>
    3d54:	00368a93          	addi	s5,a3,3
    3d58:	00038e63          	beqz	t2,3d74 <rotate_piece+0x244>
    3d5c:	00b70733          	add	a4,a4,a1
    3d60:	00171713          	slli	a4,a4,0x1
    3d64:	00e78733          	add	a4,a5,a4
    3d68:	01570733          	add	a4,a4,s5
    3d6c:	00074703          	lbu	a4,0(a4)
    3d70:	20071863          	bnez	a4,3f80 <rotate_piece+0x450>
    3d74:	22050463          	beqz	a0,3f9c <rotate_piece+0x46c>
    3d78:	210e4463          	blt	t3,a6,3f80 <rotate_piece+0x450>
    3d7c:	01812703          	lw	a4,24(sp)
    3d80:	00074703          	lbu	a4,0(a4)
    3d84:	1e071e63          	bnez	a4,3f80 <rotate_piece+0x450>
    3d88:	00168d13          	addi	s10,a3,1
    3d8c:	22041063          	bnez	s0,3fac <rotate_piece+0x47c>
    3d90:	38048a63          	beqz	s1,4124 <rotate_piece+0x5f4>
    3d94:	00268d13          	addi	s10,a3,2
    3d98:	02412703          	lw	a4,36(sp)
    3d9c:	01070ab3          	add	s5,a4,a6
    3da0:	001a9a93          	slli	s5,s5,0x1
    3da4:	01578ab3          	add	s5,a5,s5
    3da8:	01aa8ab3          	add	s5,s5,s10
    3dac:	000aca83          	lbu	s5,0(s5)
    3db0:	1c0a9863          	bnez	s5,3f80 <rotate_piece+0x450>
    3db4:	00368a93          	addi	s5,a3,3
    3db8:	00098e63          	beqz	s3,3dd4 <rotate_piece+0x2a4>
    3dbc:	01070733          	add	a4,a4,a6
    3dc0:	00171713          	slli	a4,a4,0x1
    3dc4:	00e78733          	add	a4,a5,a4
    3dc8:	01570733          	add	a4,a4,s5
    3dcc:	00074703          	lbu	a4,0(a4)
    3dd0:	1a071863          	bnez	a4,3f80 <rotate_piece+0x450>
    3dd4:	20090663          	beqz	s2,3fe0 <rotate_piece+0x4b0>
    3dd8:	1a6e4463          	blt	t3,t1,3f80 <rotate_piece+0x450>
    3ddc:	01c12703          	lw	a4,28(sp)
    3de0:	00074703          	lbu	a4,0(a4)
    3de4:	18071e63          	bnez	a4,3f80 <rotate_piece+0x450>
    3de8:	00168d13          	addi	s10,a3,1
    3dec:	200a1263          	bnez	s4,3ff0 <rotate_piece+0x4c0>
    3df0:	00268d13          	addi	s10,a3,2
    3df4:	240b1063          	bnez	s6,4034 <rotate_piece+0x504>
    3df8:	020b8263          	beqz	s7,3e1c <rotate_piece+0x2ec>
    3dfc:	00368a93          	addi	s5,a3,3
    3e00:	00231713          	slli	a4,t1,0x2
    3e04:	00670733          	add	a4,a4,t1
    3e08:	00171713          	slli	a4,a4,0x1
    3e0c:	00e78733          	add	a4,a5,a4
    3e10:	01570733          	add	a4,a4,s5
    3e14:	00074703          	lbu	a4,0(a4)
    3e18:	16071463          	bnez	a4,3f80 <rotate_piece+0x450>
    3e1c:	240d8063          	beqz	s11,405c <rotate_piece+0x52c>
    3e20:	171e4063          	blt	t3,a7,3f80 <rotate_piece+0x450>
    3e24:	02012703          	lw	a4,32(sp)
    3e28:	00074703          	lbu	a4,0(a4)
    3e2c:	14071a63          	bnez	a4,3f80 <rotate_piece+0x450>
    3e30:	2a0c0063          	beqz	s8,40d0 <rotate_piece+0x5a0>
    3e34:	00168d13          	addi	s10,a3,1
    3e38:	00289713          	slli	a4,a7,0x2
    3e3c:	01170ab3          	add	s5,a4,a7
    3e40:	001a9a93          	slli	s5,s5,0x1
    3e44:	01578ab3          	add	s5,a5,s5
    3e48:	01aa8ab3          	add	s5,s5,s10
    3e4c:	000aca83          	lbu	s5,0(s5)
    3e50:	120a9863          	bnez	s5,3f80 <rotate_piece+0x450>
    3e54:	00012a83          	lw	s5,0(sp)
    3e58:	280a8663          	beqz	s5,40e4 <rotate_piece+0x5b4>
    3e5c:	00268d13          	addi	s10,a3,2
    3e60:	01170ab3          	add	s5,a4,a7
    3e64:	001a9a93          	slli	s5,s5,0x1
    3e68:	01578ab3          	add	s5,a5,s5
    3e6c:	01aa8ab3          	add	s5,s5,s10
    3e70:	000aca83          	lbu	s5,0(s5)
    3e74:	100a9663          	bnez	s5,3f80 <rotate_piece+0x450>
    3e78:	00412a83          	lw	s5,4(sp)
    3e7c:	020a8463          	beqz	s5,3ea4 <rotate_piece+0x374>
    3e80:	00368a93          	addi	s5,a3,3
    3e84:	01170733          	add	a4,a4,a7
    3e88:	00171713          	slli	a4,a4,0x1
    3e8c:	00e78733          	add	a4,a5,a4
    3e90:	01570733          	add	a4,a4,s5
    3e94:	00074703          	lbu	a4,0(a4)
    3e98:	00173713          	seqz	a4,a4
    3e9c:	40e00733          	neg	a4,a4
    3ea0:	00eefeb3          	and	t4,t4,a4
    3ea4:	fff60613          	addi	a2,a2,-1
    3ea8:	e40618e3          	bnez	a2,3cf8 <rotate_piece+0x1c8>
    3eac:	01412a83          	lw	s5,20(sp)
    3eb0:	fffa8a93          	addi	s5,s5,-1
    3eb4:	e20a98e3          	bnez	s5,3ce4 <rotate_piece+0x1b4>
    3eb8:	080e8263          	beqz	t4,3f3c <rotate_piece+0x40c>
    3ebc:	04412783          	lw	a5,68(sp)
    3ec0:	00fcaa23          	sw	a5,20(s9)
    3ec4:	04812783          	lw	a5,72(sp)
    3ec8:	00fcac23          	sw	a5,24(s9)
    3ecc:	04012783          	lw	a5,64(sp)
    3ed0:	00fca823          	sw	a5,16(s9)
    3ed4:	04c12783          	lw	a5,76(sp)
    3ed8:	00fcae23          	sw	a5,28(s9)
    3edc:	05012783          	lw	a5,80(sp)
    3ee0:	02fca023          	sw	a5,32(s9)
    3ee4:	05412783          	lw	a5,84(sp)
    3ee8:	02fca223          	sw	a5,36(s9)
    3eec:	05812783          	lw	a5,88(sp)
    3ef0:	02fca423          	sw	a5,40(s9)
    3ef4:	05c12783          	lw	a5,92(sp)
    3ef8:	02fca623          	sw	a5,44(s9)
    3efc:	06012783          	lw	a5,96(sp)
    3f00:	02fca823          	sw	a5,48(s9)
    3f04:	06412783          	lw	a5,100(sp)
    3f08:	02fcaa23          	sw	a5,52(s9)
    3f0c:	06812783          	lw	a5,104(sp)
    3f10:	02fcac23          	sw	a5,56(s9)
    3f14:	06c12783          	lw	a5,108(sp)
    3f18:	02fcae23          	sw	a5,60(s9)
    3f1c:	07012783          	lw	a5,112(sp)
    3f20:	04fca023          	sw	a5,64(s9)
    3f24:	07412783          	lw	a5,116(sp)
    3f28:	04fca223          	sw	a5,68(s9)
    3f2c:	07812783          	lw	a5,120(sp)
    3f30:	04fca423          	sw	a5,72(s9)
    3f34:	07c12783          	lw	a5,124(sp)
    3f38:	04fca623          	sw	a5,76(s9)
    3f3c:	0ac12403          	lw	s0,172(sp)
    3f40:	0a812483          	lw	s1,168(sp)
    3f44:	0a412903          	lw	s2,164(sp)
    3f48:	0a012983          	lw	s3,160(sp)
    3f4c:	09c12a03          	lw	s4,156(sp)
    3f50:	09812a83          	lw	s5,152(sp)
    3f54:	09412b03          	lw	s6,148(sp)
    3f58:	09012b83          	lw	s7,144(sp)
    3f5c:	08c12c03          	lw	s8,140(sp)
    3f60:	08812c83          	lw	s9,136(sp)
    3f64:	08412d03          	lw	s10,132(sp)
    3f68:	08012d83          	lw	s11,128(sp)
    3f6c:	0b010113          	addi	sp,sp,176
    3f70:	00008067          	ret
    3f74:	e00380e3          	beqz	t2,3d74 <rotate_piece+0x244>
    3f78:	01300713          	li	a4,19
    3f7c:	1eb75463          	bge	a4,a1,4164 <rotate_piece+0x634>
    3f80:	00000e93          	li	t4,0
    3f84:	f21ff06f          	j	3ea4 <rotate_piece+0x374>
    3f88:	0e0f8e63          	beqz	t6,4084 <rotate_piece+0x554>
    3f8c:	01012a83          	lw	s5,16(sp)
    3f90:	d8be52e3          	bge	t3,a1,3d14 <rotate_piece+0x1e4>
    3f94:	00000e93          	li	t4,0
    3f98:	f0dff06f          	j	3ea4 <rotate_piece+0x374>
    3f9c:	10040063          	beqz	s0,409c <rotate_piece+0x56c>
    3fa0:	01300713          	li	a4,19
    3fa4:	00168d13          	addi	s10,a3,1
    3fa8:	fd074ce3          	blt	a4,a6,3f80 <rotate_piece+0x450>
    3fac:	00281713          	slli	a4,a6,0x2
    3fb0:	01070ab3          	add	s5,a4,a6
    3fb4:	001a9a93          	slli	s5,s5,0x1
    3fb8:	01578ab3          	add	s5,a5,s5
    3fbc:	01aa8ab3          	add	s5,s5,s10
    3fc0:	000aca83          	lbu	s5,0(s5)
    3fc4:	fa0a9ee3          	bnez	s5,3f80 <rotate_piece+0x450>
    3fc8:	00268d13          	addi	s10,a3,2
    3fcc:	dc0498e3          	bnez	s1,3d9c <rotate_piece+0x26c>
    3fd0:	e00982e3          	beqz	s3,3dd4 <rotate_piece+0x2a4>
    3fd4:	02412703          	lw	a4,36(sp)
    3fd8:	00368a93          	addi	s5,a3,3
    3fdc:	de1ff06f          	j	3dbc <rotate_piece+0x28c>
    3fe0:	040a0263          	beqz	s4,4024 <rotate_piece+0x4f4>
    3fe4:	01300713          	li	a4,19
    3fe8:	00168d13          	addi	s10,a3,1
    3fec:	f8674ae3          	blt	a4,t1,3f80 <rotate_piece+0x450>
    3ff0:	00231713          	slli	a4,t1,0x2
    3ff4:	00670ab3          	add	s5,a4,t1
    3ff8:	001a9a93          	slli	s5,s5,0x1
    3ffc:	01578ab3          	add	s5,a5,s5
    4000:	01aa8ab3          	add	s5,s5,s10
    4004:	000aca83          	lbu	s5,0(s5)
    4008:	f60a9ce3          	bnez	s5,3f80 <rotate_piece+0x450>
    400c:	00268d13          	addi	s10,a3,2
    4010:	020b1463          	bnez	s6,4038 <rotate_piece+0x508>
    4014:	e00b84e3          	beqz	s7,3e1c <rotate_piece+0x2ec>
    4018:	02812703          	lw	a4,40(sp)
    401c:	00368a93          	addi	s5,a3,3
    4020:	de5ff06f          	j	3e04 <rotate_piece+0x2d4>
    4024:	0e0b0663          	beqz	s6,4110 <rotate_piece+0x5e0>
    4028:	01300713          	li	a4,19
    402c:	00268d13          	addi	s10,a3,2
    4030:	f46748e3          	blt	a4,t1,3f80 <rotate_piece+0x450>
    4034:	02812703          	lw	a4,40(sp)
    4038:	00670ab3          	add	s5,a4,t1
    403c:	001a9a93          	slli	s5,s5,0x1
    4040:	01578ab3          	add	s5,a5,s5
    4044:	01aa8ab3          	add	s5,s5,s10
    4048:	000aca83          	lbu	s5,0(s5)
    404c:	f20a9ae3          	bnez	s5,3f80 <rotate_piece+0x450>
    4050:	00368a93          	addi	s5,a3,3
    4054:	da0b98e3          	bnez	s7,3e04 <rotate_piece+0x2d4>
    4058:	dc0d94e3          	bnez	s11,3e20 <rotate_piece+0x2f0>
    405c:	040c0c63          	beqz	s8,40b4 <rotate_piece+0x584>
    4060:	01300713          	li	a4,19
    4064:	00168d13          	addi	s10,a3,1
    4068:	dd1758e3          	bge	a4,a7,3e38 <rotate_piece+0x308>
    406c:	00000e93          	li	t4,0
    4070:	e35ff06f          	j	3ea4 <rotate_piece+0x374>
    4074:	d00380e3          	beqz	t2,3d74 <rotate_piece+0x244>
    4078:	00812703          	lw	a4,8(sp)
    407c:	00368a93          	addi	s5,a3,3
    4080:	cddff06f          	j	3d5c <rotate_piece+0x22c>
    4084:	ee0288e3          	beqz	t0,3f74 <rotate_piece+0x444>
    4088:	01300713          	li	a4,19
    408c:	00268d13          	addi	s10,a3,2
    4090:	cab754e3          	bge	a4,a1,3d38 <rotate_piece+0x208>
    4094:	00000e93          	li	t4,0
    4098:	e0dff06f          	j	3ea4 <rotate_piece+0x374>
    409c:	04048e63          	beqz	s1,40f8 <rotate_piece+0x5c8>
    40a0:	01300713          	li	a4,19
    40a4:	00268d13          	addi	s10,a3,2
    40a8:	cf0758e3          	bge	a4,a6,3d98 <rotate_piece+0x268>
    40ac:	00000e93          	li	t4,0
    40b0:	df5ff06f          	j	3ea4 <rotate_piece+0x374>
    40b4:	00012703          	lw	a4,0(sp)
    40b8:	06070e63          	beqz	a4,4134 <rotate_piece+0x604>
    40bc:	01300713          	li	a4,19
    40c0:	00268d13          	addi	s10,a3,2
    40c4:	eb174ee3          	blt	a4,a7,3f80 <rotate_piece+0x450>
    40c8:	02c12703          	lw	a4,44(sp)
    40cc:	d95ff06f          	j	3e60 <rotate_piece+0x330>
    40d0:	00012703          	lw	a4,0(sp)
    40d4:	06070e63          	beqz	a4,4150 <rotate_piece+0x620>
    40d8:	02c12703          	lw	a4,44(sp)
    40dc:	00268d13          	addi	s10,a3,2
    40e0:	d81ff06f          	j	3e60 <rotate_piece+0x330>
    40e4:	00412703          	lw	a4,4(sp)
    40e8:	da070ee3          	beqz	a4,3ea4 <rotate_piece+0x374>
    40ec:	02c12703          	lw	a4,44(sp)
    40f0:	00368a93          	addi	s5,a3,3
    40f4:	d91ff06f          	j	3e84 <rotate_piece+0x354>
    40f8:	cc098ee3          	beqz	s3,3dd4 <rotate_piece+0x2a4>
    40fc:	01300713          	li	a4,19
    4100:	e90740e3          	blt	a4,a6,3f80 <rotate_piece+0x450>
    4104:	00368a93          	addi	s5,a3,3
    4108:	00281713          	slli	a4,a6,0x2
    410c:	cb1ff06f          	j	3dbc <rotate_piece+0x28c>
    4110:	d00b86e3          	beqz	s7,3e1c <rotate_piece+0x2ec>
    4114:	01300713          	li	a4,19
    4118:	ce6752e3          	bge	a4,t1,3dfc <rotate_piece+0x2cc>
    411c:	00000e93          	li	t4,0
    4120:	d85ff06f          	j	3ea4 <rotate_piece+0x374>
    4124:	ca0988e3          	beqz	s3,3dd4 <rotate_piece+0x2a4>
    4128:	00368a93          	addi	s5,a3,3
    412c:	00281713          	slli	a4,a6,0x2
    4130:	c8dff06f          	j	3dbc <rotate_piece+0x28c>
    4134:	00412703          	lw	a4,4(sp)
    4138:	d60706e3          	beqz	a4,3ea4 <rotate_piece+0x374>
    413c:	01300713          	li	a4,19
    4140:	e51740e3          	blt	a4,a7,3f80 <rotate_piece+0x450>
    4144:	00368a93          	addi	s5,a3,3
    4148:	00289713          	slli	a4,a7,0x2
    414c:	d39ff06f          	j	3e84 <rotate_piece+0x354>
    4150:	00412703          	lw	a4,4(sp)
    4154:	d40708e3          	beqz	a4,3ea4 <rotate_piece+0x374>
    4158:	00368a93          	addi	s5,a3,3
    415c:	00289713          	slli	a4,a7,0x2
    4160:	d25ff06f          	j	3e84 <rotate_piece+0x354>
    4164:	00368a93          	addi	s5,a3,3
    4168:	00259713          	slli	a4,a1,0x2
    416c:	bf1ff06f          	j	3d5c <rotate_piece+0x22c>

00004170 <move_piece>:
    4170:	040007b7          	lui	a5,0x4000
    4174:	0107a703          	lw	a4,16(a5) # 4000010 <_stack_end+0x3ef2e70>
    4178:	01052683          	lw	a3,16(a0)
    417c:	fc010113          	addi	sp,sp,-64
    4180:	3ff77713          	andi	a4,a4,1023
    4184:	02812c23          	sw	s0,56(sp)
    4188:	03212823          	sw	s2,48(sp)
    418c:	02112e23          	sw	ra,60(sp)
    4190:	02912a23          	sw	s1,52(sp)
    4194:	00e12623          	sw	a4,12(sp)
    4198:	01452783          	lw	a5,20(a0)
    419c:	01852903          	lw	s2,24(a0)
    41a0:	00050413          	mv	s0,a0
    41a4:	04068a63          	beqz	a3,41f8 <move_piece+0x88>
    41a8:	04079a63          	bnez	a5,41fc <move_piece+0x8c>
    41ac:	06091c63          	bnez	s2,4224 <move_piece+0xb4>
    41b0:	00100913          	li	s2,1
    41b4:	01c42783          	lw	a5,28(s0)
    41b8:	12078463          	beqz	a5,42e0 <move_piece+0x170>
    41bc:	00400913          	li	s2,4
    41c0:	02c42783          	lw	a5,44(s0)
    41c4:	06079a63          	bnez	a5,4238 <move_piece+0xc8>
    41c8:	03042703          	lw	a4,48(s0)
    41cc:	03442683          	lw	a3,52(s0)
    41d0:	03842783          	lw	a5,56(s0)
    41d4:	72070663          	beqz	a4,4900 <move_piece+0x790>
    41d8:	72091463          	bnez	s2,4900 <move_piece+0x790>
    41dc:	72069863          	bnez	a3,490c <move_piece+0x79c>
    41e0:	00100913          	li	s2,1
    41e4:	04078c63          	beqz	a5,423c <move_piece+0xcc>
    41e8:	03c42903          	lw	s2,60(s0)
    41ec:	01203933          	snez	s2,s2
    41f0:	00390913          	addi	s2,s2,3
    41f4:	1240006f          	j	4318 <move_piece+0x1a8>
    41f8:	02078463          	beqz	a5,4220 <move_piece+0xb0>
    41fc:	02091463          	bnez	s2,4224 <move_piece+0xb4>
    4200:	01c42783          	lw	a5,28(s0)
    4204:	fa079ce3          	bnez	a5,41bc <move_piece+0x4c>
    4208:	02042703          	lw	a4,32(s0)
    420c:	02842783          	lw	a5,40(s0)
    4210:	00200913          	li	s2,2
    4214:	7a0710e3          	bnez	a4,51b4 <move_piece+0x1044>
    4218:	fa0784e3          	beqz	a5,41c0 <move_piece+0x50>
    421c:	0e40006f          	j	4300 <move_piece+0x190>
    4220:	f8090ae3          	beqz	s2,41b4 <move_piece+0x44>
    4224:	01c42903          	lw	s2,28(s0)
    4228:	02c42783          	lw	a5,44(s0)
    422c:	01203933          	snez	s2,s2
    4230:	00390913          	addi	s2,s2,3
    4234:	f8078ae3          	beqz	a5,41c8 <move_piece+0x58>
    4238:	00400913          	li	s2,4
    423c:	03c42783          	lw	a5,60(s0)
    4240:	0c079a63          	bnez	a5,4314 <move_piece+0x1a4>
    4244:	04042703          	lw	a4,64(s0)
    4248:	04442683          	lw	a3,68(s0)
    424c:	04842783          	lw	a5,72(s0)
    4250:	68070663          	beqz	a4,48dc <move_piece+0x76c>
    4254:	68091463          	bnez	s2,48dc <move_piece+0x76c>
    4258:	68069863          	bnez	a3,48e8 <move_piece+0x778>
    425c:	00100913          	li	s2,1
    4260:	0a078c63          	beqz	a5,4318 <move_piece+0x1a8>
    4264:	000074b7          	lui	s1,0x7
    4268:	14c48493          	addi	s1,s1,332 # 714c <grid>
    426c:	04c42903          	lw	s2,76(s0)
    4270:	0d84a783          	lw	a5,216(s1)
    4274:	0d04a683          	lw	a3,208(s1)
    4278:	01203933          	snez	s2,s2
    427c:	0cc4a703          	lw	a4,204(s1)
    4280:	00390913          	addi	s2,s2,3
    4284:	0a079c63          	bnez	a5,433c <move_piece+0x1cc>
    4288:	0dc4a783          	lw	a5,220(s1)
    428c:	60078463          	beqz	a5,4894 <move_piece+0x724>
    4290:	00168513          	addi	a0,a3,1
    4294:	01300793          	li	a5,19
    4298:	00050593          	mv	a1,a0
    429c:	00170813          	addi	a6,a4,1
    42a0:	5ca7ce63          	blt	a5,a0,487c <move_piece+0x70c>
    42a4:	00251793          	slli	a5,a0,0x2
    42a8:	00a78633          	add	a2,a5,a0
    42ac:	00161613          	slli	a2,a2,0x1
    42b0:	00c48633          	add	a2,s1,a2
    42b4:	01060633          	add	a2,a2,a6
    42b8:	00064603          	lbu	a2,0(a2)
    42bc:	5c061063          	bnez	a2,487c <move_piece+0x70c>
    42c0:	0e04a603          	lw	a2,224(s1)
    42c4:	5e061863          	bnez	a2,48b4 <move_piece+0x744>
    42c8:	0e44a783          	lw	a5,228(s1)
    42cc:	0e078863          	beqz	a5,43bc <move_piece+0x24c>
    42d0:	00050593          	mv	a1,a0
    42d4:	00370613          	addi	a2,a4,3
    42d8:	00251793          	slli	a5,a0,0x2
    42dc:	0c80006f          	j	43a4 <move_piece+0x234>
    42e0:	02042683          	lw	a3,32(s0)
    42e4:	02442703          	lw	a4,36(s0)
    42e8:	02842783          	lw	a5,40(s0)
    42ec:	5c068863          	beqz	a3,48bc <move_piece+0x74c>
    42f0:	5c091663          	bnez	s2,48bc <move_piece+0x74c>
    42f4:	5c071663          	bnez	a4,48c0 <move_piece+0x750>
    42f8:	00100913          	li	s2,1
    42fc:	ec0782e3          	beqz	a5,41c0 <move_piece+0x50>
    4300:	02c42903          	lw	s2,44(s0)
    4304:	03c42783          	lw	a5,60(s0)
    4308:	01203933          	snez	s2,s2
    430c:	00390913          	addi	s2,s2,3
    4310:	f2078ae3          	beqz	a5,4244 <move_piece+0xd4>
    4314:	00400913          	li	s2,4
    4318:	04c42783          	lw	a5,76(s0)
    431c:	00078463          	beqz	a5,4324 <move_piece+0x1b4>
    4320:	00400913          	li	s2,4
    4324:	000074b7          	lui	s1,0x7
    4328:	14c48493          	addi	s1,s1,332 # 714c <grid>
    432c:	0d84a783          	lw	a5,216(s1)
    4330:	0d04a683          	lw	a3,208(s1)
    4334:	0cc4a703          	lw	a4,204(s1)
    4338:	f40788e3          	beqz	a5,4288 <move_piece+0x118>
    433c:	00168593          	addi	a1,a3,1
    4340:	01300793          	li	a5,19
    4344:	00058513          	mv	a0,a1
    4348:	52b7ca63          	blt	a5,a1,487c <move_piece+0x70c>
    434c:	00259793          	slli	a5,a1,0x2
    4350:	00b78633          	add	a2,a5,a1
    4354:	00161613          	slli	a2,a2,0x1
    4358:	00c48633          	add	a2,s1,a2
    435c:	00e60633          	add	a2,a2,a4
    4360:	00064603          	lbu	a2,0(a2)
    4364:	50061c63          	bnez	a2,487c <move_piece+0x70c>
    4368:	0dc4a603          	lw	a2,220(s1)
    436c:	00170813          	addi	a6,a4,1
    4370:	f2061ce3          	bnez	a2,42a8 <move_piece+0x138>
    4374:	0e04a603          	lw	a2,224(s1)
    4378:	00270513          	addi	a0,a4,2
    437c:	00060e63          	beqz	a2,4398 <move_piece+0x228>
    4380:	00b78633          	add	a2,a5,a1
    4384:	00161613          	slli	a2,a2,0x1
    4388:	00c48633          	add	a2,s1,a2
    438c:	00a60633          	add	a2,a2,a0
    4390:	00064603          	lbu	a2,0(a2)
    4394:	4e061463          	bnez	a2,487c <move_piece+0x70c>
    4398:	0e44a603          	lw	a2,228(s1)
    439c:	02060063          	beqz	a2,43bc <move_piece+0x24c>
    43a0:	00370613          	addi	a2,a4,3
    43a4:	00b787b3          	add	a5,a5,a1
    43a8:	00179793          	slli	a5,a5,0x1
    43ac:	00f487b3          	add	a5,s1,a5
    43b0:	00c787b3          	add	a5,a5,a2
    43b4:	0007c783          	lbu	a5,0(a5)
    43b8:	4c079263          	bnez	a5,487c <move_piece+0x70c>
    43bc:	0e84a783          	lw	a5,232(s1)
    43c0:	64078e63          	beqz	a5,4a1c <move_piece+0x8ac>
    43c4:	00268593          	addi	a1,a3,2
    43c8:	01300793          	li	a5,19
    43cc:	00058513          	mv	a0,a1
    43d0:	4ab7c663          	blt	a5,a1,487c <move_piece+0x70c>
    43d4:	00259793          	slli	a5,a1,0x2
    43d8:	00b78633          	add	a2,a5,a1
    43dc:	00161613          	slli	a2,a2,0x1
    43e0:	00c48633          	add	a2,s1,a2
    43e4:	00e60633          	add	a2,a2,a4
    43e8:	00064603          	lbu	a2,0(a2)
    43ec:	48061863          	bnez	a2,487c <move_piece+0x70c>
    43f0:	0ec4a603          	lw	a2,236(s1)
    43f4:	00170813          	addi	a6,a4,1
    43f8:	64061263          	bnez	a2,4a3c <move_piece+0x8cc>
    43fc:	0f04a603          	lw	a2,240(s1)
    4400:	54061463          	bnez	a2,4948 <move_piece+0x7d8>
    4404:	0f44a603          	lw	a2,244(s1)
    4408:	02060063          	beqz	a2,4428 <move_piece+0x2b8>
    440c:	00370613          	addi	a2,a4,3
    4410:	00b787b3          	add	a5,a5,a1
    4414:	00179793          	slli	a5,a5,0x1
    4418:	00f487b3          	add	a5,s1,a5
    441c:	00c787b3          	add	a5,a5,a2
    4420:	0007c783          	lbu	a5,0(a5)
    4424:	44079c63          	bnez	a5,487c <move_piece+0x70c>
    4428:	0f84a783          	lw	a5,248(s1)
    442c:	76078663          	beqz	a5,4b98 <move_piece+0xa28>
    4430:	00368593          	addi	a1,a3,3
    4434:	01300793          	li	a5,19
    4438:	00058513          	mv	a0,a1
    443c:	44b7c063          	blt	a5,a1,487c <move_piece+0x70c>
    4440:	00259793          	slli	a5,a1,0x2
    4444:	00b78633          	add	a2,a5,a1
    4448:	00161613          	slli	a2,a2,0x1
    444c:	00c48633          	add	a2,s1,a2
    4450:	00e60633          	add	a2,a2,a4
    4454:	00064603          	lbu	a2,0(a2)
    4458:	42061263          	bnez	a2,487c <move_piece+0x70c>
    445c:	0fc4a603          	lw	a2,252(s1)
    4460:	00170813          	addi	a6,a4,1
    4464:	74061a63          	bnez	a2,4bb8 <move_piece+0xa48>
    4468:	1004a603          	lw	a2,256(s1)
    446c:	00270513          	addi	a0,a4,2
    4470:	00060e63          	beqz	a2,448c <move_piece+0x31c>
    4474:	00b78633          	add	a2,a5,a1
    4478:	00161613          	slli	a2,a2,0x1
    447c:	00c48633          	add	a2,s1,a2
    4480:	00a60633          	add	a2,a2,a0
    4484:	00064603          	lbu	a2,0(a2)
    4488:	3e061a63          	bnez	a2,487c <move_piece+0x70c>
    448c:	1044a603          	lw	a2,260(s1)
    4490:	02060063          	beqz	a2,44b0 <move_piece+0x340>
    4494:	00370613          	addi	a2,a4,3
    4498:	00b787b3          	add	a5,a5,a1
    449c:	00179793          	slli	a5,a5,0x1
    44a0:	00f487b3          	add	a5,s1,a5
    44a4:	00c787b3          	add	a5,a5,a2
    44a8:	0007c783          	lbu	a5,0(a5)
    44ac:	3c079863          	bnez	a5,487c <move_piece+0x70c>
    44b0:	1084a783          	lw	a5,264(s1)
    44b4:	74078263          	beqz	a5,4bf8 <move_piece+0xa88>
    44b8:	00468693          	addi	a3,a3,4
    44bc:	01300793          	li	a5,19
    44c0:	00068593          	mv	a1,a3
    44c4:	3ad7cc63          	blt	a5,a3,487c <move_piece+0x70c>
    44c8:	00269793          	slli	a5,a3,0x2
    44cc:	00d78633          	add	a2,a5,a3
    44d0:	00161613          	slli	a2,a2,0x1
    44d4:	00c48633          	add	a2,s1,a2
    44d8:	00e60633          	add	a2,a2,a4
    44dc:	00064603          	lbu	a2,0(a2)
    44e0:	38061e63          	bnez	a2,487c <move_piece+0x70c>
    44e4:	10c4a603          	lw	a2,268(s1)
    44e8:	78060263          	beqz	a2,4c6c <move_piece+0xafc>
    44ec:	00170513          	addi	a0,a4,1
    44f0:	00b78633          	add	a2,a5,a1
    44f4:	00161613          	slli	a2,a2,0x1
    44f8:	00c48633          	add	a2,s1,a2
    44fc:	00a60633          	add	a2,a2,a0
    4500:	00064603          	lbu	a2,0(a2)
    4504:	36061c63          	bnez	a2,487c <move_piece+0x70c>
    4508:	1104a603          	lw	a2,272(s1)
    450c:	76061463          	bnez	a2,4c74 <move_piece+0xb04>
    4510:	1144a783          	lw	a5,276(s1)
    4514:	02078463          	beqz	a5,453c <move_piece+0x3cc>
    4518:	00058693          	mv	a3,a1
    451c:	00370713          	addi	a4,a4,3
    4520:	00259793          	slli	a5,a1,0x2
    4524:	00d787b3          	add	a5,a5,a3
    4528:	00179793          	slli	a5,a5,0x1
    452c:	00f487b3          	add	a5,s1,a5
    4530:	00e787b3          	add	a5,a5,a4
    4534:	0007c783          	lbu	a5,0(a5)
    4538:	34079263          	bnez	a5,487c <move_piece+0x70c>
    453c:	00c12783          	lw	a5,12(sp)
    4540:	0017f793          	andi	a5,a5,1
    4544:	18079ce3          	bnez	a5,4edc <move_piece+0xd6c>
    4548:	00c12783          	lw	a5,12(sp)
    454c:	0027f793          	andi	a5,a5,2
    4550:	7a079663          	bnez	a5,4cfc <move_piece+0xb8c>
    4554:	00c12783          	lw	a5,12(sp)
    4558:	0047f793          	andi	a5,a5,4
    455c:	32078063          	beqz	a5,487c <move_piece+0x70c>
    4560:	00040513          	mv	a0,s0
    4564:	03312623          	sw	s3,44(sp)
    4568:	03412423          	sw	s4,40(sp)
    456c:	03512223          	sw	s5,36(sp)
    4570:	03612023          	sw	s6,32(sp)
    4574:	01712e23          	sw	s7,28(sp)
    4578:	fe9fb0ef          	jal	560 <update_shape.constprop.0>
    457c:	00842603          	lw	a2,8(s0)
    4580:	00442e83          	lw	t4,4(s0)
    4584:	01042f83          	lw	t6,16(s0)
    4588:	00261513          	slli	a0,a2,0x2
    458c:	00c50533          	add	a0,a0,a2
    4590:	00ae8793          	addi	a5,t4,10
    4594:	00151513          	slli	a0,a0,0x1
    4598:	00f50533          	add	a0,a0,a5
    459c:	00460813          	addi	a6,a2,4
    45a0:	00160793          	addi	a5,a2,1
    45a4:	00360593          	addi	a1,a2,3
    45a8:	00a48533          	add	a0,s1,a0
    45ac:	00260613          	addi	a2,a2,2
    45b0:	001e8313          	addi	t1,t4,1
    45b4:	01300893          	li	a7,19
    45b8:	002e8f13          	addi	t5,t4,2
    45bc:	003e8e13          	addi	t3,t4,3
    45c0:	1a0f8063          	beqz	t6,4760 <move_piece+0x5f0>
    45c4:	4cf8c063          	blt	a7,a5,4a84 <move_piece+0x914>
    45c8:	00054703          	lbu	a4,0(a0)
    45cc:	4a071c63          	bnez	a4,4a84 <move_piece+0x914>
    45d0:	01442703          	lw	a4,20(s0)
    45d4:	18071c63          	bnez	a4,476c <move_piece+0x5fc>
    45d8:	01842683          	lw	a3,24(s0)
    45dc:	00279713          	slli	a4,a5,0x2
    45e0:	38069c63          	bnez	a3,4978 <move_piece+0x808>
    45e4:	01c42703          	lw	a4,28(s0)
    45e8:	02070263          	beqz	a4,460c <move_piece+0x49c>
    45ec:	003e8693          	addi	a3,t4,3
    45f0:	00279713          	slli	a4,a5,0x2
    45f4:	00f70733          	add	a4,a4,a5
    45f8:	00171713          	slli	a4,a4,0x1
    45fc:	00e48733          	add	a4,s1,a4
    4600:	00d70733          	add	a4,a4,a3
    4604:	00074703          	lbu	a4,0(a4)
    4608:	46071e63          	bnez	a4,4a84 <move_piece+0x914>
    460c:	02042703          	lw	a4,32(s0)
    4610:	18070a63          	beqz	a4,47a4 <move_piece+0x634>
    4614:	46c8c863          	blt	a7,a2,4a84 <move_piece+0x914>
    4618:	00a54703          	lbu	a4,10(a0)
    461c:	46071463          	bnez	a4,4a84 <move_piece+0x914>
    4620:	02442703          	lw	a4,36(s0)
    4624:	18071663          	bnez	a4,47b0 <move_piece+0x640>
    4628:	02842703          	lw	a4,40(s0)
    462c:	2a0708e3          	beqz	a4,50dc <move_piece+0xf6c>
    4630:	002e8293          	addi	t0,t4,2
    4634:	00261713          	slli	a4,a2,0x2
    4638:	00c706b3          	add	a3,a4,a2
    463c:	00169693          	slli	a3,a3,0x1
    4640:	00d486b3          	add	a3,s1,a3
    4644:	005686b3          	add	a3,a3,t0
    4648:	0006c683          	lbu	a3,0(a3)
    464c:	42069c63          	bnez	a3,4a84 <move_piece+0x914>
    4650:	02c42683          	lw	a3,44(s0)
    4654:	02068063          	beqz	a3,4674 <move_piece+0x504>
    4658:	000e0693          	mv	a3,t3
    465c:	00c70733          	add	a4,a4,a2
    4660:	00171713          	slli	a4,a4,0x1
    4664:	00e48733          	add	a4,s1,a4
    4668:	00d70733          	add	a4,a4,a3
    466c:	00074703          	lbu	a4,0(a4)
    4670:	40071a63          	bnez	a4,4a84 <move_piece+0x914>
    4674:	03042703          	lw	a4,48(s0)
    4678:	32070463          	beqz	a4,49a0 <move_piece+0x830>
    467c:	40b8c463          	blt	a7,a1,4a84 <move_piece+0x914>
    4680:	01454703          	lbu	a4,20(a0)
    4684:	40071063          	bnez	a4,4a84 <move_piece+0x914>
    4688:	03442703          	lw	a4,52(s0)
    468c:	32071063          	bnez	a4,49ac <move_piece+0x83c>
    4690:	03842703          	lw	a4,56(s0)
    4694:	2a0704e3          	beqz	a4,513c <move_piece+0xfcc>
    4698:	002e8293          	addi	t0,t4,2
    469c:	00259713          	slli	a4,a1,0x2
    46a0:	00b706b3          	add	a3,a4,a1
    46a4:	00169693          	slli	a3,a3,0x1
    46a8:	00d486b3          	add	a3,s1,a3
    46ac:	005686b3          	add	a3,a3,t0
    46b0:	0006c683          	lbu	a3,0(a3)
    46b4:	3c069863          	bnez	a3,4a84 <move_piece+0x914>
    46b8:	03c42683          	lw	a3,60(s0)
    46bc:	02068063          	beqz	a3,46dc <move_piece+0x56c>
    46c0:	000e0693          	mv	a3,t3
    46c4:	00b70733          	add	a4,a4,a1
    46c8:	00171713          	slli	a4,a4,0x1
    46cc:	00e48733          	add	a4,s1,a4
    46d0:	00d70733          	add	a4,a4,a3
    46d4:	00074703          	lbu	a4,0(a4)
    46d8:	3a071663          	bnez	a4,4a84 <move_piece+0x914>
    46dc:	04042703          	lw	a4,64(s0)
    46e0:	30070263          	beqz	a4,49e4 <move_piece+0x874>
    46e4:	3b08c063          	blt	a7,a6,4a84 <move_piece+0x914>
    46e8:	01e54703          	lbu	a4,30(a0)
    46ec:	38071c63          	bnez	a4,4a84 <move_piece+0x914>
    46f0:	04442703          	lw	a4,68(s0)
    46f4:	2e071e63          	bnez	a4,49f0 <move_piece+0x880>
    46f8:	04842703          	lw	a4,72(s0)
    46fc:	240706e3          	beqz	a4,5148 <move_piece+0xfd8>
    4700:	002e8293          	addi	t0,t4,2
    4704:	00281713          	slli	a4,a6,0x2
    4708:	010706b3          	add	a3,a4,a6
    470c:	00169693          	slli	a3,a3,0x1
    4710:	00d486b3          	add	a3,s1,a3
    4714:	005686b3          	add	a3,a3,t0
    4718:	0006c683          	lbu	a3,0(a3)
    471c:	36069463          	bnez	a3,4a84 <move_piece+0x914>
    4720:	04c42283          	lw	t0,76(s0)
    4724:	000e0693          	mv	a3,t3
    4728:	00028e63          	beqz	t0,4744 <move_piece+0x5d4>
    472c:	01070733          	add	a4,a4,a6
    4730:	00171713          	slli	a4,a4,0x1
    4734:	00e48733          	add	a4,s1,a4
    4738:	00d70733          	add	a4,a4,a3
    473c:	00074703          	lbu	a4,0(a4)
    4740:	34071263          	bnez	a4,4a84 <move_piece+0x914>
    4744:	00f42423          	sw	a5,8(s0)
    4748:	00180813          	addi	a6,a6,1
    474c:	00178793          	addi	a5,a5,1
    4750:	00a50513          	addi	a0,a0,10
    4754:	00158593          	addi	a1,a1,1
    4758:	00160613          	addi	a2,a2,1
    475c:	e60f94e3          	bnez	t6,45c4 <move_piece+0x454>
    4760:	01442703          	lw	a4,20(s0)
    4764:	20070263          	beqz	a4,4968 <move_piece+0x7f8>
    4768:	30f8ce63          	blt	a7,a5,4a84 <move_piece+0x914>
    476c:	00279713          	slli	a4,a5,0x2
    4770:	00f706b3          	add	a3,a4,a5
    4774:	00169693          	slli	a3,a3,0x1
    4778:	00d486b3          	add	a3,s1,a3
    477c:	006686b3          	add	a3,a3,t1
    4780:	0006c683          	lbu	a3,0(a3)
    4784:	30069063          	bnez	a3,4a84 <move_piece+0x914>
    4788:	01842683          	lw	a3,24(s0)
    478c:	1e069663          	bnez	a3,4978 <move_piece+0x808>
    4790:	01c42283          	lw	t0,28(s0)
    4794:	000e0693          	mv	a3,t3
    4798:	e4029ee3          	bnez	t0,45f4 <move_piece+0x484>
    479c:	02042703          	lw	a4,32(s0)
    47a0:	e6071ae3          	bnez	a4,4614 <move_piece+0x4a4>
    47a4:	02442703          	lw	a4,36(s0)
    47a8:	2c070663          	beqz	a4,4a74 <move_piece+0x904>
    47ac:	2cc8cc63          	blt	a7,a2,4a84 <move_piece+0x914>
    47b0:	00261713          	slli	a4,a2,0x2
    47b4:	00c706b3          	add	a3,a4,a2
    47b8:	00169693          	slli	a3,a3,0x1
    47bc:	00d486b3          	add	a3,s1,a3
    47c0:	006686b3          	add	a3,a3,t1
    47c4:	0006c683          	lbu	a3,0(a3)
    47c8:	2a069e63          	bnez	a3,4a84 <move_piece+0x914>
    47cc:	02842683          	lw	a3,40(s0)
    47d0:	000f0293          	mv	t0,t5
    47d4:	e60692e3          	bnez	a3,4638 <move_piece+0x4c8>
    47d8:	02c42683          	lw	a3,44(s0)
    47dc:	e8068ce3          	beqz	a3,4674 <move_piece+0x504>
    47e0:	003e8693          	addi	a3,t4,3
    47e4:	e79ff06f          	j	465c <move_piece+0x4ec>
    47e8:	14872603          	lw	a2,328(a4)
    47ec:	00478913          	addi	s2,a5,4
    47f0:	00578813          	addi	a6,a5,5
    47f4:	00f60633          	add	a2,a2,a5
    47f8:	00d60023          	sb	a3,0(a2)
    47fc:	14872603          	lw	a2,328(a4)
    4800:	00678513          	addi	a0,a5,6
    4804:	00158593          	addi	a1,a1,1
    4808:	01760633          	add	a2,a2,s7
    480c:	00d60023          	sb	a3,0(a2)
    4810:	14872603          	lw	a2,328(a4)
    4814:	14078793          	addi	a5,a5,320
    4818:	01660633          	add	a2,a2,s6
    481c:	00d60023          	sb	a3,0(a2)
    4820:	14872603          	lw	a2,328(a4)
    4824:	01560633          	add	a2,a2,s5
    4828:	00d60023          	sb	a3,0(a2)
    482c:	14872603          	lw	a2,328(a4)
    4830:	01260633          	add	a2,a2,s2
    4834:	00d60023          	sb	a3,0(a2)
    4838:	14872603          	lw	a2,328(a4)
    483c:	01060633          	add	a2,a2,a6
    4840:	00d60023          	sb	a3,0(a2)
    4844:	14872603          	lw	a2,328(a4)
    4848:	00a60633          	add	a2,a2,a0
    484c:	00d60023          	sb	a3,0(a2)
    4850:	2be59863          	bne	a1,t5,4b00 <move_piece+0x990>
    4854:	00130313          	addi	t1,t1,1
    4858:	00488893          	addi	a7,a7,4
    485c:	24531e63          	bne	t1,t0,4ab8 <move_piece+0x948>
    4860:	001f8f93          	addi	t6,t6,1
    4864:	245f9463          	bne	t6,t0,4aac <move_piece+0x93c>
    4868:	02c12983          	lw	s3,44(sp)
    486c:	02812a03          	lw	s4,40(sp)
    4870:	02412a83          	lw	s5,36(sp)
    4874:	02012b03          	lw	s6,32(sp)
    4878:	01c12b83          	lw	s7,28(sp)
    487c:	03c12083          	lw	ra,60(sp)
    4880:	03812403          	lw	s0,56(sp)
    4884:	03412483          	lw	s1,52(sp)
    4888:	03012903          	lw	s2,48(sp)
    488c:	04010113          	addi	sp,sp,64
    4890:	00008067          	ret
    4894:	0e04a783          	lw	a5,224(s1)
    4898:	08078863          	beqz	a5,4928 <move_piece+0x7b8>
    489c:	00168593          	addi	a1,a3,1
    48a0:	01300793          	li	a5,19
    48a4:	00270513          	addi	a0,a4,2
    48a8:	fcb7cae3          	blt	a5,a1,487c <move_piece+0x70c>
    48ac:	00259793          	slli	a5,a1,0x2
    48b0:	ad1ff06f          	j	4380 <move_piece+0x210>
    48b4:	00270513          	addi	a0,a4,2
    48b8:	ac9ff06f          	j	4380 <move_piece+0x210>
    48bc:	94070ee3          	beqz	a4,4218 <move_piece+0xa8>
    48c0:	a40790e3          	bnez	a5,4300 <move_piece+0x190>
    48c4:	02c42783          	lw	a5,44(s0)
    48c8:	960798e3          	bnez	a5,4238 <move_piece+0xc8>
    48cc:	03842783          	lw	a5,56(s0)
    48d0:	00200913          	li	s2,2
    48d4:	90079ae3          	bnez	a5,41e8 <move_piece+0x78>
    48d8:	965ff06f          	j	423c <move_piece+0xcc>
    48dc:	38068063          	beqz	a3,4c5c <move_piece+0xaec>
    48e0:	00100713          	li	a4,1
    48e4:	37274c63          	blt	a4,s2,4c5c <move_piece+0xaec>
    48e8:	96079ee3          	bnez	a5,4264 <move_piece+0xf4>
    48ec:	04c42903          	lw	s2,76(s0)
    48f0:	01203933          	snez	s2,s2
    48f4:	00191913          	slli	s2,s2,0x1
    48f8:	00290913          	addi	s2,s2,2
    48fc:	a29ff06f          	j	4324 <move_piece+0x1b4>
    4900:	34068663          	beqz	a3,4c4c <move_piece+0xadc>
    4904:	00100713          	li	a4,1
    4908:	35274263          	blt	a4,s2,4c4c <move_piece+0xadc>
    490c:	8c079ee3          	bnez	a5,41e8 <move_piece+0x78>
    4910:	03c42783          	lw	a5,60(s0)
    4914:	a00790e3          	bnez	a5,4314 <move_piece+0x1a4>
    4918:	04842783          	lw	a5,72(s0)
    491c:	00200913          	li	s2,2
    4920:	940792e3          	bnez	a5,4264 <move_piece+0xf4>
    4924:	9f5ff06f          	j	4318 <move_piece+0x1a8>
    4928:	0e44a783          	lw	a5,228(s1)
    492c:	a80788e3          	beqz	a5,43bc <move_piece+0x24c>
    4930:	00168593          	addi	a1,a3,1
    4934:	01300793          	li	a5,19
    4938:	f4b7c2e3          	blt	a5,a1,487c <move_piece+0x70c>
    493c:	00370613          	addi	a2,a4,3
    4940:	00259793          	slli	a5,a1,0x2
    4944:	a61ff06f          	j	43a4 <move_piece+0x234>
    4948:	00270513          	addi	a0,a4,2
    494c:	00b78633          	add	a2,a5,a1
    4950:	00161613          	slli	a2,a2,0x1
    4954:	00c48633          	add	a2,s1,a2
    4958:	00a60633          	add	a2,a2,a0
    495c:	00064603          	lbu	a2,0(a2)
    4960:	aa0602e3          	beqz	a2,4404 <move_piece+0x294>
    4964:	f19ff06f          	j	487c <move_piece+0x70c>
    4968:	01842703          	lw	a4,24(s0)
    496c:	2c070663          	beqz	a4,4c38 <move_piece+0xac8>
    4970:	10f8ca63          	blt	a7,a5,4a84 <move_piece+0x914>
    4974:	00279713          	slli	a4,a5,0x2
    4978:	00f706b3          	add	a3,a4,a5
    497c:	00169693          	slli	a3,a3,0x1
    4980:	00d486b3          	add	a3,s1,a3
    4984:	01e686b3          	add	a3,a3,t5
    4988:	0006c683          	lbu	a3,0(a3)
    498c:	0e069c63          	bnez	a3,4a84 <move_piece+0x914>
    4990:	01c42683          	lw	a3,28(s0)
    4994:	c6068ce3          	beqz	a3,460c <move_piece+0x49c>
    4998:	000e0693          	mv	a3,t3
    499c:	c59ff06f          	j	45f4 <move_piece+0x484>
    49a0:	03442703          	lw	a4,52(s0)
    49a4:	22070e63          	beqz	a4,4be0 <move_piece+0xa70>
    49a8:	0cb8ce63          	blt	a7,a1,4a84 <move_piece+0x914>
    49ac:	00259713          	slli	a4,a1,0x2
    49b0:	00b706b3          	add	a3,a4,a1
    49b4:	00169693          	slli	a3,a3,0x1
    49b8:	00d486b3          	add	a3,s1,a3
    49bc:	006686b3          	add	a3,a3,t1
    49c0:	0006c683          	lbu	a3,0(a3)
    49c4:	0c069063          	bnez	a3,4a84 <move_piece+0x914>
    49c8:	03842683          	lw	a3,56(s0)
    49cc:	000f0293          	mv	t0,t5
    49d0:	cc0698e3          	bnez	a3,46a0 <move_piece+0x530>
    49d4:	03c42683          	lw	a3,60(s0)
    49d8:	d00682e3          	beqz	a3,46dc <move_piece+0x56c>
    49dc:	003e8693          	addi	a3,t4,3
    49e0:	ce5ff06f          	j	46c4 <move_piece+0x554>
    49e4:	04442703          	lw	a4,68(s0)
    49e8:	22070a63          	beqz	a4,4c1c <move_piece+0xaac>
    49ec:	0908cc63          	blt	a7,a6,4a84 <move_piece+0x914>
    49f0:	00281713          	slli	a4,a6,0x2
    49f4:	010706b3          	add	a3,a4,a6
    49f8:	00169693          	slli	a3,a3,0x1
    49fc:	00d486b3          	add	a3,s1,a3
    4a00:	006686b3          	add	a3,a3,t1
    4a04:	0006c683          	lbu	a3,0(a3)
    4a08:	06069e63          	bnez	a3,4a84 <move_piece+0x914>
    4a0c:	04842683          	lw	a3,72(s0)
    4a10:	d00688e3          	beqz	a3,4720 <move_piece+0x5b0>
    4a14:	000f0293          	mv	t0,t5
    4a18:	cf1ff06f          	j	4708 <move_piece+0x598>
    4a1c:	0ec4a783          	lw	a5,236(s1)
    4a20:	28078063          	beqz	a5,4ca0 <move_piece+0xb30>
    4a24:	00268513          	addi	a0,a3,2
    4a28:	01300793          	li	a5,19
    4a2c:	00050593          	mv	a1,a0
    4a30:	00170813          	addi	a6,a4,1
    4a34:	e4a7c4e3          	blt	a5,a0,487c <move_piece+0x70c>
    4a38:	00251793          	slli	a5,a0,0x2
    4a3c:	00a78633          	add	a2,a5,a0
    4a40:	00161613          	slli	a2,a2,0x1
    4a44:	00c48633          	add	a2,s1,a2
    4a48:	01060633          	add	a2,a2,a6
    4a4c:	00064603          	lbu	a2,0(a2)
    4a50:	e20616e3          	bnez	a2,487c <move_piece+0x70c>
    4a54:	0f04a603          	lw	a2,240(s1)
    4a58:	ee0618e3          	bnez	a2,4948 <move_piece+0x7d8>
    4a5c:	0f44a783          	lw	a5,244(s1)
    4a60:	9c0784e3          	beqz	a5,4428 <move_piece+0x2b8>
    4a64:	00050593          	mv	a1,a0
    4a68:	00370613          	addi	a2,a4,3
    4a6c:	00251793          	slli	a5,a0,0x2
    4a70:	9a1ff06f          	j	4410 <move_piece+0x2a0>
    4a74:	02842703          	lw	a4,40(s0)
    4a78:	24070463          	beqz	a4,4cc0 <move_piece+0xb50>
    4a7c:	000f0293          	mv	t0,t5
    4a80:	bac8dae3          	bge	a7,a2,4634 <move_piece+0x4c4>
    4a84:	ffe78793          	addi	a5,a5,-2
    4a88:	00f42423          	sw	a5,8(s0)
    4a8c:	00000f93          	li	t6,0
    4a90:	01300393          	li	t2,19
    4a94:	00900493          	li	s1,9
    4a98:	00400293          	li	t0,4
    4a9c:	00007737          	lui	a4,0x7
    4aa0:	01200693          	li	a3,18
    4aa4:	08100e93          	li	t4,129
    4aa8:	00800f13          	li	t5,8
    4aac:	004f9893          	slli	a7,t6,0x4
    4ab0:	011408b3          	add	a7,s0,a7
    4ab4:	00000313          	li	t1,0
    4ab8:	0108a783          	lw	a5,16(a7)
    4abc:	d8078ce3          	beqz	a5,4854 <move_piece+0x6e4>
    4ac0:	00842783          	lw	a5,8(s0)
    4ac4:	00ff87b3          	add	a5,t6,a5
    4ac8:	d8f3e6e3          	bltu	t2,a5,4854 <move_piece+0x6e4>
    4acc:	00442603          	lw	a2,4(s0)
    4ad0:	00c30633          	add	a2,t1,a2
    4ad4:	d8c4e0e3          	bltu	s1,a2,4854 <move_piece+0x6e4>
    4ad8:	00578793          	addi	a5,a5,5
    4adc:	00279593          	slli	a1,a5,0x2
    4ae0:	00f587b3          	add	a5,a1,a5
    4ae4:	00679793          	slli	a5,a5,0x6
    4ae8:	00f60613          	addi	a2,a2,15
    4aec:	00c787b3          	add	a5,a5,a2
    4af0:	00c44e03          	lbu	t3,12(s0)
    4af4:	00379793          	slli	a5,a5,0x3
    4af8:	00178793          	addi	a5,a5,1
    4afc:	00000593          	li	a1,0
    4b00:	14872503          	lw	a0,328(a4) # 7148 <VGA>
    4b04:	fff78813          	addi	a6,a5,-1
    4b08:	00bed633          	srl	a2,t4,a1
    4b0c:	01050533          	add	a0,a0,a6
    4b10:	00d50023          	sb	a3,0(a0)
    4b14:	00167613          	andi	a2,a2,1
    4b18:	00178b93          	addi	s7,a5,1
    4b1c:	00278b13          	addi	s6,a5,2
    4b20:	00378a93          	addi	s5,a5,3
    4b24:	00478a13          	addi	s4,a5,4
    4b28:	00578993          	addi	s3,a5,5
    4b2c:	00678913          	addi	s2,a5,6
    4b30:	ca061ce3          	bnez	a2,47e8 <move_piece+0x678>
    4b34:	14872603          	lw	a2,328(a4)
    4b38:	00158593          	addi	a1,a1,1
    4b3c:	00f60633          	add	a2,a2,a5
    4b40:	01c60023          	sb	t3,0(a2)
    4b44:	14872603          	lw	a2,328(a4)
    4b48:	14078793          	addi	a5,a5,320
    4b4c:	01760633          	add	a2,a2,s7
    4b50:	01c60023          	sb	t3,0(a2)
    4b54:	14872603          	lw	a2,328(a4)
    4b58:	01660633          	add	a2,a2,s6
    4b5c:	01c60023          	sb	t3,0(a2)
    4b60:	14872603          	lw	a2,328(a4)
    4b64:	01560633          	add	a2,a2,s5
    4b68:	01c60023          	sb	t3,0(a2)
    4b6c:	14872603          	lw	a2,328(a4)
    4b70:	01460633          	add	a2,a2,s4
    4b74:	01c60023          	sb	t3,0(a2)
    4b78:	14872603          	lw	a2,328(a4)
    4b7c:	01360633          	add	a2,a2,s3
    4b80:	01c60023          	sb	t3,0(a2)
    4b84:	14872603          	lw	a2,328(a4)
    4b88:	01260633          	add	a2,a2,s2
    4b8c:	00d60023          	sb	a3,0(a2)
    4b90:	f7e598e3          	bne	a1,t5,4b00 <move_piece+0x990>
    4b94:	cc1ff06f          	j	4854 <move_piece+0x6e4>
    4b98:	0fc4a783          	lw	a5,252(s1)
    4b9c:	14078063          	beqz	a5,4cdc <move_piece+0xb6c>
    4ba0:	00368513          	addi	a0,a3,3
    4ba4:	01300793          	li	a5,19
    4ba8:	00050593          	mv	a1,a0
    4bac:	00170813          	addi	a6,a4,1
    4bb0:	cca7c6e3          	blt	a5,a0,487c <move_piece+0x70c>
    4bb4:	00251793          	slli	a5,a0,0x2
    4bb8:	00a78633          	add	a2,a5,a0
    4bbc:	00161613          	slli	a2,a2,0x1
    4bc0:	00c48633          	add	a2,s1,a2
    4bc4:	01060633          	add	a2,a2,a6
    4bc8:	00064603          	lbu	a2,0(a2)
    4bcc:	ca0618e3          	bnez	a2,487c <move_piece+0x70c>
    4bd0:	1004a603          	lw	a2,256(s1)
    4bd4:	54060863          	beqz	a2,5124 <move_piece+0xfb4>
    4bd8:	00270513          	addi	a0,a4,2
    4bdc:	899ff06f          	j	4474 <move_piece+0x304>
    4be0:	03842703          	lw	a4,56(s0)
    4be4:	4c070e63          	beqz	a4,50c0 <move_piece+0xf50>
    4be8:	01300713          	li	a4,19
    4bec:	002e8293          	addi	t0,t4,2
    4bf0:	aab756e3          	bge	a4,a1,469c <move_piece+0x52c>
    4bf4:	e91ff06f          	j	4a84 <move_piece+0x914>
    4bf8:	10c4a783          	lw	a5,268(s1)
    4bfc:	4e078663          	beqz	a5,50e8 <move_piece+0xf78>
    4c00:	00468593          	addi	a1,a3,4
    4c04:	01300793          	li	a5,19
    4c08:	00058693          	mv	a3,a1
    4c0c:	00170513          	addi	a0,a4,1
    4c10:	c6b7c6e3          	blt	a5,a1,487c <move_piece+0x70c>
    4c14:	00259793          	slli	a5,a1,0x2
    4c18:	8d9ff06f          	j	44f0 <move_piece+0x380>
    4c1c:	04842703          	lw	a4,72(s0)
    4c20:	4e070463          	beqz	a4,5108 <move_piece+0xf98>
    4c24:	01300713          	li	a4,19
    4c28:	002e8293          	addi	t0,t4,2
    4c2c:	e5074ce3          	blt	a4,a6,4a84 <move_piece+0x914>
    4c30:	00281713          	slli	a4,a6,0x2
    4c34:	ad5ff06f          	j	4708 <move_piece+0x598>
    4c38:	01c42703          	lw	a4,28(s0)
    4c3c:	9c0708e3          	beqz	a4,460c <move_piece+0x49c>
    4c40:	01300713          	li	a4,19
    4c44:	e4f740e3          	blt	a4,a5,4a84 <move_piece+0x914>
    4c48:	9a5ff06f          	j	45ec <move_piece+0x47c>
    4c4c:	de078863          	beqz	a5,423c <move_piece+0xcc>
    4c50:	00200793          	li	a5,2
    4c54:	df27c463          	blt	a5,s2,423c <move_piece+0xcc>
    4c58:	d90ff06f          	j	41e8 <move_piece+0x78>
    4c5c:	ea078e63          	beqz	a5,4318 <move_piece+0x1a8>
    4c60:	00200793          	li	a5,2
    4c64:	eb27ca63          	blt	a5,s2,4318 <move_piece+0x1a8>
    4c68:	dfcff06f          	j	4264 <move_piece+0xf4>
    4c6c:	1104a603          	lw	a2,272(s1)
    4c70:	02060063          	beqz	a2,4c90 <move_piece+0xb20>
    4c74:	00270593          	addi	a1,a4,2
    4c78:	00d78633          	add	a2,a5,a3
    4c7c:	00161613          	slli	a2,a2,0x1
    4c80:	00c48633          	add	a2,s1,a2
    4c84:	00b60633          	add	a2,a2,a1
    4c88:	00064603          	lbu	a2,0(a2)
    4c8c:	be0618e3          	bnez	a2,487c <move_piece+0x70c>
    4c90:	1144a603          	lw	a2,276(s1)
    4c94:	8a0604e3          	beqz	a2,453c <move_piece+0x3cc>
    4c98:	00370713          	addi	a4,a4,3
    4c9c:	889ff06f          	j	4524 <move_piece+0x3b4>
    4ca0:	0f04a783          	lw	a5,240(s1)
    4ca4:	4a078863          	beqz	a5,5154 <move_piece+0xfe4>
    4ca8:	00268593          	addi	a1,a3,2
    4cac:	01300793          	li	a5,19
    4cb0:	00270513          	addi	a0,a4,2
    4cb4:	bcb7c4e3          	blt	a5,a1,487c <move_piece+0x70c>
    4cb8:	00259793          	slli	a5,a1,0x2
    4cbc:	c91ff06f          	j	494c <move_piece+0x7dc>
    4cc0:	02c42703          	lw	a4,44(s0)
    4cc4:	9a0708e3          	beqz	a4,4674 <move_piece+0x504>
    4cc8:	01300713          	li	a4,19
    4ccc:	dac74ce3          	blt	a4,a2,4a84 <move_piece+0x914>
    4cd0:	003e8693          	addi	a3,t4,3
    4cd4:	00261713          	slli	a4,a2,0x2
    4cd8:	985ff06f          	j	465c <move_piece+0x4ec>
    4cdc:	1004a783          	lw	a5,256(s1)
    4ce0:	48078a63          	beqz	a5,5174 <move_piece+0x1004>
    4ce4:	00368593          	addi	a1,a3,3
    4ce8:	01300793          	li	a5,19
    4cec:	00270513          	addi	a0,a4,2
    4cf0:	b8b7c6e3          	blt	a5,a1,487c <move_piece+0x70c>
    4cf4:	00259793          	slli	a5,a1,0x2
    4cf8:	f7cff06f          	j	4474 <move_piece+0x304>
    4cfc:	00040513          	mv	a0,s0
    4d00:	03312623          	sw	s3,44(sp)
    4d04:	03412423          	sw	s4,40(sp)
    4d08:	03512223          	sw	s5,36(sp)
    4d0c:	03612023          	sw	s6,32(sp)
    4d10:	01712e23          	sw	s7,28(sp)
    4d14:	01812c23          	sw	s8,24(sp)
    4d18:	849fb0ef          	jal	560 <update_shape.constprop.0>
    4d1c:	00442783          	lw	a5,4(s0)
    4d20:	00900713          	li	a4,9
    4d24:	01278933          	add	s2,a5,s2
    4d28:	01274663          	blt	a4,s2,4d34 <move_piece+0xbc4>
    4d2c:	00178793          	addi	a5,a5,1
    4d30:	00f42223          	sw	a5,4(s0)
    4d34:	00000a93          	li	s5,0
    4d38:	01300b93          	li	s7,19
    4d3c:	00900c13          	li	s8,9
    4d40:	00400b13          	li	s6,4
    4d44:	00007737          	lui	a4,0x7
    4d48:	01200693          	li	a3,18
    4d4c:	08100993          	li	s3,129
    4d50:	00800a13          	li	s4,8
    4d54:	004a9893          	slli	a7,s5,0x4
    4d58:	011408b3          	add	a7,s0,a7
    4d5c:	00000313          	li	t1,0
    4d60:	0108a783          	lw	a5,16(a7)
    4d64:	0c078c63          	beqz	a5,4e3c <move_piece+0xccc>
    4d68:	00842783          	lw	a5,8(s0)
    4d6c:	00fa87b3          	add	a5,s5,a5
    4d70:	0cfbe663          	bltu	s7,a5,4e3c <move_piece+0xccc>
    4d74:	00442603          	lw	a2,4(s0)
    4d78:	00c30633          	add	a2,t1,a2
    4d7c:	0ccc6063          	bltu	s8,a2,4e3c <move_piece+0xccc>
    4d80:	00578793          	addi	a5,a5,5
    4d84:	00279593          	slli	a1,a5,0x2
    4d88:	00f587b3          	add	a5,a1,a5
    4d8c:	00679793          	slli	a5,a5,0x6
    4d90:	00f60613          	addi	a2,a2,15
    4d94:	00c787b3          	add	a5,a5,a2
    4d98:	00c44e03          	lbu	t3,12(s0)
    4d9c:	00379793          	slli	a5,a5,0x3
    4da0:	00178793          	addi	a5,a5,1
    4da4:	00000593          	li	a1,0
    4da8:	14872503          	lw	a0,328(a4) # 7148 <VGA>
    4dac:	fff78813          	addi	a6,a5,-1
    4db0:	00b9d633          	srl	a2,s3,a1
    4db4:	01050533          	add	a0,a0,a6
    4db8:	00d50023          	sb	a3,0(a0)
    4dbc:	00167613          	andi	a2,a2,1
    4dc0:	00178913          	addi	s2,a5,1
    4dc4:	00278393          	addi	t2,a5,2
    4dc8:	00378293          	addi	t0,a5,3
    4dcc:	00478f93          	addi	t6,a5,4
    4dd0:	00578f13          	addi	t5,a5,5
    4dd4:	00678e93          	addi	t4,a5,6
    4dd8:	08061a63          	bnez	a2,4e6c <move_piece+0xcfc>
    4ddc:	14872603          	lw	a2,328(a4)
    4de0:	00158593          	addi	a1,a1,1
    4de4:	00f60633          	add	a2,a2,a5
    4de8:	01c60023          	sb	t3,0(a2)
    4dec:	14872603          	lw	a2,328(a4)
    4df0:	14078793          	addi	a5,a5,320
    4df4:	01260633          	add	a2,a2,s2
    4df8:	01c60023          	sb	t3,0(a2)
    4dfc:	14872603          	lw	a2,328(a4)
    4e00:	00760633          	add	a2,a2,t2
    4e04:	01c60023          	sb	t3,0(a2)
    4e08:	14872603          	lw	a2,328(a4)
    4e0c:	00560633          	add	a2,a2,t0
    4e10:	01c60023          	sb	t3,0(a2)
    4e14:	14872603          	lw	a2,328(a4)
    4e18:	01f60633          	add	a2,a2,t6
    4e1c:	01c60023          	sb	t3,0(a2)
    4e20:	14872603          	lw	a2,328(a4)
    4e24:	01e60633          	add	a2,a2,t5
    4e28:	01c60023          	sb	t3,0(a2)
    4e2c:	14872603          	lw	a2,328(a4)
    4e30:	01d60633          	add	a2,a2,t4
    4e34:	00d60023          	sb	a3,0(a2)
    4e38:	f74598e3          	bne	a1,s4,4da8 <move_piece+0xc38>
    4e3c:	00130313          	addi	t1,t1,1
    4e40:	00488893          	addi	a7,a7,4
    4e44:	f1631ee3          	bne	t1,s6,4d60 <move_piece+0xbf0>
    4e48:	001a8a93          	addi	s5,s5,1
    4e4c:	f16a94e3          	bne	s5,s6,4d54 <move_piece+0xbe4>
    4e50:	02c12983          	lw	s3,44(sp)
    4e54:	02812a03          	lw	s4,40(sp)
    4e58:	02412a83          	lw	s5,36(sp)
    4e5c:	02012b03          	lw	s6,32(sp)
    4e60:	01c12b83          	lw	s7,28(sp)
    4e64:	01812c03          	lw	s8,24(sp)
    4e68:	eecff06f          	j	4554 <move_piece+0x3e4>
    4e6c:	14872603          	lw	a2,328(a4)
    4e70:	00478e93          	addi	t4,a5,4
    4e74:	00578813          	addi	a6,a5,5
    4e78:	00f60633          	add	a2,a2,a5
    4e7c:	00d60023          	sb	a3,0(a2)
    4e80:	14872603          	lw	a2,328(a4)
    4e84:	00678513          	addi	a0,a5,6
    4e88:	00158593          	addi	a1,a1,1
    4e8c:	01260633          	add	a2,a2,s2
    4e90:	00d60023          	sb	a3,0(a2)
    4e94:	14872603          	lw	a2,328(a4)
    4e98:	14078793          	addi	a5,a5,320
    4e9c:	00760633          	add	a2,a2,t2
    4ea0:	00d60023          	sb	a3,0(a2)
    4ea4:	14872603          	lw	a2,328(a4)
    4ea8:	00560633          	add	a2,a2,t0
    4eac:	00d60023          	sb	a3,0(a2)
    4eb0:	14872603          	lw	a2,328(a4)
    4eb4:	01d60633          	add	a2,a2,t4
    4eb8:	00d60023          	sb	a3,0(a2)
    4ebc:	14872603          	lw	a2,328(a4)
    4ec0:	01060633          	add	a2,a2,a6
    4ec4:	00d60023          	sb	a3,0(a2)
    4ec8:	14872603          	lw	a2,328(a4)
    4ecc:	00a60633          	add	a2,a2,a0
    4ed0:	00d60023          	sb	a3,0(a2)
    4ed4:	ed459ae3          	bne	a1,s4,4da8 <move_piece+0xc38>
    4ed8:	f65ff06f          	j	4e3c <move_piece+0xccc>
    4edc:	00040513          	mv	a0,s0
    4ee0:	03312623          	sw	s3,44(sp)
    4ee4:	03412423          	sw	s4,40(sp)
    4ee8:	03512223          	sw	s5,36(sp)
    4eec:	03612023          	sw	s6,32(sp)
    4ef0:	01712e23          	sw	s7,28(sp)
    4ef4:	01812c23          	sw	s8,24(sp)
    4ef8:	01912a23          	sw	s9,20(sp)
    4efc:	e64fb0ef          	jal	560 <update_shape.constprop.0>
    4f00:	00442783          	lw	a5,4(s0)
    4f04:	00f05663          	blez	a5,4f10 <move_piece+0xda0>
    4f08:	fff78793          	addi	a5,a5,-1
    4f0c:	00f42223          	sw	a5,4(s0)
    4f10:	00000a93          	li	s5,0
    4f14:	01300b93          	li	s7,19
    4f18:	00900c13          	li	s8,9
    4f1c:	00400b13          	li	s6,4
    4f20:	00007737          	lui	a4,0x7
    4f24:	01200693          	li	a3,18
    4f28:	08100993          	li	s3,129
    4f2c:	00800a13          	li	s4,8
    4f30:	004a9813          	slli	a6,s5,0x4
    4f34:	01040833          	add	a6,s0,a6
    4f38:	00000893          	li	a7,0
    4f3c:	01082783          	lw	a5,16(a6)
    4f40:	0c078c63          	beqz	a5,5018 <move_piece+0xea8>
    4f44:	00842783          	lw	a5,8(s0)
    4f48:	00fa87b3          	add	a5,s5,a5
    4f4c:	0cfbe663          	bltu	s7,a5,5018 <move_piece+0xea8>
    4f50:	00442603          	lw	a2,4(s0)
    4f54:	00c88633          	add	a2,a7,a2
    4f58:	0ccc6063          	bltu	s8,a2,5018 <move_piece+0xea8>
    4f5c:	00578793          	addi	a5,a5,5
    4f60:	00279593          	slli	a1,a5,0x2
    4f64:	00f587b3          	add	a5,a1,a5
    4f68:	00679793          	slli	a5,a5,0x6
    4f6c:	00f60613          	addi	a2,a2,15
    4f70:	00c787b3          	add	a5,a5,a2
    4f74:	00c44303          	lbu	t1,12(s0)
    4f78:	00379793          	slli	a5,a5,0x3
    4f7c:	00178793          	addi	a5,a5,1
    4f80:	00000593          	li	a1,0
    4f84:	14872503          	lw	a0,328(a4) # 7148 <VGA>
    4f88:	fff78c93          	addi	s9,a5,-1
    4f8c:	00b9d633          	srl	a2,s3,a1
    4f90:	01950533          	add	a0,a0,s9
    4f94:	00d50023          	sb	a3,0(a0)
    4f98:	00167613          	andi	a2,a2,1
    4f9c:	00178393          	addi	t2,a5,1
    4fa0:	00278293          	addi	t0,a5,2
    4fa4:	00378f93          	addi	t6,a5,3
    4fa8:	00478f13          	addi	t5,a5,4
    4fac:	00578e93          	addi	t4,a5,5
    4fb0:	00678e13          	addi	t3,a5,6
    4fb4:	08061c63          	bnez	a2,504c <move_piece+0xedc>
    4fb8:	14872603          	lw	a2,328(a4)
    4fbc:	00158593          	addi	a1,a1,1
    4fc0:	00f60633          	add	a2,a2,a5
    4fc4:	00660023          	sb	t1,0(a2)
    4fc8:	14872603          	lw	a2,328(a4)
    4fcc:	14078793          	addi	a5,a5,320
    4fd0:	00760633          	add	a2,a2,t2
    4fd4:	00660023          	sb	t1,0(a2)
    4fd8:	14872603          	lw	a2,328(a4)
    4fdc:	00560633          	add	a2,a2,t0
    4fe0:	00660023          	sb	t1,0(a2)
    4fe4:	14872603          	lw	a2,328(a4)
    4fe8:	01f60633          	add	a2,a2,t6
    4fec:	00660023          	sb	t1,0(a2)
    4ff0:	14872603          	lw	a2,328(a4)
    4ff4:	01e60633          	add	a2,a2,t5
    4ff8:	00660023          	sb	t1,0(a2)
    4ffc:	14872603          	lw	a2,328(a4)
    5000:	01d60633          	add	a2,a2,t4
    5004:	00660023          	sb	t1,0(a2)
    5008:	14872603          	lw	a2,328(a4)
    500c:	01c60633          	add	a2,a2,t3
    5010:	00d60023          	sb	a3,0(a2)
    5014:	f74598e3          	bne	a1,s4,4f84 <move_piece+0xe14>
    5018:	00188893          	addi	a7,a7,1
    501c:	00480813          	addi	a6,a6,4
    5020:	f1689ee3          	bne	a7,s6,4f3c <move_piece+0xdcc>
    5024:	001a8a93          	addi	s5,s5,1
    5028:	f16a94e3          	bne	s5,s6,4f30 <move_piece+0xdc0>
    502c:	02c12983          	lw	s3,44(sp)
    5030:	02812a03          	lw	s4,40(sp)
    5034:	02412a83          	lw	s5,36(sp)
    5038:	02012b03          	lw	s6,32(sp)
    503c:	01c12b83          	lw	s7,28(sp)
    5040:	01812c03          	lw	s8,24(sp)
    5044:	01412c83          	lw	s9,20(sp)
    5048:	d00ff06f          	j	4548 <move_piece+0x3d8>
    504c:	14872603          	lw	a2,328(a4)
    5050:	00378f13          	addi	t5,a5,3
    5054:	00478e93          	addi	t4,a5,4
    5058:	00f60633          	add	a2,a2,a5
    505c:	00d60023          	sb	a3,0(a2)
    5060:	14872603          	lw	a2,328(a4)
    5064:	00578e13          	addi	t3,a5,5
    5068:	00678513          	addi	a0,a5,6
    506c:	00760633          	add	a2,a2,t2
    5070:	00d60023          	sb	a3,0(a2)
    5074:	14872603          	lw	a2,328(a4)
    5078:	00158593          	addi	a1,a1,1
    507c:	14078793          	addi	a5,a5,320
    5080:	00560633          	add	a2,a2,t0
    5084:	00d60023          	sb	a3,0(a2)
    5088:	14872603          	lw	a2,328(a4)
    508c:	01e60633          	add	a2,a2,t5
    5090:	00d60023          	sb	a3,0(a2)
    5094:	14872603          	lw	a2,328(a4)
    5098:	01d60633          	add	a2,a2,t4
    509c:	00d60023          	sb	a3,0(a2)
    50a0:	14872603          	lw	a2,328(a4)
    50a4:	01c60633          	add	a2,a2,t3
    50a8:	00d60023          	sb	a3,0(a2)
    50ac:	14872603          	lw	a2,328(a4)
    50b0:	00a60633          	add	a2,a2,a0
    50b4:	00d60023          	sb	a3,0(a2)
    50b8:	ed4596e3          	bne	a1,s4,4f84 <move_piece+0xe14>
    50bc:	f5dff06f          	j	5018 <move_piece+0xea8>
    50c0:	03c42703          	lw	a4,60(s0)
    50c4:	e0070c63          	beqz	a4,46dc <move_piece+0x56c>
    50c8:	01300713          	li	a4,19
    50cc:	9ab74ce3          	blt	a4,a1,4a84 <move_piece+0x914>
    50d0:	003e8693          	addi	a3,t4,3
    50d4:	00259713          	slli	a4,a1,0x2
    50d8:	decff06f          	j	46c4 <move_piece+0x554>
    50dc:	02c42703          	lw	a4,44(s0)
    50e0:	be0718e3          	bnez	a4,4cd0 <move_piece+0xb60>
    50e4:	d90ff06f          	j	4674 <move_piece+0x504>
    50e8:	1104a783          	lw	a5,272(s1)
    50ec:	0a078463          	beqz	a5,5194 <move_piece+0x1024>
    50f0:	00468693          	addi	a3,a3,4
    50f4:	01300793          	li	a5,19
    50f8:	00270593          	addi	a1,a4,2
    50fc:	f8d7c063          	blt	a5,a3,487c <move_piece+0x70c>
    5100:	00269793          	slli	a5,a3,0x2
    5104:	b75ff06f          	j	4c78 <move_piece+0xb08>
    5108:	04c42703          	lw	a4,76(s0)
    510c:	e2070c63          	beqz	a4,4744 <move_piece+0x5d4>
    5110:	01300713          	li	a4,19
    5114:	970748e3          	blt	a4,a6,4a84 <move_piece+0x914>
    5118:	003e8693          	addi	a3,t4,3
    511c:	00281713          	slli	a4,a6,0x2
    5120:	e0cff06f          	j	472c <move_piece+0x5bc>
    5124:	1044a783          	lw	a5,260(s1)
    5128:	b8078463          	beqz	a5,44b0 <move_piece+0x340>
    512c:	00050593          	mv	a1,a0
    5130:	00370613          	addi	a2,a4,3
    5134:	00251793          	slli	a5,a0,0x2
    5138:	b60ff06f          	j	4498 <move_piece+0x328>
    513c:	03c42703          	lw	a4,60(s0)
    5140:	f80718e3          	bnez	a4,50d0 <move_piece+0xf60>
    5144:	d98ff06f          	j	46dc <move_piece+0x56c>
    5148:	04c42703          	lw	a4,76(s0)
    514c:	de070c63          	beqz	a4,4744 <move_piece+0x5d4>
    5150:	fc9ff06f          	j	5118 <move_piece+0xfa8>
    5154:	0f44a783          	lw	a5,244(s1)
    5158:	ac078863          	beqz	a5,4428 <move_piece+0x2b8>
    515c:	00268593          	addi	a1,a3,2
    5160:	01300793          	li	a5,19
    5164:	f0b7cc63          	blt	a5,a1,487c <move_piece+0x70c>
    5168:	00370613          	addi	a2,a4,3
    516c:	00259793          	slli	a5,a1,0x2
    5170:	aa0ff06f          	j	4410 <move_piece+0x2a0>
    5174:	1044a783          	lw	a5,260(s1)
    5178:	b2078c63          	beqz	a5,44b0 <move_piece+0x340>
    517c:	00368593          	addi	a1,a3,3
    5180:	01300793          	li	a5,19
    5184:	eeb7cc63          	blt	a5,a1,487c <move_piece+0x70c>
    5188:	00370613          	addi	a2,a4,3
    518c:	00259793          	slli	a5,a1,0x2
    5190:	b08ff06f          	j	4498 <move_piece+0x328>
    5194:	1144a783          	lw	a5,276(s1)
    5198:	ba078263          	beqz	a5,453c <move_piece+0x3cc>
    519c:	00468693          	addi	a3,a3,4
    51a0:	01300793          	li	a5,19
    51a4:	ecd7cc63          	blt	a5,a3,487c <move_piece+0x70c>
    51a8:	00370713          	addi	a4,a4,3
    51ac:	00269793          	slli	a5,a3,0x2
    51b0:	b74ff06f          	j	4524 <move_piece+0x3b4>
    51b4:	00200913          	li	s2,2
    51b8:	94079463          	bnez	a5,4300 <move_piece+0x190>
    51bc:	804ff06f          	j	41c0 <move_piece+0x50>

000051c0 <tick>:
    51c0:	04000737          	lui	a4,0x4000
    51c4:	01072783          	lw	a5,16(a4) # 4000010 <_stack_end+0x3ef2e70>
    51c8:	f8010113          	addi	sp,sp,-128
    51cc:	06812c23          	sw	s0,120(sp)
    51d0:	3ff7f793          	andi	a5,a5,1023
    51d4:	02f12e23          	sw	a5,60(sp)
    51d8:	03c12783          	lw	a5,60(sp)
    51dc:	06912a23          	sw	s1,116(sp)
    51e0:	06112e23          	sw	ra,124(sp)
    51e4:	000074b7          	lui	s1,0x7
    51e8:	07212823          	sw	s2,112(sp)
    51ec:	07312623          	sw	s3,108(sp)
    51f0:	07412423          	sw	s4,104(sp)
    51f4:	07512223          	sw	s5,100(sp)
    51f8:	07612023          	sw	s6,96(sp)
    51fc:	05712e23          	sw	s7,92(sp)
    5200:	00050413          	mv	s0,a0
    5204:	14c48493          	addi	s1,s1,332 # 714c <grid>
    5208:	00078463          	beqz	a5,5210 <tick+0x50>
    520c:	0050106f          	j	6a10 <tick+0x1850>
    5210:	00007937          	lui	s2,0x7
    5214:	21490913          	addi	s2,s2,532 # 7214 <current_piece>
    5218:	00090513          	mv	a0,s2
    521c:	b44fb0ef          	jal	560 <update_shape.constprop.0>
    5220:	0d84a783          	lw	a5,216(s1)
    5224:	0d04a683          	lw	a3,208(s1)
    5228:	0cc4a703          	lw	a4,204(s1)
    522c:	04078663          	beqz	a5,5278 <tick+0xb8>
    5230:	00168593          	addi	a1,a3,1
    5234:	01300793          	li	a5,19
    5238:	00058513          	mv	a0,a1
    523c:	34b7ca63          	blt	a5,a1,5590 <tick+0x3d0>
    5240:	00259793          	slli	a5,a1,0x2
    5244:	00b78633          	add	a2,a5,a1
    5248:	00161613          	slli	a2,a2,0x1
    524c:	00c48633          	add	a2,s1,a2
    5250:	00e60633          	add	a2,a2,a4
    5254:	00064603          	lbu	a2,0(a2)
    5258:	32061c63          	bnez	a2,5590 <tick+0x3d0>
    525c:	0dc4a603          	lw	a2,220(s1)
    5260:	00170813          	addi	a6,a4,1
    5264:	02061a63          	bnez	a2,5298 <tick+0xd8>
    5268:	0e04a603          	lw	a2,224(s1)
    526c:	00270513          	addi	a0,a4,2
    5270:	04061863          	bnez	a2,52c0 <tick+0x100>
    5274:	0640006f          	j	52d8 <tick+0x118>
    5278:	0dc4a783          	lw	a5,220(s1)
    527c:	2e078863          	beqz	a5,556c <tick+0x3ac>
    5280:	00168513          	addi	a0,a3,1
    5284:	01300793          	li	a5,19
    5288:	00050593          	mv	a1,a0
    528c:	00170813          	addi	a6,a4,1
    5290:	30a7c063          	blt	a5,a0,5590 <tick+0x3d0>
    5294:	00251793          	slli	a5,a0,0x2
    5298:	00a78633          	add	a2,a5,a0
    529c:	00161613          	slli	a2,a2,0x1
    52a0:	00c48633          	add	a2,s1,a2
    52a4:	01060633          	add	a2,a2,a6
    52a8:	00064603          	lbu	a2,0(a2)
    52ac:	2e061263          	bnez	a2,5590 <tick+0x3d0>
    52b0:	0e04a603          	lw	a2,224(s1)
    52b4:	00061463          	bnez	a2,52bc <tick+0xfc>
    52b8:	6fc0106f          	j	69b4 <tick+0x17f4>
    52bc:	00270513          	addi	a0,a4,2
    52c0:	00b78633          	add	a2,a5,a1
    52c4:	00161613          	slli	a2,a2,0x1
    52c8:	00c48633          	add	a2,s1,a2
    52cc:	00a60633          	add	a2,a2,a0
    52d0:	00064603          	lbu	a2,0(a2)
    52d4:	2a061e63          	bnez	a2,5590 <tick+0x3d0>
    52d8:	0e44a603          	lw	a2,228(s1)
    52dc:	02060063          	beqz	a2,52fc <tick+0x13c>
    52e0:	00370613          	addi	a2,a4,3
    52e4:	00b787b3          	add	a5,a5,a1
    52e8:	00179793          	slli	a5,a5,0x1
    52ec:	00f487b3          	add	a5,s1,a5
    52f0:	00c787b3          	add	a5,a5,a2
    52f4:	0007c783          	lbu	a5,0(a5)
    52f8:	28079c63          	bnez	a5,5590 <tick+0x3d0>
    52fc:	0e84a783          	lw	a5,232(s1)
    5300:	00079463          	bnez	a5,5308 <tick+0x148>
    5304:	6440106f          	j	6948 <tick+0x1788>
    5308:	00268593          	addi	a1,a3,2
    530c:	01300793          	li	a5,19
    5310:	00058513          	mv	a0,a1
    5314:	26b7ce63          	blt	a5,a1,5590 <tick+0x3d0>
    5318:	00259613          	slli	a2,a1,0x2
    531c:	00b607b3          	add	a5,a2,a1
    5320:	00179793          	slli	a5,a5,0x1
    5324:	00f487b3          	add	a5,s1,a5
    5328:	00e787b3          	add	a5,a5,a4
    532c:	0007c783          	lbu	a5,0(a5)
    5330:	26079063          	bnez	a5,5590 <tick+0x3d0>
    5334:	0ec4a783          	lw	a5,236(s1)
    5338:	00170813          	addi	a6,a4,1
    533c:	00078463          	beqz	a5,5344 <tick+0x184>
    5340:	62c0106f          	j	696c <tick+0x17ac>
    5344:	0f04a783          	lw	a5,240(s1)
    5348:	00270513          	addi	a0,a4,2
    534c:	00078e63          	beqz	a5,5368 <tick+0x1a8>
    5350:	00b607b3          	add	a5,a2,a1
    5354:	00179793          	slli	a5,a5,0x1
    5358:	00f487b3          	add	a5,s1,a5
    535c:	00a787b3          	add	a5,a5,a0
    5360:	0007c783          	lbu	a5,0(a5)
    5364:	22079663          	bnez	a5,5590 <tick+0x3d0>
    5368:	0f44a783          	lw	a5,244(s1)
    536c:	00370513          	addi	a0,a4,3
    5370:	00078e63          	beqz	a5,538c <tick+0x1cc>
    5374:	00b607b3          	add	a5,a2,a1
    5378:	00179793          	slli	a5,a5,0x1
    537c:	00f487b3          	add	a5,s1,a5
    5380:	00a787b3          	add	a5,a5,a0
    5384:	0007c783          	lbu	a5,0(a5)
    5388:	20079463          	bnez	a5,5590 <tick+0x3d0>
    538c:	0f84a783          	lw	a5,248(s1)
    5390:	00079463          	bnez	a5,5398 <tick+0x1d8>
    5394:	58c0106f          	j	6920 <tick+0x1760>
    5398:	00368593          	addi	a1,a3,3
    539c:	01300793          	li	a5,19
    53a0:	00058513          	mv	a0,a1
    53a4:	1eb7c663          	blt	a5,a1,5590 <tick+0x3d0>
    53a8:	00259613          	slli	a2,a1,0x2
    53ac:	00b607b3          	add	a5,a2,a1
    53b0:	00179793          	slli	a5,a5,0x1
    53b4:	00f487b3          	add	a5,s1,a5
    53b8:	00e787b3          	add	a5,a5,a4
    53bc:	0007c783          	lbu	a5,0(a5)
    53c0:	1c079863          	bnez	a5,5590 <tick+0x3d0>
    53c4:	0fc4a783          	lw	a5,252(s1)
    53c8:	00170813          	addi	a6,a4,1
    53cc:	00079463          	bnez	a5,53d4 <tick+0x214>
    53d0:	70c0106f          	j	6adc <tick+0x191c>
    53d4:	00a607b3          	add	a5,a2,a0
    53d8:	00179793          	slli	a5,a5,0x1
    53dc:	00f487b3          	add	a5,s1,a5
    53e0:	010787b3          	add	a5,a5,a6
    53e4:	0007c783          	lbu	a5,0(a5)
    53e8:	1a079463          	bnez	a5,5590 <tick+0x3d0>
    53ec:	1004a783          	lw	a5,256(s1)
    53f0:	00078463          	beqz	a5,53f8 <tick+0x238>
    53f4:	65c0106f          	j	6a50 <tick+0x1890>
    53f8:	1044a783          	lw	a5,260(s1)
    53fc:	02078463          	beqz	a5,5424 <tick+0x264>
    5400:	00050593          	mv	a1,a0
    5404:	00259613          	slli	a2,a1,0x2
    5408:	00370513          	addi	a0,a4,3
    540c:	00b607b3          	add	a5,a2,a1
    5410:	00179793          	slli	a5,a5,0x1
    5414:	00f487b3          	add	a5,s1,a5
    5418:	00a787b3          	add	a5,a5,a0
    541c:	0007c783          	lbu	a5,0(a5)
    5420:	16079863          	bnez	a5,5590 <tick+0x3d0>
    5424:	1084a783          	lw	a5,264(s1)
    5428:	00079463          	bnez	a5,5430 <tick+0x270>
    542c:	6600106f          	j	6a8c <tick+0x18cc>
    5430:	00468593          	addi	a1,a3,4
    5434:	01300793          	li	a5,19
    5438:	00058513          	mv	a0,a1
    543c:	14b7ca63          	blt	a5,a1,5590 <tick+0x3d0>
    5440:	00259793          	slli	a5,a1,0x2
    5444:	00b78633          	add	a2,a5,a1
    5448:	00161613          	slli	a2,a2,0x1
    544c:	00c48633          	add	a2,s1,a2
    5450:	00e60633          	add	a2,a2,a4
    5454:	00064603          	lbu	a2,0(a2)
    5458:	12061c63          	bnez	a2,5590 <tick+0x3d0>
    545c:	10c4a603          	lw	a2,268(s1)
    5460:	00170813          	addi	a6,a4,1
    5464:	00060463          	beqz	a2,546c <tick+0x2ac>
    5468:	6480106f          	j	6ab0 <tick+0x18f0>
    546c:	1104a603          	lw	a2,272(s1)
    5470:	00270513          	addi	a0,a4,2
    5474:	00060e63          	beqz	a2,5490 <tick+0x2d0>
    5478:	00b78633          	add	a2,a5,a1
    547c:	00161613          	slli	a2,a2,0x1
    5480:	00c48633          	add	a2,s1,a2
    5484:	00a60633          	add	a2,a2,a0
    5488:	00064603          	lbu	a2,0(a2)
    548c:	10061263          	bnez	a2,5590 <tick+0x3d0>
    5490:	1144a603          	lw	a2,276(s1)
    5494:	02060063          	beqz	a2,54b4 <tick+0x2f4>
    5498:	00370713          	addi	a4,a4,3
    549c:	00b787b3          	add	a5,a5,a1
    54a0:	00179793          	slli	a5,a5,0x1
    54a4:	00f487b3          	add	a5,s1,a5
    54a8:	00e787b3          	add	a5,a5,a4
    54ac:	0007c783          	lbu	a5,0(a5)
    54b0:	0e079063          	bnez	a5,5590 <tick+0x3d0>
    54b4:	00168693          	addi	a3,a3,1
    54b8:	00040513          	mv	a0,s0
    54bc:	0cd4a823          	sw	a3,208(s1)
    54c0:	0000d9b7          	lui	s3,0xd
    54c4:	9bdfc0ef          	jal	1e80 <draw_grid>
    54c8:	0749a783          	lw	a5,116(s3) # d074 <num_locked>
    54cc:	50f04863          	bgtz	a5,59dc <tick+0x81c>
    54d0:	000012b7          	lui	t0,0x1
    54d4:	00001fb7          	lui	t6,0x1
    54d8:	00001f37          	lui	t5,0x1
    54dc:	00001eb7          	lui	t4,0x1
    54e0:	00001e37          	lui	t3,0x1
    54e4:	00001337          	lui	t1,0x1
    54e8:	000018b7          	lui	a7,0x1
    54ec:	00001837          	lui	a6,0x1
    54f0:	00000513          	li	a0,0
    54f4:	8c028293          	addi	t0,t0,-1856 # 8c0 <rand+0x1c>
    54f8:	8c1f8f93          	addi	t6,t6,-1855 # 8c1 <rand+0x1d>
    54fc:	8c2f0f13          	addi	t5,t5,-1854 # 8c2 <rand+0x1e>
    5500:	8c3e8e93          	addi	t4,t4,-1853 # 8c3 <rand+0x1f>
    5504:	8c4e0e13          	addi	t3,t3,-1852 # 8c4 <rand+0x20>
    5508:	8c530313          	addi	t1,t1,-1851 # 8c5 <rand+0x21>
    550c:	8c688893          	addi	a7,a7,-1850 # 8c6 <rand+0x22>
    5510:	8c780813          	addi	a6,a6,-1849 # 8c7 <rand+0x23>
    5514:	00400613          	li	a2,4
    5518:	00090693          	mv	a3,s2
    551c:	00000713          	li	a4,0
    5520:	0106a783          	lw	a5,16(a3)
    5524:	100790e3          	bnez	a5,5e24 <tick+0xc64>
    5528:	00170713          	addi	a4,a4,1
    552c:	00468693          	addi	a3,a3,4
    5530:	fec718e3          	bne	a4,a2,5520 <tick+0x360>
    5534:	00150513          	addi	a0,a0,1
    5538:	01090913          	addi	s2,s2,16
    553c:	fce51ee3          	bne	a0,a4,5518 <tick+0x358>
    5540:	07c12083          	lw	ra,124(sp)
    5544:	07812403          	lw	s0,120(sp)
    5548:	07412483          	lw	s1,116(sp)
    554c:	07012903          	lw	s2,112(sp)
    5550:	06c12983          	lw	s3,108(sp)
    5554:	06812a03          	lw	s4,104(sp)
    5558:	06412a83          	lw	s5,100(sp)
    555c:	06012b03          	lw	s6,96(sp)
    5560:	05c12b83          	lw	s7,92(sp)
    5564:	08010113          	addi	sp,sp,128
    5568:	00008067          	ret
    556c:	0e04a783          	lw	a5,224(s1)
    5570:	00078463          	beqz	a5,5578 <tick+0x3b8>
    5574:	5780106f          	j	6aec <tick+0x192c>
    5578:	0e44a783          	lw	a5,228(s1)
    557c:	d80780e3          	beqz	a5,52fc <tick+0x13c>
    5580:	00168593          	addi	a1,a3,1
    5584:	01300793          	li	a5,19
    5588:	00b7c463          	blt	a5,a1,5590 <tick+0x3d0>
    558c:	69c0106f          	j	6c28 <tick+0x1a68>
    5590:	05812c23          	sw	s8,88(sp)
    5594:	05912a23          	sw	s9,84(sp)
    5598:	05a12823          	sw	s10,80(sp)
    559c:	05b12623          	sw	s11,76(sp)
    55a0:	00090313          	mv	t1,s2
    55a4:	00000893          	li	a7,0
    55a8:	01300f13          	li	t5,19
    55ac:	00900e93          	li	t4,9
    55b0:	00400e13          	li	t3,4
    55b4:	000076b7          	lui	a3,0x7
    55b8:	01200613          	li	a2,18
    55bc:	00700813          	li	a6,7
    55c0:	00030f93          	mv	t6,t1
    55c4:	00000513          	li	a0,0
    55c8:	010fa783          	lw	a5,16(t6)
    55cc:	16078663          	beqz	a5,5738 <tick+0x578>
    55d0:	0d04a583          	lw	a1,208(s1)
    55d4:	00b885b3          	add	a1,a7,a1
    55d8:	16bf6063          	bltu	t5,a1,5738 <tick+0x578>
    55dc:	0cc4a383          	lw	t2,204(s1)
    55e0:	007503b3          	add	t2,a0,t2
    55e4:	147eea63          	bltu	t4,t2,5738 <tick+0x578>
    55e8:	00558293          	addi	t0,a1,5
    55ec:	00259713          	slli	a4,a1,0x2
    55f0:	00229793          	slli	a5,t0,0x2
    55f4:	00b70733          	add	a4,a4,a1
    55f8:	005787b3          	add	a5,a5,t0
    55fc:	1486a583          	lw	a1,328(a3) # 7148 <VGA>
    5600:	0d44c283          	lbu	t0,212(s1)
    5604:	00171713          	slli	a4,a4,0x1
    5608:	00679793          	slli	a5,a5,0x6
    560c:	00f38093          	addi	ra,t2,15
    5610:	00e48733          	add	a4,s1,a4
    5614:	001787b3          	add	a5,a5,ra
    5618:	00379793          	slli	a5,a5,0x3
    561c:	00770733          	add	a4,a4,t2
    5620:	00570023          	sb	t0,0(a4)
    5624:	00f58733          	add	a4,a1,a5
    5628:	00c70023          	sb	a2,0(a4)
    562c:	1486a703          	lw	a4,328(a3)
    5630:	00178593          	addi	a1,a5,1
    5634:	00278793          	addi	a5,a5,2
    5638:	00b70733          	add	a4,a4,a1
    563c:	00c70023          	sb	a2,0(a4)
    5640:	00000593          	li	a1,0
    5644:	1486a703          	lw	a4,328(a3)
    5648:	00178393          	addi	t2,a5,1
    564c:	00278a13          	addi	s4,a5,2
    5650:	00f70733          	add	a4,a4,a5
    5654:	00c70023          	sb	a2,0(a4)
    5658:	1486a703          	lw	a4,328(a3)
    565c:	00378993          	addi	s3,a5,3
    5660:	00478093          	addi	ra,a5,4
    5664:	00770733          	add	a4,a4,t2
    5668:	00c70023          	sb	a2,0(a4)
    566c:	1486a703          	lw	a4,328(a3)
    5670:	00578393          	addi	t2,a5,5
    5674:	14078793          	addi	a5,a5,320
    5678:	01470733          	add	a4,a4,s4
    567c:	00c70023          	sb	a2,0(a4)
    5680:	1486a703          	lw	a4,328(a3)
    5684:	01370733          	add	a4,a4,s3
    5688:	00c70023          	sb	a2,0(a4)
    568c:	1486a703          	lw	a4,328(a3)
    5690:	00170733          	add	a4,a4,ra
    5694:	00c70023          	sb	a2,0(a4)
    5698:	1486a703          	lw	a4,328(a3)
    569c:	00770733          	add	a4,a4,t2
    56a0:	00c70023          	sb	a2,0(a4)
    56a4:	09058a63          	beq	a1,a6,5738 <tick+0x578>
    56a8:	00100593          	li	a1,1
    56ac:	1486a703          	lw	a4,328(a3)
    56b0:	ffe78393          	addi	t2,a5,-2
    56b4:	00178b13          	addi	s6,a5,1
    56b8:	00770733          	add	a4,a4,t2
    56bc:	00c70023          	sb	a2,0(a4)
    56c0:	1486a703          	lw	a4,328(a3)
    56c4:	fff78393          	addi	t2,a5,-1
    56c8:	00278a93          	addi	s5,a5,2
    56cc:	00378a13          	addi	s4,a5,3
    56d0:	00478993          	addi	s3,a5,4
    56d4:	00578093          	addi	ra,a5,5
    56d8:	00770733          	add	a4,a4,t2
    56dc:	39058a63          	beq	a1,a6,5a70 <tick+0x8b0>
    56e0:	00570023          	sb	t0,0(a4)
    56e4:	1486a703          	lw	a4,328(a3)
    56e8:	00158593          	addi	a1,a1,1
    56ec:	00f70733          	add	a4,a4,a5
    56f0:	00570023          	sb	t0,0(a4)
    56f4:	1486a703          	lw	a4,328(a3)
    56f8:	14078793          	addi	a5,a5,320
    56fc:	01670733          	add	a4,a4,s6
    5700:	00570023          	sb	t0,0(a4)
    5704:	1486a703          	lw	a4,328(a3)
    5708:	01570733          	add	a4,a4,s5
    570c:	00570023          	sb	t0,0(a4)
    5710:	1486a703          	lw	a4,328(a3)
    5714:	01470733          	add	a4,a4,s4
    5718:	00570023          	sb	t0,0(a4)
    571c:	1486a703          	lw	a4,328(a3)
    5720:	01370733          	add	a4,a4,s3
    5724:	00570023          	sb	t0,0(a4)
    5728:	1486a703          	lw	a4,328(a3)
    572c:	00170733          	add	a4,a4,ra
    5730:	00c70023          	sb	a2,0(a4)
    5734:	f79ff06f          	j	56ac <tick+0x4ec>
    5738:	00150513          	addi	a0,a0,1
    573c:	004f8f93          	addi	t6,t6,4
    5740:	e9c514e3          	bne	a0,t3,55c8 <tick+0x408>
    5744:	00188893          	addi	a7,a7,1
    5748:	01030313          	addi	t1,t1,16
    574c:	e6a89ae3          	bne	a7,a0,55c0 <tick+0x400>
    5750:	0000d9b7          	lui	s3,0xd
    5754:	0749a783          	lw	a5,116(s3) # d074 <num_locked>
    5758:	12b00713          	li	a4,299
    575c:	00f74463          	blt	a4,a5,5764 <tick+0x5a4>
    5760:	3a80106f          	j	6b08 <tick+0x1948>
    5764:	000037b7          	lui	a5,0x3
    5768:	30778793          	addi	a5,a5,775 # 3307 <update_shape+0x363>
    576c:	00003737          	lui	a4,0x3
    5770:	000035b7          	lui	a1,0x3
    5774:	00f12623          	sw	a5,12(sp)
    5778:	30870793          	addi	a5,a4,776 # 3308 <update_shape+0x364>
    577c:	00003537          	lui	a0,0x3
    5780:	00f12823          	sw	a5,16(sp)
    5784:	30958793          	addi	a5,a1,777 # 3309 <update_shape+0x365>
    5788:	00003837          	lui	a6,0x3
    578c:	00f12a23          	sw	a5,20(sp)
    5790:	30a50793          	addi	a5,a0,778 # 330a <update_shape+0x366>
    5794:	00003eb7          	lui	t4,0x3
    5798:	00f12c23          	sw	a5,24(sp)
    579c:	30b80793          	addi	a5,a6,779 # 330b <update_shape+0x367>
    57a0:	00003f37          	lui	t5,0x3
    57a4:	00f12e23          	sw	a5,28(sp)
    57a8:	444e8793          	addi	a5,t4,1092 # 3444 <update_shape+0x4a0>
    57ac:	000036b7          	lui	a3,0x3
    57b0:	00003fb7          	lui	t6,0x3
    57b4:	02f12023          	sw	a5,32(sp)
    57b8:	445f0793          	addi	a5,t5,1093 # 3445 <update_shape+0x4a1>
    57bc:	12848a13          	addi	s4,s1,296
    57c0:	20068693          	addi	a3,a3,512 # 3200 <update_shape+0x25c>
    57c4:	00003e37          	lui	t3,0x3
    57c8:	00003337          	lui	t1,0x3
    57cc:	000038b7          	lui	a7,0x3
    57d0:	02f12223          	sw	a5,36(sp)
    57d4:	446f8793          	addi	a5,t6,1094 # 3446 <update_shape+0x4a2>
    57d8:	000a0613          	mv	a2,s4
    57dc:	40d40db3          	sub	s11,s0,a3
    57e0:	304e0e13          	addi	t3,t3,772 # 3304 <update_shape+0x360>
    57e4:	30530313          	addi	t1,t1,773 # 3305 <update_shape+0x361>
    57e8:	30688893          	addi	a7,a7,774 # 3306 <update_shape+0x362>
    57ec:	02f12423          	sw	a5,40(sp)
    57f0:	000a0813          	mv	a6,s4
    57f4:	00003cb7          	lui	s9,0x3
    57f8:	00003c37          	lui	s8,0x3
    57fc:	00003bb7          	lui	s7,0x3
    5800:	00003b37          	lui	s6,0x3
    5804:	00003ab7          	lui	s5,0x3
    5808:	00003a37          	lui	s4,0x3
    580c:	000030b7          	lui	ra,0x3
    5810:	000033b7          	lui	t2,0x3
    5814:	000032b7          	lui	t0,0x3
    5818:	00003fb7          	lui	t6,0x3
    581c:	00003f37          	lui	t5,0x3
    5820:	00003eb7          	lui	t4,0x3
    5824:	ff060713          	addi	a4,a2,-16
    5828:	01b687b3          	add	a5,a3,s11
    582c:	447c8c93          	addi	s9,s9,1095 # 3447 <update_shape+0x4a3>
    5830:	448c0c13          	addi	s8,s8,1096 # 3448 <update_shape+0x4a4>
    5834:	449b8b93          	addi	s7,s7,1097 # 3449 <update_shape+0x4a5>
    5838:	44ab0b13          	addi	s6,s6,1098 # 344a <update_shape+0x4a6>
    583c:	44ba8a93          	addi	s5,s5,1099 # 344b <update_shape+0x4a7>
    5840:	584a0a13          	addi	s4,s4,1412 # 3584 <update_shape+0x5e0>
    5844:	58508093          	addi	ra,ra,1413 # 3585 <update_shape+0x5e1>
    5848:	58638393          	addi	t2,t2,1414 # 3586 <update_shape+0x5e2>
    584c:	58728293          	addi	t0,t0,1415 # 3587 <update_shape+0x5e3>
    5850:	588f8f93          	addi	t6,t6,1416 # 3588 <update_shape+0x5e4>
    5854:	589f0f13          	addi	t5,t5,1417 # 3589 <update_shape+0x5e5>
    5858:	58ae8e93          	addi	t4,t4,1418 # 358a <update_shape+0x5e6>
    585c:	02d12623          	sw	a3,44(sp)
    5860:	01072683          	lw	a3,16(a4)
    5864:	540698e3          	bnez	a3,65b4 <tick+0x13f4>
    5868:	00470713          	addi	a4,a4,4
    586c:	00878793          	addi	a5,a5,8
    5870:	fee618e3          	bne	a2,a4,5860 <tick+0x6a0>
    5874:	02c12683          	lw	a3,44(sp)
    5878:	00001737          	lui	a4,0x1
    587c:	a0070713          	addi	a4,a4,-1536 # a00 <is_filled+0xe4>
    5880:	000067b7          	lui	a5,0x6
    5884:	00e686b3          	add	a3,a3,a4
    5888:	a0078793          	addi	a5,a5,-1536 # 5a00 <tick+0x840>
    588c:	01060613          	addi	a2,a2,16
    5890:	f6f692e3          	bne	a3,a5,57f4 <tick+0x634>
    5894:	00080a13          	mv	s4,a6
    5898:	bb4fc0ef          	jal	1c4c <spawn_next>
    589c:	000037b7          	lui	a5,0x3
    58a0:	30a78793          	addi	a5,a5,778 # 330a <update_shape+0x366>
    58a4:	00003737          	lui	a4,0x3
    58a8:	00003637          	lui	a2,0x3
    58ac:	00f12623          	sw	a5,12(sp)
    58b0:	30b70793          	addi	a5,a4,779 # 330b <update_shape+0x367>
    58b4:	000035b7          	lui	a1,0x3
    58b8:	00f12823          	sw	a5,16(sp)
    58bc:	44460793          	addi	a5,a2,1092 # 3444 <update_shape+0x4a0>
    58c0:	00003f37          	lui	t5,0x3
    58c4:	00f12a23          	sw	a5,20(sp)
    58c8:	44558793          	addi	a5,a1,1093 # 3445 <update_shape+0x4a1>
    58cc:	00003fb7          	lui	t6,0x3
    58d0:	00f12c23          	sw	a5,24(sp)
    58d4:	446f0793          	addi	a5,t5,1094 # 3446 <update_shape+0x4a2>
    58d8:	000036b7          	lui	a3,0x3
    58dc:	00003eb7          	lui	t4,0x3
    58e0:	00003e37          	lui	t3,0x3
    58e4:	00003337          	lui	t1,0x3
    58e8:	000038b7          	lui	a7,0x3
    58ec:	00003837          	lui	a6,0x3
    58f0:	00003537          	lui	a0,0x3
    58f4:	00f12e23          	sw	a5,28(sp)
    58f8:	447f8793          	addi	a5,t6,1095 # 3447 <update_shape+0x4a3>
    58fc:	20068693          	addi	a3,a3,512 # 3200 <update_shape+0x25c>
    5900:	304e8e93          	addi	t4,t4,772 # 3304 <update_shape+0x360>
    5904:	305e0e13          	addi	t3,t3,773 # 3305 <update_shape+0x361>
    5908:	30630313          	addi	t1,t1,774 # 3306 <update_shape+0x362>
    590c:	30788893          	addi	a7,a7,775 # 3307 <update_shape+0x363>
    5910:	30880813          	addi	a6,a6,776 # 3308 <update_shape+0x364>
    5914:	30950513          	addi	a0,a0,777 # 3309 <update_shape+0x365>
    5918:	02f12023          	sw	a5,32(sp)
    591c:	00040593          	mv	a1,s0
    5920:	00003cb7          	lui	s9,0x3
    5924:	00003c37          	lui	s8,0x3
    5928:	00003bb7          	lui	s7,0x3
    592c:	00003b37          	lui	s6,0x3
    5930:	00003ab7          	lui	s5,0x3
    5934:	00003437          	lui	s0,0x3
    5938:	000030b7          	lui	ra,0x3
    593c:	000033b7          	lui	t2,0x3
    5940:	000032b7          	lui	t0,0x3
    5944:	00003fb7          	lui	t6,0x3
    5948:	00003f37          	lui	t5,0x3
    594c:	ff0a0713          	addi	a4,s4,-16
    5950:	01b687b3          	add	a5,a3,s11
    5954:	448c8c93          	addi	s9,s9,1096 # 3448 <update_shape+0x4a4>
    5958:	449c0c13          	addi	s8,s8,1097 # 3449 <update_shape+0x4a5>
    595c:	44ab8b93          	addi	s7,s7,1098 # 344a <update_shape+0x4a6>
    5960:	44bb0b13          	addi	s6,s6,1099 # 344b <update_shape+0x4a7>
    5964:	584a8a93          	addi	s5,s5,1412 # 3584 <update_shape+0x5e0>
    5968:	58540413          	addi	s0,s0,1413 # 3585 <update_shape+0x5e1>
    596c:	58608093          	addi	ra,ra,1414 # 3586 <update_shape+0x5e2>
    5970:	58738393          	addi	t2,t2,1415 # 3587 <update_shape+0x5e3>
    5974:	58828293          	addi	t0,t0,1416 # 3588 <update_shape+0x5e4>
    5978:	589f8f93          	addi	t6,t6,1417 # 3589 <update_shape+0x5e5>
    597c:	58af0f13          	addi	t5,t5,1418 # 358a <update_shape+0x5e6>
    5980:	02d12223          	sw	a3,36(sp)
    5984:	01072683          	lw	a3,16(a4)
    5988:	040694e3          	bnez	a3,61d0 <tick+0x1010>
    598c:	00470713          	addi	a4,a4,4
    5990:	00878793          	addi	a5,a5,8
    5994:	feea18e3          	bne	s4,a4,5984 <tick+0x7c4>
    5998:	02412683          	lw	a3,36(sp)
    599c:	00001737          	lui	a4,0x1
    59a0:	a0070713          	addi	a4,a4,-1536 # a00 <is_filled+0xe4>
    59a4:	000067b7          	lui	a5,0x6
    59a8:	00e686b3          	add	a3,a3,a4
    59ac:	a0078793          	addi	a5,a5,-1536 # 5a00 <tick+0x840>
    59b0:	010a0a13          	addi	s4,s4,16
    59b4:	f6f696e3          	bne	a3,a5,5920 <tick+0x760>
    59b8:	00058413          	mv	s0,a1
    59bc:	00040513          	mv	a0,s0
    59c0:	05812c03          	lw	s8,88(sp)
    59c4:	05412c83          	lw	s9,84(sp)
    59c8:	05012d03          	lw	s10,80(sp)
    59cc:	04c12d83          	lw	s11,76(sp)
    59d0:	cb0fc0ef          	jal	1e80 <draw_grid>
    59d4:	0749a783          	lw	a5,116(s3)
    59d8:	aef05ce3          	blez	a5,54d0 <tick+0x310>
    59dc:	000013b7          	lui	t2,0x1
    59e0:	000012b7          	lui	t0,0x1
    59e4:	00001fb7          	lui	t6,0x1
    59e8:	00001f37          	lui	t5,0x1
    59ec:	00001eb7          	lui	t4,0x1
    59f0:	00001e37          	lui	t3,0x1
    59f4:	00001337          	lui	t1,0x1
    59f8:	000018b7          	lui	a7,0x1
    59fc:	00007737          	lui	a4,0x7
    5a00:	2b470713          	addi	a4,a4,692 # 72b4 <locked_pieces>
    5a04:	00000a13          	li	s4,0
    5a08:	8c038393          	addi	t2,t2,-1856 # 8c0 <rand+0x1c>
    5a0c:	8c128293          	addi	t0,t0,-1855 # 8c1 <rand+0x1d>
    5a10:	8c2f8f93          	addi	t6,t6,-1854 # 8c2 <rand+0x1e>
    5a14:	8c3f0f13          	addi	t5,t5,-1853 # 8c3 <rand+0x1f>
    5a18:	8c4e8e93          	addi	t4,t4,-1852 # 8c4 <rand+0x20>
    5a1c:	8c5e0e13          	addi	t3,t3,-1851 # 8c5 <rand+0x21>
    5a20:	8c630313          	addi	t1,t1,-1850 # 8c6 <rand+0x22>
    5a24:	8c788893          	addi	a7,a7,-1849 # 8c7 <rand+0x23>
    5a28:	00400593          	li	a1,4
    5a2c:	00070813          	mv	a6,a4
    5a30:	00000513          	li	a0,0
    5a34:	00080613          	mv	a2,a6
    5a38:	00000693          	li	a3,0
    5a3c:	01062783          	lw	a5,16(a2)
    5a40:	02079c63          	bnez	a5,5a78 <tick+0x8b8>
    5a44:	00168693          	addi	a3,a3,1
    5a48:	00460613          	addi	a2,a2,4
    5a4c:	feb698e3          	bne	a3,a1,5a3c <tick+0x87c>
    5a50:	00150513          	addi	a0,a0,1
    5a54:	01080813          	addi	a6,a6,16
    5a58:	fcb51ee3          	bne	a0,a1,5a34 <tick+0x874>
    5a5c:	0749a783          	lw	a5,116(s3)
    5a60:	001a0a13          	addi	s4,s4,1
    5a64:	05070713          	addi	a4,a4,80
    5a68:	fcfa42e3          	blt	s4,a5,5a2c <tick+0x86c>
    5a6c:	a65ff06f          	j	54d0 <tick+0x310>
    5a70:	00c70023          	sb	a2,0(a4)
    5a74:	bd1ff06f          	j	5644 <tick+0x484>
    5a78:	00872a83          	lw	s5,8(a4)
    5a7c:	00472b83          	lw	s7,4(a4)
    5a80:	00c74b03          	lbu	s6,12(a4)
    5a84:	01550ab3          	add	s5,a0,s5
    5a88:	005a8a93          	addi	s5,s5,5
    5a8c:	002a9793          	slli	a5,s5,0x2
    5a90:	015787b3          	add	a5,a5,s5
    5a94:	01768ab3          	add	s5,a3,s7
    5a98:	00fa8a93          	addi	s5,s5,15
    5a9c:	00679793          	slli	a5,a5,0x6
    5aa0:	015787b3          	add	a5,a5,s5
    5aa4:	00379793          	slli	a5,a5,0x3
    5aa8:	00f40bb3          	add	s7,s0,a5
    5aac:	00178a93          	addi	s5,a5,1
    5ab0:	016b8023          	sb	s6,0(s7)
    5ab4:	01540ab3          	add	s5,s0,s5
    5ab8:	016a8023          	sb	s6,0(s5)
    5abc:	00c74b83          	lbu	s7,12(a4)
    5ac0:	00278b13          	addi	s6,a5,2
    5ac4:	01640b33          	add	s6,s0,s6
    5ac8:	00378a93          	addi	s5,a5,3
    5acc:	017b0023          	sb	s7,0(s6)
    5ad0:	01540ab3          	add	s5,s0,s5
    5ad4:	017a8023          	sb	s7,0(s5)
    5ad8:	00c74b83          	lbu	s7,12(a4)
    5adc:	00478b13          	addi	s6,a5,4
    5ae0:	01640b33          	add	s6,s0,s6
    5ae4:	00578a93          	addi	s5,a5,5
    5ae8:	017b0023          	sb	s7,0(s6)
    5aec:	01540ab3          	add	s5,s0,s5
    5af0:	017a8023          	sb	s7,0(s5)
    5af4:	00c74b83          	lbu	s7,12(a4)
    5af8:	00678b13          	addi	s6,a5,6
    5afc:	01640b33          	add	s6,s0,s6
    5b00:	00778a93          	addi	s5,a5,7
    5b04:	017b0023          	sb	s7,0(s6)
    5b08:	01540ab3          	add	s5,s0,s5
    5b0c:	017a8023          	sb	s7,0(s5)
    5b10:	00c74b83          	lbu	s7,12(a4)
    5b14:	14078b13          	addi	s6,a5,320
    5b18:	01640b33          	add	s6,s0,s6
    5b1c:	14178a93          	addi	s5,a5,321
    5b20:	017b0023          	sb	s7,0(s6)
    5b24:	01540ab3          	add	s5,s0,s5
    5b28:	017a8023          	sb	s7,0(s5)
    5b2c:	00c74b83          	lbu	s7,12(a4)
    5b30:	14278b13          	addi	s6,a5,322
    5b34:	01640b33          	add	s6,s0,s6
    5b38:	14378a93          	addi	s5,a5,323
    5b3c:	017b0023          	sb	s7,0(s6)
    5b40:	01540ab3          	add	s5,s0,s5
    5b44:	017a8023          	sb	s7,0(s5)
    5b48:	00c74b83          	lbu	s7,12(a4)
    5b4c:	14478b13          	addi	s6,a5,324
    5b50:	01640b33          	add	s6,s0,s6
    5b54:	14578a93          	addi	s5,a5,325
    5b58:	017b0023          	sb	s7,0(s6)
    5b5c:	01540ab3          	add	s5,s0,s5
    5b60:	017a8023          	sb	s7,0(s5)
    5b64:	00c74b83          	lbu	s7,12(a4)
    5b68:	14678b13          	addi	s6,a5,326
    5b6c:	01640b33          	add	s6,s0,s6
    5b70:	14778a93          	addi	s5,a5,327
    5b74:	017b0023          	sb	s7,0(s6)
    5b78:	01540ab3          	add	s5,s0,s5
    5b7c:	017a8023          	sb	s7,0(s5)
    5b80:	00c74b83          	lbu	s7,12(a4)
    5b84:	28078b13          	addi	s6,a5,640
    5b88:	01640b33          	add	s6,s0,s6
    5b8c:	28178a93          	addi	s5,a5,641
    5b90:	017b0023          	sb	s7,0(s6)
    5b94:	01540ab3          	add	s5,s0,s5
    5b98:	017a8023          	sb	s7,0(s5)
    5b9c:	00c74b83          	lbu	s7,12(a4)
    5ba0:	28278b13          	addi	s6,a5,642
    5ba4:	01640b33          	add	s6,s0,s6
    5ba8:	28378a93          	addi	s5,a5,643
    5bac:	017b0023          	sb	s7,0(s6)
    5bb0:	01540ab3          	add	s5,s0,s5
    5bb4:	017a8023          	sb	s7,0(s5)
    5bb8:	00c74b83          	lbu	s7,12(a4)
    5bbc:	28478b13          	addi	s6,a5,644
    5bc0:	01640b33          	add	s6,s0,s6
    5bc4:	28578a93          	addi	s5,a5,645
    5bc8:	017b0023          	sb	s7,0(s6)
    5bcc:	01540ab3          	add	s5,s0,s5
    5bd0:	017a8023          	sb	s7,0(s5)
    5bd4:	00c74b83          	lbu	s7,12(a4)
    5bd8:	28678b13          	addi	s6,a5,646
    5bdc:	01640b33          	add	s6,s0,s6
    5be0:	28778a93          	addi	s5,a5,647
    5be4:	017b0023          	sb	s7,0(s6)
    5be8:	01540ab3          	add	s5,s0,s5
    5bec:	017a8023          	sb	s7,0(s5)
    5bf0:	00c74b83          	lbu	s7,12(a4)
    5bf4:	3c078b13          	addi	s6,a5,960
    5bf8:	01640b33          	add	s6,s0,s6
    5bfc:	3c178a93          	addi	s5,a5,961
    5c00:	017b0023          	sb	s7,0(s6)
    5c04:	01540ab3          	add	s5,s0,s5
    5c08:	017a8023          	sb	s7,0(s5)
    5c0c:	00c74b83          	lbu	s7,12(a4)
    5c10:	3c278b13          	addi	s6,a5,962
    5c14:	01640b33          	add	s6,s0,s6
    5c18:	3c378a93          	addi	s5,a5,963
    5c1c:	017b0023          	sb	s7,0(s6)
    5c20:	01540ab3          	add	s5,s0,s5
    5c24:	017a8023          	sb	s7,0(s5)
    5c28:	00c74b83          	lbu	s7,12(a4)
    5c2c:	3c478b13          	addi	s6,a5,964
    5c30:	01640b33          	add	s6,s0,s6
    5c34:	3c578a93          	addi	s5,a5,965
    5c38:	017b0023          	sb	s7,0(s6)
    5c3c:	01540ab3          	add	s5,s0,s5
    5c40:	017a8023          	sb	s7,0(s5)
    5c44:	00c74b83          	lbu	s7,12(a4)
    5c48:	3c678b13          	addi	s6,a5,966
    5c4c:	01640b33          	add	s6,s0,s6
    5c50:	3c778a93          	addi	s5,a5,967
    5c54:	017b0023          	sb	s7,0(s6)
    5c58:	01540ab3          	add	s5,s0,s5
    5c5c:	017a8023          	sb	s7,0(s5)
    5c60:	00c74b83          	lbu	s7,12(a4)
    5c64:	50078b13          	addi	s6,a5,1280
    5c68:	01640b33          	add	s6,s0,s6
    5c6c:	50178a93          	addi	s5,a5,1281
    5c70:	017b0023          	sb	s7,0(s6)
    5c74:	01540ab3          	add	s5,s0,s5
    5c78:	017a8023          	sb	s7,0(s5)
    5c7c:	00c74b83          	lbu	s7,12(a4)
    5c80:	50278b13          	addi	s6,a5,1282
    5c84:	01640b33          	add	s6,s0,s6
    5c88:	50378a93          	addi	s5,a5,1283
    5c8c:	017b0023          	sb	s7,0(s6)
    5c90:	01540ab3          	add	s5,s0,s5
    5c94:	017a8023          	sb	s7,0(s5)
    5c98:	00c74b83          	lbu	s7,12(a4)
    5c9c:	50478b13          	addi	s6,a5,1284
    5ca0:	01640b33          	add	s6,s0,s6
    5ca4:	50578a93          	addi	s5,a5,1285
    5ca8:	017b0023          	sb	s7,0(s6)
    5cac:	01540ab3          	add	s5,s0,s5
    5cb0:	017a8023          	sb	s7,0(s5)
    5cb4:	00c74b83          	lbu	s7,12(a4)
    5cb8:	50678b13          	addi	s6,a5,1286
    5cbc:	01640b33          	add	s6,s0,s6
    5cc0:	50778a93          	addi	s5,a5,1287
    5cc4:	017b0023          	sb	s7,0(s6)
    5cc8:	01540ab3          	add	s5,s0,s5
    5ccc:	017a8023          	sb	s7,0(s5)
    5cd0:	00c74b83          	lbu	s7,12(a4)
    5cd4:	64078b13          	addi	s6,a5,1600
    5cd8:	01640b33          	add	s6,s0,s6
    5cdc:	64178a93          	addi	s5,a5,1601
    5ce0:	017b0023          	sb	s7,0(s6)
    5ce4:	01540ab3          	add	s5,s0,s5
    5ce8:	017a8023          	sb	s7,0(s5)
    5cec:	00c74b83          	lbu	s7,12(a4)
    5cf0:	64278b13          	addi	s6,a5,1602
    5cf4:	01640b33          	add	s6,s0,s6
    5cf8:	64378a93          	addi	s5,a5,1603
    5cfc:	017b0023          	sb	s7,0(s6)
    5d00:	01540ab3          	add	s5,s0,s5
    5d04:	017a8023          	sb	s7,0(s5)
    5d08:	00c74b83          	lbu	s7,12(a4)
    5d0c:	64478b13          	addi	s6,a5,1604
    5d10:	01640b33          	add	s6,s0,s6
    5d14:	64578a93          	addi	s5,a5,1605
    5d18:	017b0023          	sb	s7,0(s6)
    5d1c:	01540ab3          	add	s5,s0,s5
    5d20:	017a8023          	sb	s7,0(s5)
    5d24:	00c74b83          	lbu	s7,12(a4)
    5d28:	64678b13          	addi	s6,a5,1606
    5d2c:	01640b33          	add	s6,s0,s6
    5d30:	64778a93          	addi	s5,a5,1607
    5d34:	017b0023          	sb	s7,0(s6)
    5d38:	01540ab3          	add	s5,s0,s5
    5d3c:	017a8023          	sb	s7,0(s5)
    5d40:	00c74b83          	lbu	s7,12(a4)
    5d44:	78078b13          	addi	s6,a5,1920
    5d48:	01640b33          	add	s6,s0,s6
    5d4c:	78178a93          	addi	s5,a5,1921
    5d50:	017b0023          	sb	s7,0(s6)
    5d54:	01540ab3          	add	s5,s0,s5
    5d58:	017a8023          	sb	s7,0(s5)
    5d5c:	00c74b83          	lbu	s7,12(a4)
    5d60:	78278b13          	addi	s6,a5,1922
    5d64:	01640b33          	add	s6,s0,s6
    5d68:	78378a93          	addi	s5,a5,1923
    5d6c:	017b0023          	sb	s7,0(s6)
    5d70:	01540ab3          	add	s5,s0,s5
    5d74:	017a8023          	sb	s7,0(s5)
    5d78:	00c74b83          	lbu	s7,12(a4)
    5d7c:	78478b13          	addi	s6,a5,1924
    5d80:	01640b33          	add	s6,s0,s6
    5d84:	78578a93          	addi	s5,a5,1925
    5d88:	017b0023          	sb	s7,0(s6)
    5d8c:	01540ab3          	add	s5,s0,s5
    5d90:	017a8023          	sb	s7,0(s5)
    5d94:	00c74b83          	lbu	s7,12(a4)
    5d98:	78678b13          	addi	s6,a5,1926
    5d9c:	01640b33          	add	s6,s0,s6
    5da0:	78778a93          	addi	s5,a5,1927
    5da4:	017b0023          	sb	s7,0(s6)
    5da8:	01540ab3          	add	s5,s0,s5
    5dac:	017a8023          	sb	s7,0(s5)
    5db0:	00c74b83          	lbu	s7,12(a4)
    5db4:	00778b33          	add	s6,a5,t2
    5db8:	01640b33          	add	s6,s0,s6
    5dbc:	00578ab3          	add	s5,a5,t0
    5dc0:	017b0023          	sb	s7,0(s6)
    5dc4:	01540ab3          	add	s5,s0,s5
    5dc8:	017a8023          	sb	s7,0(s5)
    5dcc:	00c74b83          	lbu	s7,12(a4)
    5dd0:	01f78b33          	add	s6,a5,t6
    5dd4:	01640b33          	add	s6,s0,s6
    5dd8:	01e78ab3          	add	s5,a5,t5
    5ddc:	017b0023          	sb	s7,0(s6)
    5de0:	01540ab3          	add	s5,s0,s5
    5de4:	017a8023          	sb	s7,0(s5)
    5de8:	00c74b83          	lbu	s7,12(a4)
    5dec:	01d78b33          	add	s6,a5,t4
    5df0:	01640b33          	add	s6,s0,s6
    5df4:	01c78ab3          	add	s5,a5,t3
    5df8:	017b0023          	sb	s7,0(s6)
    5dfc:	01540ab3          	add	s5,s0,s5
    5e00:	017a8023          	sb	s7,0(s5)
    5e04:	00c74b03          	lbu	s6,12(a4)
    5e08:	00678ab3          	add	s5,a5,t1
    5e0c:	01540ab3          	add	s5,s0,s5
    5e10:	011787b3          	add	a5,a5,a7
    5e14:	016a8023          	sb	s6,0(s5)
    5e18:	00f407b3          	add	a5,s0,a5
    5e1c:	01678023          	sb	s6,0(a5)
    5e20:	c25ff06f          	j	5a44 <tick+0x884>
    5e24:	0d04a583          	lw	a1,208(s1)
    5e28:	0cc4a383          	lw	t2,204(s1)
    5e2c:	0d44c983          	lbu	s3,212(s1)
    5e30:	00b505b3          	add	a1,a0,a1
    5e34:	00558593          	addi	a1,a1,5
    5e38:	00259793          	slli	a5,a1,0x2
    5e3c:	00b787b3          	add	a5,a5,a1
    5e40:	007705b3          	add	a1,a4,t2
    5e44:	00f58593          	addi	a1,a1,15
    5e48:	00679793          	slli	a5,a5,0x6
    5e4c:	00b787b3          	add	a5,a5,a1
    5e50:	00379793          	slli	a5,a5,0x3
    5e54:	00f403b3          	add	t2,s0,a5
    5e58:	00178593          	addi	a1,a5,1
    5e5c:	01338023          	sb	s3,0(t2)
    5e60:	00b405b3          	add	a1,s0,a1
    5e64:	01358023          	sb	s3,0(a1)
    5e68:	0d44c983          	lbu	s3,212(s1)
    5e6c:	00278393          	addi	t2,a5,2
    5e70:	007403b3          	add	t2,s0,t2
    5e74:	00378593          	addi	a1,a5,3
    5e78:	01338023          	sb	s3,0(t2)
    5e7c:	00b405b3          	add	a1,s0,a1
    5e80:	01358023          	sb	s3,0(a1)
    5e84:	0d44c983          	lbu	s3,212(s1)
    5e88:	00478393          	addi	t2,a5,4
    5e8c:	007403b3          	add	t2,s0,t2
    5e90:	00578593          	addi	a1,a5,5
    5e94:	01338023          	sb	s3,0(t2)
    5e98:	00b405b3          	add	a1,s0,a1
    5e9c:	01358023          	sb	s3,0(a1)
    5ea0:	0d44c983          	lbu	s3,212(s1)
    5ea4:	00678393          	addi	t2,a5,6
    5ea8:	007403b3          	add	t2,s0,t2
    5eac:	00778593          	addi	a1,a5,7
    5eb0:	01338023          	sb	s3,0(t2)
    5eb4:	00b405b3          	add	a1,s0,a1
    5eb8:	01358023          	sb	s3,0(a1)
    5ebc:	0d44c983          	lbu	s3,212(s1)
    5ec0:	14078393          	addi	t2,a5,320
    5ec4:	007403b3          	add	t2,s0,t2
    5ec8:	14178593          	addi	a1,a5,321
    5ecc:	01338023          	sb	s3,0(t2)
    5ed0:	00b405b3          	add	a1,s0,a1
    5ed4:	01358023          	sb	s3,0(a1)
    5ed8:	0d44c983          	lbu	s3,212(s1)
    5edc:	14278393          	addi	t2,a5,322
    5ee0:	007403b3          	add	t2,s0,t2
    5ee4:	14378593          	addi	a1,a5,323
    5ee8:	01338023          	sb	s3,0(t2)
    5eec:	00b405b3          	add	a1,s0,a1
    5ef0:	01358023          	sb	s3,0(a1)
    5ef4:	0d44c983          	lbu	s3,212(s1)
    5ef8:	14478393          	addi	t2,a5,324
    5efc:	007403b3          	add	t2,s0,t2
    5f00:	14578593          	addi	a1,a5,325
    5f04:	01338023          	sb	s3,0(t2)
    5f08:	00b405b3          	add	a1,s0,a1
    5f0c:	01358023          	sb	s3,0(a1)
    5f10:	0d44c983          	lbu	s3,212(s1)
    5f14:	14678393          	addi	t2,a5,326
    5f18:	007403b3          	add	t2,s0,t2
    5f1c:	14778593          	addi	a1,a5,327
    5f20:	01338023          	sb	s3,0(t2)
    5f24:	00b405b3          	add	a1,s0,a1
    5f28:	01358023          	sb	s3,0(a1)
    5f2c:	0d44c983          	lbu	s3,212(s1)
    5f30:	28078393          	addi	t2,a5,640
    5f34:	007403b3          	add	t2,s0,t2
    5f38:	28178593          	addi	a1,a5,641
    5f3c:	01338023          	sb	s3,0(t2)
    5f40:	00b405b3          	add	a1,s0,a1
    5f44:	01358023          	sb	s3,0(a1)
    5f48:	0d44c983          	lbu	s3,212(s1)
    5f4c:	28278393          	addi	t2,a5,642
    5f50:	007403b3          	add	t2,s0,t2
    5f54:	28378593          	addi	a1,a5,643
    5f58:	01338023          	sb	s3,0(t2)
    5f5c:	00b405b3          	add	a1,s0,a1
    5f60:	01358023          	sb	s3,0(a1)
    5f64:	0d44c983          	lbu	s3,212(s1)
    5f68:	28478393          	addi	t2,a5,644
    5f6c:	007403b3          	add	t2,s0,t2
    5f70:	28578593          	addi	a1,a5,645
    5f74:	01338023          	sb	s3,0(t2)
    5f78:	00b405b3          	add	a1,s0,a1
    5f7c:	01358023          	sb	s3,0(a1)
    5f80:	0d44c983          	lbu	s3,212(s1)
    5f84:	28678393          	addi	t2,a5,646
    5f88:	007403b3          	add	t2,s0,t2
    5f8c:	28778593          	addi	a1,a5,647
    5f90:	01338023          	sb	s3,0(t2)
    5f94:	00b405b3          	add	a1,s0,a1
    5f98:	01358023          	sb	s3,0(a1)
    5f9c:	0d44c983          	lbu	s3,212(s1)
    5fa0:	3c078393          	addi	t2,a5,960
    5fa4:	007403b3          	add	t2,s0,t2
    5fa8:	3c178593          	addi	a1,a5,961
    5fac:	01338023          	sb	s3,0(t2)
    5fb0:	00b405b3          	add	a1,s0,a1
    5fb4:	01358023          	sb	s3,0(a1)
    5fb8:	0d44c983          	lbu	s3,212(s1)
    5fbc:	3c278393          	addi	t2,a5,962
    5fc0:	007403b3          	add	t2,s0,t2
    5fc4:	3c378593          	addi	a1,a5,963
    5fc8:	01338023          	sb	s3,0(t2)
    5fcc:	00b405b3          	add	a1,s0,a1
    5fd0:	01358023          	sb	s3,0(a1)
    5fd4:	0d44c983          	lbu	s3,212(s1)
    5fd8:	3c478393          	addi	t2,a5,964
    5fdc:	007403b3          	add	t2,s0,t2
    5fe0:	3c578593          	addi	a1,a5,965
    5fe4:	01338023          	sb	s3,0(t2)
    5fe8:	00b405b3          	add	a1,s0,a1
    5fec:	01358023          	sb	s3,0(a1)
    5ff0:	0d44c983          	lbu	s3,212(s1)
    5ff4:	3c678393          	addi	t2,a5,966
    5ff8:	007403b3          	add	t2,s0,t2
    5ffc:	3c778593          	addi	a1,a5,967
    6000:	01338023          	sb	s3,0(t2)
    6004:	00b405b3          	add	a1,s0,a1
    6008:	01358023          	sb	s3,0(a1)
    600c:	0d44c983          	lbu	s3,212(s1)
    6010:	50078393          	addi	t2,a5,1280
    6014:	007403b3          	add	t2,s0,t2
    6018:	50178593          	addi	a1,a5,1281
    601c:	01338023          	sb	s3,0(t2)
    6020:	00b405b3          	add	a1,s0,a1
    6024:	01358023          	sb	s3,0(a1)
    6028:	0d44c983          	lbu	s3,212(s1)
    602c:	50278393          	addi	t2,a5,1282
    6030:	007403b3          	add	t2,s0,t2
    6034:	50378593          	addi	a1,a5,1283
    6038:	01338023          	sb	s3,0(t2)
    603c:	00b405b3          	add	a1,s0,a1
    6040:	01358023          	sb	s3,0(a1)
    6044:	0d44c983          	lbu	s3,212(s1)
    6048:	50478393          	addi	t2,a5,1284
    604c:	007403b3          	add	t2,s0,t2
    6050:	50578593          	addi	a1,a5,1285
    6054:	01338023          	sb	s3,0(t2)
    6058:	00b405b3          	add	a1,s0,a1
    605c:	01358023          	sb	s3,0(a1)
    6060:	0d44c983          	lbu	s3,212(s1)
    6064:	50678393          	addi	t2,a5,1286
    6068:	007403b3          	add	t2,s0,t2
    606c:	50778593          	addi	a1,a5,1287
    6070:	01338023          	sb	s3,0(t2)
    6074:	00b405b3          	add	a1,s0,a1
    6078:	01358023          	sb	s3,0(a1)
    607c:	0d44c983          	lbu	s3,212(s1)
    6080:	64078393          	addi	t2,a5,1600
    6084:	007403b3          	add	t2,s0,t2
    6088:	64178593          	addi	a1,a5,1601
    608c:	01338023          	sb	s3,0(t2)
    6090:	00b405b3          	add	a1,s0,a1
    6094:	01358023          	sb	s3,0(a1)
    6098:	0d44c983          	lbu	s3,212(s1)
    609c:	64278393          	addi	t2,a5,1602
    60a0:	007403b3          	add	t2,s0,t2
    60a4:	64378593          	addi	a1,a5,1603
    60a8:	01338023          	sb	s3,0(t2)
    60ac:	00b405b3          	add	a1,s0,a1
    60b0:	01358023          	sb	s3,0(a1)
    60b4:	0d44c983          	lbu	s3,212(s1)
    60b8:	64478393          	addi	t2,a5,1604
    60bc:	007403b3          	add	t2,s0,t2
    60c0:	64578593          	addi	a1,a5,1605
    60c4:	01338023          	sb	s3,0(t2)
    60c8:	00b405b3          	add	a1,s0,a1
    60cc:	01358023          	sb	s3,0(a1)
    60d0:	0d44c983          	lbu	s3,212(s1)
    60d4:	64678393          	addi	t2,a5,1606
    60d8:	007403b3          	add	t2,s0,t2
    60dc:	64778593          	addi	a1,a5,1607
    60e0:	01338023          	sb	s3,0(t2)
    60e4:	00b405b3          	add	a1,s0,a1
    60e8:	01358023          	sb	s3,0(a1)
    60ec:	0d44c983          	lbu	s3,212(s1)
    60f0:	78078393          	addi	t2,a5,1920
    60f4:	007403b3          	add	t2,s0,t2
    60f8:	78178593          	addi	a1,a5,1921
    60fc:	01338023          	sb	s3,0(t2)
    6100:	00b405b3          	add	a1,s0,a1
    6104:	01358023          	sb	s3,0(a1)
    6108:	0d44c983          	lbu	s3,212(s1)
    610c:	78278393          	addi	t2,a5,1922
    6110:	007403b3          	add	t2,s0,t2
    6114:	78378593          	addi	a1,a5,1923
    6118:	01338023          	sb	s3,0(t2)
    611c:	00b405b3          	add	a1,s0,a1
    6120:	01358023          	sb	s3,0(a1)
    6124:	0d44c983          	lbu	s3,212(s1)
    6128:	78478393          	addi	t2,a5,1924
    612c:	007403b3          	add	t2,s0,t2
    6130:	78578593          	addi	a1,a5,1925
    6134:	01338023          	sb	s3,0(t2)
    6138:	00b405b3          	add	a1,s0,a1
    613c:	01358023          	sb	s3,0(a1)
    6140:	0d44c983          	lbu	s3,212(s1)
    6144:	78678393          	addi	t2,a5,1926
    6148:	007403b3          	add	t2,s0,t2
    614c:	78778593          	addi	a1,a5,1927
    6150:	01338023          	sb	s3,0(t2)
    6154:	00b405b3          	add	a1,s0,a1
    6158:	01358023          	sb	s3,0(a1)
    615c:	0d44c983          	lbu	s3,212(s1)
    6160:	005783b3          	add	t2,a5,t0
    6164:	007403b3          	add	t2,s0,t2
    6168:	01f785b3          	add	a1,a5,t6
    616c:	01338023          	sb	s3,0(t2)
    6170:	00b405b3          	add	a1,s0,a1
    6174:	01358023          	sb	s3,0(a1)
    6178:	0d44c983          	lbu	s3,212(s1)
    617c:	01e783b3          	add	t2,a5,t5
    6180:	007403b3          	add	t2,s0,t2
    6184:	01d785b3          	add	a1,a5,t4
    6188:	01338023          	sb	s3,0(t2)
    618c:	00b405b3          	add	a1,s0,a1
    6190:	01358023          	sb	s3,0(a1)
    6194:	0d44c983          	lbu	s3,212(s1)
    6198:	01c783b3          	add	t2,a5,t3
    619c:	007403b3          	add	t2,s0,t2
    61a0:	006785b3          	add	a1,a5,t1
    61a4:	01338023          	sb	s3,0(t2)
    61a8:	00b405b3          	add	a1,s0,a1
    61ac:	01358023          	sb	s3,0(a1)
    61b0:	0d44c383          	lbu	t2,212(s1)
    61b4:	011785b3          	add	a1,a5,a7
    61b8:	00b405b3          	add	a1,s0,a1
    61bc:	010787b3          	add	a5,a5,a6
    61c0:	00758023          	sb	t2,0(a1)
    61c4:	00f407b3          	add	a5,s0,a5
    61c8:	00778023          	sb	t2,0(a5)
    61cc:	b5cff06f          	j	5528 <tick+0x368>
    61d0:	1244cd03          	lbu	s10,292(s1)
    61d4:	01d78633          	add	a2,a5,t4
    61d8:	01c786b3          	add	a3,a5,t3
    61dc:	01a60023          	sb	s10,0(a2)
    61e0:	01a68023          	sb	s10,0(a3)
    61e4:	1244cd03          	lbu	s10,292(s1)
    61e8:	00678633          	add	a2,a5,t1
    61ec:	011786b3          	add	a3,a5,a7
    61f0:	01a60023          	sb	s10,0(a2)
    61f4:	01a68023          	sb	s10,0(a3)
    61f8:	1244cd03          	lbu	s10,292(s1)
    61fc:	01078633          	add	a2,a5,a6
    6200:	00a786b3          	add	a3,a5,a0
    6204:	01a60023          	sb	s10,0(a2)
    6208:	01a68023          	sb	s10,0(a3)
    620c:	00c12683          	lw	a3,12(sp)
    6210:	1244cd03          	lbu	s10,292(s1)
    6214:	00d78633          	add	a2,a5,a3
    6218:	01012683          	lw	a3,16(sp)
    621c:	01a60023          	sb	s10,0(a2)
    6220:	00d786b3          	add	a3,a5,a3
    6224:	01a68023          	sb	s10,0(a3)
    6228:	01412683          	lw	a3,20(sp)
    622c:	1244cd03          	lbu	s10,292(s1)
    6230:	00d78633          	add	a2,a5,a3
    6234:	01812683          	lw	a3,24(sp)
    6238:	01a60023          	sb	s10,0(a2)
    623c:	00d786b3          	add	a3,a5,a3
    6240:	01a68023          	sb	s10,0(a3)
    6244:	01c12683          	lw	a3,28(sp)
    6248:	1244cd03          	lbu	s10,292(s1)
    624c:	00d78633          	add	a2,a5,a3
    6250:	02012683          	lw	a3,32(sp)
    6254:	01a60023          	sb	s10,0(a2)
    6258:	01978633          	add	a2,a5,s9
    625c:	00d786b3          	add	a3,a5,a3
    6260:	01a68023          	sb	s10,0(a3)
    6264:	1244cd03          	lbu	s10,292(s1)
    6268:	018786b3          	add	a3,a5,s8
    626c:	01a60023          	sb	s10,0(a2)
    6270:	01a68023          	sb	s10,0(a3)
    6274:	1244cd03          	lbu	s10,292(s1)
    6278:	01778633          	add	a2,a5,s7
    627c:	016786b3          	add	a3,a5,s6
    6280:	01a60023          	sb	s10,0(a2)
    6284:	01a68023          	sb	s10,0(a3)
    6288:	1244cd03          	lbu	s10,292(s1)
    628c:	01578633          	add	a2,a5,s5
    6290:	008786b3          	add	a3,a5,s0
    6294:	01a60023          	sb	s10,0(a2)
    6298:	01a68023          	sb	s10,0(a3)
    629c:	1244cd03          	lbu	s10,292(s1)
    62a0:	00178633          	add	a2,a5,ra
    62a4:	007786b3          	add	a3,a5,t2
    62a8:	01a60023          	sb	s10,0(a2)
    62ac:	01a68023          	sb	s10,0(a3)
    62b0:	1244cd03          	lbu	s10,292(s1)
    62b4:	00578633          	add	a2,a5,t0
    62b8:	01f786b3          	add	a3,a5,t6
    62bc:	01a60023          	sb	s10,0(a2)
    62c0:	01a68023          	sb	s10,0(a3)
    62c4:	1244cd03          	lbu	s10,292(s1)
    62c8:	000036b7          	lui	a3,0x3
    62cc:	01e78633          	add	a2,a5,t5
    62d0:	58b68693          	addi	a3,a3,1419 # 358b <update_shape+0x5e7>
    62d4:	01a60023          	sb	s10,0(a2)
    62d8:	00d786b3          	add	a3,a5,a3
    62dc:	01a68023          	sb	s10,0(a3)
    62e0:	1244cd03          	lbu	s10,292(s1)
    62e4:	00003637          	lui	a2,0x3
    62e8:	6c460613          	addi	a2,a2,1732 # 36c4 <collision+0xd0>
    62ec:	000036b7          	lui	a3,0x3
    62f0:	00c78633          	add	a2,a5,a2
    62f4:	6c568693          	addi	a3,a3,1733 # 36c5 <collision+0xd1>
    62f8:	01a60023          	sb	s10,0(a2)
    62fc:	00d786b3          	add	a3,a5,a3
    6300:	01a68023          	sb	s10,0(a3)
    6304:	1244cd03          	lbu	s10,292(s1)
    6308:	00003637          	lui	a2,0x3
    630c:	6c660613          	addi	a2,a2,1734 # 36c6 <collision+0xd2>
    6310:	000036b7          	lui	a3,0x3
    6314:	00c78633          	add	a2,a5,a2
    6318:	6c768693          	addi	a3,a3,1735 # 36c7 <collision+0xd3>
    631c:	01a60023          	sb	s10,0(a2)
    6320:	00d786b3          	add	a3,a5,a3
    6324:	01a68023          	sb	s10,0(a3)
    6328:	1244cd03          	lbu	s10,292(s1)
    632c:	00003637          	lui	a2,0x3
    6330:	6c860613          	addi	a2,a2,1736 # 36c8 <collision+0xd4>
    6334:	000036b7          	lui	a3,0x3
    6338:	00c78633          	add	a2,a5,a2
    633c:	6c968693          	addi	a3,a3,1737 # 36c9 <collision+0xd5>
    6340:	01a60023          	sb	s10,0(a2)
    6344:	00d786b3          	add	a3,a5,a3
    6348:	01a68023          	sb	s10,0(a3)
    634c:	1244cd03          	lbu	s10,292(s1)
    6350:	00003637          	lui	a2,0x3
    6354:	6ca60613          	addi	a2,a2,1738 # 36ca <collision+0xd6>
    6358:	000036b7          	lui	a3,0x3
    635c:	00c78633          	add	a2,a5,a2
    6360:	6cb68693          	addi	a3,a3,1739 # 36cb <collision+0xd7>
    6364:	01a60023          	sb	s10,0(a2)
    6368:	00d786b3          	add	a3,a5,a3
    636c:	01a68023          	sb	s10,0(a3)
    6370:	1244cd03          	lbu	s10,292(s1)
    6374:	00004637          	lui	a2,0x4
    6378:	80460613          	addi	a2,a2,-2044 # 3804 <collision+0x210>
    637c:	000046b7          	lui	a3,0x4
    6380:	00c78633          	add	a2,a5,a2
    6384:	80568693          	addi	a3,a3,-2043 # 3805 <collision+0x211>
    6388:	01a60023          	sb	s10,0(a2)
    638c:	00d786b3          	add	a3,a5,a3
    6390:	01a68023          	sb	s10,0(a3)
    6394:	1244cd03          	lbu	s10,292(s1)
    6398:	00004637          	lui	a2,0x4
    639c:	80660613          	addi	a2,a2,-2042 # 3806 <collision+0x212>
    63a0:	000046b7          	lui	a3,0x4
    63a4:	00c78633          	add	a2,a5,a2
    63a8:	80768693          	addi	a3,a3,-2041 # 3807 <collision+0x213>
    63ac:	01a60023          	sb	s10,0(a2)
    63b0:	00d786b3          	add	a3,a5,a3
    63b4:	01a68023          	sb	s10,0(a3)
    63b8:	1244cd03          	lbu	s10,292(s1)
    63bc:	00004637          	lui	a2,0x4
    63c0:	80860613          	addi	a2,a2,-2040 # 3808 <collision+0x214>
    63c4:	000046b7          	lui	a3,0x4
    63c8:	00c78633          	add	a2,a5,a2
    63cc:	80968693          	addi	a3,a3,-2039 # 3809 <collision+0x215>
    63d0:	01a60023          	sb	s10,0(a2)
    63d4:	00d786b3          	add	a3,a5,a3
    63d8:	01a68023          	sb	s10,0(a3)
    63dc:	1244cd03          	lbu	s10,292(s1)
    63e0:	00004637          	lui	a2,0x4
    63e4:	80a60613          	addi	a2,a2,-2038 # 380a <collision+0x216>
    63e8:	000046b7          	lui	a3,0x4
    63ec:	00c78633          	add	a2,a5,a2
    63f0:	80b68693          	addi	a3,a3,-2037 # 380b <collision+0x217>
    63f4:	01a60023          	sb	s10,0(a2)
    63f8:	00d786b3          	add	a3,a5,a3
    63fc:	01a68023          	sb	s10,0(a3)
    6400:	00004637          	lui	a2,0x4
    6404:	1244cd03          	lbu	s10,292(s1)
    6408:	94460613          	addi	a2,a2,-1724 # 3944 <collision+0x350>
    640c:	000046b7          	lui	a3,0x4
    6410:	00c78633          	add	a2,a5,a2
    6414:	94568693          	addi	a3,a3,-1723 # 3945 <collision+0x351>
    6418:	01a60023          	sb	s10,0(a2)
    641c:	00d786b3          	add	a3,a5,a3
    6420:	01a68023          	sb	s10,0(a3)
    6424:	1244cd03          	lbu	s10,292(s1)
    6428:	00004637          	lui	a2,0x4
    642c:	94660613          	addi	a2,a2,-1722 # 3946 <collision+0x352>
    6430:	000046b7          	lui	a3,0x4
    6434:	00c78633          	add	a2,a5,a2
    6438:	94768693          	addi	a3,a3,-1721 # 3947 <collision+0x353>
    643c:	01a60023          	sb	s10,0(a2)
    6440:	00d786b3          	add	a3,a5,a3
    6444:	01a68023          	sb	s10,0(a3)
    6448:	1244cd03          	lbu	s10,292(s1)
    644c:	00004637          	lui	a2,0x4
    6450:	94860613          	addi	a2,a2,-1720 # 3948 <collision+0x354>
    6454:	000046b7          	lui	a3,0x4
    6458:	00c78633          	add	a2,a5,a2
    645c:	94968693          	addi	a3,a3,-1719 # 3949 <collision+0x355>
    6460:	01a60023          	sb	s10,0(a2)
    6464:	00d786b3          	add	a3,a5,a3
    6468:	01a68023          	sb	s10,0(a3)
    646c:	1244cd03          	lbu	s10,292(s1)
    6470:	00004637          	lui	a2,0x4
    6474:	94a60613          	addi	a2,a2,-1718 # 394a <collision+0x356>
    6478:	000046b7          	lui	a3,0x4
    647c:	00c78633          	add	a2,a5,a2
    6480:	94b68693          	addi	a3,a3,-1717 # 394b <collision+0x357>
    6484:	01a60023          	sb	s10,0(a2)
    6488:	00d786b3          	add	a3,a5,a3
    648c:	01a68023          	sb	s10,0(a3)
    6490:	1244cd03          	lbu	s10,292(s1)
    6494:	00004637          	lui	a2,0x4
    6498:	a8460613          	addi	a2,a2,-1404 # 3a84 <collision+0x490>
    649c:	000046b7          	lui	a3,0x4
    64a0:	00c78633          	add	a2,a5,a2
    64a4:	a8568693          	addi	a3,a3,-1403 # 3a85 <collision+0x491>
    64a8:	01a60023          	sb	s10,0(a2)
    64ac:	00d786b3          	add	a3,a5,a3
    64b0:	01a68023          	sb	s10,0(a3)
    64b4:	1244cd03          	lbu	s10,292(s1)
    64b8:	00004637          	lui	a2,0x4
    64bc:	a8660613          	addi	a2,a2,-1402 # 3a86 <collision+0x492>
    64c0:	000046b7          	lui	a3,0x4
    64c4:	00c78633          	add	a2,a5,a2
    64c8:	a8768693          	addi	a3,a3,-1401 # 3a87 <collision+0x493>
    64cc:	01a60023          	sb	s10,0(a2)
    64d0:	00d786b3          	add	a3,a5,a3
    64d4:	01a68023          	sb	s10,0(a3)
    64d8:	1244cd03          	lbu	s10,292(s1)
    64dc:	00004637          	lui	a2,0x4
    64e0:	a8860613          	addi	a2,a2,-1400 # 3a88 <collision+0x494>
    64e4:	000046b7          	lui	a3,0x4
    64e8:	00c78633          	add	a2,a5,a2
    64ec:	a8968693          	addi	a3,a3,-1399 # 3a89 <collision+0x495>
    64f0:	01a60023          	sb	s10,0(a2)
    64f4:	00d786b3          	add	a3,a5,a3
    64f8:	01a68023          	sb	s10,0(a3)
    64fc:	1244cd03          	lbu	s10,292(s1)
    6500:	00004637          	lui	a2,0x4
    6504:	a8a60613          	addi	a2,a2,-1398 # 3a8a <collision+0x496>
    6508:	000046b7          	lui	a3,0x4
    650c:	00c78633          	add	a2,a5,a2
    6510:	a8b68693          	addi	a3,a3,-1397 # 3a8b <collision+0x497>
    6514:	01a60023          	sb	s10,0(a2)
    6518:	00d786b3          	add	a3,a5,a3
    651c:	01a68023          	sb	s10,0(a3)
    6520:	1244cd03          	lbu	s10,292(s1)
    6524:	00004637          	lui	a2,0x4
    6528:	bc460613          	addi	a2,a2,-1084 # 3bc4 <rotate_piece+0x94>
    652c:	000046b7          	lui	a3,0x4
    6530:	00c78633          	add	a2,a5,a2
    6534:	bc568693          	addi	a3,a3,-1083 # 3bc5 <rotate_piece+0x95>
    6538:	01a60023          	sb	s10,0(a2)
    653c:	00d786b3          	add	a3,a5,a3
    6540:	01a68023          	sb	s10,0(a3)
    6544:	1244cd03          	lbu	s10,292(s1)
    6548:	00004637          	lui	a2,0x4
    654c:	bc660613          	addi	a2,a2,-1082 # 3bc6 <rotate_piece+0x96>
    6550:	000046b7          	lui	a3,0x4
    6554:	00c78633          	add	a2,a5,a2
    6558:	bc768693          	addi	a3,a3,-1081 # 3bc7 <rotate_piece+0x97>
    655c:	01a60023          	sb	s10,0(a2)
    6560:	00d786b3          	add	a3,a5,a3
    6564:	01a68023          	sb	s10,0(a3)
    6568:	1244cd03          	lbu	s10,292(s1)
    656c:	00004637          	lui	a2,0x4
    6570:	bc860613          	addi	a2,a2,-1080 # 3bc8 <rotate_piece+0x98>
    6574:	000046b7          	lui	a3,0x4
    6578:	00c78633          	add	a2,a5,a2
    657c:	bc968693          	addi	a3,a3,-1079 # 3bc9 <rotate_piece+0x99>
    6580:	01a60023          	sb	s10,0(a2)
    6584:	00d786b3          	add	a3,a5,a3
    6588:	01a68023          	sb	s10,0(a3)
    658c:	00004637          	lui	a2,0x4
    6590:	1244cd03          	lbu	s10,292(s1)
    6594:	bca60613          	addi	a2,a2,-1078 # 3bca <rotate_piece+0x9a>
    6598:	000046b7          	lui	a3,0x4
    659c:	00c78633          	add	a2,a5,a2
    65a0:	bcb68693          	addi	a3,a3,-1077 # 3bcb <rotate_piece+0x9b>
    65a4:	01a60023          	sb	s10,0(a2)
    65a8:	00d786b3          	add	a3,a5,a3
    65ac:	01a68023          	sb	s10,0(a3)
    65b0:	bdcff06f          	j	598c <tick+0x7cc>
    65b4:	01c786b3          	add	a3,a5,t3
    65b8:	00068023          	sb	zero,0(a3)
    65bc:	006786b3          	add	a3,a5,t1
    65c0:	00068023          	sb	zero,0(a3)
    65c4:	011786b3          	add	a3,a5,a7
    65c8:	00068023          	sb	zero,0(a3)
    65cc:	00c12683          	lw	a3,12(sp)
    65d0:	01e785b3          	add	a1,a5,t5
    65d4:	01d78533          	add	a0,a5,t4
    65d8:	00d786b3          	add	a3,a5,a3
    65dc:	00068023          	sb	zero,0(a3)
    65e0:	01012683          	lw	a3,16(sp)
    65e4:	00003d37          	lui	s10,0x3
    65e8:	6cad0d13          	addi	s10,s10,1738 # 36ca <collision+0xd6>
    65ec:	00d786b3          	add	a3,a5,a3
    65f0:	00068023          	sb	zero,0(a3)
    65f4:	01412683          	lw	a3,20(sp)
    65f8:	01a78d33          	add	s10,a5,s10
    65fc:	00d786b3          	add	a3,a5,a3
    6600:	00068023          	sb	zero,0(a3)
    6604:	01812683          	lw	a3,24(sp)
    6608:	00d786b3          	add	a3,a5,a3
    660c:	00068023          	sb	zero,0(a3)
    6610:	01c12683          	lw	a3,28(sp)
    6614:	00d786b3          	add	a3,a5,a3
    6618:	00068023          	sb	zero,0(a3)
    661c:	02012683          	lw	a3,32(sp)
    6620:	00d786b3          	add	a3,a5,a3
    6624:	00068023          	sb	zero,0(a3)
    6628:	02412683          	lw	a3,36(sp)
    662c:	00d786b3          	add	a3,a5,a3
    6630:	00068023          	sb	zero,0(a3)
    6634:	02812683          	lw	a3,40(sp)
    6638:	00d786b3          	add	a3,a5,a3
    663c:	00068023          	sb	zero,0(a3)
    6640:	019786b3          	add	a3,a5,s9
    6644:	00068023          	sb	zero,0(a3)
    6648:	018786b3          	add	a3,a5,s8
    664c:	00068023          	sb	zero,0(a3)
    6650:	017786b3          	add	a3,a5,s7
    6654:	00068023          	sb	zero,0(a3)
    6658:	016786b3          	add	a3,a5,s6
    665c:	00068023          	sb	zero,0(a3)
    6660:	015786b3          	add	a3,a5,s5
    6664:	00068023          	sb	zero,0(a3)
    6668:	014786b3          	add	a3,a5,s4
    666c:	00068023          	sb	zero,0(a3)
    6670:	001786b3          	add	a3,a5,ra
    6674:	00068023          	sb	zero,0(a3)
    6678:	007786b3          	add	a3,a5,t2
    667c:	00068023          	sb	zero,0(a3)
    6680:	005786b3          	add	a3,a5,t0
    6684:	00068023          	sb	zero,0(a3)
    6688:	01f786b3          	add	a3,a5,t6
    668c:	00068023          	sb	zero,0(a3)
    6690:	000036b7          	lui	a3,0x3
    6694:	00058023          	sb	zero,0(a1)
    6698:	58b68693          	addi	a3,a3,1419 # 358b <update_shape+0x5e7>
    669c:	000035b7          	lui	a1,0x3
    66a0:	00050023          	sb	zero,0(a0)
    66a4:	6c458593          	addi	a1,a1,1732 # 36c4 <collision+0xd0>
    66a8:	00d78533          	add	a0,a5,a3
    66ac:	000036b7          	lui	a3,0x3
    66b0:	00050023          	sb	zero,0(a0)
    66b4:	6c568693          	addi	a3,a3,1733 # 36c5 <collision+0xd1>
    66b8:	00b78533          	add	a0,a5,a1
    66bc:	000035b7          	lui	a1,0x3
    66c0:	00050023          	sb	zero,0(a0)
    66c4:	6c658593          	addi	a1,a1,1734 # 36c6 <collision+0xd2>
    66c8:	00d78533          	add	a0,a5,a3
    66cc:	000036b7          	lui	a3,0x3
    66d0:	00050023          	sb	zero,0(a0)
    66d4:	6c768693          	addi	a3,a3,1735 # 36c7 <collision+0xd3>
    66d8:	00b78533          	add	a0,a5,a1
    66dc:	000035b7          	lui	a1,0x3
    66e0:	00050023          	sb	zero,0(a0)
    66e4:	6c858593          	addi	a1,a1,1736 # 36c8 <collision+0xd4>
    66e8:	00d78533          	add	a0,a5,a3
    66ec:	000036b7          	lui	a3,0x3
    66f0:	00050023          	sb	zero,0(a0)
    66f4:	00b785b3          	add	a1,a5,a1
    66f8:	6c968693          	addi	a3,a3,1737 # 36c9 <collision+0xd5>
    66fc:	00058023          	sb	zero,0(a1)
    6700:	00d785b3          	add	a1,a5,a3
    6704:	000036b7          	lui	a3,0x3
    6708:	00058023          	sb	zero,0(a1)
    670c:	6cb68693          	addi	a3,a3,1739 # 36cb <collision+0xd7>
    6710:	000045b7          	lui	a1,0x4
    6714:	000d0023          	sb	zero,0(s10)
    6718:	00004537          	lui	a0,0x4
    671c:	00d78d33          	add	s10,a5,a3
    6720:	80458593          	addi	a1,a1,-2044 # 3804 <collision+0x210>
    6724:	000d0023          	sb	zero,0(s10)
    6728:	80550513          	addi	a0,a0,-2043 # 3805 <collision+0x211>
    672c:	00b785b3          	add	a1,a5,a1
    6730:	000046b7          	lui	a3,0x4
    6734:	00058023          	sb	zero,0(a1)
    6738:	00a78d33          	add	s10,a5,a0
    673c:	80668693          	addi	a3,a3,-2042 # 3806 <collision+0x212>
    6740:	00004537          	lui	a0,0x4
    6744:	000d0023          	sb	zero,0(s10)
    6748:	00d786b3          	add	a3,a5,a3
    674c:	80750513          	addi	a0,a0,-2041 # 3807 <collision+0x213>
    6750:	000045b7          	lui	a1,0x4
    6754:	00068023          	sb	zero,0(a3)
    6758:	00a78533          	add	a0,a5,a0
    675c:	80858593          	addi	a1,a1,-2040 # 3808 <collision+0x214>
    6760:	000046b7          	lui	a3,0x4
    6764:	00050023          	sb	zero,0(a0)
    6768:	80968693          	addi	a3,a3,-2039 # 3809 <collision+0x215>
    676c:	00b78533          	add	a0,a5,a1
    6770:	000045b7          	lui	a1,0x4
    6774:	00050023          	sb	zero,0(a0)
    6778:	80a58593          	addi	a1,a1,-2038 # 380a <collision+0x216>
    677c:	00d78533          	add	a0,a5,a3
    6780:	000046b7          	lui	a3,0x4
    6784:	00050023          	sb	zero,0(a0)
    6788:	80b68693          	addi	a3,a3,-2037 # 380b <collision+0x217>
    678c:	00b78533          	add	a0,a5,a1
    6790:	000045b7          	lui	a1,0x4
    6794:	00050023          	sb	zero,0(a0)
    6798:	94458593          	addi	a1,a1,-1724 # 3944 <collision+0x350>
    679c:	00d78533          	add	a0,a5,a3
    67a0:	000046b7          	lui	a3,0x4
    67a4:	00050023          	sb	zero,0(a0)
    67a8:	94568693          	addi	a3,a3,-1723 # 3945 <collision+0x351>
    67ac:	00b78533          	add	a0,a5,a1
    67b0:	000045b7          	lui	a1,0x4
    67b4:	00050023          	sb	zero,0(a0)
    67b8:	94658593          	addi	a1,a1,-1722 # 3946 <collision+0x352>
    67bc:	00d78533          	add	a0,a5,a3
    67c0:	000046b7          	lui	a3,0x4
    67c4:	00050023          	sb	zero,0(a0)
    67c8:	94768693          	addi	a3,a3,-1721 # 3947 <collision+0x353>
    67cc:	00b78533          	add	a0,a5,a1
    67d0:	000045b7          	lui	a1,0x4
    67d4:	00050023          	sb	zero,0(a0)
    67d8:	94858593          	addi	a1,a1,-1720 # 3948 <collision+0x354>
    67dc:	00d78533          	add	a0,a5,a3
    67e0:	000046b7          	lui	a3,0x4
    67e4:	00050023          	sb	zero,0(a0)
    67e8:	94968693          	addi	a3,a3,-1719 # 3949 <collision+0x355>
    67ec:	00b78533          	add	a0,a5,a1
    67f0:	000045b7          	lui	a1,0x4
    67f4:	00050023          	sb	zero,0(a0)
    67f8:	94a58593          	addi	a1,a1,-1718 # 394a <collision+0x356>
    67fc:	00d78533          	add	a0,a5,a3
    6800:	000046b7          	lui	a3,0x4
    6804:	00050023          	sb	zero,0(a0)
    6808:	94b68693          	addi	a3,a3,-1717 # 394b <collision+0x357>
    680c:	00b78533          	add	a0,a5,a1
    6810:	000045b7          	lui	a1,0x4
    6814:	00050023          	sb	zero,0(a0)
    6818:	a8458593          	addi	a1,a1,-1404 # 3a84 <collision+0x490>
    681c:	00d78533          	add	a0,a5,a3
    6820:	000046b7          	lui	a3,0x4
    6824:	00050023          	sb	zero,0(a0)
    6828:	a8568693          	addi	a3,a3,-1403 # 3a85 <collision+0x491>
    682c:	00b78533          	add	a0,a5,a1
    6830:	000045b7          	lui	a1,0x4
    6834:	00050023          	sb	zero,0(a0)
    6838:	a8658593          	addi	a1,a1,-1402 # 3a86 <collision+0x492>
    683c:	00d78533          	add	a0,a5,a3
    6840:	000046b7          	lui	a3,0x4
    6844:	00050023          	sb	zero,0(a0)
    6848:	a8768693          	addi	a3,a3,-1401 # 3a87 <collision+0x493>
    684c:	00b78533          	add	a0,a5,a1
    6850:	000045b7          	lui	a1,0x4
    6854:	00050023          	sb	zero,0(a0)
    6858:	a8858593          	addi	a1,a1,-1400 # 3a88 <collision+0x494>
    685c:	00d78533          	add	a0,a5,a3
    6860:	000046b7          	lui	a3,0x4
    6864:	00050023          	sb	zero,0(a0)
    6868:	a8968693          	addi	a3,a3,-1399 # 3a89 <collision+0x495>
    686c:	00b78533          	add	a0,a5,a1
    6870:	000045b7          	lui	a1,0x4
    6874:	00050023          	sb	zero,0(a0)
    6878:	a8a58593          	addi	a1,a1,-1398 # 3a8a <collision+0x496>
    687c:	00d78533          	add	a0,a5,a3
    6880:	000046b7          	lui	a3,0x4
    6884:	00050023          	sb	zero,0(a0)
    6888:	a8b68693          	addi	a3,a3,-1397 # 3a8b <collision+0x497>
    688c:	00b78533          	add	a0,a5,a1
    6890:	000045b7          	lui	a1,0x4
    6894:	00050023          	sb	zero,0(a0)
    6898:	bc458593          	addi	a1,a1,-1084 # 3bc4 <rotate_piece+0x94>
    689c:	00d78533          	add	a0,a5,a3
    68a0:	000046b7          	lui	a3,0x4
    68a4:	00050023          	sb	zero,0(a0)
    68a8:	bc568693          	addi	a3,a3,-1083 # 3bc5 <rotate_piece+0x95>
    68ac:	00b78533          	add	a0,a5,a1
    68b0:	000045b7          	lui	a1,0x4
    68b4:	00050023          	sb	zero,0(a0)
    68b8:	bc658593          	addi	a1,a1,-1082 # 3bc6 <rotate_piece+0x96>
    68bc:	00d78533          	add	a0,a5,a3
    68c0:	000046b7          	lui	a3,0x4
    68c4:	00050023          	sb	zero,0(a0)
    68c8:	bc768693          	addi	a3,a3,-1081 # 3bc7 <rotate_piece+0x97>
    68cc:	00b78533          	add	a0,a5,a1
    68d0:	000045b7          	lui	a1,0x4
    68d4:	00050023          	sb	zero,0(a0)
    68d8:	bc858593          	addi	a1,a1,-1080 # 3bc8 <rotate_piece+0x98>
    68dc:	00d78533          	add	a0,a5,a3
    68e0:	000046b7          	lui	a3,0x4
    68e4:	00050023          	sb	zero,0(a0)
    68e8:	bc968693          	addi	a3,a3,-1079 # 3bc9 <rotate_piece+0x99>
    68ec:	00b78533          	add	a0,a5,a1
    68f0:	000045b7          	lui	a1,0x4
    68f4:	00050023          	sb	zero,0(a0)
    68f8:	bca58593          	addi	a1,a1,-1078 # 3bca <rotate_piece+0x9a>
    68fc:	00d78533          	add	a0,a5,a3
    6900:	000046b7          	lui	a3,0x4
    6904:	00050023          	sb	zero,0(a0)
    6908:	00b785b3          	add	a1,a5,a1
    690c:	bcb68693          	addi	a3,a3,-1077 # 3bcb <rotate_piece+0x9b>
    6910:	00058023          	sb	zero,0(a1)
    6914:	00d786b3          	add	a3,a5,a3
    6918:	00068023          	sb	zero,0(a3)
    691c:	f4dfe06f          	j	5868 <tick+0x6a8>
    6920:	0fc4a783          	lw	a5,252(s1)
    6924:	0a078663          	beqz	a5,69d0 <tick+0x1810>
    6928:	00368513          	addi	a0,a3,3
    692c:	01300793          	li	a5,19
    6930:	00050593          	mv	a1,a0
    6934:	00170813          	addi	a6,a4,1
    6938:	00a7d463          	bge	a5,a0,6940 <tick+0x1780>
    693c:	c55fe06f          	j	5590 <tick+0x3d0>
    6940:	00251613          	slli	a2,a0,0x2
    6944:	a91fe06f          	j	53d4 <tick+0x214>
    6948:	0ec4a783          	lw	a5,236(s1)
    694c:	0c078a63          	beqz	a5,6a20 <tick+0x1860>
    6950:	00268513          	addi	a0,a3,2
    6954:	01300793          	li	a5,19
    6958:	00050593          	mv	a1,a0
    695c:	00170813          	addi	a6,a4,1
    6960:	00a7d463          	bge	a5,a0,6968 <tick+0x17a8>
    6964:	c2dfe06f          	j	5590 <tick+0x3d0>
    6968:	00251613          	slli	a2,a0,0x2
    696c:	00a607b3          	add	a5,a2,a0
    6970:	00179793          	slli	a5,a5,0x1
    6974:	00f487b3          	add	a5,s1,a5
    6978:	010787b3          	add	a5,a5,a6
    697c:	0007c783          	lbu	a5,0(a5)
    6980:	00078463          	beqz	a5,6988 <tick+0x17c8>
    6984:	c0dfe06f          	j	5590 <tick+0x3d0>
    6988:	0f04a783          	lw	a5,240(s1)
    698c:	06078463          	beqz	a5,69f4 <tick+0x1834>
    6990:	00b607b3          	add	a5,a2,a1
    6994:	00179793          	slli	a5,a5,0x1
    6998:	00270513          	addi	a0,a4,2
    699c:	00f487b3          	add	a5,s1,a5
    69a0:	00a787b3          	add	a5,a5,a0
    69a4:	0007c783          	lbu	a5,0(a5)
    69a8:	00079463          	bnez	a5,69b0 <tick+0x17f0>
    69ac:	9bdfe06f          	j	5368 <tick+0x1a8>
    69b0:	be1fe06f          	j	5590 <tick+0x3d0>
    69b4:	0e44a783          	lw	a5,228(s1)
    69b8:	00079463          	bnez	a5,69c0 <tick+0x1800>
    69bc:	941fe06f          	j	52fc <tick+0x13c>
    69c0:	00050593          	mv	a1,a0
    69c4:	00370613          	addi	a2,a4,3
    69c8:	00251793          	slli	a5,a0,0x2
    69cc:	919fe06f          	j	52e4 <tick+0x124>
    69d0:	1004a783          	lw	a5,256(s1)
    69d4:	22078663          	beqz	a5,6c00 <tick+0x1a40>
    69d8:	00368593          	addi	a1,a3,3
    69dc:	01300793          	li	a5,19
    69e0:	00270513          	addi	a0,a4,2
    69e4:	00b7d463          	bge	a5,a1,69ec <tick+0x182c>
    69e8:	ba9fe06f          	j	5590 <tick+0x3d0>
    69ec:	00259613          	slli	a2,a1,0x2
    69f0:	0640006f          	j	6a54 <tick+0x1894>
    69f4:	0f44a783          	lw	a5,244(s1)
    69f8:	00079463          	bnez	a5,6a00 <tick+0x1840>
    69fc:	991fe06f          	j	538c <tick+0x1cc>
    6a00:	00050593          	mv	a1,a0
    6a04:	00259613          	slli	a2,a1,0x2
    6a08:	00370513          	addi	a0,a4,3
    6a0c:	969fe06f          	j	5374 <tick+0x1b4>
    6a10:	0c848913          	addi	s2,s1,200
    6a14:	00090513          	mv	a0,s2
    6a18:	f58fd0ef          	jal	4170 <move_piece>
    6a1c:	ffcfe06f          	j	5218 <tick+0x58>
    6a20:	0f04a783          	lw	a5,240(s1)
    6a24:	16079e63          	bnez	a5,6ba0 <tick+0x19e0>
    6a28:	0f44a783          	lw	a5,244(s1)
    6a2c:	00079463          	bnez	a5,6a34 <tick+0x1874>
    6a30:	95dfe06f          	j	538c <tick+0x1cc>
    6a34:	00268593          	addi	a1,a3,2
    6a38:	01300793          	li	a5,19
    6a3c:	00b7d463          	bge	a5,a1,6a44 <tick+0x1884>
    6a40:	b51fe06f          	j	5590 <tick+0x3d0>
    6a44:	00370513          	addi	a0,a4,3
    6a48:	00259613          	slli	a2,a1,0x2
    6a4c:	929fe06f          	j	5374 <tick+0x1b4>
    6a50:	00270513          	addi	a0,a4,2
    6a54:	00b607b3          	add	a5,a2,a1
    6a58:	00179793          	slli	a5,a5,0x1
    6a5c:	00f487b3          	add	a5,s1,a5
    6a60:	00a787b3          	add	a5,a5,a0
    6a64:	0007c783          	lbu	a5,0(a5)
    6a68:	00078463          	beqz	a5,6a70 <tick+0x18b0>
    6a6c:	b25fe06f          	j	5590 <tick+0x3d0>
    6a70:	1044a783          	lw	a5,260(s1)
    6a74:	00370513          	addi	a0,a4,3
    6a78:	00078463          	beqz	a5,6a80 <tick+0x18c0>
    6a7c:	991fe06f          	j	540c <tick+0x24c>
    6a80:	1084a783          	lw	a5,264(s1)
    6a84:	00078463          	beqz	a5,6a8c <tick+0x18cc>
    6a88:	9a9fe06f          	j	5430 <tick+0x270>
    6a8c:	10c4a783          	lw	a5,268(s1)
    6a90:	0e078663          	beqz	a5,6b7c <tick+0x19bc>
    6a94:	00468513          	addi	a0,a3,4
    6a98:	01300793          	li	a5,19
    6a9c:	00050593          	mv	a1,a0
    6aa0:	00170813          	addi	a6,a4,1
    6aa4:	00a7d463          	bge	a5,a0,6aac <tick+0x18ec>
    6aa8:	ae9fe06f          	j	5590 <tick+0x3d0>
    6aac:	00251793          	slli	a5,a0,0x2
    6ab0:	00a78633          	add	a2,a5,a0
    6ab4:	00161613          	slli	a2,a2,0x1
    6ab8:	00c48633          	add	a2,s1,a2
    6abc:	01060633          	add	a2,a2,a6
    6ac0:	00064603          	lbu	a2,0(a2)
    6ac4:	00060463          	beqz	a2,6acc <tick+0x190c>
    6ac8:	ac9fe06f          	j	5590 <tick+0x3d0>
    6acc:	1104a603          	lw	a2,272(s1)
    6ad0:	08060863          	beqz	a2,6b60 <tick+0x19a0>
    6ad4:	00270513          	addi	a0,a4,2
    6ad8:	9a1fe06f          	j	5478 <tick+0x2b8>
    6adc:	1004a783          	lw	a5,256(s1)
    6ae0:	00270513          	addi	a0,a4,2
    6ae4:	f60798e3          	bnez	a5,6a54 <tick+0x1894>
    6ae8:	f89ff06f          	j	6a70 <tick+0x18b0>
    6aec:	00168593          	addi	a1,a3,1
    6af0:	01300793          	li	a5,19
    6af4:	00270513          	addi	a0,a4,2
    6af8:	00b7d463          	bge	a5,a1,6b00 <tick+0x1940>
    6afc:	a95fe06f          	j	5590 <tick+0x3d0>
    6b00:	00259793          	slli	a5,a1,0x2
    6b04:	fbcfe06f          	j	52c0 <tick+0x100>
    6b08:	00279693          	slli	a3,a5,0x2
    6b0c:	00178713          	addi	a4,a5,1
    6b10:	00f686b3          	add	a3,a3,a5
    6b14:	000077b7          	lui	a5,0x7
    6b18:	00469693          	slli	a3,a3,0x4
    6b1c:	2b478793          	addi	a5,a5,692 # 72b4 <locked_pieces>
    6b20:	06e9aa23          	sw	a4,116(s3)
    6b24:	00d787b3          	add	a5,a5,a3
    6b28:	00090713          	mv	a4,s2
    6b2c:	11848693          	addi	a3,s1,280
    6b30:	00072803          	lw	a6,0(a4)
    6b34:	00472503          	lw	a0,4(a4)
    6b38:	00872583          	lw	a1,8(a4)
    6b3c:	00c72603          	lw	a2,12(a4)
    6b40:	0107a023          	sw	a6,0(a5)
    6b44:	00a7a223          	sw	a0,4(a5)
    6b48:	00b7a423          	sw	a1,8(a5)
    6b4c:	00c7a623          	sw	a2,12(a5)
    6b50:	01070713          	addi	a4,a4,16
    6b54:	01078793          	addi	a5,a5,16
    6b58:	fcd71ce3          	bne	a4,a3,6b30 <tick+0x1970>
    6b5c:	c09fe06f          	j	5764 <tick+0x5a4>
    6b60:	1144a783          	lw	a5,276(s1)
    6b64:	00079463          	bnez	a5,6b6c <tick+0x19ac>
    6b68:	94dfe06f          	j	54b4 <tick+0x2f4>
    6b6c:	00050593          	mv	a1,a0
    6b70:	00370713          	addi	a4,a4,3
    6b74:	00251793          	slli	a5,a0,0x2
    6b78:	925fe06f          	j	549c <tick+0x2dc>
    6b7c:	1104a783          	lw	a5,272(s1)
    6b80:	04078c63          	beqz	a5,6bd8 <tick+0x1a18>
    6b84:	00468593          	addi	a1,a3,4
    6b88:	01300793          	li	a5,19
    6b8c:	00270513          	addi	a0,a4,2
    6b90:	00b7d463          	bge	a5,a1,6b98 <tick+0x19d8>
    6b94:	9fdfe06f          	j	5590 <tick+0x3d0>
    6b98:	00259793          	slli	a5,a1,0x2
    6b9c:	8ddfe06f          	j	5478 <tick+0x2b8>
    6ba0:	00268593          	addi	a1,a3,2
    6ba4:	01300793          	li	a5,19
    6ba8:	00270513          	addi	a0,a4,2
    6bac:	00b7d463          	bge	a5,a1,6bb4 <tick+0x19f4>
    6bb0:	9e1fe06f          	j	5590 <tick+0x3d0>
    6bb4:	00259613          	slli	a2,a1,0x2
    6bb8:	00b607b3          	add	a5,a2,a1
    6bbc:	00179793          	slli	a5,a5,0x1
    6bc0:	00f487b3          	add	a5,s1,a5
    6bc4:	00a787b3          	add	a5,a5,a0
    6bc8:	0007c783          	lbu	a5,0(a5)
    6bcc:	00079463          	bnez	a5,6bd4 <tick+0x1a14>
    6bd0:	f98fe06f          	j	5368 <tick+0x1a8>
    6bd4:	9bdfe06f          	j	5590 <tick+0x3d0>
    6bd8:	1144a783          	lw	a5,276(s1)
    6bdc:	00079463          	bnez	a5,6be4 <tick+0x1a24>
    6be0:	8d5fe06f          	j	54b4 <tick+0x2f4>
    6be4:	00468593          	addi	a1,a3,4
    6be8:	01300793          	li	a5,19
    6bec:	00b7d463          	bge	a5,a1,6bf4 <tick+0x1a34>
    6bf0:	9a1fe06f          	j	5590 <tick+0x3d0>
    6bf4:	00370713          	addi	a4,a4,3
    6bf8:	00259793          	slli	a5,a1,0x2
    6bfc:	8a1fe06f          	j	549c <tick+0x2dc>
    6c00:	1044a783          	lw	a5,260(s1)
    6c04:	00079463          	bnez	a5,6c0c <tick+0x1a4c>
    6c08:	81dfe06f          	j	5424 <tick+0x264>
    6c0c:	00368593          	addi	a1,a3,3
    6c10:	01300793          	li	a5,19
    6c14:	00b7d463          	bge	a5,a1,6c1c <tick+0x1a5c>
    6c18:	979fe06f          	j	5590 <tick+0x3d0>
    6c1c:	00370513          	addi	a0,a4,3
    6c20:	00259613          	slli	a2,a1,0x2
    6c24:	fe8fe06f          	j	540c <tick+0x24c>
    6c28:	00370613          	addi	a2,a4,3
    6c2c:	00259793          	slli	a5,a1,0x2
    6c30:	eb4fe06f          	j	52e4 <tick+0x124>

00006c34 <handle_interrupt>:
    6c34:	01000793          	li	a5,16
    6c38:	00f50463          	beq	a0,a5,6c40 <handle_interrupt+0xc>
    6c3c:	00008067          	ret
    6c40:	0000d6b7          	lui	a3,0xd
    6c44:	07c6a783          	lw	a5,124(a3) # d07c <timeoutcount>
    6c48:	04000737          	lui	a4,0x4000
    6c4c:	00800613          	li	a2,8
    6c50:	00178793          	addi	a5,a5,1
    6c54:	02071023          	sh	zero,32(a4) # 4000020 <_stack_end+0x3ef2e80>
    6c58:	00c78663          	beq	a5,a2,6c64 <handle_interrupt+0x30>
    6c5c:	06f6ae23          	sw	a5,124(a3)
    6c60:	00008067          	ret
    6c64:	000077b7          	lui	a5,0x7
    6c68:	1487a503          	lw	a0,328(a5) # 7148 <VGA>
    6c6c:	0606ae23          	sw	zero,124(a3)
    6c70:	d50fe06f          	j	51c0 <tick>

00006c74 <main>:
    6c74:	fe010113          	addi	sp,sp,-32
    6c78:	00812c23          	sw	s0,24(sp)
    6c7c:	00007437          	lui	s0,0x7
    6c80:	14c40413          	addi	s0,s0,332 # 714c <grid>
    6c84:	00112e23          	sw	ra,28(sp)
    6c88:	00912a23          	sw	s1,20(sp)
    6c8c:	01212823          	sw	s2,16(sp)
    6c90:	01312623          	sw	s3,12(sp)
    6c94:	00042023          	sw	zero,0(s0)
    6c98:	00042223          	sw	zero,4(s0)
    6c9c:	00042423          	sw	zero,8(s0)
    6ca0:	00042623          	sw	zero,12(s0)
    6ca4:	00042823          	sw	zero,16(s0)
    6ca8:	00042a23          	sw	zero,20(s0)
    6cac:	00042c23          	sw	zero,24(s0)
    6cb0:	00042e23          	sw	zero,28(s0)
    6cb4:	02042023          	sw	zero,32(s0)
    6cb8:	02042223          	sw	zero,36(s0)
    6cbc:	02042423          	sw	zero,40(s0)
    6cc0:	02042623          	sw	zero,44(s0)
    6cc4:	02042823          	sw	zero,48(s0)
    6cc8:	02042a23          	sw	zero,52(s0)
    6ccc:	02042c23          	sw	zero,56(s0)
    6cd0:	02042e23          	sw	zero,60(s0)
    6cd4:	04042023          	sw	zero,64(s0)
    6cd8:	04042223          	sw	zero,68(s0)
    6cdc:	04042423          	sw	zero,72(s0)
    6ce0:	04042623          	sw	zero,76(s0)
    6ce4:	04042823          	sw	zero,80(s0)
    6ce8:	04042a23          	sw	zero,84(s0)
    6cec:	04042c23          	sw	zero,88(s0)
    6cf0:	04042e23          	sw	zero,92(s0)
    6cf4:	06042023          	sw	zero,96(s0)
    6cf8:	06042223          	sw	zero,100(s0)
    6cfc:	06042423          	sw	zero,104(s0)
    6d00:	000074b7          	lui	s1,0x7
    6d04:	06042623          	sw	zero,108(s0)
    6d08:	1484a503          	lw	a0,328(s1) # 7148 <VGA>
    6d0c:	06042823          	sw	zero,112(s0)
    6d10:	06042a23          	sw	zero,116(s0)
    6d14:	06042c23          	sw	zero,120(s0)
    6d18:	06042e23          	sw	zero,124(s0)
    6d1c:	08042023          	sw	zero,128(s0)
    6d20:	08042223          	sw	zero,132(s0)
    6d24:	08042423          	sw	zero,136(s0)
    6d28:	08042623          	sw	zero,140(s0)
    6d2c:	08042823          	sw	zero,144(s0)
    6d30:	08042a23          	sw	zero,148(s0)
    6d34:	08042c23          	sw	zero,152(s0)
    6d38:	08042e23          	sw	zero,156(s0)
    6d3c:	0a042023          	sw	zero,160(s0)
    6d40:	0a042223          	sw	zero,164(s0)
    6d44:	0a042423          	sw	zero,168(s0)
    6d48:	0a042623          	sw	zero,172(s0)
    6d4c:	0a042823          	sw	zero,176(s0)
    6d50:	0a042a23          	sw	zero,180(s0)
    6d54:	0a042c23          	sw	zero,184(s0)
    6d58:	0a042e23          	sw	zero,188(s0)
    6d5c:	0c042023          	sw	zero,192(s0)
    6d60:	0c042223          	sw	zero,196(s0)
    6d64:	91cfb0ef          	jal	1e80 <draw_grid>
    6d68:	ffffc6b7          	lui	a3,0xffffc
    6d6c:	04000737          	lui	a4,0x4000
    6d70:	6bf68693          	addi	a3,a3,1727 # ffffc6bf <_stack_end+0xffeef51f>
    6d74:	02d71423          	sh	a3,40(a4) # 4000028 <_stack_end+0x3ef2e88>
    6d78:	040007b7          	lui	a5,0x4000
    6d7c:	02d00693          	li	a3,45
    6d80:	02d79623          	sh	a3,44(a5) # 400002c <_stack_end+0x3ef2e8c>
    6d84:	04000737          	lui	a4,0x4000
    6d88:	00700913          	li	s2,7
    6d8c:	03271223          	sh	s2,36(a4) # 4000024 <_stack_end+0x3ef2e84>
    6d90:	00100693          	li	a3,1
    6d94:	040007b7          	lui	a5,0x4000
    6d98:	0cd7ac23          	sw	a3,216(a5) # 40000d8 <_stack_end+0x3ef2f38>
    6d9c:	04000737          	lui	a4,0x4000
    6da0:	0cd72e23          	sw	a3,220(a4) # 40000dc <_stack_end+0x3ef2f3c>
    6da4:	bd0f90ef          	jal	174 <enable_interrupt>
    6da8:	040006b7          	lui	a3,0x4000
    6dac:	0106a783          	lw	a5,16(a3) # 4000010 <_stack_end+0x3ef2e70>
    6db0:	11840993          	addi	s3,s0,280
    6db4:	0ff7f793          	zext.b	a5,a5
    6db8:	00279713          	slli	a4,a5,0x2
    6dbc:	00f70733          	add	a4,a4,a5
    6dc0:	00471793          	slli	a5,a4,0x4
    6dc4:	40e787b3          	sub	a5,a5,a4
    6dc8:	0b378793          	addi	a5,a5,179
    6dcc:	03f7f793          	andi	a5,a5,63
    6dd0:	0327f933          	remu	s2,a5,s2
    6dd4:	0000d737          	lui	a4,0xd
    6dd8:	06f72c23          	sw	a5,120(a4) # d078 <seed>
    6ddc:	000077b7          	lui	a5,0x7
    6de0:	f1878793          	addi	a5,a5,-232 # 6f18 <pieces>
    6de4:	00098713          	mv	a4,s3
    6de8:	00291693          	slli	a3,s2,0x2
    6dec:	012686b3          	add	a3,a3,s2
    6df0:	00469693          	slli	a3,a3,0x4
    6df4:	00d787b3          	add	a5,a5,a3
    6df8:	05078813          	addi	a6,a5,80
    6dfc:	0007a503          	lw	a0,0(a5)
    6e00:	0047a583          	lw	a1,4(a5)
    6e04:	0087a603          	lw	a2,8(a5)
    6e08:	00c7a683          	lw	a3,12(a5)
    6e0c:	00a72023          	sw	a0,0(a4)
    6e10:	00b72223          	sw	a1,4(a4)
    6e14:	00c72423          	sw	a2,8(a4)
    6e18:	00d72623          	sw	a3,12(a4)
    6e1c:	01078793          	addi	a5,a5,16
    6e20:	01070713          	addi	a4,a4,16
    6e24:	fd079ce3          	bne	a5,a6,6dfc <main+0x188>
    6e28:	e25fa0ef          	jal	1c4c <spawn_next>
    6e2c:	1484a503          	lw	a0,328(s1)
    6e30:	0c840913          	addi	s2,s0,200
    6e34:	00090593          	mv	a1,s2
    6e38:	994fb0ef          	jal	1fcc <draw_shape>
    6e3c:	1484a503          	lw	a0,328(s1)
    6e40:	00098593          	mv	a1,s3
    6e44:	040004b7          	lui	s1,0x4000
    6e48:	dc4fb0ef          	jal	240c <draw_next_piece>
    6e4c:	00000793          	li	a5,0
    6e50:	0d048493          	addi	s1,s1,208 # 40000d0 <_stack_end+0x3ef2f30>
    6e54:	0004a403          	lw	s0,0(s1)
    6e58:	00147413          	andi	s0,s0,1
    6e5c:	02040063          	beqz	s0,6e7c <main+0x208>
    6e60:	fe079ae3          	bnez	a5,6e54 <main+0x1e0>
    6e64:	00090513          	mv	a0,s2
    6e68:	cc9fc0ef          	jal	3b30 <rotate_piece>
    6e6c:	00040793          	mv	a5,s0
    6e70:	0004a403          	lw	s0,0(s1)
    6e74:	00147413          	andi	s0,s0,1
    6e78:	fe0414e3          	bnez	s0,6e60 <main+0x1ec>
    6e7c:	00000793          	li	a5,0
    6e80:	fd5ff06f          	j	6e54 <main+0x1e0>

Disassembly of section .data:

00006e84 <welcome_msg>:
    6e84:	3d3d                	.insn	2, 0x3d3d
    6e86:	3d3d                	.insn	2, 0x3d3d
    6e88:	3d3d                	.insn	2, 0x3d3d
    6e8a:	3d3d                	.insn	2, 0x3d3d
    6e8c:	3d3d                	.insn	2, 0x3d3d
    6e8e:	3d3d                	.insn	2, 0x3d3d
    6e90:	3d3d                	.insn	2, 0x3d3d
    6e92:	3d3d                	.insn	2, 0x3d3d
    6e94:	3d3d                	.insn	2, 0x3d3d
    6e96:	3d3d                	.insn	2, 0x3d3d
    6e98:	3d3d                	.insn	2, 0x3d3d
    6e9a:	3d3d                	.insn	2, 0x3d3d
    6e9c:	3d3d                	.insn	2, 0x3d3d
    6e9e:	3d3d                	.insn	2, 0x3d3d
    6ea0:	3d3d                	.insn	2, 0x3d3d
    6ea2:	3d3d                	.insn	2, 0x3d3d
    6ea4:	3d3d                	.insn	2, 0x3d3d
    6ea6:	3d3d                	.insn	2, 0x3d3d
    6ea8:	3d3d                	.insn	2, 0x3d3d
    6eaa:	3d3d                	.insn	2, 0x3d3d
    6eac:	3d3d                	.insn	2, 0x3d3d
    6eae:	3d3d                	.insn	2, 0x3d3d
    6eb0:	3d3d                	.insn	2, 0x3d3d
    6eb2:	3d3d                	.insn	2, 0x3d3d
    6eb4:	3d0a                	.insn	2, 0x3d0a
    6eb6:	3d3d                	.insn	2, 0x3d3d
    6eb8:	3d3d                	.insn	2, 0x3d3d
    6eba:	5220                	.insn	2, 0x5220
    6ebc:	5349                	.insn	2, 0x5349
    6ebe:	20562d43          	.insn	4, 0x20562d43
    6ec2:	6f42                	.insn	2, 0x6f42
    6ec4:	552d746f          	jal	s0,de416 <font5x7+0xd1396>
    6ec8:	2070                	.insn	2, 0x2070
    6eca:	7250                	.insn	2, 0x7250
    6ecc:	7365636f          	jal	t1,5d602 <font5x7+0x50582>
    6ed0:	6f4e2073          	csrs	0x6f4,t3
    6ed4:	6f432077          	.insn	4, 0x6f432077
    6ed8:	706d                	.insn	2, 0x706d
    6eda:	656c                	.insn	2, 0x656c
    6edc:	6574                	.insn	2, 0x6574
    6ede:	3d20                	.insn	2, 0x3d20
    6ee0:	3d3d                	.insn	2, 0x3d3d
    6ee2:	3d3d                	.insn	2, 0x3d3d
    6ee4:	0a3d                	.insn	2, 0x0a3d
    6ee6:	3d3d                	.insn	2, 0x3d3d
    6ee8:	3d3d                	.insn	2, 0x3d3d
    6eea:	3d3d                	.insn	2, 0x3d3d
    6eec:	3d3d                	.insn	2, 0x3d3d
    6eee:	3d3d                	.insn	2, 0x3d3d
    6ef0:	3d3d                	.insn	2, 0x3d3d
    6ef2:	3d3d                	.insn	2, 0x3d3d
    6ef4:	3d3d                	.insn	2, 0x3d3d
    6ef6:	3d3d                	.insn	2, 0x3d3d
    6ef8:	3d3d                	.insn	2, 0x3d3d
    6efa:	3d3d                	.insn	2, 0x3d3d
    6efc:	3d3d                	.insn	2, 0x3d3d
    6efe:	3d3d                	.insn	2, 0x3d3d
    6f00:	3d3d                	.insn	2, 0x3d3d
    6f02:	3d3d                	.insn	2, 0x3d3d
    6f04:	3d3d                	.insn	2, 0x3d3d
    6f06:	3d3d                	.insn	2, 0x3d3d
    6f08:	3d3d                	.insn	2, 0x3d3d
    6f0a:	3d3d                	.insn	2, 0x3d3d
    6f0c:	3d3d                	.insn	2, 0x3d3d
    6f0e:	3d3d                	.insn	2, 0x3d3d
    6f10:	3d3d                	.insn	2, 0x3d3d
    6f12:	3d3d                	.insn	2, 0x3d3d
    6f14:	3d3d                	.insn	2, 0x3d3d
    6f16:	000a                	.insn	2, 0x000a

00006f18 <pieces>:
	...
    6f24:	001f 0000 0001      	.insn	6, 0x00010000001f
	...
    6f36:	0000                	.insn	2, 0x
    6f38:	0001                	.insn	2, 0x0001
	...
    6f46:	0000                	.insn	2, 0x
    6f48:	0001                	.insn	2, 0x0001
	...
    6f56:	0000                	.insn	2, 0x
    6f58:	0001                	.insn	2, 0x0001
	...
    6f66:	0000                	.insn	2, 0x
    6f68:	0001                	.insn	2, 0x0001
	...
    6f72:	0000                	.insn	2, 0x
    6f74:	00000003          	lb	zero,0(zero) # 0 <_isr_handler>
    6f78:	0000                	.insn	2, 0x
    6f7a:	0000                	.insn	2, 0x
    6f7c:	0001                	.insn	2, 0x0001
	...
    6f8a:	0000                	.insn	2, 0x
    6f8c:	0001                	.insn	2, 0x0001
	...
    6f96:	0000                	.insn	2, 0x
    6f98:	0001                	.insn	2, 0x0001
    6f9a:	0000                	.insn	2, 0x
    6f9c:	0001                	.insn	2, 0x0001
	...
    6fb6:	0000                	.insn	2, 0x
    6fb8:	0002                	.insn	2, 0x0002
	...
    6fc2:	0000                	.insn	2, 0x
    6fc4:	00ec                	.insn	2, 0x00ec
    6fc6:	0000                	.insn	2, 0x
    6fc8:	0001                	.insn	2, 0x0001
	...
    6fd6:	0000                	.insn	2, 0x
    6fd8:	0001                	.insn	2, 0x0001
	...
    6fe6:	0000                	.insn	2, 0x
    6fe8:	0001                	.insn	2, 0x0001
    6fea:	0000                	.insn	2, 0x
    6fec:	0001                	.insn	2, 0x0001
	...
    7006:	0000                	.insn	2, 0x
    7008:	00000003          	lb	zero,0(zero) # 0 <_isr_handler>
	...
    7014:	00fc                	.insn	2, 0x00fc
    7016:	0000                	.insn	2, 0x
    7018:	0001                	.insn	2, 0x0001
    701a:	0000                	.insn	2, 0x
    701c:	0001                	.insn	2, 0x0001
	...
    7026:	0000                	.insn	2, 0x
    7028:	0001                	.insn	2, 0x0001
    702a:	0000                	.insn	2, 0x
    702c:	0001                	.insn	2, 0x0001
	...
    7056:	0000                	.insn	2, 0x
    7058:	0004                	.insn	2, 0x0004
	...
    7062:	0000                	.insn	2, 0x
    7064:	001c                	.insn	2, 0x001c
    7066:	0000                	.insn	2, 0x
    7068:	0001                	.insn	2, 0x0001
	...
    7076:	0000                	.insn	2, 0x
    7078:	0001                	.insn	2, 0x0001
    707a:	0000                	.insn	2, 0x
    707c:	0001                	.insn	2, 0x0001
	...
    708a:	0000                	.insn	2, 0x
    708c:	0001                	.insn	2, 0x0001
	...
    70a6:	0000                	.insn	2, 0x
    70a8:	0005                	.insn	2, 0x0005
	...
    70b2:	0000                	.insn	2, 0x
    70b4:	00000063          	beqz	zero,70b4 <pieces+0x19c>
    70b8:	0000                	.insn	2, 0x
    70ba:	0000                	.insn	2, 0x
    70bc:	0001                	.insn	2, 0x0001
	...
    70c6:	0000                	.insn	2, 0x
    70c8:	0001                	.insn	2, 0x0001
    70ca:	0000                	.insn	2, 0x
    70cc:	0001                	.insn	2, 0x0001
    70ce:	0000                	.insn	2, 0x
    70d0:	0001                	.insn	2, 0x0001
	...
    70f6:	0000                	.insn	2, 0x
    70f8:	0006                	.insn	2, 0x0006
	...
    7102:	0000                	.insn	2, 0x
    7104:	00e0                	.insn	2, 0x00e0
    7106:	0000                	.insn	2, 0x
    7108:	0001                	.insn	2, 0x0001
    710a:	0000                	.insn	2, 0x
    710c:	0001                	.insn	2, 0x0001
	...
    711a:	0000                	.insn	2, 0x
    711c:	0001                	.insn	2, 0x0001
    711e:	0000                	.insn	2, 0x
    7120:	0001                	.insn	2, 0x0001
	...

00007148 <VGA>:
    7148:	0000                	.insn	2, 0x
    714a:	0800                	.insn	2, 0x0800

Disassembly of section .rodata:

0000d080 <font5x7>:
    d080:	117e                	.insn	2, 0x117e
    d082:	7e11                	.insn	2, 0x7e11
    d084:	7f00                	.insn	2, 0x7f00
    d086:	4949                	.insn	2, 0x4949
    d088:	0036                	.insn	2, 0x0036
    d08a:	413e                	.insn	2, 0x413e
    d08c:	2241                	.insn	2, 0x2241
    d08e:	7f00                	.insn	2, 0x7f00
    d090:	4141                	.insn	2, 0x4141
    d092:	003e                	.insn	2, 0x003e
    d094:	497f 4149 7f00 0909 	.insn	18, 0x08087f007251413e000109097f004149497f
    d09c:	0001 413e 7251 7f00 
    d0a4:	0808 
    d0a6:	007f 4100 417f 2000 	.insn	10, 0x41402000417f4100007f
    d0ae:	4140 
    d0b0:	087f003f 7f006314 	.insn	8, 0x7f006314087f003f
    d0b8:	4040                	.insn	2, 0x4040
    d0ba:	0040                	.insn	2, 0x0040
    d0bc:	067f 7f06 7f00 1806 	.insn	10, 0x007f18067f007f06067f
    d0c4:	007f 
    d0c6:	413e                	.insn	2, 0x413e
    d0c8:	3e41                	.insn	2, 0x3e41
    d0ca:	7f00                	.insn	2, 0x7f00
    d0cc:	0909                	.insn	2, 0x0909
    d0ce:	0006                	.insn	2, 0x0006
    d0d0:	413e                	.insn	2, 0x413e
    d0d2:	7e61                	.insn	2, 0x7e61
    d0d4:	7f00                	.insn	2, 0x7f00
    d0d6:	1909                	.insn	2, 0x1909
    d0d8:	0066                	.insn	2, 0x0066
    d0da:	4926                	.insn	2, 0x4926
    d0dc:	3249                	.insn	2, 0x3249
    d0de:	0100                	.insn	2, 0x0100
    d0e0:	017f 0001 403f 3f40 	.insn	10, 0x1f003f40403f0001017f
    d0e8:	1f00 
    d0ea:	6060                	.insn	2, 0x6060
    d0ec:	001f 307f 7f30      	.insn	6, 0x7f30307f001f
    d0f2:	6300                	.insn	2, 0x6300
    d0f4:	1c1c                	.insn	2, 0x1c1c
    d0f6:	78070063          	beqz	a4,d876 <font5x7+0x7f6>
    d0fa:	0708                	.insn	2, 0x0708
    d0fc:	6100                	.insn	2, 0x6100
    d0fe:	4951                	.insn	2, 0x4951
    d100:	Address 0xd100 is out of bounds.


Disassembly of section .rodata.str1.4:

0000d104 <.rodata.str1.4>:
    d104:	5b0a                	.insn	2, 0x5b0a
    d106:	5845                	.insn	2, 0x5845
    d108:	54504543          	.insn	4, 0x54504543
    d10c:	4f49                	.insn	2, 0x4f49
    d10e:	5d4e                	.insn	2, 0x5d4e
    d110:	4920                	.insn	2, 0x4920
    d112:	736e                	.insn	2, 0x736e
    d114:	7274                	.insn	2, 0x7274
    d116:	6375                	.insn	2, 0x6375
    d118:	6974                	.insn	2, 0x6974
    d11a:	61206e6f          	jal	t3,1372c <font5x7+0x66ac>
    d11e:	6464                	.insn	2, 0x6464
    d120:	6572                	.insn	2, 0x6572
    d122:	6d207373          	csrrci	t1,0x6d2,0
    d126:	7369                	.insn	2, 0x7369
    d128:	6c61                	.insn	2, 0x6c61
    d12a:	6769                	.insn	2, 0x6769
    d12c:	6d6e                	.insn	2, 0x6d6e
    d12e:	6e65                	.insn	2, 0x6e65
    d130:	2e74                	.insn	2, 0x2e74
    d132:	0020                	.insn	2, 0x0020
    d134:	5b0a                	.insn	2, 0x5b0a
    d136:	5845                	.insn	2, 0x5845
    d138:	54504543          	.insn	4, 0x54504543
    d13c:	4f49                	.insn	2, 0x4f49
    d13e:	5d4e                	.insn	2, 0x5d4e
    d140:	4920                	.insn	2, 0x4920
    d142:	6c6c                	.insn	2, 0x6c6c
    d144:	6765                	.insn	2, 0x6765
    d146:	6c61                	.insn	2, 0x6c61
    d148:	6920                	.insn	2, 0x6920
    d14a:	736e                	.insn	2, 0x736e
    d14c:	7274                	.insn	2, 0x7274
    d14e:	6375                	.insn	2, 0x6375
    d150:	6974                	.insn	2, 0x6974
    d152:	202e6e6f          	jal	t3,f3354 <font5x7+0xe62d4>
    d156:	0000                	.insn	2, 0x
    d158:	5b0a                	.insn	2, 0x5b0a
    d15a:	5845                	.insn	2, 0x5845
    d15c:	54504543          	.insn	4, 0x54504543
    d160:	4f49                	.insn	2, 0x4f49
    d162:	5d4e                	.insn	2, 0x5d4e
    d164:	5520                	.insn	2, 0x5520
    d166:	6b6e                	.insn	2, 0x6b6e
    d168:	6f6e                	.insn	2, 0x6f6e
    d16a:	65206e77          	.insn	4, 0x65206e77
    d16e:	7272                	.insn	2, 0x7272
    d170:	202e726f          	jal	tp,f4372 <font5x7+0xe72f2>
    d174:	0000                	.insn	2, 0x
    d176:	0000                	.insn	2, 0x
    d178:	7845                	.insn	2, 0x7845
    d17a:	74706563          	bltu	zero,t2,d8c4 <font5x7+0x844>
    d17e:	6f69                	.insn	2, 0x6f69
    d180:	206e                	.insn	2, 0x206e
    d182:	6441                	.insn	2, 0x6441
    d184:	7264                	.insn	2, 0x7264
    d186:	7365                	.insn	2, 0x7365
    d188:	00203a73          	csrrc	s4,frm,zero
    d18c:	454d4147          	.insn	4, 0x454d4147
    d190:	4f20                	.insn	2, 0x4f20
    d192:	4556                	.insn	2, 0x4556
    d194:	0052                	.insn	2, 0x0052
    d196:	0000                	.insn	2, 0x
    d198:	524f4353          	.insn	4, 0x524f4353
    d19c:	0045                	.insn	2, 0x0045

Disassembly of section .comment:

00000000 <.comment>:
   0:	3a434347          	.insn	4, 0x3a434347
   4:	2820                	.insn	2, 0x2820
   6:	2029                	.insn	2, 0x2029
   8:	3331                	.insn	2, 0x3331
   a:	322e                	.insn	2, 0x322e
   c:	302e                	.insn	2, 0x302e
	...

Disassembly of section .riscv.attributes:

00000000 <.riscv.attributes>:
   0:	3641                	.insn	2, 0x3641
   2:	0000                	.insn	2, 0x
   4:	7200                	.insn	2, 0x7200
   6:	7369                	.insn	2, 0x7369
   8:	01007663          	bgeu	zero,a6,14 <_isr_routine+0xc>
   c:	002c                	.insn	2, 0x002c
   e:	0000                	.insn	2, 0x
  10:	1004                	.insn	2, 0x1004
  12:	7205                	.insn	2, 0x7205
  14:	3376                	.insn	2, 0x3376
  16:	6932                	.insn	2, 0x6932
  18:	7032                	.insn	2, 0x7032
  1a:	5f31                	.insn	2, 0x5f31
  1c:	326d                	.insn	2, 0x326d
  1e:	3070                	.insn	2, 0x3070
  20:	7a5f 6369 7273      	.insn	6, 0x727363697a5f
  26:	7032                	.insn	2, 0x7032
  28:	5f30                	.insn	2, 0x5f30
  2a:	6d7a                	.insn	2, 0x6d7a
  2c:	756d                	.insn	2, 0x756d
  2e:	316c                	.insn	2, 0x316c
  30:	3070                	.insn	2, 0x3070
  32:	0800                	.insn	2, 0x0800
  34:	0a01                	.insn	2, 0x0a01
  36:	Address 0x36 is out of bounds.

