
main.elf:     file format elf32-littleriscv


Disassembly of section .text:

00000000 <_isr_handler>:
       0:	0080006f          	j	8 <_isr_routine>
       4:	1440006f          	j	148 <_start>

00000008 <_isr_routine>:
       8:	f8010113          	addi	sp,sp,-128
       c:	00112023          	sw	ra,0(sp)
      10:	00312423          	sw	gp,8(sp)
      14:	00412623          	sw	tp,12(sp)
      18:	00512823          	sw	t0,16(sp)
      1c:	00612a23          	sw	t1,20(sp)
      20:	00712c23          	sw	t2,24(sp)
      24:	00812e23          	sw	s0,28(sp)
      28:	02912023          	sw	s1,32(sp)
      2c:	02a12223          	sw	a0,36(sp)
      30:	02b12423          	sw	a1,40(sp)
      34:	02c12623          	sw	a2,44(sp)
      38:	02d12823          	sw	a3,48(sp)
      3c:	02e12a23          	sw	a4,52(sp)
      40:	02f12c23          	sw	a5,56(sp)
      44:	03012e23          	sw	a6,60(sp)
      48:	05112023          	sw	a7,64(sp)
      4c:	05212223          	sw	s2,68(sp)
      50:	05312423          	sw	s3,72(sp)
      54:	05412623          	sw	s4,76(sp)
      58:	05512823          	sw	s5,80(sp)
      5c:	05612a23          	sw	s6,84(sp)
      60:	05712c23          	sw	s7,88(sp)
      64:	05812e23          	sw	s8,92(sp)
      68:	07912023          	sw	s9,96(sp)
      6c:	07a12223          	sw	s10,100(sp)
      70:	07b12423          	sw	s11,104(sp)
      74:	07c12623          	sw	t3,108(sp)
      78:	07d12823          	sw	t4,112(sp)
      7c:	07e12a23          	sw	t5,116(sp)
      80:	07f12c23          	sw	t6,120(sp)
      84:	342022f3          	csrr	t0,mcause
      88:	80000337          	lui	t1,0x80000
      8c:	02536463          	bltu	t1,t0,b4 <external_irq>
      90:	00028833          	add	a6,t0,zero
      94:	00b00313          	li	t1,11
      98:	00628463          	beq	t0,t1,a0 <skip_init_args>
      9c:	34102573          	csrr	a0,mepc

000000a0 <skip_init_args>:
      a0:	258000ef          	jal	2f8 <handle_exception>
      a4:	341022f3          	csrr	t0,mepc
      a8:	00428293          	addi	t0,t0,4
      ac:	34129073          	csrw	mepc,t0
      b0:	0180006f          	j	c8 <restore>

000000b4 <external_irq>:
      b4:	800002b7          	lui	t0,0x80000
      b8:	fff28293          	addi	t0,t0,-1 # 7fffffff <_stack_end+0x7fef529b>
      bc:	34202373          	csrr	t1,mcause
      c0:	0062f533          	and	a0,t0,t1
      c4:	300040ef          	jal	43c4 <handle_interrupt>

000000c8 <restore>:
      c8:	00012083          	lw	ra,0(sp)
      cc:	00812183          	lw	gp,8(sp)
      d0:	00c12203          	lw	tp,12(sp)
      d4:	01012283          	lw	t0,16(sp)
      d8:	01412303          	lw	t1,20(sp)
      dc:	01812383          	lw	t2,24(sp)
      e0:	01c12403          	lw	s0,28(sp)
      e4:	02012483          	lw	s1,32(sp)
      e8:	02412503          	lw	a0,36(sp)
      ec:	02812583          	lw	a1,40(sp)
      f0:	02c12603          	lw	a2,44(sp)
      f4:	03012683          	lw	a3,48(sp)
      f8:	03412703          	lw	a4,52(sp)
      fc:	03812783          	lw	a5,56(sp)
     100:	03c12803          	lw	a6,60(sp)
     104:	04012883          	lw	a7,64(sp)
     108:	04412903          	lw	s2,68(sp)
     10c:	04812983          	lw	s3,72(sp)
     110:	04c12a03          	lw	s4,76(sp)
     114:	05012a83          	lw	s5,80(sp)
     118:	05412b03          	lw	s6,84(sp)
     11c:	05812b83          	lw	s7,88(sp)
     120:	05c12c03          	lw	s8,92(sp)
     124:	06012c83          	lw	s9,96(sp)
     128:	06412d03          	lw	s10,100(sp)
     12c:	06812d83          	lw	s11,104(sp)
     130:	06c12e03          	lw	t3,108(sp)
     134:	07012e83          	lw	t4,112(sp)
     138:	07412f03          	lw	t5,116(sp)
     13c:	07812f83          	lw	t6,120(sp)
     140:	08010113          	addi	sp,sp,128
     144:	30200073          	mret

00000148 <_start>:
     148:	30401073          	csrw	mie,zero
     14c:	0010b117          	auipc	sp,0x10b
     150:	c1810113          	addi	sp,sp,-1000 # 10ad64 <_stack_end>
     154:	00005197          	auipc	gp,0x5
     158:	45018193          	addi	gp,gp,1104 # 55a4 <__global_pointer>
     15c:	00005517          	auipc	a0,0x5
     160:	98450513          	addi	a0,a0,-1660 # 4ae0 <welcome_msg>
     164:	00400893          	li	a7,4
     168:	00000073          	ecall
     16c:	298040ef          	jal	4404 <main>

00000170 <loop>:
     170:	0000006f          	j	170 <loop>

00000174 <enable_interrupt>:
     174:	30486073          	csrsi	mie,16
     178:	30496073          	csrsi	mie,18
     17c:	3001e073          	csrsi	mstatus,3
     180:	00008067          	ret

00000184 <printc>:
     184:	04000737          	lui	a4,0x4000
     188:	04470713          	addi	a4,a4,68 # 4000044 <_stack_end+0x3ef52e0>
     18c:	000106b7          	lui	a3,0x10
     190:	00072783          	lw	a5,0(a4)
     194:	fed7eee3          	bltu	a5,a3,190 <printc+0xc>
     198:	040007b7          	lui	a5,0x4000
     19c:	04a7a023          	sw	a0,64(a5) # 4000040 <_stack_end+0x3ef52dc>
     1a0:	00008067          	ret

000001a4 <print>:
     1a4:	00054603          	lbu	a2,0(a0)
     1a8:	02060863          	beqz	a2,1d8 <print+0x34>
     1ac:	04000737          	lui	a4,0x4000
     1b0:	040005b7          	lui	a1,0x4000
     1b4:	04470713          	addi	a4,a4,68 # 4000044 <_stack_end+0x3ef52e0>
     1b8:	04058593          	addi	a1,a1,64 # 4000040 <_stack_end+0x3ef52dc>
     1bc:	000106b7          	lui	a3,0x10
     1c0:	00072783          	lw	a5,0(a4)
     1c4:	fed7eee3          	bltu	a5,a3,1c0 <print+0x1c>
     1c8:	00c5a023          	sw	a2,0(a1)
     1cc:	00154603          	lbu	a2,1(a0)
     1d0:	00150513          	addi	a0,a0,1
     1d4:	fe0616e3          	bnez	a2,1c0 <print+0x1c>
     1d8:	00008067          	ret

000001dc <print_dec>:
     1dc:	3b9ad737          	lui	a4,0x3b9ad
     1e0:	040006b7          	lui	a3,0x4000
     1e4:	04000337          	lui	t1,0x4000
     1e8:	ccccd8b7          	lui	a7,0xccccd
     1ec:	a0070713          	addi	a4,a4,-1536 # 3b9aca00 <_stack_end+0x3b8a1c9c>
     1f0:	04468693          	addi	a3,a3,68 # 4000044 <_stack_end+0x3ef52e0>
     1f4:	04030313          	addi	t1,t1,64 # 4000040 <_stack_end+0x3ef52dc>
     1f8:	ccd88893          	addi	a7,a7,-819 # cccccccd <_stack_end+0xccbc1f69>
     1fc:	00a00593          	li	a1,10
     200:	00000793          	li	a5,0
     204:	00010637          	lui	a2,0x10
     208:	04e57663          	bgeu	a0,a4,254 <print_dec+0x78>
     20c:	00078813          	mv	a6,a5
     210:	00000793          	li	a5,0
     214:	04081063          	bnez	a6,254 <print_dec+0x78>
     218:	03173833          	mulhu	a6,a4,a7
     21c:	fff58593          	addi	a1,a1,-1
     220:	02e57533          	remu	a0,a0,a4
     224:	00385713          	srli	a4,a6,0x3
     228:	fe0590e3          	bnez	a1,208 <print_dec+0x2c>
     22c:	02079263          	bnez	a5,250 <print_dec+0x74>
     230:	04000737          	lui	a4,0x4000
     234:	04470713          	addi	a4,a4,68 # 4000044 <_stack_end+0x3ef52e0>
     238:	000106b7          	lui	a3,0x10
     23c:	00072783          	lw	a5,0(a4)
     240:	fed7eee3          	bltu	a5,a3,23c <print_dec+0x60>
     244:	040007b7          	lui	a5,0x4000
     248:	03000713          	li	a4,48
     24c:	04e7a023          	sw	a4,64(a5) # 4000040 <_stack_end+0x3ef52dc>
     250:	00008067          	ret
     254:	02e55833          	divu	a6,a0,a4
     258:	03080813          	addi	a6,a6,48
     25c:	0ff87813          	zext.b	a6,a6
     260:	0006a783          	lw	a5,0(a3) # 10000 <timeoutcount+0x5328>
     264:	fec7eee3          	bltu	a5,a2,260 <print_dec+0x84>
     268:	01032023          	sw	a6,0(t1)
     26c:	00100793          	li	a5,1
     270:	fa9ff06f          	j	218 <print_dec+0x3c>

00000274 <print_hex32>:
     274:	04000737          	lui	a4,0x4000
     278:	04470713          	addi	a4,a4,68 # 4000044 <_stack_end+0x3ef52e0>
     27c:	000106b7          	lui	a3,0x10
     280:	00072783          	lw	a5,0(a4)
     284:	fed7eee3          	bltu	a5,a3,280 <print_hex32+0xc>
     288:	040007b7          	lui	a5,0x4000
     28c:	03000693          	li	a3,48
     290:	04d7a023          	sw	a3,64(a5) # 4000040 <_stack_end+0x3ef52dc>
     294:	04478713          	addi	a4,a5,68
     298:	000106b7          	lui	a3,0x10
     29c:	00072783          	lw	a5,0(a4)
     2a0:	fed7eee3          	bltu	a5,a3,29c <print_hex32+0x28>
     2a4:	04000837          	lui	a6,0x4000
     2a8:	04080813          	addi	a6,a6,64 # 4000040 <_stack_end+0x3ef52dc>
     2ac:	07800793          	li	a5,120
     2b0:	04000737          	lui	a4,0x4000
     2b4:	00f82023          	sw	a5,0(a6)
     2b8:	04470713          	addi	a4,a4,68 # 4000044 <_stack_end+0x3ef52e0>
     2bc:	01c00613          	li	a2,28
     2c0:	00900313          	li	t1,9
     2c4:	000106b7          	lui	a3,0x10
     2c8:	ffc00893          	li	a7,-4
     2cc:	00c557b3          	srl	a5,a0,a2
     2d0:	00f7f793          	andi	a5,a5,15
     2d4:	03778593          	addi	a1,a5,55
     2d8:	00f36463          	bltu	t1,a5,2e0 <print_hex32+0x6c>
     2dc:	03078593          	addi	a1,a5,48
     2e0:	00072783          	lw	a5,0(a4)
     2e4:	fed7eee3          	bltu	a5,a3,2e0 <print_hex32+0x6c>
     2e8:	00b82023          	sw	a1,0(a6)
     2ec:	ffc60613          	addi	a2,a2,-4 # fffc <timeoutcount+0x5324>
     2f0:	fd161ee3          	bne	a2,a7,2cc <print_hex32+0x58>
     2f4:	00008067          	ret

000002f8 <handle_exception>:
     2f8:	00200793          	li	a5,2
     2fc:	1af80463          	beq	a6,a5,4a4 <handle_exception+0x1ac>
     300:	00b00793          	li	a5,11
     304:	12f80663          	beq	a6,a5,430 <handle_exception+0x138>
     308:	14081c63          	bnez	a6,460 <handle_exception+0x168>
     30c:	0000b637          	lui	a2,0xb
     310:	0000b8b7          	lui	a7,0xb
     314:	04000737          	lui	a4,0x4000
     318:	04000837          	lui	a6,0x4000
     31c:	cdc60613          	addi	a2,a2,-804 # acdc <timeoutcount+0x4>
     320:	d0b88893          	addi	a7,a7,-757 # ad0b <timeoutcount+0x33>
     324:	04470713          	addi	a4,a4,68 # 4000044 <_stack_end+0x3ef52e0>
     328:	04080813          	addi	a6,a6,64 # 4000040 <_stack_end+0x3ef52dc>
     32c:	00a00593          	li	a1,10
     330:	000106b7          	lui	a3,0x10
     334:	00072783          	lw	a5,0(a4)
     338:	fed7eee3          	bltu	a5,a3,334 <handle_exception+0x3c>
     33c:	00b82023          	sw	a1,0(a6)
     340:	00160613          	addi	a2,a2,1
     344:	00064583          	lbu	a1,0(a2)
     348:	ff1616e3          	bne	a2,a7,334 <handle_exception+0x3c>
     34c:	0000b637          	lui	a2,0xb
     350:	0000b8b7          	lui	a7,0xb
     354:	04000737          	lui	a4,0x4000
     358:	04000837          	lui	a6,0x4000
     35c:	d5060613          	addi	a2,a2,-688 # ad50 <timeoutcount+0x78>
     360:	d6388893          	addi	a7,a7,-669 # ad63 <timeoutcount+0x8b>
     364:	04470713          	addi	a4,a4,68 # 4000044 <_stack_end+0x3ef52e0>
     368:	04080813          	addi	a6,a6,64 # 4000040 <_stack_end+0x3ef52dc>
     36c:	04500593          	li	a1,69
     370:	000106b7          	lui	a3,0x10
     374:	00072783          	lw	a5,0(a4)
     378:	fed7eee3          	bltu	a5,a3,374 <handle_exception+0x7c>
     37c:	00b82023          	sw	a1,0(a6)
     380:	00160613          	addi	a2,a2,1
     384:	00064583          	lbu	a1,0(a2)
     388:	ff1616e3          	bne	a2,a7,374 <handle_exception+0x7c>
     38c:	04000737          	lui	a4,0x4000
     390:	04470713          	addi	a4,a4,68 # 4000044 <_stack_end+0x3ef52e0>
     394:	000106b7          	lui	a3,0x10
     398:	00072783          	lw	a5,0(a4)
     39c:	fed7eee3          	bltu	a5,a3,398 <handle_exception+0xa0>
     3a0:	040007b7          	lui	a5,0x4000
     3a4:	03000693          	li	a3,48
     3a8:	04d7a023          	sw	a3,64(a5) # 4000040 <_stack_end+0x3ef52dc>
     3ac:	04478713          	addi	a4,a5,68
     3b0:	000106b7          	lui	a3,0x10
     3b4:	00072783          	lw	a5,0(a4)
     3b8:	fed7eee3          	bltu	a5,a3,3b4 <handle_exception+0xbc>
     3bc:	04000837          	lui	a6,0x4000
     3c0:	04080813          	addi	a6,a6,64 # 4000040 <_stack_end+0x3ef52dc>
     3c4:	07800793          	li	a5,120
     3c8:	04000737          	lui	a4,0x4000
     3cc:	00f82023          	sw	a5,0(a6)
     3d0:	04470713          	addi	a4,a4,68 # 4000044 <_stack_end+0x3ef52e0>
     3d4:	01c00613          	li	a2,28
     3d8:	00900313          	li	t1,9
     3dc:	000106b7          	lui	a3,0x10
     3e0:	ffc00893          	li	a7,-4
     3e4:	00c557b3          	srl	a5,a0,a2
     3e8:	00f7f793          	andi	a5,a5,15
     3ec:	03778593          	addi	a1,a5,55
     3f0:	00f36463          	bltu	t1,a5,3f8 <handle_exception+0x100>
     3f4:	03078593          	addi	a1,a5,48
     3f8:	00072783          	lw	a5,0(a4)
     3fc:	fed7eee3          	bltu	a5,a3,3f8 <handle_exception+0x100>
     400:	00b82023          	sw	a1,0(a6)
     404:	ffc60613          	addi	a2,a2,-4
     408:	fd161ee3          	bne	a2,a7,3e4 <handle_exception+0xec>
     40c:	04000737          	lui	a4,0x4000
     410:	04470713          	addi	a4,a4,68 # 4000044 <_stack_end+0x3ef52e0>
     414:	000106b7          	lui	a3,0x10
     418:	00072783          	lw	a5,0(a4)
     41c:	fed7eee3          	bltu	a5,a3,418 <handle_exception+0x120>
     420:	040007b7          	lui	a5,0x4000
     424:	00a00713          	li	a4,10
     428:	04e7a023          	sw	a4,64(a5) # 4000040 <_stack_end+0x3ef52dc>
     42c:	0000006f          	j	42c <handle_exception+0x134>
     430:	00400793          	li	a5,4
     434:	0af88a63          	beq	a7,a5,4e8 <handle_exception+0x1f0>
     438:	0f089463          	bne	a7,a6,520 <handle_exception+0x228>
     43c:	04000737          	lui	a4,0x4000
     440:	04470713          	addi	a4,a4,68 # 4000044 <_stack_end+0x3ef52e0>
     444:	000106b7          	lui	a3,0x10
     448:	00072783          	lw	a5,0(a4)
     44c:	fed7eee3          	bltu	a5,a3,448 <handle_exception+0x150>
     450:	040007b7          	lui	a5,0x4000
     454:	0ff57513          	zext.b	a0,a0
     458:	04a7a023          	sw	a0,64(a5) # 4000040 <_stack_end+0x3ef52dc>
     45c:	00008067          	ret
     460:	0000b637          	lui	a2,0xb
     464:	0000b8b7          	lui	a7,0xb
     468:	04000737          	lui	a4,0x4000
     46c:	04000837          	lui	a6,0x4000
     470:	d3060613          	addi	a2,a2,-720 # ad30 <timeoutcount+0x58>
     474:	d4c88893          	addi	a7,a7,-692 # ad4c <timeoutcount+0x74>
     478:	04470713          	addi	a4,a4,68 # 4000044 <_stack_end+0x3ef52e0>
     47c:	04080813          	addi	a6,a6,64 # 4000040 <_stack_end+0x3ef52dc>
     480:	00a00593          	li	a1,10
     484:	000106b7          	lui	a3,0x10
     488:	00072783          	lw	a5,0(a4)
     48c:	fed7eee3          	bltu	a5,a3,488 <handle_exception+0x190>
     490:	00b82023          	sw	a1,0(a6)
     494:	00160613          	addi	a2,a2,1
     498:	00064583          	lbu	a1,0(a2)
     49c:	ff1616e3          	bne	a2,a7,488 <handle_exception+0x190>
     4a0:	eadff06f          	j	34c <handle_exception+0x54>
     4a4:	0000b637          	lui	a2,0xb
     4a8:	0000b8b7          	lui	a7,0xb
     4ac:	04000737          	lui	a4,0x4000
     4b0:	04000837          	lui	a6,0x4000
     4b4:	d0c60613          	addi	a2,a2,-756 # ad0c <timeoutcount+0x34>
     4b8:	d2e88893          	addi	a7,a7,-722 # ad2e <timeoutcount+0x56>
     4bc:	04470713          	addi	a4,a4,68 # 4000044 <_stack_end+0x3ef52e0>
     4c0:	04080813          	addi	a6,a6,64 # 4000040 <_stack_end+0x3ef52dc>
     4c4:	00a00593          	li	a1,10
     4c8:	000106b7          	lui	a3,0x10
     4cc:	00072783          	lw	a5,0(a4)
     4d0:	fed7eee3          	bltu	a5,a3,4cc <handle_exception+0x1d4>
     4d4:	00b82023          	sw	a1,0(a6)
     4d8:	00160613          	addi	a2,a2,1
     4dc:	00064583          	lbu	a1,0(a2)
     4e0:	ff1616e3          	bne	a2,a7,4cc <handle_exception+0x1d4>
     4e4:	e69ff06f          	j	34c <handle_exception+0x54>
     4e8:	00054603          	lbu	a2,0(a0)
     4ec:	02060a63          	beqz	a2,520 <handle_exception+0x228>
     4f0:	04000737          	lui	a4,0x4000
     4f4:	040005b7          	lui	a1,0x4000
     4f8:	04470713          	addi	a4,a4,68 # 4000044 <_stack_end+0x3ef52e0>
     4fc:	04058593          	addi	a1,a1,64 # 4000040 <_stack_end+0x3ef52dc>
     500:	000106b7          	lui	a3,0x10
     504:	00072783          	lw	a5,0(a4)
     508:	fed7eee3          	bltu	a5,a3,504 <handle_exception+0x20c>
     50c:	00c5a023          	sw	a2,0(a1)
     510:	00154603          	lbu	a2,1(a0)
     514:	00150513          	addi	a0,a0,1
     518:	fe0616e3          	bnez	a2,504 <handle_exception+0x20c>
     51c:	00008067          	ret
     520:	00008067          	ret

00000524 <nextprime>:
     524:	00200793          	li	a5,2
     528:	02a7c063          	blt	a5,a0,548 <nextprime+0x24>
     52c:	00100693          	li	a3,1
     530:	00a05863          	blez	a0,540 <nextprime+0x1c>
     534:	fff50793          	addi	a5,a0,-1
     538:	00f037b3          	snez	a5,a5
     53c:	00278693          	addi	a3,a5,2
     540:	00068513          	mv	a0,a3
     544:	00008067          	ret
     548:	00150513          	addi	a0,a0,1
     54c:	00156693          	ori	a3,a0,1
     550:	00300793          	li	a5,3
     554:	02f6e733          	rem	a4,a3,a5
     558:	4016d613          	srai	a2,a3,0x1
     55c:	00260613          	addi	a2,a2,2
     560:	00178793          	addi	a5,a5,1
     564:	00070a63          	beqz	a4,578 <nextprime+0x54>
     568:	fcf60ce3          	beq	a2,a5,540 <nextprime+0x1c>
     56c:	02f6e733          	rem	a4,a3,a5
     570:	00178793          	addi	a5,a5,1
     574:	fe071ae3          	bnez	a4,568 <nextprime+0x44>
     578:	00268693          	addi	a3,a3,2 # 10002 <timeoutcount+0x532a>
     57c:	fd5ff06f          	j	550 <nextprime+0x2c>

00000580 <update_shape.constprop.1>:
     580:	000052b7          	lui	t0,0x5
     584:	da828293          	addi	t0,t0,-600 # 4da8 <grid>
     588:	00000313          	li	t1,0
     58c:	00400f13          	li	t5,4
     590:	00005737          	lui	a4,0x5
     594:	01200693          	li	a3,18
     598:	08100e13          	li	t3,129
     59c:	00800f93          	li	t6,8
     5a0:	00700e93          	li	t4,7
     5a4:	00431893          	slli	a7,t1,0x4
     5a8:	011508b3          	add	a7,a0,a7
     5ac:	00000813          	li	a6,0
     5b0:	0108a783          	lw	a5,16(a7)
     5b4:	1a078863          	beqz	a5,764 <update_shape.constprop.1+0x1e4>
     5b8:	00852783          	lw	a5,8(a0)
     5bc:	00452583          	lw	a1,4(a0)
     5c0:	00f307b3          	add	a5,t1,a5
     5c4:	0147b613          	sltiu	a2,a5,20
     5c8:	00b805b3          	add	a1,a6,a1
     5cc:	18060c63          	beqz	a2,764 <update_shape.constprop.1+0x1e4>
     5d0:	00a5b613          	sltiu	a2,a1,10
     5d4:	18060863          	beqz	a2,764 <update_shape.constprop.1+0x1e4>
     5d8:	fe010113          	addi	sp,sp,-32
     5dc:	00812e23          	sw	s0,28(sp)
     5e0:	00912c23          	sw	s1,24(sp)
     5e4:	01212a23          	sw	s2,20(sp)
     5e8:	01312823          	sw	s3,16(sp)
     5ec:	01412623          	sw	s4,12(sp)
     5f0:	01512423          	sw	s5,8(sp)
     5f4:	01612223          	sw	s6,4(sp)
     5f8:	01712023          	sw	s7,0(sp)
     5fc:	00279393          	slli	t2,a5,0x2
     600:	00f383b3          	add	t2,t2,a5
     604:	00139393          	slli	t2,t2,0x1
     608:	007283b3          	add	t2,t0,t2
     60c:	00b383b3          	add	t2,t2,a1
     610:	00578613          	addi	a2,a5,5
     614:	00261793          	slli	a5,a2,0x2
     618:	0003c403          	lbu	s0,0(t2)
     61c:	00c787b3          	add	a5,a5,a2
     620:	00f58593          	addi	a1,a1,15
     624:	00679793          	slli	a5,a5,0x6
     628:	00b787b3          	add	a5,a5,a1
     62c:	16041463          	bnez	s0,794 <update_shape.constprop.1+0x214>
     630:	da472603          	lw	a2,-604(a4) # 4da4 <VGA>
     634:	00379793          	slli	a5,a5,0x3
     638:	00678493          	addi	s1,a5,6
     63c:	00f60633          	add	a2,a2,a5
     640:	00d60023          	sb	a3,0(a2)
     644:	da472583          	lw	a1,-604(a4)
     648:	00078613          	mv	a2,a5
     64c:	00f585b3          	add	a1,a1,a5
     650:	00d580a3          	sb	a3,1(a1)
     654:	00000593          	li	a1,0
     658:	da472383          	lw	t2,-604(a4)
     65c:	00f383b3          	add	t2,t2,a5
     660:	00d38123          	sb	a3,2(t2)
     664:	da472383          	lw	t2,-604(a4)
     668:	00f383b3          	add	t2,t2,a5
     66c:	00d381a3          	sb	a3,3(t2)
     670:	da472383          	lw	t2,-604(a4)
     674:	00f383b3          	add	t2,t2,a5
     678:	00d38223          	sb	a3,4(t2)
     67c:	da472383          	lw	t2,-604(a4)
     680:	00f383b3          	add	t2,t2,a5
     684:	00d382a3          	sb	a3,5(t2)
     688:	da472383          	lw	t2,-604(a4)
     68c:	009383b3          	add	t2,t2,s1
     690:	00d38023          	sb	a3,0(t2)
     694:	08058863          	beqz	a1,724 <update_shape.constprop.1+0x1a4>
     698:	da472783          	lw	a5,-604(a4)
     69c:	00c787b3          	add	a5,a5,a2
     6a0:	00d783a3          	sb	a3,7(a5)
     6a4:	00180813          	addi	a6,a6,1
     6a8:	00488893          	addi	a7,a7,4
     6ac:	0de80863          	beq	a6,t5,77c <update_shape.constprop.1+0x1fc>
     6b0:	0108a783          	lw	a5,16(a7)
     6b4:	fe0788e3          	beqz	a5,6a4 <update_shape.constprop.1+0x124>
     6b8:	00852783          	lw	a5,8(a0)
     6bc:	00452583          	lw	a1,4(a0)
     6c0:	00f307b3          	add	a5,t1,a5
     6c4:	0147b613          	sltiu	a2,a5,20
     6c8:	00b805b3          	add	a1,a6,a1
     6cc:	fc060ce3          	beqz	a2,6a4 <update_shape.constprop.1+0x124>
     6d0:	00a5b613          	sltiu	a2,a1,10
     6d4:	f20614e3          	bnez	a2,5fc <update_shape.constprop.1+0x7c>
     6d8:	fcdff06f          	j	6a4 <update_shape.constprop.1+0x124>
     6dc:	00040023          	sb	zero,0(s0)
     6e0:	da472383          	lw	t2,-604(a4)
     6e4:	00078413          	mv	s0,a5
     6e8:	00f383b3          	add	t2,t2,a5
     6ec:	14038123          	sb	zero,322(t2)
     6f0:	da472383          	lw	t2,-604(a4)
     6f4:	00f387b3          	add	a5,t2,a5
     6f8:	140781a3          	sb	zero,323(a5)
     6fc:	da472383          	lw	t2,-604(a4)
     700:	00060793          	mv	a5,a2
     704:	00838633          	add	a2,t2,s0
     708:	14060223          	sb	zero,324(a2)
     70c:	da472603          	lw	a2,-604(a4)
     710:	00860633          	add	a2,a2,s0
     714:	140602a3          	sb	zero,325(a2)
     718:	da472603          	lw	a2,-604(a4)
     71c:	00960633          	add	a2,a2,s1
     720:	00060023          	sb	zero,0(a2)
     724:	da472383          	lw	t2,-604(a4)
     728:	14078613          	addi	a2,a5,320
     72c:	00158593          	addi	a1,a1,1
     730:	00f383b3          	add	t2,t2,a5
     734:	00d383a3          	sb	a3,7(t2)
     738:	da472403          	lw	s0,-604(a4)
     73c:	14178393          	addi	t2,a5,321
     740:	14048493          	addi	s1,s1,320
     744:	00c40433          	add	s0,s0,a2
     748:	00d40023          	sb	a3,0(s0)
     74c:	da472403          	lw	s0,-604(a4)
     750:	00740433          	add	s0,s0,t2
     754:	f9d594e3          	bne	a1,t4,6dc <update_shape.constprop.1+0x15c>
     758:	00d40023          	sb	a3,0(s0)
     75c:	00060793          	mv	a5,a2
     760:	ef9ff06f          	j	658 <update_shape.constprop.1+0xd8>
     764:	00180813          	addi	a6,a6,1
     768:	00488893          	addi	a7,a7,4
     76c:	e5e812e3          	bne	a6,t5,5b0 <update_shape.constprop.1+0x30>
     770:	00130313          	addi	t1,t1,1
     774:	e30318e3          	bne	t1,a6,5a4 <update_shape.constprop.1+0x24>
     778:	00008067          	ret
     77c:	00130313          	addi	t1,t1,1
     780:	13030a63          	beq	t1,a6,8b4 <__heap_size+0xb4>
     784:	00431893          	slli	a7,t1,0x4
     788:	011508b3          	add	a7,a0,a7
     78c:	00000813          	li	a6,0
     790:	f21ff06f          	j	6b0 <update_shape.constprop.1+0x130>
     794:	00379793          	slli	a5,a5,0x3
     798:	00678493          	addi	s1,a5,6
     79c:	00000393          	li	t2,0
     7a0:	da472583          	lw	a1,-604(a4)
     7a4:	007e5633          	srl	a2,t3,t2
     7a8:	00167613          	andi	a2,a2,1
     7ac:	00f585b3          	add	a1,a1,a5
     7b0:	00d58023          	sb	a3,0(a1)
     7b4:	da472583          	lw	a1,-604(a4)
     7b8:	00178b93          	addi	s7,a5,1
     7bc:	00278b13          	addi	s6,a5,2
     7c0:	00378a93          	addi	s5,a5,3
     7c4:	00478993          	addi	s3,a5,4
     7c8:	00578913          	addi	s2,a5,5
     7cc:	08060263          	beqz	a2,850 <__heap_size+0x50>
     7d0:	017585b3          	add	a1,a1,s7
     7d4:	00d58023          	sb	a3,0(a1)
     7d8:	da472603          	lw	a2,-604(a4)
     7dc:	00778a13          	addi	s4,a5,7
     7e0:	01660633          	add	a2,a2,s6
     7e4:	00d60023          	sb	a3,0(a2)
     7e8:	da472603          	lw	a2,-604(a4)
     7ec:	01560633          	add	a2,a2,s5
     7f0:	00d60023          	sb	a3,0(a2)
     7f4:	da472603          	lw	a2,-604(a4)
     7f8:	01360633          	add	a2,a2,s3
     7fc:	00d60023          	sb	a3,0(a2)
     800:	da472603          	lw	a2,-604(a4)
     804:	01260633          	add	a2,a2,s2
     808:	00d60023          	sb	a3,0(a2)
     80c:	da472603          	lw	a2,-604(a4)
     810:	00038e63          	beqz	t2,82c <__heap_size+0x2c>
     814:	00960633          	add	a2,a2,s1
     818:	00d60023          	sb	a3,0(a2)
     81c:	da472603          	lw	a2,-604(a4)
     820:	00f607b3          	add	a5,a2,a5
     824:	00d783a3          	sb	a3,7(a5)
     828:	e7dff06f          	j	6a4 <update_shape.constprop.1+0x124>
     82c:	00960633          	add	a2,a2,s1
     830:	00d60023          	sb	a3,0(a2)
     834:	da472603          	lw	a2,-604(a4)
     838:	14078793          	addi	a5,a5,320
     83c:	14048493          	addi	s1,s1,320
     840:	01460633          	add	a2,a2,s4
     844:	00100393          	li	t2,1
     848:	00d60023          	sb	a3,0(a2)
     84c:	f55ff06f          	j	7a0 <update_shape.constprop.1+0x220>
     850:	00f585b3          	add	a1,a1,a5
     854:	008580a3          	sb	s0,1(a1)
     858:	da472603          	lw	a2,-604(a4)
     85c:	00138393          	addi	t2,t2,1
     860:	00f60633          	add	a2,a2,a5
     864:	00860123          	sb	s0,2(a2)
     868:	da472603          	lw	a2,-604(a4)
     86c:	00f60633          	add	a2,a2,a5
     870:	008601a3          	sb	s0,3(a2)
     874:	da472603          	lw	a2,-604(a4)
     878:	00f60633          	add	a2,a2,a5
     87c:	00860223          	sb	s0,4(a2)
     880:	da472603          	lw	a2,-604(a4)
     884:	00f60633          	add	a2,a2,a5
     888:	008602a3          	sb	s0,5(a2)
     88c:	da472603          	lw	a2,-604(a4)
     890:	00960633          	add	a2,a2,s1
     894:	00860023          	sb	s0,0(a2)
     898:	da472603          	lw	a2,-604(a4)
     89c:	14048493          	addi	s1,s1,320
     8a0:	00f60633          	add	a2,a2,a5
     8a4:	00d603a3          	sb	a3,7(a2)
     8a8:	14078793          	addi	a5,a5,320
     8ac:	eff39ae3          	bne	t2,t6,7a0 <update_shape.constprop.1+0x220>
     8b0:	df5ff06f          	j	6a4 <update_shape.constprop.1+0x124>
     8b4:	01c12403          	lw	s0,28(sp)
     8b8:	01812483          	lw	s1,24(sp)
     8bc:	01412903          	lw	s2,20(sp)
     8c0:	01012983          	lw	s3,16(sp)
     8c4:	00c12a03          	lw	s4,12(sp)
     8c8:	00812a83          	lw	s5,8(sp)
     8cc:	00412b03          	lw	s6,4(sp)
     8d0:	00012b83          	lw	s7,0(sp)
     8d4:	02010113          	addi	sp,sp,32
     8d8:	00008067          	ret

000008dc <set_rand_seed>:
     8dc:	0000b7b7          	lui	a5,0xb
     8e0:	cca7aa23          	sw	a0,-812(a5) # acd4 <seed>
     8e4:	00008067          	ret

000008e8 <rand>:
     8e8:	0000b737          	lui	a4,0xb
     8ec:	cd472683          	lw	a3,-812(a4) # acd4 <seed>
     8f0:	00269793          	slli	a5,a3,0x2
     8f4:	00d787b3          	add	a5,a5,a3
     8f8:	00479513          	slli	a0,a5,0x4
     8fc:	40f50533          	sub	a0,a0,a5
     900:	0b350513          	addi	a0,a0,179
     904:	03f57513          	andi	a0,a0,63
     908:	cca72a23          	sw	a0,-812(a4)
     90c:	00008067          	ret

00000910 <delay>:
     910:	00008067          	ret

00000914 <spawn_piece>:
     914:	00005737          	lui	a4,0x5
     918:	da870713          	addi	a4,a4,-600 # 4da8 <grid>
     91c:	05050693          	addi	a3,a0,80
     920:	0c870793          	addi	a5,a4,200
     924:	00852603          	lw	a2,8(a0)
     928:	00052803          	lw	a6,0(a0)
     92c:	00452583          	lw	a1,4(a0)
     930:	00c7a423          	sw	a2,8(a5)
     934:	0107a023          	sw	a6,0(a5)
     938:	00b7a223          	sw	a1,4(a5)
     93c:	00c52603          	lw	a2,12(a0)
     940:	01050513          	addi	a0,a0,16
     944:	01078793          	addi	a5,a5,16
     948:	fec7ae23          	sw	a2,-4(a5)
     94c:	fcd51ce3          	bne	a0,a3,924 <spawn_piece+0x10>
     950:	00300793          	li	a5,3
     954:	0c072823          	sw	zero,208(a4)
     958:	0cf72623          	sw	a5,204(a4)
     95c:	00008067          	ret

00000960 <spawn_next>:
     960:	000056b7          	lui	a3,0x5
     964:	da868693          	addi	a3,a3,-600 # 4da8 <grid>
     968:	11868793          	addi	a5,a3,280
     96c:	0c868713          	addi	a4,a3,200
     970:	16868613          	addi	a2,a3,360
     974:	0087a583          	lw	a1,8(a5)
     978:	0007a803          	lw	a6,0(a5)
     97c:	0047a503          	lw	a0,4(a5)
     980:	00b72423          	sw	a1,8(a4)
     984:	01072023          	sw	a6,0(a4)
     988:	00a72223          	sw	a0,4(a4)
     98c:	00c7a583          	lw	a1,12(a5)
     990:	01078793          	addi	a5,a5,16
     994:	01070713          	addi	a4,a4,16
     998:	feb72e23          	sw	a1,-4(a4)
     99c:	fcc79ce3          	bne	a5,a2,974 <spawn_next+0x14>
     9a0:	0000b537          	lui	a0,0xb
     9a4:	cd452603          	lw	a2,-812(a0) # acd4 <seed>
     9a8:	24925737          	lui	a4,0x24925
     9ac:	92570713          	addi	a4,a4,-1755 # 24924925 <_stack_end+0x24819bc1>
     9b0:	00261793          	slli	a5,a2,0x2
     9b4:	00c787b3          	add	a5,a5,a2
     9b8:	00479593          	slli	a1,a5,0x4
     9bc:	40f585b3          	sub	a1,a1,a5
     9c0:	0b358593          	addi	a1,a1,179
     9c4:	03f5f593          	andi	a1,a1,63
     9c8:	0ff5f613          	zext.b	a2,a1
     9cc:	02e63733          	mulhu	a4,a2,a4
     9d0:	ccb52a23          	sw	a1,-812(a0)
     9d4:	000057b7          	lui	a5,0x5
     9d8:	b7478793          	addi	a5,a5,-1164 # 4b74 <pieces>
     9dc:	11868593          	addi	a1,a3,280
     9e0:	40e60533          	sub	a0,a2,a4
     9e4:	00155513          	srli	a0,a0,0x1
     9e8:	00a70733          	add	a4,a4,a0
     9ec:	00275713          	srli	a4,a4,0x2
     9f0:	00371513          	slli	a0,a4,0x3
     9f4:	40e50733          	sub	a4,a0,a4
     9f8:	40e60633          	sub	a2,a2,a4
     9fc:	0ff67613          	zext.b	a2,a2
     a00:	00261713          	slli	a4,a2,0x2
     a04:	00c70733          	add	a4,a4,a2
     a08:	00471713          	slli	a4,a4,0x4
     a0c:	00e787b3          	add	a5,a5,a4
     a10:	05078713          	addi	a4,a5,80
     a14:	0087a603          	lw	a2,8(a5)
     a18:	0007a803          	lw	a6,0(a5)
     a1c:	0047a503          	lw	a0,4(a5)
     a20:	00c5a423          	sw	a2,8(a1)
     a24:	0105a023          	sw	a6,0(a1)
     a28:	00a5a223          	sw	a0,4(a1)
     a2c:	00c7a603          	lw	a2,12(a5)
     a30:	01078793          	addi	a5,a5,16
     a34:	01058593          	addi	a1,a1,16
     a38:	fec5ae23          	sw	a2,-4(a1)
     a3c:	fce79ce3          	bne	a5,a4,a14 <spawn_next+0xb4>
     a40:	00300793          	li	a5,3
     a44:	0c06a823          	sw	zero,208(a3)
     a48:	0cf6a623          	sw	a5,204(a3)
     a4c:	00008067          	ret

00000a50 <labinit>:
     a50:	ffffc6b7          	lui	a3,0xffffc
     a54:	040007b7          	lui	a5,0x4000
     a58:	6bf68693          	addi	a3,a3,1727 # ffffc6bf <_stack_end+0xffef195b>
     a5c:	02d79423          	sh	a3,40(a5) # 4000028 <_stack_end+0x3ef52c4>
     a60:	02d00693          	li	a3,45
     a64:	02d79623          	sh	a3,44(a5)
     a68:	00700693          	li	a3,7
     a6c:	02d79223          	sh	a3,36(a5)
     a70:	00100693          	li	a3,1
     a74:	0cd7ac23          	sw	a3,216(a5)
     a78:	0cd7ae23          	sw	a3,220(a5)
     a7c:	ef8ff06f          	j	174 <enable_interrupt>

00000a80 <get_btn>:
     a80:	040007b7          	lui	a5,0x4000
     a84:	0d07a503          	lw	a0,208(a5) # 40000d0 <_stack_end+0x3ef536c>
     a88:	00157513          	andi	a0,a0,1
     a8c:	00008067          	ret

00000a90 <get_sw>:
     a90:	040007b7          	lui	a5,0x4000
     a94:	0107a503          	lw	a0,16(a5) # 4000010 <_stack_end+0x3ef52ac>
     a98:	3ff57513          	andi	a0,a0,1023
     a9c:	00008067          	ret

00000aa0 <draw_grid>:
     aa0:	00005f37          	lui	t5,0x5
     aa4:	da8f0f13          	addi	t5,t5,-600 # 4da8 <grid>
     aa8:	00003eb7          	lui	t4,0x3
     aac:	0c8f0f93          	addi	t6,t5,200
     ab0:	2c8e8e93          	addi	t4,t4,712 # 32c8 <tick+0x1b4>
     ab4:	01200713          	li	a4,18
     ab8:	08100313          	li	t1,129
     abc:	00800813          	li	a6,8
     ac0:	fb0e8e13          	addi	t3,t4,-80
     ac4:	000f0593          	mv	a1,t5
     ac8:	0005c883          	lbu	a7,0(a1)
     acc:	00089463          	bnez	a7,ad4 <draw_grid+0x34>
     ad0:	01200893          	li	a7,18
     ad4:	01c507b3          	add	a5,a0,t3
     ad8:	08100613          	li	a2,129
     adc:	00000693          	li	a3,0
     ae0:	0600006f          	j	b40 <draw_grid+0xa0>
     ae4:	0005c603          	lbu	a2,0(a1)
     ae8:	0c061863          	bnez	a2,bb8 <draw_grid+0x118>
     aec:	000780a3          	sb	zero,1(a5)
     af0:	0005c603          	lbu	a2,0(a1)
     af4:	0a061e63          	bnez	a2,bb0 <draw_grid+0x110>
     af8:	00078123          	sb	zero,2(a5)
     afc:	0005c603          	lbu	a2,0(a1)
     b00:	0a061463          	bnez	a2,ba8 <draw_grid+0x108>
     b04:	000781a3          	sb	zero,3(a5)
     b08:	0005c603          	lbu	a2,0(a1)
     b0c:	08061a63          	bnez	a2,ba0 <draw_grid+0x100>
     b10:	00078223          	sb	zero,4(a5)
     b14:	0005c603          	lbu	a2,0(a1)
     b18:	08061063          	bnez	a2,b98 <draw_grid+0xf8>
     b1c:	000782a3          	sb	zero,5(a5)
     b20:	0005c603          	lbu	a2,0(a1)
     b24:	06061663          	bnez	a2,b90 <draw_grid+0xf0>
     b28:	00078323          	sb	zero,6(a5)
     b2c:	00e783a3          	sb	a4,7(a5)
     b30:	00168693          	addi	a3,a3,1
     b34:	03068e63          	beq	a3,a6,b70 <draw_grid+0xd0>
     b38:	14078793          	addi	a5,a5,320
     b3c:	00d35633          	srl	a2,t1,a3
     b40:	00e78023          	sb	a4,0(a5)
     b44:	00167613          	andi	a2,a2,1
     b48:	f8060ee3          	beqz	a2,ae4 <draw_grid+0x44>
     b4c:	00e780a3          	sb	a4,1(a5)
     b50:	00e78123          	sb	a4,2(a5)
     b54:	00e781a3          	sb	a4,3(a5)
     b58:	00e78223          	sb	a4,4(a5)
     b5c:	00e782a3          	sb	a4,5(a5)
     b60:	00e78323          	sb	a4,6(a5)
     b64:	00e783a3          	sb	a4,7(a5)
     b68:	00168693          	addi	a3,a3,1
     b6c:	fd0696e3          	bne	a3,a6,b38 <draw_grid+0x98>
     b70:	008e0e13          	addi	t3,t3,8
     b74:	00158593          	addi	a1,a1,1
     b78:	f5de18e3          	bne	t3,t4,ac8 <draw_grid+0x28>
     b7c:	7ffe0e93          	addi	t4,t3,2047
     b80:	00af0f13          	addi	t5,t5,10
     b84:	201e8e93          	addi	t4,t4,513
     b88:	f3ff1ce3          	bne	t5,t6,ac0 <draw_grid+0x20>
     b8c:	00008067          	ret
     b90:	01178323          	sb	a7,6(a5)
     b94:	f99ff06f          	j	b2c <draw_grid+0x8c>
     b98:	011782a3          	sb	a7,5(a5)
     b9c:	f85ff06f          	j	b20 <draw_grid+0x80>
     ba0:	01178223          	sb	a7,4(a5)
     ba4:	f71ff06f          	j	b14 <draw_grid+0x74>
     ba8:	011781a3          	sb	a7,3(a5)
     bac:	f5dff06f          	j	b08 <draw_grid+0x68>
     bb0:	01178123          	sb	a7,2(a5)
     bb4:	f49ff06f          	j	afc <draw_grid+0x5c>
     bb8:	011780a3          	sb	a7,1(a5)
     bbc:	f35ff06f          	j	af0 <draw_grid+0x50>

00000bc0 <draw_shape>:
     bc0:	00000893          	li	a7,0
     bc4:	00400313          	li	t1,4
     bc8:	00489693          	slli	a3,a7,0x4
     bcc:	00d586b3          	add	a3,a1,a3
     bd0:	00000713          	li	a4,0
     bd4:	0106a783          	lw	a5,16(a3)
     bd8:	00079e63          	bnez	a5,bf4 <draw_shape+0x34>
     bdc:	00170713          	addi	a4,a4,1
     be0:	00468693          	addi	a3,a3,4
     be4:	fe6718e3          	bne	a4,t1,bd4 <draw_shape+0x14>
     be8:	00188893          	addi	a7,a7,1
     bec:	fce89ee3          	bne	a7,a4,bc8 <draw_shape+0x8>
     bf0:	00008067          	ret
     bf4:	0085a603          	lw	a2,8(a1)
     bf8:	0045a803          	lw	a6,4(a1)
     bfc:	00c5ce03          	lbu	t3,12(a1)
     c00:	00c88633          	add	a2,a7,a2
     c04:	00560613          	addi	a2,a2,5
     c08:	00261793          	slli	a5,a2,0x2
     c0c:	00c787b3          	add	a5,a5,a2
     c10:	01070633          	add	a2,a4,a6
     c14:	00f60613          	addi	a2,a2,15
     c18:	00679793          	slli	a5,a5,0x6
     c1c:	00c787b3          	add	a5,a5,a2
     c20:	00379793          	slli	a5,a5,0x3
     c24:	00f50833          	add	a6,a0,a5
     c28:	00178613          	addi	a2,a5,1
     c2c:	01c80023          	sb	t3,0(a6)
     c30:	00c50633          	add	a2,a0,a2
     c34:	01c60023          	sb	t3,0(a2)
     c38:	00c5ce03          	lbu	t3,12(a1)
     c3c:	00278813          	addi	a6,a5,2
     c40:	01050833          	add	a6,a0,a6
     c44:	00378613          	addi	a2,a5,3
     c48:	01c80023          	sb	t3,0(a6)
     c4c:	00c50633          	add	a2,a0,a2
     c50:	01c60023          	sb	t3,0(a2)
     c54:	00c5ce03          	lbu	t3,12(a1)
     c58:	00478813          	addi	a6,a5,4
     c5c:	01050833          	add	a6,a0,a6
     c60:	00578613          	addi	a2,a5,5
     c64:	01c80023          	sb	t3,0(a6)
     c68:	00c50633          	add	a2,a0,a2
     c6c:	01c60023          	sb	t3,0(a2)
     c70:	00c5ce03          	lbu	t3,12(a1)
     c74:	00678813          	addi	a6,a5,6
     c78:	01050833          	add	a6,a0,a6
     c7c:	00778613          	addi	a2,a5,7
     c80:	01c80023          	sb	t3,0(a6)
     c84:	00c50633          	add	a2,a0,a2
     c88:	01c60023          	sb	t3,0(a2)
     c8c:	00c5ce03          	lbu	t3,12(a1)
     c90:	14078813          	addi	a6,a5,320
     c94:	01050833          	add	a6,a0,a6
     c98:	14178613          	addi	a2,a5,321
     c9c:	01c80023          	sb	t3,0(a6)
     ca0:	00c50633          	add	a2,a0,a2
     ca4:	01c60023          	sb	t3,0(a2)
     ca8:	00c5ce03          	lbu	t3,12(a1)
     cac:	14278813          	addi	a6,a5,322
     cb0:	01050833          	add	a6,a0,a6
     cb4:	14378613          	addi	a2,a5,323
     cb8:	01c80023          	sb	t3,0(a6)
     cbc:	00c50633          	add	a2,a0,a2
     cc0:	01c60023          	sb	t3,0(a2)
     cc4:	00c5ce03          	lbu	t3,12(a1)
     cc8:	14478813          	addi	a6,a5,324
     ccc:	01050833          	add	a6,a0,a6
     cd0:	14578613          	addi	a2,a5,325
     cd4:	01c80023          	sb	t3,0(a6)
     cd8:	00c50633          	add	a2,a0,a2
     cdc:	01c60023          	sb	t3,0(a2)
     ce0:	00c5ce03          	lbu	t3,12(a1)
     ce4:	14678813          	addi	a6,a5,326
     ce8:	01050833          	add	a6,a0,a6
     cec:	14778613          	addi	a2,a5,327
     cf0:	01c80023          	sb	t3,0(a6)
     cf4:	00c50633          	add	a2,a0,a2
     cf8:	01c60023          	sb	t3,0(a2)
     cfc:	00c5ce03          	lbu	t3,12(a1)
     d00:	28078813          	addi	a6,a5,640
     d04:	01050833          	add	a6,a0,a6
     d08:	28178613          	addi	a2,a5,641
     d0c:	01c80023          	sb	t3,0(a6)
     d10:	00c50633          	add	a2,a0,a2
     d14:	01c60023          	sb	t3,0(a2)
     d18:	00c5ce03          	lbu	t3,12(a1)
     d1c:	28278813          	addi	a6,a5,642
     d20:	01050833          	add	a6,a0,a6
     d24:	28378613          	addi	a2,a5,643
     d28:	01c80023          	sb	t3,0(a6)
     d2c:	00c50633          	add	a2,a0,a2
     d30:	01c60023          	sb	t3,0(a2)
     d34:	00c5ce03          	lbu	t3,12(a1)
     d38:	28478813          	addi	a6,a5,644
     d3c:	01050833          	add	a6,a0,a6
     d40:	28578613          	addi	a2,a5,645
     d44:	01c80023          	sb	t3,0(a6)
     d48:	00c50633          	add	a2,a0,a2
     d4c:	01c60023          	sb	t3,0(a2)
     d50:	00c5ce03          	lbu	t3,12(a1)
     d54:	28678813          	addi	a6,a5,646
     d58:	01050833          	add	a6,a0,a6
     d5c:	28778613          	addi	a2,a5,647
     d60:	01c80023          	sb	t3,0(a6)
     d64:	00c50633          	add	a2,a0,a2
     d68:	01c60023          	sb	t3,0(a2)
     d6c:	00c5ce03          	lbu	t3,12(a1)
     d70:	3c078813          	addi	a6,a5,960
     d74:	01050833          	add	a6,a0,a6
     d78:	3c178613          	addi	a2,a5,961
     d7c:	01c80023          	sb	t3,0(a6)
     d80:	00c50633          	add	a2,a0,a2
     d84:	01c60023          	sb	t3,0(a2)
     d88:	00c5ce03          	lbu	t3,12(a1)
     d8c:	3c278813          	addi	a6,a5,962
     d90:	01050833          	add	a6,a0,a6
     d94:	3c378613          	addi	a2,a5,963
     d98:	01c80023          	sb	t3,0(a6)
     d9c:	00c50633          	add	a2,a0,a2
     da0:	01c60023          	sb	t3,0(a2)
     da4:	00c5ce03          	lbu	t3,12(a1)
     da8:	3c478813          	addi	a6,a5,964
     dac:	01050833          	add	a6,a0,a6
     db0:	3c578613          	addi	a2,a5,965
     db4:	01c80023          	sb	t3,0(a6)
     db8:	00c50633          	add	a2,a0,a2
     dbc:	01c60023          	sb	t3,0(a2)
     dc0:	00c5ce03          	lbu	t3,12(a1)
     dc4:	3c678813          	addi	a6,a5,966
     dc8:	01050833          	add	a6,a0,a6
     dcc:	3c778613          	addi	a2,a5,967
     dd0:	01c80023          	sb	t3,0(a6)
     dd4:	00c50633          	add	a2,a0,a2
     dd8:	01c60023          	sb	t3,0(a2)
     ddc:	00c5ce03          	lbu	t3,12(a1)
     de0:	50078813          	addi	a6,a5,1280
     de4:	01050833          	add	a6,a0,a6
     de8:	50178613          	addi	a2,a5,1281
     dec:	01c80023          	sb	t3,0(a6)
     df0:	00c50633          	add	a2,a0,a2
     df4:	01c60023          	sb	t3,0(a2)
     df8:	00c5ce03          	lbu	t3,12(a1)
     dfc:	50278813          	addi	a6,a5,1282
     e00:	01050833          	add	a6,a0,a6
     e04:	50378613          	addi	a2,a5,1283
     e08:	01c80023          	sb	t3,0(a6)
     e0c:	00c50633          	add	a2,a0,a2
     e10:	01c60023          	sb	t3,0(a2)
     e14:	00c5ce03          	lbu	t3,12(a1)
     e18:	50478813          	addi	a6,a5,1284
     e1c:	01050833          	add	a6,a0,a6
     e20:	50578613          	addi	a2,a5,1285
     e24:	01c80023          	sb	t3,0(a6)
     e28:	00c50633          	add	a2,a0,a2
     e2c:	01c60023          	sb	t3,0(a2)
     e30:	00c5ce03          	lbu	t3,12(a1)
     e34:	50678813          	addi	a6,a5,1286
     e38:	01050833          	add	a6,a0,a6
     e3c:	50778613          	addi	a2,a5,1287
     e40:	01c80023          	sb	t3,0(a6)
     e44:	00c50633          	add	a2,a0,a2
     e48:	01c60023          	sb	t3,0(a2)
     e4c:	00c5ce03          	lbu	t3,12(a1)
     e50:	64078813          	addi	a6,a5,1600
     e54:	01050833          	add	a6,a0,a6
     e58:	64178613          	addi	a2,a5,1601
     e5c:	01c80023          	sb	t3,0(a6)
     e60:	00c50633          	add	a2,a0,a2
     e64:	01c60023          	sb	t3,0(a2)
     e68:	00c5ce03          	lbu	t3,12(a1)
     e6c:	64278813          	addi	a6,a5,1602
     e70:	01050833          	add	a6,a0,a6
     e74:	64378613          	addi	a2,a5,1603
     e78:	01c80023          	sb	t3,0(a6)
     e7c:	00c50633          	add	a2,a0,a2
     e80:	01c60023          	sb	t3,0(a2)
     e84:	00c5ce03          	lbu	t3,12(a1)
     e88:	64478813          	addi	a6,a5,1604
     e8c:	01050833          	add	a6,a0,a6
     e90:	64578613          	addi	a2,a5,1605
     e94:	01c80023          	sb	t3,0(a6)
     e98:	00c50633          	add	a2,a0,a2
     e9c:	01c60023          	sb	t3,0(a2)
     ea0:	00c5ce03          	lbu	t3,12(a1)
     ea4:	64678813          	addi	a6,a5,1606
     ea8:	01050833          	add	a6,a0,a6
     eac:	64778613          	addi	a2,a5,1607
     eb0:	01c80023          	sb	t3,0(a6)
     eb4:	00c50633          	add	a2,a0,a2
     eb8:	01c60023          	sb	t3,0(a2)
     ebc:	00c5ce03          	lbu	t3,12(a1)
     ec0:	78078813          	addi	a6,a5,1920
     ec4:	01050833          	add	a6,a0,a6
     ec8:	78178613          	addi	a2,a5,1921
     ecc:	01c80023          	sb	t3,0(a6)
     ed0:	00c50633          	add	a2,a0,a2
     ed4:	01c60023          	sb	t3,0(a2)
     ed8:	00c5ce03          	lbu	t3,12(a1)
     edc:	78278813          	addi	a6,a5,1922
     ee0:	01050833          	add	a6,a0,a6
     ee4:	78378613          	addi	a2,a5,1923
     ee8:	01c80023          	sb	t3,0(a6)
     eec:	00c50633          	add	a2,a0,a2
     ef0:	01c60023          	sb	t3,0(a2)
     ef4:	00c5ce03          	lbu	t3,12(a1)
     ef8:	78478813          	addi	a6,a5,1924
     efc:	01050833          	add	a6,a0,a6
     f00:	78578613          	addi	a2,a5,1925
     f04:	01c80023          	sb	t3,0(a6)
     f08:	00c50633          	add	a2,a0,a2
     f0c:	01c60023          	sb	t3,0(a2)
     f10:	00c5ce03          	lbu	t3,12(a1)
     f14:	78678813          	addi	a6,a5,1926
     f18:	01050833          	add	a6,a0,a6
     f1c:	78778613          	addi	a2,a5,1927
     f20:	01c80023          	sb	t3,0(a6)
     f24:	00c50633          	add	a2,a0,a2
     f28:	01c60023          	sb	t3,0(a2)
     f2c:	00c5ce03          	lbu	t3,12(a1)
     f30:	7ff78813          	addi	a6,a5,2047
     f34:	7ff78613          	addi	a2,a5,2047
     f38:	0c180813          	addi	a6,a6,193
     f3c:	01050833          	add	a6,a0,a6
     f40:	0c260613          	addi	a2,a2,194
     f44:	01c80023          	sb	t3,0(a6)
     f48:	00c50633          	add	a2,a0,a2
     f4c:	01c60023          	sb	t3,0(a2)
     f50:	00c5ce03          	lbu	t3,12(a1)
     f54:	7ff78813          	addi	a6,a5,2047
     f58:	7ff78613          	addi	a2,a5,2047
     f5c:	0c380813          	addi	a6,a6,195
     f60:	01050833          	add	a6,a0,a6
     f64:	0c460613          	addi	a2,a2,196
     f68:	01c80023          	sb	t3,0(a6)
     f6c:	00c50633          	add	a2,a0,a2
     f70:	01c60023          	sb	t3,0(a2)
     f74:	00c5ce03          	lbu	t3,12(a1)
     f78:	7ff78813          	addi	a6,a5,2047
     f7c:	7ff78613          	addi	a2,a5,2047
     f80:	0c580813          	addi	a6,a6,197
     f84:	01050833          	add	a6,a0,a6
     f88:	0c660613          	addi	a2,a2,198
     f8c:	01c80023          	sb	t3,0(a6)
     f90:	00c50633          	add	a2,a0,a2
     f94:	01c60023          	sb	t3,0(a2)
     f98:	00c5c803          	lbu	a6,12(a1)
     f9c:	7ff78613          	addi	a2,a5,2047
     fa0:	0c760613          	addi	a2,a2,199
     fa4:	7ff78793          	addi	a5,a5,2047
     fa8:	00c50633          	add	a2,a0,a2
     fac:	0c878793          	addi	a5,a5,200
     fb0:	01060023          	sb	a6,0(a2)
     fb4:	00f507b3          	add	a5,a0,a5
     fb8:	01078023          	sb	a6,0(a5)
     fbc:	c21ff06f          	j	bdc <draw_shape+0x1c>

00000fc0 <draw_next_piece>:
     fc0:	00003637          	lui	a2,0x3
     fc4:	20060613          	addi	a2,a2,512 # 3200 <tick+0xec>
     fc8:	fc010113          	addi	sp,sp,-64
     fcc:	40c50833          	sub	a6,a0,a2
     fd0:	00003737          	lui	a4,0x3
     fd4:	00003537          	lui	a0,0x3
     fd8:	000037b7          	lui	a5,0x3
     fdc:	03412623          	sw	s4,44(sp)
     fe0:	03512423          	sw	s5,40(sp)
     fe4:	03612223          	sw	s6,36(sp)
     fe8:	03712023          	sw	s7,32(sp)
     fec:	01812e23          	sw	s8,28(sp)
     ff0:	01912c23          	sw	s9,24(sp)
     ff4:	01a12a23          	sw	s10,20(sp)
     ff8:	01b12823          	sw	s11,16(sp)
     ffc:	00003d37          	lui	s10,0x3
    1000:	00003db7          	lui	s11,0x3
    1004:	00003cb7          	lui	s9,0x3
    1008:	00003c37          	lui	s8,0x3
    100c:	00003bb7          	lui	s7,0x3
    1010:	00003b37          	lui	s6,0x3
    1014:	00003ab7          	lui	s5,0x3
    1018:	00003a37          	lui	s4,0x3
    101c:	44450513          	addi	a0,a0,1092 # 3444 <tick+0x330>
    1020:	44570713          	addi	a4,a4,1093 # 3445 <tick+0x331>
    1024:	44678793          	addi	a5,a5,1094 # 3446 <tick+0x332>
    1028:	02812e23          	sw	s0,60(sp)
    102c:	02912c23          	sw	s1,56(sp)
    1030:	03212a23          	sw	s2,52(sp)
    1034:	03312823          	sw	s3,48(sp)
    1038:	01058693          	addi	a3,a1,16
    103c:	304d8d93          	addi	s11,s11,772 # 3304 <tick+0x1f0>
    1040:	305d0d13          	addi	s10,s10,773 # 3305 <tick+0x1f1>
    1044:	306c8c93          	addi	s9,s9,774 # 3306 <tick+0x1f2>
    1048:	307c0c13          	addi	s8,s8,775 # 3307 <tick+0x1f3>
    104c:	308b8b93          	addi	s7,s7,776 # 3308 <tick+0x1f4>
    1050:	309b0b13          	addi	s6,s6,777 # 3309 <tick+0x1f5>
    1054:	30aa8a93          	addi	s5,s5,778 # 330a <tick+0x1f6>
    1058:	30ba0a13          	addi	s4,s4,779 # 330b <tick+0x1f7>
    105c:	00a12223          	sw	a0,4(sp)
    1060:	00e12423          	sw	a4,8(sp)
    1064:	00f12623          	sw	a5,12(sp)
    1068:	00003437          	lui	s0,0x3
    106c:	00003937          	lui	s2,0x3
    1070:	000034b7          	lui	s1,0x3
    1074:	44a40393          	addi	t2,s0,1098 # 344a <tick+0x336>
    1078:	44b40293          	addi	t0,s0,1099
    107c:	58440f93          	addi	t6,s0,1412
    1080:	58540f13          	addi	t5,s0,1413
    1084:	58640e93          	addi	t4,s0,1414
    1088:	58740e13          	addi	t3,s0,1415
    108c:	58840313          	addi	t1,s0,1416
    1090:	58940893          	addi	a7,s0,1417
    1094:	44790913          	addi	s2,s2,1095 # 3447 <tick+0x333>
    1098:	44848493          	addi	s1,s1,1096 # 3448 <tick+0x334>
    109c:	44940413          	addi	s0,s0,1097
    10a0:	ff068713          	addi	a4,a3,-16
    10a4:	00c807b3          	add	a5,a6,a2
    10a8:	00c12023          	sw	a2,0(sp)
    10ac:	01072603          	lw	a2,16(a4)
    10b0:	06061263          	bnez	a2,1114 <draw_next_piece+0x154>
    10b4:	00470713          	addi	a4,a4,4
    10b8:	00878793          	addi	a5,a5,8
    10bc:	fee698e3          	bne	a3,a4,10ac <draw_next_piece+0xec>
    10c0:	00012603          	lw	a2,0(sp)
    10c4:	000067b7          	lui	a5,0x6
    10c8:	a0078793          	addi	a5,a5,-1536 # 5a00 <__global_pointer+0x45c>
    10cc:	7ff60613          	addi	a2,a2,2047
    10d0:	20160613          	addi	a2,a2,513
    10d4:	01068693          	addi	a3,a3,16
    10d8:	f8f618e3          	bne	a2,a5,1068 <draw_next_piece+0xa8>
    10dc:	03c12403          	lw	s0,60(sp)
    10e0:	03812483          	lw	s1,56(sp)
    10e4:	03412903          	lw	s2,52(sp)
    10e8:	03012983          	lw	s3,48(sp)
    10ec:	02c12a03          	lw	s4,44(sp)
    10f0:	02812a83          	lw	s5,40(sp)
    10f4:	02412b03          	lw	s6,36(sp)
    10f8:	02012b83          	lw	s7,32(sp)
    10fc:	01c12c03          	lw	s8,28(sp)
    1100:	01812c83          	lw	s9,24(sp)
    1104:	01412d03          	lw	s10,20(sp)
    1108:	01012d83          	lw	s11,16(sp)
    110c:	04010113          	addi	sp,sp,64
    1110:	00008067          	ret
    1114:	00c5c983          	lbu	s3,12(a1)
    1118:	01b78533          	add	a0,a5,s11
    111c:	01a78633          	add	a2,a5,s10
    1120:	01350023          	sb	s3,0(a0)
    1124:	01360023          	sb	s3,0(a2)
    1128:	00c5c983          	lbu	s3,12(a1)
    112c:	01978533          	add	a0,a5,s9
    1130:	01878633          	add	a2,a5,s8
    1134:	01350023          	sb	s3,0(a0)
    1138:	01360023          	sb	s3,0(a2)
    113c:	00c5c983          	lbu	s3,12(a1)
    1140:	01778533          	add	a0,a5,s7
    1144:	01678633          	add	a2,a5,s6
    1148:	01350023          	sb	s3,0(a0)
    114c:	01360023          	sb	s3,0(a2)
    1150:	00c5c983          	lbu	s3,12(a1)
    1154:	01578533          	add	a0,a5,s5
    1158:	01478633          	add	a2,a5,s4
    115c:	01350023          	sb	s3,0(a0)
    1160:	01360023          	sb	s3,0(a2)
    1164:	00412603          	lw	a2,4(sp)
    1168:	00c5c983          	lbu	s3,12(a1)
    116c:	00c78533          	add	a0,a5,a2
    1170:	00812603          	lw	a2,8(sp)
    1174:	01350023          	sb	s3,0(a0)
    1178:	00c78633          	add	a2,a5,a2
    117c:	01360023          	sb	s3,0(a2)
    1180:	00c12603          	lw	a2,12(sp)
    1184:	00c5c983          	lbu	s3,12(a1)
    1188:	00c78533          	add	a0,a5,a2
    118c:	01350023          	sb	s3,0(a0)
    1190:	01278633          	add	a2,a5,s2
    1194:	01360023          	sb	s3,0(a2)
    1198:	00c5c983          	lbu	s3,12(a1)
    119c:	00978533          	add	a0,a5,s1
    11a0:	00878633          	add	a2,a5,s0
    11a4:	01350023          	sb	s3,0(a0)
    11a8:	01360023          	sb	s3,0(a2)
    11ac:	00c5c983          	lbu	s3,12(a1)
    11b0:	00778533          	add	a0,a5,t2
    11b4:	00578633          	add	a2,a5,t0
    11b8:	01350023          	sb	s3,0(a0)
    11bc:	01360023          	sb	s3,0(a2)
    11c0:	00c5c983          	lbu	s3,12(a1)
    11c4:	01f78533          	add	a0,a5,t6
    11c8:	01e78633          	add	a2,a5,t5
    11cc:	01350023          	sb	s3,0(a0)
    11d0:	01360023          	sb	s3,0(a2)
    11d4:	00c5c983          	lbu	s3,12(a1)
    11d8:	01d78533          	add	a0,a5,t4
    11dc:	01c78633          	add	a2,a5,t3
    11e0:	01350023          	sb	s3,0(a0)
    11e4:	01360023          	sb	s3,0(a2)
    11e8:	00c5c983          	lbu	s3,12(a1)
    11ec:	00678533          	add	a0,a5,t1
    11f0:	01178633          	add	a2,a5,a7
    11f4:	01350023          	sb	s3,0(a0)
    11f8:	01360023          	sb	s3,0(a2)
    11fc:	00c5c503          	lbu	a0,12(a1)
    1200:	00003637          	lui	a2,0x3
    1204:	58a60613          	addi	a2,a2,1418 # 358a <tick+0x476>
    1208:	00c78633          	add	a2,a5,a2
    120c:	00a60023          	sb	a0,0(a2)
    1210:	00003637          	lui	a2,0x3
    1214:	58b60613          	addi	a2,a2,1419 # 358b <tick+0x477>
    1218:	00c78633          	add	a2,a5,a2
    121c:	00a60023          	sb	a0,0(a2)
    1220:	00c5c503          	lbu	a0,12(a1)
    1224:	00003637          	lui	a2,0x3
    1228:	6c460613          	addi	a2,a2,1732 # 36c4 <tick+0x5b0>
    122c:	00c78633          	add	a2,a5,a2
    1230:	00a60023          	sb	a0,0(a2)
    1234:	00003637          	lui	a2,0x3
    1238:	6c560613          	addi	a2,a2,1733 # 36c5 <tick+0x5b1>
    123c:	00c78633          	add	a2,a5,a2
    1240:	00a60023          	sb	a0,0(a2)
    1244:	00c5c503          	lbu	a0,12(a1)
    1248:	00003637          	lui	a2,0x3
    124c:	6c660613          	addi	a2,a2,1734 # 36c6 <tick+0x5b2>
    1250:	00c78633          	add	a2,a5,a2
    1254:	00a60023          	sb	a0,0(a2)
    1258:	00003637          	lui	a2,0x3
    125c:	6c760613          	addi	a2,a2,1735 # 36c7 <tick+0x5b3>
    1260:	00c78633          	add	a2,a5,a2
    1264:	00a60023          	sb	a0,0(a2)
    1268:	00c5c503          	lbu	a0,12(a1)
    126c:	00003637          	lui	a2,0x3
    1270:	6c860613          	addi	a2,a2,1736 # 36c8 <tick+0x5b4>
    1274:	00c78633          	add	a2,a5,a2
    1278:	00a60023          	sb	a0,0(a2)
    127c:	00003637          	lui	a2,0x3
    1280:	6c960613          	addi	a2,a2,1737 # 36c9 <tick+0x5b5>
    1284:	00c78633          	add	a2,a5,a2
    1288:	00a60023          	sb	a0,0(a2)
    128c:	00c5c503          	lbu	a0,12(a1)
    1290:	00003637          	lui	a2,0x3
    1294:	6ca60613          	addi	a2,a2,1738 # 36ca <tick+0x5b6>
    1298:	00c78633          	add	a2,a5,a2
    129c:	00a60023          	sb	a0,0(a2)
    12a0:	00003637          	lui	a2,0x3
    12a4:	6cb60613          	addi	a2,a2,1739 # 36cb <tick+0x5b7>
    12a8:	00c78633          	add	a2,a5,a2
    12ac:	00a60023          	sb	a0,0(a2)
    12b0:	00c5c503          	lbu	a0,12(a1)
    12b4:	00004637          	lui	a2,0x4
    12b8:	80460613          	addi	a2,a2,-2044 # 3804 <tick+0x6f0>
    12bc:	00c78633          	add	a2,a5,a2
    12c0:	00a60023          	sb	a0,0(a2)
    12c4:	00004637          	lui	a2,0x4
    12c8:	80560613          	addi	a2,a2,-2043 # 3805 <tick+0x6f1>
    12cc:	00c78633          	add	a2,a5,a2
    12d0:	00a60023          	sb	a0,0(a2)
    12d4:	00c5c503          	lbu	a0,12(a1)
    12d8:	00004637          	lui	a2,0x4
    12dc:	80660613          	addi	a2,a2,-2042 # 3806 <tick+0x6f2>
    12e0:	00c78633          	add	a2,a5,a2
    12e4:	00a60023          	sb	a0,0(a2)
    12e8:	00004637          	lui	a2,0x4
    12ec:	80760613          	addi	a2,a2,-2041 # 3807 <tick+0x6f3>
    12f0:	00c78633          	add	a2,a5,a2
    12f4:	00a60023          	sb	a0,0(a2)
    12f8:	00c5c503          	lbu	a0,12(a1)
    12fc:	00004637          	lui	a2,0x4
    1300:	80860613          	addi	a2,a2,-2040 # 3808 <tick+0x6f4>
    1304:	00c78633          	add	a2,a5,a2
    1308:	00a60023          	sb	a0,0(a2)
    130c:	00004637          	lui	a2,0x4
    1310:	80960613          	addi	a2,a2,-2039 # 3809 <tick+0x6f5>
    1314:	00c78633          	add	a2,a5,a2
    1318:	00a60023          	sb	a0,0(a2)
    131c:	00c5c503          	lbu	a0,12(a1)
    1320:	00004637          	lui	a2,0x4
    1324:	80a60613          	addi	a2,a2,-2038 # 380a <tick+0x6f6>
    1328:	00c78633          	add	a2,a5,a2
    132c:	00a60023          	sb	a0,0(a2)
    1330:	00004637          	lui	a2,0x4
    1334:	80b60613          	addi	a2,a2,-2037 # 380b <tick+0x6f7>
    1338:	00c78633          	add	a2,a5,a2
    133c:	00a60023          	sb	a0,0(a2)
    1340:	00c5c503          	lbu	a0,12(a1)
    1344:	00004637          	lui	a2,0x4
    1348:	94460613          	addi	a2,a2,-1724 # 3944 <tick+0x830>
    134c:	00c78633          	add	a2,a5,a2
    1350:	00a60023          	sb	a0,0(a2)
    1354:	00004637          	lui	a2,0x4
    1358:	94560613          	addi	a2,a2,-1723 # 3945 <tick+0x831>
    135c:	00c78633          	add	a2,a5,a2
    1360:	00a60023          	sb	a0,0(a2)
    1364:	00c5c503          	lbu	a0,12(a1)
    1368:	00004637          	lui	a2,0x4
    136c:	94660613          	addi	a2,a2,-1722 # 3946 <tick+0x832>
    1370:	00c78633          	add	a2,a5,a2
    1374:	00a60023          	sb	a0,0(a2)
    1378:	00004637          	lui	a2,0x4
    137c:	94760613          	addi	a2,a2,-1721 # 3947 <tick+0x833>
    1380:	00c78633          	add	a2,a5,a2
    1384:	00a60023          	sb	a0,0(a2)
    1388:	00c5c503          	lbu	a0,12(a1)
    138c:	00004637          	lui	a2,0x4
    1390:	94860613          	addi	a2,a2,-1720 # 3948 <tick+0x834>
    1394:	00c78633          	add	a2,a5,a2
    1398:	00a60023          	sb	a0,0(a2)
    139c:	00004637          	lui	a2,0x4
    13a0:	94960613          	addi	a2,a2,-1719 # 3949 <tick+0x835>
    13a4:	00c78633          	add	a2,a5,a2
    13a8:	00a60023          	sb	a0,0(a2)
    13ac:	00c5c503          	lbu	a0,12(a1)
    13b0:	00004637          	lui	a2,0x4
    13b4:	94a60613          	addi	a2,a2,-1718 # 394a <tick+0x836>
    13b8:	00c78633          	add	a2,a5,a2
    13bc:	00a60023          	sb	a0,0(a2)
    13c0:	00004637          	lui	a2,0x4
    13c4:	94b60613          	addi	a2,a2,-1717 # 394b <tick+0x837>
    13c8:	00c78633          	add	a2,a5,a2
    13cc:	00a60023          	sb	a0,0(a2)
    13d0:	00c5c503          	lbu	a0,12(a1)
    13d4:	00004637          	lui	a2,0x4
    13d8:	a8460613          	addi	a2,a2,-1404 # 3a84 <tick+0x970>
    13dc:	00c78633          	add	a2,a5,a2
    13e0:	00a60023          	sb	a0,0(a2)
    13e4:	00004637          	lui	a2,0x4
    13e8:	a8560613          	addi	a2,a2,-1403 # 3a85 <tick+0x971>
    13ec:	00c78633          	add	a2,a5,a2
    13f0:	00a60023          	sb	a0,0(a2)
    13f4:	00c5c503          	lbu	a0,12(a1)
    13f8:	00004637          	lui	a2,0x4
    13fc:	a8660613          	addi	a2,a2,-1402 # 3a86 <tick+0x972>
    1400:	00c78633          	add	a2,a5,a2
    1404:	00a60023          	sb	a0,0(a2)
    1408:	00004637          	lui	a2,0x4
    140c:	a8760613          	addi	a2,a2,-1401 # 3a87 <tick+0x973>
    1410:	00c78633          	add	a2,a5,a2
    1414:	00a60023          	sb	a0,0(a2)
    1418:	00c5c503          	lbu	a0,12(a1)
    141c:	00004637          	lui	a2,0x4
    1420:	a8860613          	addi	a2,a2,-1400 # 3a88 <tick+0x974>
    1424:	00c78633          	add	a2,a5,a2
    1428:	00a60023          	sb	a0,0(a2)
    142c:	00004637          	lui	a2,0x4
    1430:	a8960613          	addi	a2,a2,-1399 # 3a89 <tick+0x975>
    1434:	00c78633          	add	a2,a5,a2
    1438:	00a60023          	sb	a0,0(a2)
    143c:	00c5c503          	lbu	a0,12(a1)
    1440:	00004637          	lui	a2,0x4
    1444:	a8a60613          	addi	a2,a2,-1398 # 3a8a <tick+0x976>
    1448:	00c78633          	add	a2,a5,a2
    144c:	00a60023          	sb	a0,0(a2)
    1450:	00004637          	lui	a2,0x4
    1454:	a8b60613          	addi	a2,a2,-1397 # 3a8b <tick+0x977>
    1458:	00c78633          	add	a2,a5,a2
    145c:	00a60023          	sb	a0,0(a2)
    1460:	00c5c503          	lbu	a0,12(a1)
    1464:	00004637          	lui	a2,0x4
    1468:	bc460613          	addi	a2,a2,-1084 # 3bc4 <tick+0xab0>
    146c:	00c78633          	add	a2,a5,a2
    1470:	00a60023          	sb	a0,0(a2)
    1474:	00004637          	lui	a2,0x4
    1478:	bc560613          	addi	a2,a2,-1083 # 3bc5 <tick+0xab1>
    147c:	00c78633          	add	a2,a5,a2
    1480:	00a60023          	sb	a0,0(a2)
    1484:	00c5c503          	lbu	a0,12(a1)
    1488:	00004637          	lui	a2,0x4
    148c:	bc660613          	addi	a2,a2,-1082 # 3bc6 <tick+0xab2>
    1490:	00c78633          	add	a2,a5,a2
    1494:	00a60023          	sb	a0,0(a2)
    1498:	00004637          	lui	a2,0x4
    149c:	bc760613          	addi	a2,a2,-1081 # 3bc7 <tick+0xab3>
    14a0:	00c78633          	add	a2,a5,a2
    14a4:	00a60023          	sb	a0,0(a2)
    14a8:	00c5c503          	lbu	a0,12(a1)
    14ac:	00004637          	lui	a2,0x4
    14b0:	bc860613          	addi	a2,a2,-1080 # 3bc8 <tick+0xab4>
    14b4:	00c78633          	add	a2,a5,a2
    14b8:	00a60023          	sb	a0,0(a2)
    14bc:	00004637          	lui	a2,0x4
    14c0:	bc960613          	addi	a2,a2,-1079 # 3bc9 <tick+0xab5>
    14c4:	00c78633          	add	a2,a5,a2
    14c8:	00a60023          	sb	a0,0(a2)
    14cc:	00c5c503          	lbu	a0,12(a1)
    14d0:	00004637          	lui	a2,0x4
    14d4:	bca60613          	addi	a2,a2,-1078 # 3bca <tick+0xab6>
    14d8:	00c78633          	add	a2,a5,a2
    14dc:	00a60023          	sb	a0,0(a2)
    14e0:	00004637          	lui	a2,0x4
    14e4:	bcb60613          	addi	a2,a2,-1077 # 3bcb <tick+0xab7>
    14e8:	00c78633          	add	a2,a5,a2
    14ec:	00a60023          	sb	a0,0(a2)
    14f0:	bc5ff06f          	j	10b4 <draw_next_piece+0xf4>

000014f4 <clear_next_shape>:
    14f4:	fc010113          	addi	sp,sp,-64
    14f8:	00003637          	lui	a2,0x3
    14fc:	000037b7          	lui	a5,0x3
    1500:	03212a23          	sw	s2,52(sp)
    1504:	03312823          	sw	s3,48(sp)
    1508:	03412623          	sw	s4,44(sp)
    150c:	03512423          	sw	s5,40(sp)
    1510:	03612223          	sw	s6,36(sp)
    1514:	03712023          	sw	s7,32(sp)
    1518:	01812e23          	sw	s8,28(sp)
    151c:	01912c23          	sw	s9,24(sp)
    1520:	01a12a23          	sw	s10,20(sp)
    1524:	01b12823          	sw	s11,16(sp)
    1528:	20060613          	addi	a2,a2,512 # 3200 <tick+0xec>
    152c:	00003db7          	lui	s11,0x3
    1530:	00003d37          	lui	s10,0x3
    1534:	00003cb7          	lui	s9,0x3
    1538:	00003c37          	lui	s8,0x3
    153c:	00003bb7          	lui	s7,0x3
    1540:	00003b37          	lui	s6,0x3
    1544:	00003ab7          	lui	s5,0x3
    1548:	00003a37          	lui	s4,0x3
    154c:	000039b7          	lui	s3,0x3
    1550:	00003937          	lui	s2,0x3
    1554:	44678793          	addi	a5,a5,1094 # 3446 <tick+0x332>
    1558:	02812e23          	sw	s0,60(sp)
    155c:	02912c23          	sw	s1,56(sp)
    1560:	01058693          	addi	a3,a1,16
    1564:	40c50533          	sub	a0,a0,a2
    1568:	304d8d93          	addi	s11,s11,772 # 3304 <tick+0x1f0>
    156c:	305d0d13          	addi	s10,s10,773 # 3305 <tick+0x1f1>
    1570:	306c8c93          	addi	s9,s9,774 # 3306 <tick+0x1f2>
    1574:	307c0c13          	addi	s8,s8,775 # 3307 <tick+0x1f3>
    1578:	308b8b93          	addi	s7,s7,776 # 3308 <tick+0x1f4>
    157c:	309b0b13          	addi	s6,s6,777 # 3309 <tick+0x1f5>
    1580:	30aa8a93          	addi	s5,s5,778 # 330a <tick+0x1f6>
    1584:	30ba0a13          	addi	s4,s4,779 # 330b <tick+0x1f7>
    1588:	44498993          	addi	s3,s3,1092 # 3444 <tick+0x330>
    158c:	44590913          	addi	s2,s2,1093 # 3445 <tick+0x331>
    1590:	00f12623          	sw	a5,12(sp)
    1594:	00003437          	lui	s0,0x3
    1598:	000034b7          	lui	s1,0x3
    159c:	44940393          	addi	t2,s0,1097 # 3449 <tick+0x335>
    15a0:	44a40293          	addi	t0,s0,1098
    15a4:	44b40f93          	addi	t6,s0,1099
    15a8:	58440f13          	addi	t5,s0,1412
    15ac:	58540e93          	addi	t4,s0,1413
    15b0:	58640e13          	addi	t3,s0,1414
    15b4:	58740313          	addi	t1,s0,1415
    15b8:	58840893          	addi	a7,s0,1416
    15bc:	58940813          	addi	a6,s0,1417
    15c0:	44748493          	addi	s1,s1,1095 # 3447 <tick+0x333>
    15c4:	44840413          	addi	s0,s0,1096
    15c8:	ff068713          	addi	a4,a3,-16
    15cc:	00c507b3          	add	a5,a0,a2
    15d0:	00c12423          	sw	a2,8(sp)
    15d4:	01072603          	lw	a2,16(a4)
    15d8:	06061263          	bnez	a2,163c <clear_next_shape+0x148>
    15dc:	00470713          	addi	a4,a4,4
    15e0:	00878793          	addi	a5,a5,8
    15e4:	fee698e3          	bne	a3,a4,15d4 <clear_next_shape+0xe0>
    15e8:	00812603          	lw	a2,8(sp)
    15ec:	000067b7          	lui	a5,0x6
    15f0:	a0078793          	addi	a5,a5,-1536 # 5a00 <__global_pointer+0x45c>
    15f4:	7ff60613          	addi	a2,a2,2047
    15f8:	20160613          	addi	a2,a2,513
    15fc:	01068693          	addi	a3,a3,16
    1600:	f8f61ae3          	bne	a2,a5,1594 <clear_next_shape+0xa0>
    1604:	03c12403          	lw	s0,60(sp)
    1608:	03812483          	lw	s1,56(sp)
    160c:	03412903          	lw	s2,52(sp)
    1610:	03012983          	lw	s3,48(sp)
    1614:	02c12a03          	lw	s4,44(sp)
    1618:	02812a83          	lw	s5,40(sp)
    161c:	02412b03          	lw	s6,36(sp)
    1620:	02012b83          	lw	s7,32(sp)
    1624:	01c12c03          	lw	s8,28(sp)
    1628:	01812c83          	lw	s9,24(sp)
    162c:	01412d03          	lw	s10,20(sp)
    1630:	01012d83          	lw	s11,16(sp)
    1634:	04010113          	addi	sp,sp,64
    1638:	00008067          	ret
    163c:	01b78633          	add	a2,a5,s11
    1640:	00060023          	sb	zero,0(a2)
    1644:	01a78633          	add	a2,a5,s10
    1648:	00060023          	sb	zero,0(a2)
    164c:	01978633          	add	a2,a5,s9
    1650:	00060023          	sb	zero,0(a2)
    1654:	01878633          	add	a2,a5,s8
    1658:	00060023          	sb	zero,0(a2)
    165c:	01778633          	add	a2,a5,s7
    1660:	00060023          	sb	zero,0(a2)
    1664:	01678633          	add	a2,a5,s6
    1668:	00060023          	sb	zero,0(a2)
    166c:	01578633          	add	a2,a5,s5
    1670:	00060023          	sb	zero,0(a2)
    1674:	01478633          	add	a2,a5,s4
    1678:	00060023          	sb	zero,0(a2)
    167c:	01378633          	add	a2,a5,s3
    1680:	00060023          	sb	zero,0(a2)
    1684:	01278633          	add	a2,a5,s2
    1688:	00060023          	sb	zero,0(a2)
    168c:	00c12603          	lw	a2,12(sp)
    1690:	000035b7          	lui	a1,0x3
    1694:	58a58593          	addi	a1,a1,1418 # 358a <tick+0x476>
    1698:	00c78633          	add	a2,a5,a2
    169c:	00060023          	sb	zero,0(a2)
    16a0:	00978633          	add	a2,a5,s1
    16a4:	00060023          	sb	zero,0(a2)
    16a8:	00878633          	add	a2,a5,s0
    16ac:	00060023          	sb	zero,0(a2)
    16b0:	00778633          	add	a2,a5,t2
    16b4:	00060023          	sb	zero,0(a2)
    16b8:	00578633          	add	a2,a5,t0
    16bc:	00060023          	sb	zero,0(a2)
    16c0:	01f78633          	add	a2,a5,t6
    16c4:	00060023          	sb	zero,0(a2)
    16c8:	01e78633          	add	a2,a5,t5
    16cc:	00060023          	sb	zero,0(a2)
    16d0:	01d78633          	add	a2,a5,t4
    16d4:	00060023          	sb	zero,0(a2)
    16d8:	01c78633          	add	a2,a5,t3
    16dc:	00060023          	sb	zero,0(a2)
    16e0:	00678633          	add	a2,a5,t1
    16e4:	00060023          	sb	zero,0(a2)
    16e8:	01178633          	add	a2,a5,a7
    16ec:	00060023          	sb	zero,0(a2)
    16f0:	01078633          	add	a2,a5,a6
    16f4:	00060023          	sb	zero,0(a2)
    16f8:	00003637          	lui	a2,0x3
    16fc:	00b785b3          	add	a1,a5,a1
    1700:	58b60613          	addi	a2,a2,1419 # 358b <tick+0x477>
    1704:	00058023          	sb	zero,0(a1)
    1708:	00c78633          	add	a2,a5,a2
    170c:	000035b7          	lui	a1,0x3
    1710:	00060023          	sb	zero,0(a2)
    1714:	6c458593          	addi	a1,a1,1732 # 36c4 <tick+0x5b0>
    1718:	00003637          	lui	a2,0x3
    171c:	00b785b3          	add	a1,a5,a1
    1720:	6c560613          	addi	a2,a2,1733 # 36c5 <tick+0x5b1>
    1724:	00058023          	sb	zero,0(a1)
    1728:	00c78633          	add	a2,a5,a2
    172c:	000035b7          	lui	a1,0x3
    1730:	00060023          	sb	zero,0(a2)
    1734:	6c658593          	addi	a1,a1,1734 # 36c6 <tick+0x5b2>
    1738:	00003637          	lui	a2,0x3
    173c:	00b785b3          	add	a1,a5,a1
    1740:	6c760613          	addi	a2,a2,1735 # 36c7 <tick+0x5b3>
    1744:	00058023          	sb	zero,0(a1)
    1748:	00c78633          	add	a2,a5,a2
    174c:	000035b7          	lui	a1,0x3
    1750:	00060023          	sb	zero,0(a2)
    1754:	6c858593          	addi	a1,a1,1736 # 36c8 <tick+0x5b4>
    1758:	00003637          	lui	a2,0x3
    175c:	00b785b3          	add	a1,a5,a1
    1760:	6c960613          	addi	a2,a2,1737 # 36c9 <tick+0x5b5>
    1764:	00058023          	sb	zero,0(a1)
    1768:	00c78633          	add	a2,a5,a2
    176c:	000035b7          	lui	a1,0x3
    1770:	00060023          	sb	zero,0(a2)
    1774:	6ca58593          	addi	a1,a1,1738 # 36ca <tick+0x5b6>
    1778:	00003637          	lui	a2,0x3
    177c:	00b785b3          	add	a1,a5,a1
    1780:	6cb60613          	addi	a2,a2,1739 # 36cb <tick+0x5b7>
    1784:	00058023          	sb	zero,0(a1)
    1788:	00c78633          	add	a2,a5,a2
    178c:	000045b7          	lui	a1,0x4
    1790:	00060023          	sb	zero,0(a2)
    1794:	80458593          	addi	a1,a1,-2044 # 3804 <tick+0x6f0>
    1798:	00004637          	lui	a2,0x4
    179c:	00b785b3          	add	a1,a5,a1
    17a0:	80560613          	addi	a2,a2,-2043 # 3805 <tick+0x6f1>
    17a4:	00058023          	sb	zero,0(a1)
    17a8:	00c78633          	add	a2,a5,a2
    17ac:	000045b7          	lui	a1,0x4
    17b0:	00060023          	sb	zero,0(a2)
    17b4:	80658593          	addi	a1,a1,-2042 # 3806 <tick+0x6f2>
    17b8:	00004637          	lui	a2,0x4
    17bc:	00b785b3          	add	a1,a5,a1
    17c0:	80760613          	addi	a2,a2,-2041 # 3807 <tick+0x6f3>
    17c4:	00058023          	sb	zero,0(a1)
    17c8:	00c78633          	add	a2,a5,a2
    17cc:	000045b7          	lui	a1,0x4
    17d0:	00060023          	sb	zero,0(a2)
    17d4:	80858593          	addi	a1,a1,-2040 # 3808 <tick+0x6f4>
    17d8:	00004637          	lui	a2,0x4
    17dc:	00b785b3          	add	a1,a5,a1
    17e0:	80960613          	addi	a2,a2,-2039 # 3809 <tick+0x6f5>
    17e4:	00058023          	sb	zero,0(a1)
    17e8:	00c78633          	add	a2,a5,a2
    17ec:	000045b7          	lui	a1,0x4
    17f0:	00060023          	sb	zero,0(a2)
    17f4:	80a58593          	addi	a1,a1,-2038 # 380a <tick+0x6f6>
    17f8:	00004637          	lui	a2,0x4
    17fc:	00b785b3          	add	a1,a5,a1
    1800:	80b60613          	addi	a2,a2,-2037 # 380b <tick+0x6f7>
    1804:	00058023          	sb	zero,0(a1)
    1808:	00c78633          	add	a2,a5,a2
    180c:	000045b7          	lui	a1,0x4
    1810:	00060023          	sb	zero,0(a2)
    1814:	94458593          	addi	a1,a1,-1724 # 3944 <tick+0x830>
    1818:	00004637          	lui	a2,0x4
    181c:	00b785b3          	add	a1,a5,a1
    1820:	94560613          	addi	a2,a2,-1723 # 3945 <tick+0x831>
    1824:	00058023          	sb	zero,0(a1)
    1828:	00c78633          	add	a2,a5,a2
    182c:	000045b7          	lui	a1,0x4
    1830:	00060023          	sb	zero,0(a2)
    1834:	94658593          	addi	a1,a1,-1722 # 3946 <tick+0x832>
    1838:	00004637          	lui	a2,0x4
    183c:	00b785b3          	add	a1,a5,a1
    1840:	94760613          	addi	a2,a2,-1721 # 3947 <tick+0x833>
    1844:	00058023          	sb	zero,0(a1)
    1848:	00c78633          	add	a2,a5,a2
    184c:	000045b7          	lui	a1,0x4
    1850:	00060023          	sb	zero,0(a2)
    1854:	94858593          	addi	a1,a1,-1720 # 3948 <tick+0x834>
    1858:	00004637          	lui	a2,0x4
    185c:	00b785b3          	add	a1,a5,a1
    1860:	94960613          	addi	a2,a2,-1719 # 3949 <tick+0x835>
    1864:	00058023          	sb	zero,0(a1)
    1868:	00c78633          	add	a2,a5,a2
    186c:	000045b7          	lui	a1,0x4
    1870:	00060023          	sb	zero,0(a2)
    1874:	94a58593          	addi	a1,a1,-1718 # 394a <tick+0x836>
    1878:	00004637          	lui	a2,0x4
    187c:	00b785b3          	add	a1,a5,a1
    1880:	94b60613          	addi	a2,a2,-1717 # 394b <tick+0x837>
    1884:	00058023          	sb	zero,0(a1)
    1888:	00c78633          	add	a2,a5,a2
    188c:	000045b7          	lui	a1,0x4
    1890:	00060023          	sb	zero,0(a2)
    1894:	a8458593          	addi	a1,a1,-1404 # 3a84 <tick+0x970>
    1898:	00004637          	lui	a2,0x4
    189c:	00b785b3          	add	a1,a5,a1
    18a0:	a8560613          	addi	a2,a2,-1403 # 3a85 <tick+0x971>
    18a4:	00058023          	sb	zero,0(a1)
    18a8:	00c78633          	add	a2,a5,a2
    18ac:	000045b7          	lui	a1,0x4
    18b0:	00060023          	sb	zero,0(a2)
    18b4:	a8658593          	addi	a1,a1,-1402 # 3a86 <tick+0x972>
    18b8:	00004637          	lui	a2,0x4
    18bc:	00b785b3          	add	a1,a5,a1
    18c0:	a8760613          	addi	a2,a2,-1401 # 3a87 <tick+0x973>
    18c4:	00058023          	sb	zero,0(a1)
    18c8:	00c78633          	add	a2,a5,a2
    18cc:	000045b7          	lui	a1,0x4
    18d0:	00060023          	sb	zero,0(a2)
    18d4:	a8858593          	addi	a1,a1,-1400 # 3a88 <tick+0x974>
    18d8:	00004637          	lui	a2,0x4
    18dc:	00b785b3          	add	a1,a5,a1
    18e0:	a8960613          	addi	a2,a2,-1399 # 3a89 <tick+0x975>
    18e4:	00058023          	sb	zero,0(a1)
    18e8:	00c78633          	add	a2,a5,a2
    18ec:	000045b7          	lui	a1,0x4
    18f0:	00060023          	sb	zero,0(a2)
    18f4:	a8a58593          	addi	a1,a1,-1398 # 3a8a <tick+0x976>
    18f8:	00004637          	lui	a2,0x4
    18fc:	00b785b3          	add	a1,a5,a1
    1900:	a8b60613          	addi	a2,a2,-1397 # 3a8b <tick+0x977>
    1904:	00058023          	sb	zero,0(a1)
    1908:	00c78633          	add	a2,a5,a2
    190c:	000045b7          	lui	a1,0x4
    1910:	00060023          	sb	zero,0(a2)
    1914:	bc458593          	addi	a1,a1,-1084 # 3bc4 <tick+0xab0>
    1918:	00004637          	lui	a2,0x4
    191c:	00b785b3          	add	a1,a5,a1
    1920:	bc560613          	addi	a2,a2,-1083 # 3bc5 <tick+0xab1>
    1924:	00058023          	sb	zero,0(a1)
    1928:	00c78633          	add	a2,a5,a2
    192c:	000045b7          	lui	a1,0x4
    1930:	00060023          	sb	zero,0(a2)
    1934:	bc658593          	addi	a1,a1,-1082 # 3bc6 <tick+0xab2>
    1938:	00004637          	lui	a2,0x4
    193c:	00b785b3          	add	a1,a5,a1
    1940:	bc760613          	addi	a2,a2,-1081 # 3bc7 <tick+0xab3>
    1944:	00058023          	sb	zero,0(a1)
    1948:	00c78633          	add	a2,a5,a2
    194c:	000045b7          	lui	a1,0x4
    1950:	00060023          	sb	zero,0(a2)
    1954:	bc858593          	addi	a1,a1,-1080 # 3bc8 <tick+0xab4>
    1958:	00004637          	lui	a2,0x4
    195c:	00b785b3          	add	a1,a5,a1
    1960:	bc960613          	addi	a2,a2,-1079 # 3bc9 <tick+0xab5>
    1964:	00058023          	sb	zero,0(a1)
    1968:	00c78633          	add	a2,a5,a2
    196c:	000045b7          	lui	a1,0x4
    1970:	00060023          	sb	zero,0(a2)
    1974:	bca58593          	addi	a1,a1,-1078 # 3bca <tick+0xab6>
    1978:	00004637          	lui	a2,0x4
    197c:	00b785b3          	add	a1,a5,a1
    1980:	bcb60613          	addi	a2,a2,-1077 # 3bcb <tick+0xab7>
    1984:	00058023          	sb	zero,0(a1)
    1988:	00c78633          	add	a2,a5,a2
    198c:	00060023          	sb	zero,0(a2)
    1990:	c4dff06f          	j	15dc <clear_next_shape+0xe8>

00001994 <update_cell>:
    1994:	00550713          	addi	a4,a0,5
    1998:	00271793          	slli	a5,a4,0x2
    199c:	00e787b3          	add	a5,a5,a4
    19a0:	00005737          	lui	a4,0x5
    19a4:	00f58693          	addi	a3,a1,15
    19a8:	00679793          	slli	a5,a5,0x6
    19ac:	da472583          	lw	a1,-604(a4) # 4da4 <VGA>
    19b0:	00d787b3          	add	a5,a5,a3
    19b4:	00379793          	slli	a5,a5,0x3
    19b8:	01200693          	li	a3,18
    19bc:	00f585b3          	add	a1,a1,a5
    19c0:	00d58023          	sb	a3,0(a1)
    19c4:	da472583          	lw	a1,-604(a4)
    19c8:	00678313          	addi	t1,a5,6
    19cc:	00078f13          	mv	t5,a5
    19d0:	00f585b3          	add	a1,a1,a5
    19d4:	00d580a3          	sb	a3,1(a1)
    19d8:	00000813          	li	a6,0
    19dc:	00700e13          	li	t3,7
    19e0:	da472583          	lw	a1,-604(a4)
    19e4:	00f585b3          	add	a1,a1,a5
    19e8:	00d58123          	sb	a3,2(a1)
    19ec:	da472583          	lw	a1,-604(a4)
    19f0:	00f585b3          	add	a1,a1,a5
    19f4:	00d581a3          	sb	a3,3(a1)
    19f8:	da472583          	lw	a1,-604(a4)
    19fc:	00f585b3          	add	a1,a1,a5
    1a00:	00d58223          	sb	a3,4(a1)
    1a04:	da472583          	lw	a1,-604(a4)
    1a08:	00f585b3          	add	a1,a1,a5
    1a0c:	00d582a3          	sb	a3,5(a1)
    1a10:	da472583          	lw	a1,-604(a4)
    1a14:	006585b3          	add	a1,a1,t1
    1a18:	00d58023          	sb	a3,0(a1)
    1a1c:	04080e63          	beqz	a6,1a78 <update_cell+0xe4>
    1a20:	da472783          	lw	a5,-604(a4)
    1a24:	01e787b3          	add	a5,a5,t5
    1a28:	00d783a3          	sb	a3,7(a5)
    1a2c:	00008067          	ret
    1a30:	00c50023          	sb	a2,0(a0)
    1a34:	da472583          	lw	a1,-604(a4)
    1a38:	00078513          	mv	a0,a5
    1a3c:	00f585b3          	add	a1,a1,a5
    1a40:	14c58123          	sb	a2,322(a1)
    1a44:	da472583          	lw	a1,-604(a4)
    1a48:	00f587b3          	add	a5,a1,a5
    1a4c:	14c781a3          	sb	a2,323(a5)
    1a50:	da472583          	lw	a1,-604(a4)
    1a54:	00088793          	mv	a5,a7
    1a58:	00a585b3          	add	a1,a1,a0
    1a5c:	14c58223          	sb	a2,324(a1)
    1a60:	da472583          	lw	a1,-604(a4)
    1a64:	00a585b3          	add	a1,a1,a0
    1a68:	14c582a3          	sb	a2,325(a1)
    1a6c:	da472583          	lw	a1,-604(a4)
    1a70:	006585b3          	add	a1,a1,t1
    1a74:	00c58023          	sb	a2,0(a1)
    1a78:	da472583          	lw	a1,-604(a4)
    1a7c:	14078893          	addi	a7,a5,320
    1a80:	00180813          	addi	a6,a6,1
    1a84:	00f585b3          	add	a1,a1,a5
    1a88:	00d583a3          	sb	a3,7(a1)
    1a8c:	da472503          	lw	a0,-604(a4)
    1a90:	14178593          	addi	a1,a5,321
    1a94:	14030313          	addi	t1,t1,320
    1a98:	01150533          	add	a0,a0,a7
    1a9c:	00d50023          	sb	a3,0(a0)
    1aa0:	da472503          	lw	a0,-604(a4)
    1aa4:	00b50533          	add	a0,a0,a1
    1aa8:	f9c814e3          	bne	a6,t3,1a30 <update_cell+0x9c>
    1aac:	00088f13          	mv	t5,a7
    1ab0:	00d50023          	sb	a3,0(a0)
    1ab4:	00088793          	mv	a5,a7
    1ab8:	f29ff06f          	j	19e0 <update_cell+0x4c>

00001abc <update_shape>:
    1abc:	fd010113          	addi	sp,sp,-48
    1ac0:	000057b7          	lui	a5,0x5
    1ac4:	02912423          	sw	s1,40(sp)
    1ac8:	01512c23          	sw	s5,24(sp)
    1acc:	01612a23          	sw	s6,20(sp)
    1ad0:	01812623          	sw	s8,12(sp)
    1ad4:	01b12023          	sw	s11,0(sp)
    1ad8:	02812623          	sw	s0,44(sp)
    1adc:	da878d93          	addi	s11,a5,-600 # 4da8 <grid>
    1ae0:	03212223          	sw	s2,36(sp)
    1ae4:	03312023          	sw	s3,32(sp)
    1ae8:	01412e23          	sw	s4,28(sp)
    1aec:	01712823          	sw	s7,16(sp)
    1af0:	00000e93          	li	t4,0
    1af4:	00100b13          	li	s6,1
    1af8:	00400f93          	li	t6,4
    1afc:	000057b7          	lui	a5,0x5
    1b00:	01200713          	li	a4,18
    1b04:	08100f13          	li	t5,129
    1b08:	00800a93          	li	s5,8
    1b0c:	00200c13          	li	s8,2
    1b10:	00058493          	mv	s1,a1
    1b14:	004e9813          	slli	a6,t4,0x4
    1b18:	01050833          	add	a6,a0,a6
    1b1c:	00000593          	li	a1,0
    1b20:	01082683          	lw	a3,16(a6)
    1b24:	0e068263          	beqz	a3,1c08 <update_shape+0x14c>
    1b28:	00852683          	lw	a3,8(a0)
    1b2c:	00452603          	lw	a2,4(a0)
    1b30:	00de86b3          	add	a3,t4,a3
    1b34:	0146b893          	sltiu	a7,a3,20
    1b38:	00c58633          	add	a2,a1,a2
    1b3c:	0c088663          	beqz	a7,1c08 <update_shape+0x14c>
    1b40:	00a63893          	sltiu	a7,a2,10
    1b44:	0c088263          	beqz	a7,1c08 <update_shape+0x14c>
    1b48:	2f648063          	beq	s1,s6,1e28 <update_shape+0x36c>
    1b4c:	19848463          	beq	s1,s8,1cd4 <update_shape+0x218>
    1b50:	0a049c63          	bnez	s1,1c08 <update_shape+0x14c>
    1b54:	00269893          	slli	a7,a3,0x2
    1b58:	00d888b3          	add	a7,a7,a3
    1b5c:	00189893          	slli	a7,a7,0x1
    1b60:	011d88b3          	add	a7,s11,a7
    1b64:	00c888b3          	add	a7,a7,a2
    1b68:	00568693          	addi	a3,a3,5
    1b6c:	0008c403          	lbu	s0,0(a7)
    1b70:	00269893          	slli	a7,a3,0x2
    1b74:	00d886b3          	add	a3,a7,a3
    1b78:	00f60613          	addi	a2,a2,15
    1b7c:	00669693          	slli	a3,a3,0x6
    1b80:	00c686b3          	add	a3,a3,a2
    1b84:	3c041463          	bnez	s0,1f4c <update_shape+0x490>
    1b88:	00005637          	lui	a2,0x5
    1b8c:	da462303          	lw	t1,-604(a2) # 4da4 <VGA>
    1b90:	00369693          	slli	a3,a3,0x3
    1b94:	01200893          	li	a7,18
    1b98:	00d30333          	add	t1,t1,a3
    1b9c:	01130023          	sb	a7,0(t1)
    1ba0:	da462303          	lw	t1,-604(a2)
    1ba4:	00668413          	addi	s0,a3,6
    1ba8:	00000393          	li	t2,0
    1bac:	00d30333          	add	t1,t1,a3
    1bb0:	011300a3          	sb	a7,1(t1)
    1bb4:	00700913          	li	s2,7
    1bb8:	00068313          	mv	t1,a3
    1bbc:	da462e03          	lw	t3,-604(a2)
    1bc0:	00de0e33          	add	t3,t3,a3
    1bc4:	011e0123          	sb	a7,2(t3)
    1bc8:	da462e03          	lw	t3,-604(a2)
    1bcc:	00de0e33          	add	t3,t3,a3
    1bd0:	011e01a3          	sb	a7,3(t3)
    1bd4:	da462e03          	lw	t3,-604(a2)
    1bd8:	00de0e33          	add	t3,t3,a3
    1bdc:	011e0223          	sb	a7,4(t3)
    1be0:	da462e03          	lw	t3,-604(a2)
    1be4:	00de0e33          	add	t3,t3,a3
    1be8:	011e02a3          	sb	a7,5(t3)
    1bec:	da462e03          	lw	t3,-604(a2)
    1bf0:	008e0e33          	add	t3,t3,s0
    1bf4:	011e0023          	sb	a7,0(t3)
    1bf8:	08038e63          	beqz	t2,1c94 <update_shape+0x1d8>
    1bfc:	da462683          	lw	a3,-604(a2)
    1c00:	006686b3          	add	a3,a3,t1
    1c04:	011683a3          	sb	a7,7(a3)
    1c08:	00158593          	addi	a1,a1,1
    1c0c:	00480813          	addi	a6,a6,4
    1c10:	f1f598e3          	bne	a1,t6,1b20 <update_shape+0x64>
    1c14:	001e8e93          	addi	t4,t4,1
    1c18:	eebe9ee3          	bne	t4,a1,1b14 <update_shape+0x58>
    1c1c:	02c12403          	lw	s0,44(sp)
    1c20:	02812483          	lw	s1,40(sp)
    1c24:	02412903          	lw	s2,36(sp)
    1c28:	02012983          	lw	s3,32(sp)
    1c2c:	01c12a03          	lw	s4,28(sp)
    1c30:	01812a83          	lw	s5,24(sp)
    1c34:	01412b03          	lw	s6,20(sp)
    1c38:	01012b83          	lw	s7,16(sp)
    1c3c:	00c12c03          	lw	s8,12(sp)
    1c40:	00012d83          	lw	s11,0(sp)
    1c44:	03010113          	addi	sp,sp,48
    1c48:	00008067          	ret
    1c4c:	00028023          	sb	zero,0(t0)
    1c50:	da462e03          	lw	t3,-604(a2)
    1c54:	00068293          	mv	t0,a3
    1c58:	00de0e33          	add	t3,t3,a3
    1c5c:	140e0123          	sb	zero,322(t3)
    1c60:	da462e03          	lw	t3,-604(a2)
    1c64:	00de06b3          	add	a3,t3,a3
    1c68:	140681a3          	sb	zero,323(a3)
    1c6c:	da462e03          	lw	t3,-604(a2)
    1c70:	00030693          	mv	a3,t1
    1c74:	005e0333          	add	t1,t3,t0
    1c78:	14030223          	sb	zero,324(t1)
    1c7c:	da462303          	lw	t1,-604(a2)
    1c80:	00530333          	add	t1,t1,t0
    1c84:	140302a3          	sb	zero,325(t1)
    1c88:	da462303          	lw	t1,-604(a2)
    1c8c:	00830333          	add	t1,t1,s0
    1c90:	00030023          	sb	zero,0(t1)
    1c94:	da462e03          	lw	t3,-604(a2)
    1c98:	14068313          	addi	t1,a3,320
    1c9c:	00138393          	addi	t2,t2,1
    1ca0:	00de0e33          	add	t3,t3,a3
    1ca4:	011e03a3          	sb	a7,7(t3)
    1ca8:	da462283          	lw	t0,-604(a2)
    1cac:	14168e13          	addi	t3,a3,321
    1cb0:	14040413          	addi	s0,s0,320
    1cb4:	006282b3          	add	t0,t0,t1
    1cb8:	01128023          	sb	a7,0(t0)
    1cbc:	da462283          	lw	t0,-604(a2)
    1cc0:	01c282b3          	add	t0,t0,t3
    1cc4:	f92394e3          	bne	t2,s2,1c4c <update_shape+0x190>
    1cc8:	01128023          	sb	a7,0(t0)
    1ccc:	00030693          	mv	a3,t1
    1cd0:	eedff06f          	j	1bbc <update_shape+0x100>
    1cd4:	00568893          	addi	a7,a3,5
    1cd8:	00289313          	slli	t1,a7,0x2
    1cdc:	01130333          	add	t1,t1,a7
    1ce0:	00269893          	slli	a7,a3,0x2
    1ce4:	00d888b3          	add	a7,a7,a3
    1ce8:	00c54283          	lbu	t0,12(a0)
    1cec:	00631693          	slli	a3,t1,0x6
    1cf0:	00189893          	slli	a7,a7,0x1
    1cf4:	00f60313          	addi	t1,a2,15
    1cf8:	006686b3          	add	a3,a3,t1
    1cfc:	011d88b3          	add	a7,s11,a7
    1d00:	00369693          	slli	a3,a3,0x3
    1d04:	00c88633          	add	a2,a7,a2
    1d08:	00668e13          	addi	t3,a3,6
    1d0c:	00560023          	sb	t0,0(a2)
    1d10:	00000313          	li	t1,0
    1d14:	da47a883          	lw	a7,-604(a5) # 4da4 <VGA>
    1d18:	006f5633          	srl	a2,t5,t1
    1d1c:	00167613          	andi	a2,a2,1
    1d20:	00d888b3          	add	a7,a7,a3
    1d24:	00e88023          	sb	a4,0(a7)
    1d28:	da47a883          	lw	a7,-604(a5)
    1d2c:	00168a13          	addi	s4,a3,1
    1d30:	00268993          	addi	s3,a3,2
    1d34:	00368913          	addi	s2,a3,3
    1d38:	00468413          	addi	s0,a3,4
    1d3c:	00568393          	addi	t2,a3,5
    1d40:	08060263          	beqz	a2,1dc4 <update_shape+0x308>
    1d44:	014888b3          	add	a7,a7,s4
    1d48:	00e88023          	sb	a4,0(a7)
    1d4c:	da47a603          	lw	a2,-604(a5)
    1d50:	00768b93          	addi	s7,a3,7
    1d54:	01360633          	add	a2,a2,s3
    1d58:	00e60023          	sb	a4,0(a2)
    1d5c:	da47a603          	lw	a2,-604(a5)
    1d60:	01260633          	add	a2,a2,s2
    1d64:	00e60023          	sb	a4,0(a2)
    1d68:	da47a603          	lw	a2,-604(a5)
    1d6c:	00860633          	add	a2,a2,s0
    1d70:	00e60023          	sb	a4,0(a2)
    1d74:	da47a603          	lw	a2,-604(a5)
    1d78:	00760633          	add	a2,a2,t2
    1d7c:	00e60023          	sb	a4,0(a2)
    1d80:	da47a603          	lw	a2,-604(a5)
    1d84:	02031463          	bnez	t1,1dac <update_shape+0x2f0>
    1d88:	01c60633          	add	a2,a2,t3
    1d8c:	00e60023          	sb	a4,0(a2)
    1d90:	da47a603          	lw	a2,-604(a5)
    1d94:	14068693          	addi	a3,a3,320
    1d98:	140e0e13          	addi	t3,t3,320
    1d9c:	01760633          	add	a2,a2,s7
    1da0:	00100313          	li	t1,1
    1da4:	00e60023          	sb	a4,0(a2)
    1da8:	f6dff06f          	j	1d14 <update_shape+0x258>
    1dac:	01c60633          	add	a2,a2,t3
    1db0:	00e60023          	sb	a4,0(a2)
    1db4:	da47a603          	lw	a2,-604(a5)
    1db8:	00d606b3          	add	a3,a2,a3
    1dbc:	00e683a3          	sb	a4,7(a3)
    1dc0:	e49ff06f          	j	1c08 <update_shape+0x14c>
    1dc4:	00d888b3          	add	a7,a7,a3
    1dc8:	005880a3          	sb	t0,1(a7)
    1dcc:	da47a603          	lw	a2,-604(a5)
    1dd0:	00130313          	addi	t1,t1,1
    1dd4:	00d60633          	add	a2,a2,a3
    1dd8:	00560123          	sb	t0,2(a2)
    1ddc:	da47a603          	lw	a2,-604(a5)
    1de0:	00d60633          	add	a2,a2,a3
    1de4:	005601a3          	sb	t0,3(a2)
    1de8:	da47a603          	lw	a2,-604(a5)
    1dec:	00d60633          	add	a2,a2,a3
    1df0:	00560223          	sb	t0,4(a2)
    1df4:	da47a603          	lw	a2,-604(a5)
    1df8:	00d60633          	add	a2,a2,a3
    1dfc:	005602a3          	sb	t0,5(a2)
    1e00:	da47a603          	lw	a2,-604(a5)
    1e04:	01c60633          	add	a2,a2,t3
    1e08:	00560023          	sb	t0,0(a2)
    1e0c:	da47a603          	lw	a2,-604(a5)
    1e10:	140e0e13          	addi	t3,t3,320
    1e14:	00d60633          	add	a2,a2,a3
    1e18:	00e603a3          	sb	a4,7(a2)
    1e1c:	14068693          	addi	a3,a3,320
    1e20:	ef531ae3          	bne	t1,s5,1d14 <update_shape+0x258>
    1e24:	de5ff06f          	j	1c08 <update_shape+0x14c>
    1e28:	00568693          	addi	a3,a3,5
    1e2c:	00269893          	slli	a7,a3,0x2
    1e30:	00d886b3          	add	a3,a7,a3
    1e34:	00f60613          	addi	a2,a2,15
    1e38:	00669693          	slli	a3,a3,0x6
    1e3c:	00c686b3          	add	a3,a3,a2
    1e40:	00c54283          	lbu	t0,12(a0)
    1e44:	00369693          	slli	a3,a3,0x3
    1e48:	00668e13          	addi	t3,a3,6
    1e4c:	00000313          	li	t1,0
    1e50:	da47a883          	lw	a7,-604(a5)
    1e54:	006f5633          	srl	a2,t5,t1
    1e58:	00167613          	andi	a2,a2,1
    1e5c:	00d888b3          	add	a7,a7,a3
    1e60:	00e88023          	sb	a4,0(a7)
    1e64:	da47a883          	lw	a7,-604(a5)
    1e68:	00168a13          	addi	s4,a3,1
    1e6c:	00268993          	addi	s3,a3,2
    1e70:	00368913          	addi	s2,a3,3
    1e74:	00468413          	addi	s0,a3,4
    1e78:	00568393          	addi	t2,a3,5
    1e7c:	06060663          	beqz	a2,1ee8 <update_shape+0x42c>
    1e80:	014888b3          	add	a7,a7,s4
    1e84:	00e88023          	sb	a4,0(a7)
    1e88:	da47a603          	lw	a2,-604(a5)
    1e8c:	00768b93          	addi	s7,a3,7
    1e90:	01360633          	add	a2,a2,s3
    1e94:	00e60023          	sb	a4,0(a2)
    1e98:	da47a603          	lw	a2,-604(a5)
    1e9c:	01260633          	add	a2,a2,s2
    1ea0:	00e60023          	sb	a4,0(a2)
    1ea4:	da47a603          	lw	a2,-604(a5)
    1ea8:	00860633          	add	a2,a2,s0
    1eac:	00e60023          	sb	a4,0(a2)
    1eb0:	da47a603          	lw	a2,-604(a5)
    1eb4:	00760633          	add	a2,a2,t2
    1eb8:	00e60023          	sb	a4,0(a2)
    1ebc:	da47a603          	lw	a2,-604(a5)
    1ec0:	ee0316e3          	bnez	t1,1dac <update_shape+0x2f0>
    1ec4:	01c60633          	add	a2,a2,t3
    1ec8:	00e60023          	sb	a4,0(a2)
    1ecc:	da47a603          	lw	a2,-604(a5)
    1ed0:	14068693          	addi	a3,a3,320
    1ed4:	140e0e13          	addi	t3,t3,320
    1ed8:	01760633          	add	a2,a2,s7
    1edc:	00100313          	li	t1,1
    1ee0:	00e60023          	sb	a4,0(a2)
    1ee4:	f6dff06f          	j	1e50 <update_shape+0x394>
    1ee8:	00d888b3          	add	a7,a7,a3
    1eec:	005880a3          	sb	t0,1(a7)
    1ef0:	da47a603          	lw	a2,-604(a5)
    1ef4:	00130313          	addi	t1,t1,1
    1ef8:	00d60633          	add	a2,a2,a3
    1efc:	00560123          	sb	t0,2(a2)
    1f00:	da47a603          	lw	a2,-604(a5)
    1f04:	00d60633          	add	a2,a2,a3
    1f08:	005601a3          	sb	t0,3(a2)
    1f0c:	da47a603          	lw	a2,-604(a5)
    1f10:	00d60633          	add	a2,a2,a3
    1f14:	00560223          	sb	t0,4(a2)
    1f18:	da47a603          	lw	a2,-604(a5)
    1f1c:	00d60633          	add	a2,a2,a3
    1f20:	005602a3          	sb	t0,5(a2)
    1f24:	da47a603          	lw	a2,-604(a5)
    1f28:	01c60633          	add	a2,a2,t3
    1f2c:	00560023          	sb	t0,0(a2)
    1f30:	da47a603          	lw	a2,-604(a5)
    1f34:	140e0e13          	addi	t3,t3,320
    1f38:	00d60633          	add	a2,a2,a3
    1f3c:	00e603a3          	sb	a4,7(a2)
    1f40:	14068693          	addi	a3,a3,320
    1f44:	f15316e3          	bne	t1,s5,1e50 <update_shape+0x394>
    1f48:	cc1ff06f          	j	1c08 <update_shape+0x14c>
    1f4c:	00369693          	slli	a3,a3,0x3
    1f50:	01912423          	sw	s9,8(sp)
    1f54:	01a12223          	sw	s10,4(sp)
    1f58:	00668393          	addi	t2,a3,6
    1f5c:	00000e13          	li	t3,0
    1f60:	00005637          	lui	a2,0x5
    1f64:	01200893          	li	a7,18
    1f68:	08100c93          	li	s9,129
    1f6c:	da462d03          	lw	s10,-604(a2) # 4da4 <VGA>
    1f70:	01ccd333          	srl	t1,s9,t3
    1f74:	00137313          	andi	t1,t1,1
    1f78:	00dd0d33          	add	s10,s10,a3
    1f7c:	011d0023          	sb	a7,0(s10)
    1f80:	da462d03          	lw	s10,-604(a2)
    1f84:	00168293          	addi	t0,a3,1
    1f88:	00268b93          	addi	s7,a3,2
    1f8c:	00368a13          	addi	s4,a3,3
    1f90:	00468993          	addi	s3,a3,4
    1f94:	00568913          	addi	s2,a3,5
    1f98:	08030663          	beqz	t1,2024 <update_shape+0x568>
    1f9c:	005d02b3          	add	t0,s10,t0
    1fa0:	01128023          	sb	a7,0(t0)
    1fa4:	da462283          	lw	t0,-604(a2)
    1fa8:	00768313          	addi	t1,a3,7
    1fac:	017282b3          	add	t0,t0,s7
    1fb0:	01128023          	sb	a7,0(t0)
    1fb4:	da462283          	lw	t0,-604(a2)
    1fb8:	014282b3          	add	t0,t0,s4
    1fbc:	01128023          	sb	a7,0(t0)
    1fc0:	da462283          	lw	t0,-604(a2)
    1fc4:	013282b3          	add	t0,t0,s3
    1fc8:	01128023          	sb	a7,0(t0)
    1fcc:	da462283          	lw	t0,-604(a2)
    1fd0:	012282b3          	add	t0,t0,s2
    1fd4:	01128023          	sb	a7,0(t0)
    1fd8:	da462283          	lw	t0,-604(a2)
    1fdc:	020e0263          	beqz	t3,2000 <update_shape+0x544>
    1fe0:	007282b3          	add	t0,t0,t2
    1fe4:	01128023          	sb	a7,0(t0)
    1fe8:	da462603          	lw	a2,-604(a2)
    1fec:	00d606b3          	add	a3,a2,a3
    1ff0:	011683a3          	sb	a7,7(a3)
    1ff4:	00812c83          	lw	s9,8(sp)
    1ff8:	00412d03          	lw	s10,4(sp)
    1ffc:	c0dff06f          	j	1c08 <update_shape+0x14c>
    2000:	007282b3          	add	t0,t0,t2
    2004:	01128023          	sb	a7,0(t0)
    2008:	da462283          	lw	t0,-604(a2)
    200c:	14068693          	addi	a3,a3,320
    2010:	14038393          	addi	t2,t2,320
    2014:	00628333          	add	t1,t0,t1
    2018:	00100e13          	li	t3,1
    201c:	01130023          	sb	a7,0(t1)
    2020:	f4dff06f          	j	1f6c <update_shape+0x4b0>
    2024:	00dd0d33          	add	s10,s10,a3
    2028:	008d00a3          	sb	s0,1(s10)
    202c:	da462303          	lw	t1,-604(a2)
    2030:	001e0e13          	addi	t3,t3,1
    2034:	00d30333          	add	t1,t1,a3
    2038:	00830123          	sb	s0,2(t1)
    203c:	da462303          	lw	t1,-604(a2)
    2040:	00d30333          	add	t1,t1,a3
    2044:	008301a3          	sb	s0,3(t1)
    2048:	da462303          	lw	t1,-604(a2)
    204c:	00d30333          	add	t1,t1,a3
    2050:	00830223          	sb	s0,4(t1)
    2054:	da462303          	lw	t1,-604(a2)
    2058:	00d30333          	add	t1,t1,a3
    205c:	008302a3          	sb	s0,5(t1)
    2060:	da462303          	lw	t1,-604(a2)
    2064:	00730333          	add	t1,t1,t2
    2068:	00830023          	sb	s0,0(t1)
    206c:	da462303          	lw	t1,-604(a2)
    2070:	14038393          	addi	t2,t2,320
    2074:	00d30333          	add	t1,t1,a3
    2078:	011303a3          	sb	a7,7(t1)
    207c:	00800313          	li	t1,8
    2080:	14068693          	addi	a3,a3,320
    2084:	ee6e14e3          	bne	t3,t1,1f6c <update_shape+0x4b0>
    2088:	f6dff06f          	j	1ff4 <update_shape+0x538>

0000208c <rotate_piece>:
    208c:	040007b7          	lui	a5,0x4000
    2090:	0d078793          	addi	a5,a5,208 # 40000d0 <_stack_end+0x3ef536c>
    2094:	0007a783          	lw	a5,0(a5)
    2098:	f6010113          	addi	sp,sp,-160
    209c:	08112e23          	sw	ra,156(sp)
    20a0:	0017f793          	andi	a5,a5,1
    20a4:	02f12e23          	sw	a5,60(sp)
    20a8:	03c12783          	lw	a5,60(sp)
    20ac:	08812c23          	sw	s0,152(sp)
    20b0:	08912a23          	sw	s1,148(sp)
    20b4:	09212823          	sw	s2,144(sp)
    20b8:	09312623          	sw	s3,140(sp)
    20bc:	09412423          	sw	s4,136(sp)
    20c0:	09512223          	sw	s5,132(sp)
    20c4:	09612023          	sw	s6,128(sp)
    20c8:	08078263          	beqz	a5,214c <rotate_piece+0xc0>
    20cc:	01052683          	lw	a3,16(a0)
    20d0:	01452703          	lw	a4,20(a0)
    20d4:	01852783          	lw	a5,24(a0)
    20d8:	01c52283          	lw	t0,28(a0)
    20dc:	02052f83          	lw	t6,32(a0)
    20e0:	02452f03          	lw	t5,36(a0)
    20e4:	02852e83          	lw	t4,40(a0)
    20e8:	02c52e03          	lw	t3,44(a0)
    20ec:	03052303          	lw	t1,48(a0)
    20f0:	03452883          	lw	a7,52(a0)
    20f4:	03852803          	lw	a6,56(a0)
    20f8:	03c52583          	lw	a1,60(a0)
    20fc:	04452603          	lw	a2,68(a0)
    2100:	04d12623          	sw	a3,76(sp)
    2104:	04e12e23          	sw	a4,92(sp)
    2108:	04852683          	lw	a3,72(a0)
    210c:	04c52703          	lw	a4,76(a0)
    2110:	06f12623          	sw	a5,108(sp)
    2114:	04052783          	lw	a5,64(a0)
    2118:	06512e23          	sw	t0,124(sp)
    211c:	05f12423          	sw	t6,72(sp)
    2120:	05e12c23          	sw	t5,88(sp)
    2124:	07d12423          	sw	t4,104(sp)
    2128:	07c12c23          	sw	t3,120(sp)
    212c:	04612223          	sw	t1,68(sp)
    2130:	05112a23          	sw	a7,84(sp)
    2134:	07012223          	sw	a6,100(sp)
    2138:	06b12a23          	sw	a1,116(sp)
    213c:	04c12823          	sw	a2,80(sp)
    2140:	06d12023          	sw	a3,96(sp)
    2144:	06e12823          	sw	a4,112(sp)
    2148:	04f12023          	sw	a5,64(sp)
    214c:	04012e03          	lw	t3,64(sp)
    2150:	00100313          	li	t1,1
    2154:	000e0c63          	beqz	t3,216c <rotate_piece+0xe0>
    2158:	00452303          	lw	t1,4(a0)
    215c:	00852783          	lw	a5,8(a0)
    2160:	00a33313          	sltiu	t1,t1,10
    2164:	0147a793          	slti	a5,a5,20
    2168:	00f37333          	and	t1,t1,a5
    216c:	04412883          	lw	a7,68(sp)
    2170:	02088063          	beqz	a7,2190 <rotate_piece+0x104>
    2174:	00452783          	lw	a5,4(a0)
    2178:	00852703          	lw	a4,8(a0)
    217c:	00178793          	addi	a5,a5,1
    2180:	00a7b793          	sltiu	a5,a5,10
    2184:	01472713          	slti	a4,a4,20
    2188:	00e7f7b3          	and	a5,a5,a4
    218c:	00f37333          	and	t1,t1,a5
    2190:	04812803          	lw	a6,72(sp)
    2194:	02080063          	beqz	a6,21b4 <rotate_piece+0x128>
    2198:	00452783          	lw	a5,4(a0)
    219c:	00852703          	lw	a4,8(a0)
    21a0:	00278793          	addi	a5,a5,2
    21a4:	00a7b793          	sltiu	a5,a5,10
    21a8:	01472713          	slti	a4,a4,20
    21ac:	00e7f7b3          	and	a5,a5,a4
    21b0:	00f37333          	and	t1,t1,a5
    21b4:	04c12583          	lw	a1,76(sp)
    21b8:	02058063          	beqz	a1,21d8 <rotate_piece+0x14c>
    21bc:	00452783          	lw	a5,4(a0)
    21c0:	00852703          	lw	a4,8(a0)
    21c4:	00378793          	addi	a5,a5,3
    21c8:	00a7b793          	sltiu	a5,a5,10
    21cc:	01472713          	slti	a4,a4,20
    21d0:	00e7f7b3          	and	a5,a5,a4
    21d4:	00f37333          	and	t1,t1,a5
    21d8:	05012603          	lw	a2,80(sp)
    21dc:	00060e63          	beqz	a2,21f8 <rotate_piece+0x16c>
    21e0:	00452783          	lw	a5,4(a0)
    21e4:	00852703          	lw	a4,8(a0)
    21e8:	00a7b793          	sltiu	a5,a5,10
    21ec:	01372713          	slti	a4,a4,19
    21f0:	00e7f7b3          	and	a5,a5,a4
    21f4:	00f37333          	and	t1,t1,a5
    21f8:	05412683          	lw	a3,84(sp)
    21fc:	02068063          	beqz	a3,221c <rotate_piece+0x190>
    2200:	00452783          	lw	a5,4(a0)
    2204:	00852703          	lw	a4,8(a0)
    2208:	00178793          	addi	a5,a5,1
    220c:	00a7b793          	sltiu	a5,a5,10
    2210:	01372713          	slti	a4,a4,19
    2214:	00e7f7b3          	and	a5,a5,a4
    2218:	00f37333          	and	t1,t1,a5
    221c:	05812703          	lw	a4,88(sp)
    2220:	02070063          	beqz	a4,2240 <rotate_piece+0x1b4>
    2224:	00452783          	lw	a5,4(a0)
    2228:	00852e83          	lw	t4,8(a0)
    222c:	00278793          	addi	a5,a5,2
    2230:	00a7b793          	sltiu	a5,a5,10
    2234:	013eae93          	slti	t4,t4,19
    2238:	01d7f7b3          	and	a5,a5,t4
    223c:	00f37333          	and	t1,t1,a5
    2240:	05c12b03          	lw	s6,92(sp)
    2244:	020b0063          	beqz	s6,2264 <rotate_piece+0x1d8>
    2248:	00452783          	lw	a5,4(a0)
    224c:	00852e83          	lw	t4,8(a0)
    2250:	00378793          	addi	a5,a5,3
    2254:	00a7b793          	sltiu	a5,a5,10
    2258:	013eae93          	slti	t4,t4,19
    225c:	01d7f7b3          	and	a5,a5,t4
    2260:	00f37333          	and	t1,t1,a5
    2264:	06012a83          	lw	s5,96(sp)
    2268:	000a8e63          	beqz	s5,2284 <rotate_piece+0x1f8>
    226c:	00452783          	lw	a5,4(a0)
    2270:	00852e83          	lw	t4,8(a0)
    2274:	00a7b793          	sltiu	a5,a5,10
    2278:	012eae93          	slti	t4,t4,18
    227c:	01d7f7b3          	and	a5,a5,t4
    2280:	00f37333          	and	t1,t1,a5
    2284:	06412a03          	lw	s4,100(sp)
    2288:	020a0063          	beqz	s4,22a8 <rotate_piece+0x21c>
    228c:	00452783          	lw	a5,4(a0)
    2290:	00852e83          	lw	t4,8(a0)
    2294:	00178793          	addi	a5,a5,1
    2298:	00a7b793          	sltiu	a5,a5,10
    229c:	012eae93          	slti	t4,t4,18
    22a0:	01d7f7b3          	and	a5,a5,t4
    22a4:	00f37333          	and	t1,t1,a5
    22a8:	06812983          	lw	s3,104(sp)
    22ac:	02098063          	beqz	s3,22cc <rotate_piece+0x240>
    22b0:	00452783          	lw	a5,4(a0)
    22b4:	00852e83          	lw	t4,8(a0)
    22b8:	00278793          	addi	a5,a5,2
    22bc:	00a7b793          	sltiu	a5,a5,10
    22c0:	012eae93          	slti	t4,t4,18
    22c4:	01d7f7b3          	and	a5,a5,t4
    22c8:	00f37333          	and	t1,t1,a5
    22cc:	06c12903          	lw	s2,108(sp)
    22d0:	02090063          	beqz	s2,22f0 <rotate_piece+0x264>
    22d4:	00452783          	lw	a5,4(a0)
    22d8:	00852e83          	lw	t4,8(a0)
    22dc:	00378793          	addi	a5,a5,3
    22e0:	00a7b793          	sltiu	a5,a5,10
    22e4:	012eae93          	slti	t4,t4,18
    22e8:	01d7f7b3          	and	a5,a5,t4
    22ec:	00f37333          	and	t1,t1,a5
    22f0:	07012483          	lw	s1,112(sp)
    22f4:	00048e63          	beqz	s1,2310 <rotate_piece+0x284>
    22f8:	00852783          	lw	a5,8(a0)
    22fc:	00452e83          	lw	t4,4(a0)
    2300:	0117a793          	slti	a5,a5,17
    2304:	00aebe93          	sltiu	t4,t4,10
    2308:	01d7f7b3          	and	a5,a5,t4
    230c:	00f37333          	and	t1,t1,a5
    2310:	07412403          	lw	s0,116(sp)
    2314:	02040063          	beqz	s0,2334 <rotate_piece+0x2a8>
    2318:	00452783          	lw	a5,4(a0)
    231c:	00852e83          	lw	t4,8(a0)
    2320:	00178793          	addi	a5,a5,1
    2324:	00a7b793          	sltiu	a5,a5,10
    2328:	011eae93          	slti	t4,t4,17
    232c:	01d7f7b3          	and	a5,a5,t4
    2330:	00f37333          	and	t1,t1,a5
    2334:	07812e83          	lw	t4,120(sp)
    2338:	020e8063          	beqz	t4,2358 <rotate_piece+0x2cc>
    233c:	00452783          	lw	a5,4(a0)
    2340:	00852f03          	lw	t5,8(a0)
    2344:	00278793          	addi	a5,a5,2
    2348:	00a7b793          	sltiu	a5,a5,10
    234c:	011f2f13          	slti	t5,t5,17
    2350:	01e7f7b3          	and	a5,a5,t5
    2354:	00f37333          	and	t1,t1,a5
    2358:	07c12f03          	lw	t5,124(sp)
    235c:	020f0063          	beqz	t5,237c <rotate_piece+0x2f0>
    2360:	00452783          	lw	a5,4(a0)
    2364:	00852f83          	lw	t6,8(a0)
    2368:	00378793          	addi	a5,a5,3
    236c:	00a7b793          	sltiu	a5,a5,10
    2370:	011faf93          	slti	t6,t6,17
    2374:	01f7f7b3          	and	a5,a5,t6
    2378:	00f37333          	and	t1,t1,a5
    237c:	02031663          	bnez	t1,23a8 <rotate_piece+0x31c>
    2380:	09c12083          	lw	ra,156(sp)
    2384:	09812403          	lw	s0,152(sp)
    2388:	09412483          	lw	s1,148(sp)
    238c:	09012903          	lw	s2,144(sp)
    2390:	08c12983          	lw	s3,140(sp)
    2394:	08812a03          	lw	s4,136(sp)
    2398:	08412a83          	lw	s5,132(sp)
    239c:	08012b03          	lw	s6,128(sp)
    23a0:	0a010113          	addi	sp,sp,160
    23a4:	00008067          	ret
    23a8:	03e12623          	sw	t5,44(sp)
    23ac:	03d12423          	sw	t4,40(sp)
    23b0:	02e12223          	sw	a4,36(sp)
    23b4:	03112023          	sw	a7,32(sp)
    23b8:	00d12e23          	sw	a3,28(sp)
    23bc:	00c12c23          	sw	a2,24(sp)
    23c0:	00b12a23          	sw	a1,20(sp)
    23c4:	01c12823          	sw	t3,16(sp)
    23c8:	00612623          	sw	t1,12(sp)
    23cc:	01012423          	sw	a6,8(sp)
    23d0:	00a12223          	sw	a0,4(sp)
    23d4:	9acfe0ef          	jal	580 <update_shape.constprop.1>
    23d8:	00412503          	lw	a0,4(sp)
    23dc:	01c12683          	lw	a3,28(sp)
    23e0:	02412703          	lw	a4,36(sp)
    23e4:	02c12f03          	lw	t5,44(sp)
    23e8:	01012e03          	lw	t3,16(sp)
    23ec:	02012883          	lw	a7,32(sp)
    23f0:	00812803          	lw	a6,8(sp)
    23f4:	01412583          	lw	a1,20(sp)
    23f8:	01812603          	lw	a2,24(sp)
    23fc:	02812e83          	lw	t4,40(sp)
    2400:	00c12303          	lw	t1,12(sp)
    2404:	02d52223          	sw	a3,36(a0)
    2408:	02e52423          	sw	a4,40(a0)
    240c:	05e52623          	sw	t5,76(a0)
    2410:	01c52823          	sw	t3,16(a0)
    2414:	01152a23          	sw	a7,20(a0)
    2418:	01052c23          	sw	a6,24(a0)
    241c:	00b52e23          	sw	a1,28(a0)
    2420:	02c52023          	sw	a2,32(a0)
    2424:	03652623          	sw	s6,44(a0)
    2428:	03552823          	sw	s5,48(a0)
    242c:	03452a23          	sw	s4,52(a0)
    2430:	03352c23          	sw	s3,56(a0)
    2434:	03252e23          	sw	s2,60(a0)
    2438:	04952023          	sw	s1,64(a0)
    243c:	04852223          	sw	s0,68(a0)
    2440:	05d52423          	sw	t4,72(a0)
    2444:	00000f93          	li	t6,0
    2448:	00005737          	lui	a4,0x5
    244c:	01200693          	li	a3,18
    2450:	08100f13          	li	t5,129
    2454:	00800393          	li	t2,8
    2458:	00400293          	li	t0,4
    245c:	004f9e93          	slli	t4,t6,0x4
    2460:	01d50eb3          	add	t4,a0,t4
    2464:	00000e13          	li	t3,0
    2468:	010ea783          	lw	a5,16(t4)
    246c:	0c078a63          	beqz	a5,2540 <rotate_piece+0x4b4>
    2470:	00452603          	lw	a2,4(a0)
    2474:	00852783          	lw	a5,8(a0)
    2478:	00ce0633          	add	a2,t3,a2
    247c:	00a63593          	sltiu	a1,a2,10
    2480:	00ff87b3          	add	a5,t6,a5
    2484:	0a058e63          	beqz	a1,2540 <rotate_piece+0x4b4>
    2488:	0147b593          	sltiu	a1,a5,20
    248c:	0a058a63          	beqz	a1,2540 <rotate_piece+0x4b4>
    2490:	00578793          	addi	a5,a5,5
    2494:	00279593          	slli	a1,a5,0x2
    2498:	00f587b3          	add	a5,a1,a5
    249c:	00f60613          	addi	a2,a2,15
    24a0:	00679793          	slli	a5,a5,0x6
    24a4:	00c787b3          	add	a5,a5,a2
    24a8:	00c54403          	lbu	s0,12(a0)
    24ac:	00379793          	slli	a5,a5,0x3
    24b0:	00678893          	addi	a7,a5,6
    24b4:	00000813          	li	a6,0
    24b8:	da472583          	lw	a1,-604(a4) # 4da4 <VGA>
    24bc:	010f5633          	srl	a2,t5,a6
    24c0:	00167613          	andi	a2,a2,1
    24c4:	00f585b3          	add	a1,a1,a5
    24c8:	00d58023          	sb	a3,0(a1)
    24cc:	da472583          	lw	a1,-604(a4)
    24d0:	00178b13          	addi	s6,a5,1
    24d4:	00278a93          	addi	s5,a5,2
    24d8:	00378a13          	addi	s4,a5,3
    24dc:	00478913          	addi	s2,a5,4
    24e0:	00578493          	addi	s1,a5,5
    24e4:	08060c63          	beqz	a2,257c <rotate_piece+0x4f0>
    24e8:	016585b3          	add	a1,a1,s6
    24ec:	00d58023          	sb	a3,0(a1)
    24f0:	da472603          	lw	a2,-604(a4)
    24f4:	00778993          	addi	s3,a5,7
    24f8:	01560633          	add	a2,a2,s5
    24fc:	00d60023          	sb	a3,0(a2)
    2500:	da472603          	lw	a2,-604(a4)
    2504:	01460633          	add	a2,a2,s4
    2508:	00d60023          	sb	a3,0(a2)
    250c:	da472603          	lw	a2,-604(a4)
    2510:	01260633          	add	a2,a2,s2
    2514:	00d60023          	sb	a3,0(a2)
    2518:	da472603          	lw	a2,-604(a4)
    251c:	00960633          	add	a2,a2,s1
    2520:	00d60023          	sb	a3,0(a2)
    2524:	da472603          	lw	a2,-604(a4)
    2528:	02080863          	beqz	a6,2558 <rotate_piece+0x4cc>
    252c:	01160633          	add	a2,a2,a7
    2530:	00d60023          	sb	a3,0(a2)
    2534:	da472603          	lw	a2,-604(a4)
    2538:	00f607b3          	add	a5,a2,a5
    253c:	00d783a3          	sb	a3,7(a5)
    2540:	001e0e13          	addi	t3,t3,1
    2544:	004e8e93          	addi	t4,t4,4
    2548:	f25e10e3          	bne	t3,t0,2468 <rotate_piece+0x3dc>
    254c:	001f8f93          	addi	t6,t6,1
    2550:	f05f96e3          	bne	t6,t0,245c <rotate_piece+0x3d0>
    2554:	e2dff06f          	j	2380 <rotate_piece+0x2f4>
    2558:	01160633          	add	a2,a2,a7
    255c:	00d60023          	sb	a3,0(a2)
    2560:	da472603          	lw	a2,-604(a4)
    2564:	14078793          	addi	a5,a5,320
    2568:	14088893          	addi	a7,a7,320
    256c:	01360633          	add	a2,a2,s3
    2570:	00030813          	mv	a6,t1
    2574:	00d60023          	sb	a3,0(a2)
    2578:	f41ff06f          	j	24b8 <rotate_piece+0x42c>
    257c:	00f585b3          	add	a1,a1,a5
    2580:	008580a3          	sb	s0,1(a1)
    2584:	da472603          	lw	a2,-604(a4)
    2588:	00180813          	addi	a6,a6,1
    258c:	00f60633          	add	a2,a2,a5
    2590:	00860123          	sb	s0,2(a2)
    2594:	da472603          	lw	a2,-604(a4)
    2598:	00f60633          	add	a2,a2,a5
    259c:	008601a3          	sb	s0,3(a2)
    25a0:	da472603          	lw	a2,-604(a4)
    25a4:	00f60633          	add	a2,a2,a5
    25a8:	00860223          	sb	s0,4(a2)
    25ac:	da472603          	lw	a2,-604(a4)
    25b0:	00f60633          	add	a2,a2,a5
    25b4:	008602a3          	sb	s0,5(a2)
    25b8:	da472603          	lw	a2,-604(a4)
    25bc:	01160633          	add	a2,a2,a7
    25c0:	00860023          	sb	s0,0(a2)
    25c4:	da472603          	lw	a2,-604(a4)
    25c8:	14088893          	addi	a7,a7,320
    25cc:	00f60633          	add	a2,a2,a5
    25d0:	00d603a3          	sb	a3,7(a2)
    25d4:	14078793          	addi	a5,a5,320
    25d8:	ee7810e3          	bne	a6,t2,24b8 <rotate_piece+0x42c>
    25dc:	f65ff06f          	j	2540 <rotate_piece+0x4b4>

000025e0 <move_piece>:
    25e0:	040007b7          	lui	a5,0x4000
    25e4:	01078793          	addi	a5,a5,16 # 4000010 <_stack_end+0x3ef52ac>
    25e8:	0007a783          	lw	a5,0(a5)
    25ec:	01052703          	lw	a4,16(a0)
    25f0:	fb010113          	addi	sp,sp,-80
    25f4:	3ff7f793          	andi	a5,a5,1023
    25f8:	00f12e23          	sw	a5,28(sp)
    25fc:	04112623          	sw	ra,76(sp)
    2600:	04812423          	sw	s0,72(sp)
    2604:	04912223          	sw	s1,68(sp)
    2608:	01452783          	lw	a5,20(a0)
    260c:	01852683          	lw	a3,24(a0)
    2610:	01c52603          	lw	a2,28(a0)
    2614:	08071c63          	bnez	a4,26ac <move_piece+0xcc>
    2618:	08079c63          	bnez	a5,26b0 <move_piece+0xd0>
    261c:	08069c63          	bnez	a3,26b4 <move_piece+0xd4>
    2620:	08061c63          	bnez	a2,26b8 <move_piece+0xd8>
    2624:	02052483          	lw	s1,32(a0)
    2628:	02452683          	lw	a3,36(a0)
    262c:	02852703          	lw	a4,40(a0)
    2630:	02c52783          	lw	a5,44(a0)
    2634:	3a048863          	beqz	s1,29e4 <move_piece+0x404>
    2638:	3a069863          	bnez	a3,29e8 <move_piece+0x408>
    263c:	3e071a63          	bnez	a4,2a30 <move_piece+0x450>
    2640:	42078863          	beqz	a5,2a70 <move_piece+0x490>
    2644:	03c52783          	lw	a5,60(a0)
    2648:	00400493          	li	s1,4
    264c:	08079e63          	bnez	a5,26e8 <move_piece+0x108>
    2650:	04052603          	lw	a2,64(a0)
    2654:	04452683          	lw	a3,68(a0)
    2658:	04852703          	lw	a4,72(a0)
    265c:	04c52783          	lw	a5,76(a0)
    2660:	3e060a63          	beqz	a2,2a54 <move_piece+0x474>
    2664:	3e049863          	bnez	s1,2a54 <move_piece+0x474>
    2668:	3e069c63          	bnez	a3,2a60 <move_piece+0x480>
    266c:	3e071c63          	bnez	a4,2a64 <move_piece+0x484>
    2670:	00f037b3          	snez	a5,a5
    2674:	40f007b3          	neg	a5,a5
    2678:	0037f493          	andi	s1,a5,3
    267c:	00148493          	addi	s1,s1,1
    2680:	01c12403          	lw	s0,28(sp)
    2684:	00147413          	andi	s0,s0,1
    2688:	06041e63          	bnez	s0,2704 <move_piece+0x124>
    268c:	01c12783          	lw	a5,28(sp)
    2690:	0027f793          	andi	a5,a5,2
    2694:	1c079c63          	bnez	a5,286c <move_piece+0x28c>
    2698:	04c12083          	lw	ra,76(sp)
    269c:	04812403          	lw	s0,72(sp)
    26a0:	04412483          	lw	s1,68(sp)
    26a4:	05010113          	addi	sp,sp,80
    26a8:	00008067          	ret
    26ac:	32078063          	beqz	a5,29cc <move_piece+0x3ec>
    26b0:	36068663          	beqz	a3,2a1c <move_piece+0x43c>
    26b4:	52060463          	beqz	a2,2bdc <move_piece+0x5fc>
    26b8:	02c52783          	lw	a5,44(a0)
    26bc:	00400493          	li	s1,4
    26c0:	f80792e3          	bnez	a5,2644 <move_piece+0x64>
    26c4:	03052603          	lw	a2,48(a0)
    26c8:	03452683          	lw	a3,52(a0)
    26cc:	03852703          	lw	a4,56(a0)
    26d0:	03c52783          	lw	a5,60(a0)
    26d4:	3a060663          	beqz	a2,2a80 <move_piece+0x4a0>
    26d8:	3a049463          	bnez	s1,2a80 <move_piece+0x4a0>
    26dc:	3a069863          	bnez	a3,2a8c <move_piece+0x4ac>
    26e0:	32071463          	bnez	a4,2a08 <move_piece+0x428>
    26e4:	36078063          	beqz	a5,2a44 <move_piece+0x464>
    26e8:	04c52783          	lw	a5,76(a0)
    26ec:	00400493          	li	s1,4
    26f0:	f80788e3          	beqz	a5,2680 <move_piece+0xa0>
    26f4:	01c12403          	lw	s0,28(sp)
    26f8:	00400493          	li	s1,4
    26fc:	00147413          	andi	s0,s0,1
    2700:	f80406e3          	beqz	s0,268c <move_piece+0xac>
    2704:	00a12623          	sw	a0,12(sp)
    2708:	05212023          	sw	s2,64(sp)
    270c:	03312e23          	sw	s3,60(sp)
    2710:	03412c23          	sw	s4,56(sp)
    2714:	03512a23          	sw	s5,52(sp)
    2718:	03612823          	sw	s6,48(sp)
    271c:	03712623          	sw	s7,44(sp)
    2720:	e61fd0ef          	jal	580 <update_shape.constprop.1>
    2724:	00c12503          	lw	a0,12(sp)
    2728:	00452783          	lw	a5,4(a0)
    272c:	00f05663          	blez	a5,2738 <move_piece+0x158>
    2730:	fff78793          	addi	a5,a5,-1
    2734:	00f52223          	sw	a5,4(a0)
    2738:	00000f13          	li	t5,0
    273c:	00005737          	lui	a4,0x5
    2740:	01200693          	li	a3,18
    2744:	08100e93          	li	t4,129
    2748:	00800293          	li	t0,8
    274c:	00400f93          	li	t6,4
    2750:	004f1e13          	slli	t3,t5,0x4
    2754:	01c50e33          	add	t3,a0,t3
    2758:	00000313          	li	t1,0
    275c:	010e2783          	lw	a5,16(t3)
    2760:	0c078a63          	beqz	a5,2834 <move_piece+0x254>
    2764:	00852783          	lw	a5,8(a0)
    2768:	00452603          	lw	a2,4(a0)
    276c:	00ff07b3          	add	a5,t5,a5
    2770:	0147b593          	sltiu	a1,a5,20
    2774:	00c30633          	add	a2,t1,a2
    2778:	0a058e63          	beqz	a1,2834 <move_piece+0x254>
    277c:	00a63593          	sltiu	a1,a2,10
    2780:	0a058a63          	beqz	a1,2834 <move_piece+0x254>
    2784:	00578793          	addi	a5,a5,5
    2788:	00279593          	slli	a1,a5,0x2
    278c:	00f587b3          	add	a5,a1,a5
    2790:	00f60613          	addi	a2,a2,15
    2794:	00679793          	slli	a5,a5,0x6
    2798:	00c787b3          	add	a5,a5,a2
    279c:	00c54383          	lbu	t2,12(a0)
    27a0:	00379793          	slli	a5,a5,0x3
    27a4:	00678893          	addi	a7,a5,6
    27a8:	00000813          	li	a6,0
    27ac:	da472583          	lw	a1,-604(a4) # 4da4 <VGA>
    27b0:	010ed633          	srl	a2,t4,a6
    27b4:	00167613          	andi	a2,a2,1
    27b8:	00f585b3          	add	a1,a1,a5
    27bc:	00d58023          	sb	a3,0(a1)
    27c0:	da472583          	lw	a1,-604(a4)
    27c4:	00178b93          	addi	s7,a5,1
    27c8:	00278b13          	addi	s6,a5,2
    27cc:	00378a93          	addi	s5,a5,3
    27d0:	00478993          	addi	s3,a5,4
    27d4:	00578913          	addi	s2,a5,5
    27d8:	38060263          	beqz	a2,2b5c <move_piece+0x57c>
    27dc:	017585b3          	add	a1,a1,s7
    27e0:	00d58023          	sb	a3,0(a1)
    27e4:	da472603          	lw	a2,-604(a4)
    27e8:	00778a13          	addi	s4,a5,7
    27ec:	01660633          	add	a2,a2,s6
    27f0:	00d60023          	sb	a3,0(a2)
    27f4:	da472603          	lw	a2,-604(a4)
    27f8:	01560633          	add	a2,a2,s5
    27fc:	00d60023          	sb	a3,0(a2)
    2800:	da472603          	lw	a2,-604(a4)
    2804:	01360633          	add	a2,a2,s3
    2808:	00d60023          	sb	a3,0(a2)
    280c:	da472603          	lw	a2,-604(a4)
    2810:	01260633          	add	a2,a2,s2
    2814:	00d60023          	sb	a3,0(a2)
    2818:	da472603          	lw	a2,-604(a4)
    281c:	30080e63          	beqz	a6,2b38 <move_piece+0x558>
    2820:	01160633          	add	a2,a2,a7
    2824:	00d60023          	sb	a3,0(a2)
    2828:	da472603          	lw	a2,-604(a4)
    282c:	00f607b3          	add	a5,a2,a5
    2830:	00d783a3          	sb	a3,7(a5)
    2834:	00130313          	addi	t1,t1,1
    2838:	004e0e13          	addi	t3,t3,4
    283c:	f3f310e3          	bne	t1,t6,275c <move_piece+0x17c>
    2840:	001f0f13          	addi	t5,t5,1
    2844:	f1ff16e3          	bne	t5,t6,2750 <move_piece+0x170>
    2848:	01c12783          	lw	a5,28(sp)
    284c:	04012903          	lw	s2,64(sp)
    2850:	03c12983          	lw	s3,60(sp)
    2854:	0027f793          	andi	a5,a5,2
    2858:	03812a03          	lw	s4,56(sp)
    285c:	03412a83          	lw	s5,52(sp)
    2860:	03012b03          	lw	s6,48(sp)
    2864:	02c12b83          	lw	s7,44(sp)
    2868:	e20788e3          	beqz	a5,2698 <move_piece+0xb8>
    286c:	00a12623          	sw	a0,12(sp)
    2870:	05212023          	sw	s2,64(sp)
    2874:	03312e23          	sw	s3,60(sp)
    2878:	03412c23          	sw	s4,56(sp)
    287c:	03512a23          	sw	s5,52(sp)
    2880:	d01fd0ef          	jal	580 <update_shape.constprop.1>
    2884:	00c12503          	lw	a0,12(sp)
    2888:	00900713          	li	a4,9
    288c:	00452783          	lw	a5,4(a0)
    2890:	009784b3          	add	s1,a5,s1
    2894:	32975663          	bge	a4,s1,2bc0 <move_piece+0x5e0>
    2898:	00000f13          	li	t5,0
    289c:	00005737          	lui	a4,0x5
    28a0:	01200693          	li	a3,18
    28a4:	08100e93          	li	t4,129
    28a8:	00800293          	li	t0,8
    28ac:	00400f93          	li	t6,4
    28b0:	004f1e13          	slli	t3,t5,0x4
    28b4:	01c50e33          	add	t3,a0,t3
    28b8:	00000313          	li	t1,0
    28bc:	010e2783          	lw	a5,16(t3)
    28c0:	0c078a63          	beqz	a5,2994 <move_piece+0x3b4>
    28c4:	00452603          	lw	a2,4(a0)
    28c8:	00852783          	lw	a5,8(a0)
    28cc:	00c30633          	add	a2,t1,a2
    28d0:	00a63593          	sltiu	a1,a2,10
    28d4:	00ff07b3          	add	a5,t5,a5
    28d8:	0a058e63          	beqz	a1,2994 <move_piece+0x3b4>
    28dc:	0147b593          	sltiu	a1,a5,20
    28e0:	0a058a63          	beqz	a1,2994 <move_piece+0x3b4>
    28e4:	00578793          	addi	a5,a5,5
    28e8:	00279593          	slli	a1,a5,0x2
    28ec:	00f587b3          	add	a5,a1,a5
    28f0:	00f60613          	addi	a2,a2,15
    28f4:	00679793          	slli	a5,a5,0x6
    28f8:	00c787b3          	add	a5,a5,a2
    28fc:	00c54383          	lbu	t2,12(a0)
    2900:	00379793          	slli	a5,a5,0x3
    2904:	00678893          	addi	a7,a5,6
    2908:	00000813          	li	a6,0
    290c:	da472583          	lw	a1,-604(a4) # 4da4 <VGA>
    2910:	010ed633          	srl	a2,t4,a6
    2914:	00167613          	andi	a2,a2,1
    2918:	00f585b3          	add	a1,a1,a5
    291c:	00d58023          	sb	a3,0(a1)
    2920:	da472583          	lw	a1,-604(a4)
    2924:	00178a93          	addi	s5,a5,1
    2928:	00278a13          	addi	s4,a5,2
    292c:	00378993          	addi	s3,a5,3
    2930:	00478493          	addi	s1,a5,4
    2934:	00578413          	addi	s0,a5,5
    2938:	18060e63          	beqz	a2,2ad4 <move_piece+0x4f4>
    293c:	015585b3          	add	a1,a1,s5
    2940:	00d58023          	sb	a3,0(a1)
    2944:	da472603          	lw	a2,-604(a4)
    2948:	00778913          	addi	s2,a5,7
    294c:	01460633          	add	a2,a2,s4
    2950:	00d60023          	sb	a3,0(a2)
    2954:	da472603          	lw	a2,-604(a4)
    2958:	01360633          	add	a2,a2,s3
    295c:	00d60023          	sb	a3,0(a2)
    2960:	da472603          	lw	a2,-604(a4)
    2964:	00960633          	add	a2,a2,s1
    2968:	00d60023          	sb	a3,0(a2)
    296c:	da472603          	lw	a2,-604(a4)
    2970:	00860633          	add	a2,a2,s0
    2974:	00d60023          	sb	a3,0(a2)
    2978:	da472603          	lw	a2,-604(a4)
    297c:	12080a63          	beqz	a6,2ab0 <move_piece+0x4d0>
    2980:	01160633          	add	a2,a2,a7
    2984:	00d60023          	sb	a3,0(a2)
    2988:	da472603          	lw	a2,-604(a4)
    298c:	00f607b3          	add	a5,a2,a5
    2990:	00d783a3          	sb	a3,7(a5)
    2994:	00130313          	addi	t1,t1,1
    2998:	004e0e13          	addi	t3,t3,4
    299c:	f3f310e3          	bne	t1,t6,28bc <move_piece+0x2dc>
    29a0:	001f0f13          	addi	t5,t5,1
    29a4:	f1ff16e3          	bne	t5,t6,28b0 <move_piece+0x2d0>
    29a8:	04c12083          	lw	ra,76(sp)
    29ac:	04812403          	lw	s0,72(sp)
    29b0:	04012903          	lw	s2,64(sp)
    29b4:	03c12983          	lw	s3,60(sp)
    29b8:	03812a03          	lw	s4,56(sp)
    29bc:	03412a83          	lw	s5,52(sp)
    29c0:	04412483          	lw	s1,68(sp)
    29c4:	05010113          	addi	sp,sp,80
    29c8:	00008067          	ret
    29cc:	ce0694e3          	bnez	a3,26b4 <move_piece+0xd4>
    29d0:	ce0614e3          	bnez	a2,26b8 <move_piece+0xd8>
    29d4:	02452683          	lw	a3,36(a0)
    29d8:	02852703          	lw	a4,40(a0)
    29dc:	02c52783          	lw	a5,44(a0)
    29e0:	00100493          	li	s1,1
    29e4:	04068463          	beqz	a3,2a2c <move_piece+0x44c>
    29e8:	04071463          	bnez	a4,2a30 <move_piece+0x450>
    29ec:	c4079ce3          	bnez	a5,2644 <move_piece+0x64>
    29f0:	03852703          	lw	a4,56(a0)
    29f4:	03c52783          	lw	a5,60(a0)
    29f8:	00200493          	li	s1,2
    29fc:	c40708e3          	beqz	a4,264c <move_piece+0x6c>
    2a00:	0034a713          	slti	a4,s1,3
    2a04:	c40704e3          	beqz	a4,264c <move_piece+0x6c>
    2a08:	ce0790e3          	bnez	a5,26e8 <move_piece+0x108>
    2a0c:	04c52783          	lw	a5,76(a0)
    2a10:	00300493          	li	s1,3
    2a14:	c60786e3          	beqz	a5,2680 <move_piece+0xa0>
    2a18:	cddff06f          	j	26f4 <move_piece+0x114>
    2a1c:	c8061ee3          	bnez	a2,26b8 <move_piece+0xd8>
    2a20:	02852703          	lw	a4,40(a0)
    2a24:	02c52783          	lw	a5,44(a0)
    2a28:	00200493          	li	s1,2
    2a2c:	c8070ae3          	beqz	a4,26c0 <move_piece+0xe0>
    2a30:	c0079ae3          	bnez	a5,2644 <move_piece+0x64>
    2a34:	03c52783          	lw	a5,60(a0)
    2a38:	00300493          	li	s1,3
    2a3c:	ca0796e3          	bnez	a5,26e8 <move_piece+0x108>
    2a40:	c11ff06f          	j	2650 <move_piece+0x70>
    2a44:	04452683          	lw	a3,68(a0)
    2a48:	04852703          	lw	a4,72(a0)
    2a4c:	04c52783          	lw	a5,76(a0)
    2a50:	00100493          	li	s1,1
    2a54:	0024a613          	slti	a2,s1,2
    2a58:	04060463          	beqz	a2,2aa0 <move_piece+0x4c0>
    2a5c:	04068263          	beqz	a3,2aa0 <move_piece+0x4c0>
    2a60:	16070663          	beqz	a4,2bcc <move_piece+0x5ec>
    2a64:	00f034b3          	snez	s1,a5
    2a68:	00348493          	addi	s1,s1,3
    2a6c:	c15ff06f          	j	2680 <move_piece+0xa0>
    2a70:	03452683          	lw	a3,52(a0)
    2a74:	03852703          	lw	a4,56(a0)
    2a78:	03c52783          	lw	a5,60(a0)
    2a7c:	00100493          	li	s1,1
    2a80:	f6068ee3          	beqz	a3,29fc <move_piece+0x41c>
    2a84:	0024a693          	slti	a3,s1,2
    2a88:	f6068ae3          	beqz	a3,29fc <move_piece+0x41c>
    2a8c:	f6071ee3          	bnez	a4,2a08 <move_piece+0x428>
    2a90:	c4079ce3          	bnez	a5,26e8 <move_piece+0x108>
    2a94:	04852703          	lw	a4,72(a0)
    2a98:	04c52783          	lw	a5,76(a0)
    2a9c:	00200493          	li	s1,2
    2aa0:	0034a693          	slti	a3,s1,3
    2aa4:	c40686e3          	beqz	a3,26f0 <move_piece+0x110>
    2aa8:	fa071ee3          	bnez	a4,2a64 <move_piece+0x484>
    2aac:	c45ff06f          	j	26f0 <move_piece+0x110>
    2ab0:	01160633          	add	a2,a2,a7
    2ab4:	00d60023          	sb	a3,0(a2)
    2ab8:	da472603          	lw	a2,-604(a4)
    2abc:	14078793          	addi	a5,a5,320
    2ac0:	14088893          	addi	a7,a7,320
    2ac4:	01260633          	add	a2,a2,s2
    2ac8:	00100813          	li	a6,1
    2acc:	00d60023          	sb	a3,0(a2)
    2ad0:	e3dff06f          	j	290c <move_piece+0x32c>
    2ad4:	00f585b3          	add	a1,a1,a5
    2ad8:	007580a3          	sb	t2,1(a1)
    2adc:	da472603          	lw	a2,-604(a4)
    2ae0:	00180813          	addi	a6,a6,1
    2ae4:	00f60633          	add	a2,a2,a5
    2ae8:	00760123          	sb	t2,2(a2)
    2aec:	da472603          	lw	a2,-604(a4)
    2af0:	00f60633          	add	a2,a2,a5
    2af4:	007601a3          	sb	t2,3(a2)
    2af8:	da472603          	lw	a2,-604(a4)
    2afc:	00f60633          	add	a2,a2,a5
    2b00:	00760223          	sb	t2,4(a2)
    2b04:	da472603          	lw	a2,-604(a4)
    2b08:	00f60633          	add	a2,a2,a5
    2b0c:	007602a3          	sb	t2,5(a2)
    2b10:	da472603          	lw	a2,-604(a4)
    2b14:	01160633          	add	a2,a2,a7
    2b18:	00760023          	sb	t2,0(a2)
    2b1c:	da472603          	lw	a2,-604(a4)
    2b20:	14088893          	addi	a7,a7,320
    2b24:	00f60633          	add	a2,a2,a5
    2b28:	00d603a3          	sb	a3,7(a2)
    2b2c:	14078793          	addi	a5,a5,320
    2b30:	dc581ee3          	bne	a6,t0,290c <move_piece+0x32c>
    2b34:	e61ff06f          	j	2994 <move_piece+0x3b4>
    2b38:	01160633          	add	a2,a2,a7
    2b3c:	00d60023          	sb	a3,0(a2)
    2b40:	da472603          	lw	a2,-604(a4)
    2b44:	14078793          	addi	a5,a5,320
    2b48:	14088893          	addi	a7,a7,320
    2b4c:	01460633          	add	a2,a2,s4
    2b50:	00040813          	mv	a6,s0
    2b54:	00d60023          	sb	a3,0(a2)
    2b58:	c55ff06f          	j	27ac <move_piece+0x1cc>
    2b5c:	00f585b3          	add	a1,a1,a5
    2b60:	007580a3          	sb	t2,1(a1)
    2b64:	da472603          	lw	a2,-604(a4)
    2b68:	00180813          	addi	a6,a6,1
    2b6c:	00f60633          	add	a2,a2,a5
    2b70:	00760123          	sb	t2,2(a2)
    2b74:	da472603          	lw	a2,-604(a4)
    2b78:	00f60633          	add	a2,a2,a5
    2b7c:	007601a3          	sb	t2,3(a2)
    2b80:	da472603          	lw	a2,-604(a4)
    2b84:	00f60633          	add	a2,a2,a5
    2b88:	00760223          	sb	t2,4(a2)
    2b8c:	da472603          	lw	a2,-604(a4)
    2b90:	00f60633          	add	a2,a2,a5
    2b94:	007602a3          	sb	t2,5(a2)
    2b98:	da472603          	lw	a2,-604(a4)
    2b9c:	01160633          	add	a2,a2,a7
    2ba0:	00760023          	sb	t2,0(a2)
    2ba4:	da472603          	lw	a2,-604(a4)
    2ba8:	14088893          	addi	a7,a7,320
    2bac:	00f60633          	add	a2,a2,a5
    2bb0:	00d603a3          	sb	a3,7(a2)
    2bb4:	14078793          	addi	a5,a5,320
    2bb8:	be581ae3          	bne	a6,t0,27ac <move_piece+0x1cc>
    2bbc:	c79ff06f          	j	2834 <move_piece+0x254>
    2bc0:	00178793          	addi	a5,a5,1
    2bc4:	00f52223          	sw	a5,4(a0)
    2bc8:	cd1ff06f          	j	2898 <move_piece+0x2b8>
    2bcc:	00f037b3          	snez	a5,a5
    2bd0:	00179493          	slli	s1,a5,0x1
    2bd4:	00248493          	addi	s1,s1,2
    2bd8:	aa9ff06f          	j	2680 <move_piece+0xa0>
    2bdc:	02c52783          	lw	a5,44(a0)
    2be0:	00300493          	li	s1,3
    2be4:	a60790e3          	bnez	a5,2644 <move_piece+0x64>
    2be8:	addff06f          	j	26c4 <move_piece+0xe4>

00002bec <collision>:
    2bec:	00050793          	mv	a5,a0
    2bf0:	01052503          	lw	a0,16(a0)
    2bf4:	36050663          	beqz	a0,2f60 <collision+0x374>
    2bf8:	0087a683          	lw	a3,8(a5)
    2bfc:	01300713          	li	a4,19
    2c00:	00168693          	addi	a3,a3,1
    2c04:	24d74463          	blt	a4,a3,2e4c <collision+0x260>
    2c08:	00269813          	slli	a6,a3,0x2
    2c0c:	0047a583          	lw	a1,4(a5)
    2c10:	00d80633          	add	a2,a6,a3
    2c14:	00005737          	lui	a4,0x5
    2c18:	00161613          	slli	a2,a2,0x1
    2c1c:	da870713          	addi	a4,a4,-600 # 4da8 <grid>
    2c20:	00c70633          	add	a2,a4,a2
    2c24:	00b60633          	add	a2,a2,a1
    2c28:	00064603          	lbu	a2,0(a2)
    2c2c:	22061063          	bnez	a2,2e4c <collision+0x260>
    2c30:	0147a603          	lw	a2,20(a5)
    2c34:	00158513          	addi	a0,a1,1
    2c38:	00060e63          	beqz	a2,2c54 <collision+0x68>
    2c3c:	00d80633          	add	a2,a6,a3
    2c40:	00161613          	slli	a2,a2,0x1
    2c44:	00c70633          	add	a2,a4,a2
    2c48:	00a60633          	add	a2,a2,a0
    2c4c:	00064603          	lbu	a2,0(a2)
    2c50:	1e061e63          	bnez	a2,2e4c <collision+0x260>
    2c54:	0187a603          	lw	a2,24(a5)
    2c58:	34060263          	beqz	a2,2f9c <collision+0x3b0>
    2c5c:	00d80633          	add	a2,a6,a3
    2c60:	00161613          	slli	a2,a2,0x1
    2c64:	00258513          	addi	a0,a1,2
    2c68:	00c70633          	add	a2,a4,a2
    2c6c:	00a60633          	add	a2,a2,a0
    2c70:	00064603          	lbu	a2,0(a2)
    2c74:	1c061c63          	bnez	a2,2e4c <collision+0x260>
    2c78:	01c7a603          	lw	a2,28(a5)
    2c7c:	00358593          	addi	a1,a1,3
    2c80:	00060e63          	beqz	a2,2c9c <collision+0xb0>
    2c84:	00d806b3          	add	a3,a6,a3
    2c88:	00169693          	slli	a3,a3,0x1
    2c8c:	00d70733          	add	a4,a4,a3
    2c90:	00b70733          	add	a4,a4,a1
    2c94:	00074703          	lbu	a4,0(a4)
    2c98:	1a071a63          	bnez	a4,2e4c <collision+0x260>
    2c9c:	0207a503          	lw	a0,32(a5)
    2ca0:	32050663          	beqz	a0,2fcc <collision+0x3e0>
    2ca4:	0087a683          	lw	a3,8(a5)
    2ca8:	01300713          	li	a4,19
    2cac:	00268693          	addi	a3,a3,2
    2cb0:	18d74e63          	blt	a4,a3,2e4c <collision+0x260>
    2cb4:	00269813          	slli	a6,a3,0x2
    2cb8:	0047a583          	lw	a1,4(a5)
    2cbc:	00d80633          	add	a2,a6,a3
    2cc0:	00005737          	lui	a4,0x5
    2cc4:	00161613          	slli	a2,a2,0x1
    2cc8:	da870713          	addi	a4,a4,-600 # 4da8 <grid>
    2ccc:	00c70633          	add	a2,a4,a2
    2cd0:	00b60633          	add	a2,a2,a1
    2cd4:	00064603          	lbu	a2,0(a2)
    2cd8:	16061a63          	bnez	a2,2e4c <collision+0x260>
    2cdc:	0247a603          	lw	a2,36(a5)
    2ce0:	00158513          	addi	a0,a1,1
    2ce4:	00060e63          	beqz	a2,2d00 <collision+0x114>
    2ce8:	00d80633          	add	a2,a6,a3
    2cec:	00161613          	slli	a2,a2,0x1
    2cf0:	00c70633          	add	a2,a4,a2
    2cf4:	00a60633          	add	a2,a2,a0
    2cf8:	00064603          	lbu	a2,0(a2)
    2cfc:	14061863          	bnez	a2,2e4c <collision+0x260>
    2d00:	0287a603          	lw	a2,40(a5)
    2d04:	10060263          	beqz	a2,2e08 <collision+0x21c>
    2d08:	00d80633          	add	a2,a6,a3
    2d0c:	00161613          	slli	a2,a2,0x1
    2d10:	00258513          	addi	a0,a1,2
    2d14:	00c70633          	add	a2,a4,a2
    2d18:	00a60633          	add	a2,a2,a0
    2d1c:	00064603          	lbu	a2,0(a2)
    2d20:	12061663          	bnez	a2,2e4c <collision+0x260>
    2d24:	02c7a603          	lw	a2,44(a5)
    2d28:	00358593          	addi	a1,a1,3
    2d2c:	10061463          	bnez	a2,2e34 <collision+0x248>
    2d30:	0307a503          	lw	a0,48(a5)
    2d34:	12050063          	beqz	a0,2e54 <collision+0x268>
    2d38:	0087a683          	lw	a3,8(a5)
    2d3c:	01300713          	li	a4,19
    2d40:	00368693          	addi	a3,a3,3
    2d44:	10d74463          	blt	a4,a3,2e4c <collision+0x260>
    2d48:	00269813          	slli	a6,a3,0x2
    2d4c:	0047a583          	lw	a1,4(a5)
    2d50:	00d80633          	add	a2,a6,a3
    2d54:	00005737          	lui	a4,0x5
    2d58:	00161613          	slli	a2,a2,0x1
    2d5c:	da870713          	addi	a4,a4,-600 # 4da8 <grid>
    2d60:	00c70633          	add	a2,a4,a2
    2d64:	00b60633          	add	a2,a2,a1
    2d68:	00064603          	lbu	a2,0(a2)
    2d6c:	0e061063          	bnez	a2,2e4c <collision+0x260>
    2d70:	0347a603          	lw	a2,52(a5)
    2d74:	00158513          	addi	a0,a1,1
    2d78:	10061463          	bnez	a2,2e80 <collision+0x294>
    2d7c:	0387a603          	lw	a2,56(a5)
    2d80:	12060063          	beqz	a2,2ea0 <collision+0x2b4>
    2d84:	00d80633          	add	a2,a6,a3
    2d88:	00161613          	slli	a2,a2,0x1
    2d8c:	00258513          	addi	a0,a1,2
    2d90:	00c70633          	add	a2,a4,a2
    2d94:	00a60633          	add	a2,a2,a0
    2d98:	00064603          	lbu	a2,0(a2)
    2d9c:	0a061863          	bnez	a2,2e4c <collision+0x260>
    2da0:	03c7a603          	lw	a2,60(a5)
    2da4:	00358593          	addi	a1,a1,3
    2da8:	12061263          	bnez	a2,2ecc <collision+0x2e0>
    2dac:	0407a703          	lw	a4,64(a5)
    2db0:	12070e63          	beqz	a4,2eec <collision+0x300>
    2db4:	0087a683          	lw	a3,8(a5)
    2db8:	01300713          	li	a4,19
    2dbc:	00468693          	addi	a3,a3,4
    2dc0:	08d74663          	blt	a4,a3,2e4c <collision+0x260>
    2dc4:	00269613          	slli	a2,a3,0x2
    2dc8:	0047a583          	lw	a1,4(a5)
    2dcc:	00d60533          	add	a0,a2,a3
    2dd0:	00005737          	lui	a4,0x5
    2dd4:	00151513          	slli	a0,a0,0x1
    2dd8:	da870713          	addi	a4,a4,-600 # 4da8 <grid>
    2ddc:	00a70533          	add	a0,a4,a0
    2de0:	00b50533          	add	a0,a0,a1
    2de4:	00054803          	lbu	a6,0(a0)
    2de8:	00058513          	mv	a0,a1
    2dec:	06081063          	bnez	a6,2e4c <collision+0x260>
    2df0:	0447a803          	lw	a6,68(a5)
    2df4:	26080263          	beqz	a6,3058 <collision+0x46c>
    2df8:	00150813          	addi	a6,a0,1
    2dfc:	11c0006f          	j	2f18 <collision+0x32c>
    2e00:	0287a703          	lw	a4,40(a5)
    2e04:	2c071663          	bnez	a4,30d0 <collision+0x4e4>
    2e08:	02c7a703          	lw	a4,44(a5)
    2e0c:	f20702e3          	beqz	a4,2d30 <collision+0x144>
    2e10:	0087a683          	lw	a3,8(a5)
    2e14:	01300713          	li	a4,19
    2e18:	00268693          	addi	a3,a3,2
    2e1c:	02d74863          	blt	a4,a3,2e4c <collision+0x260>
    2e20:	0047a583          	lw	a1,4(a5)
    2e24:	00005737          	lui	a4,0x5
    2e28:	da870713          	addi	a4,a4,-600 # 4da8 <grid>
    2e2c:	00358593          	addi	a1,a1,3
    2e30:	00269813          	slli	a6,a3,0x2
    2e34:	00d806b3          	add	a3,a6,a3
    2e38:	00169693          	slli	a3,a3,0x1
    2e3c:	00d70733          	add	a4,a4,a3
    2e40:	00b70733          	add	a4,a4,a1
    2e44:	00074703          	lbu	a4,0(a4)
    2e48:	ee0704e3          	beqz	a4,2d30 <collision+0x144>
    2e4c:	00000513          	li	a0,0
    2e50:	00008067          	ret
    2e54:	0347a703          	lw	a4,52(a5)
    2e58:	1a070263          	beqz	a4,2ffc <collision+0x410>
    2e5c:	0087a683          	lw	a3,8(a5)
    2e60:	01300713          	li	a4,19
    2e64:	00368693          	addi	a3,a3,3
    2e68:	12d74463          	blt	a4,a3,2f90 <collision+0x3a4>
    2e6c:	0047a583          	lw	a1,4(a5)
    2e70:	00005737          	lui	a4,0x5
    2e74:	da870713          	addi	a4,a4,-600 # 4da8 <grid>
    2e78:	00158513          	addi	a0,a1,1
    2e7c:	00269813          	slli	a6,a3,0x2
    2e80:	00d80633          	add	a2,a6,a3
    2e84:	00161613          	slli	a2,a2,0x1
    2e88:	00c70633          	add	a2,a4,a2
    2e8c:	00a60633          	add	a2,a2,a0
    2e90:	00064603          	lbu	a2,0(a2)
    2e94:	fa061ce3          	bnez	a2,2e4c <collision+0x260>
    2e98:	0387a603          	lw	a2,56(a5)
    2e9c:	ee0614e3          	bnez	a2,2d84 <collision+0x198>
    2ea0:	03c7a703          	lw	a4,60(a5)
    2ea4:	f00704e3          	beqz	a4,2dac <collision+0x1c0>
    2ea8:	0087a683          	lw	a3,8(a5)
    2eac:	01300713          	li	a4,19
    2eb0:	00368693          	addi	a3,a3,3
    2eb4:	f8d74ce3          	blt	a4,a3,2e4c <collision+0x260>
    2eb8:	0047a583          	lw	a1,4(a5)
    2ebc:	00005737          	lui	a4,0x5
    2ec0:	da870713          	addi	a4,a4,-600 # 4da8 <grid>
    2ec4:	00358593          	addi	a1,a1,3
    2ec8:	00269813          	slli	a6,a3,0x2
    2ecc:	00d806b3          	add	a3,a6,a3
    2ed0:	00169693          	slli	a3,a3,0x1
    2ed4:	00d70733          	add	a4,a4,a3
    2ed8:	00b70733          	add	a4,a4,a1
    2edc:	00074703          	lbu	a4,0(a4)
    2ee0:	f60716e3          	bnez	a4,2e4c <collision+0x260>
    2ee4:	0407a703          	lw	a4,64(a5)
    2ee8:	ec0716e3          	bnez	a4,2db4 <collision+0x1c8>
    2eec:	0447a503          	lw	a0,68(a5)
    2ef0:	12050c63          	beqz	a0,3028 <collision+0x43c>
    2ef4:	0087a683          	lw	a3,8(a5)
    2ef8:	01300713          	li	a4,19
    2efc:	00468693          	addi	a3,a3,4
    2f00:	f4d746e3          	blt	a4,a3,2e4c <collision+0x260>
    2f04:	0047a503          	lw	a0,4(a5)
    2f08:	00005737          	lui	a4,0x5
    2f0c:	da870713          	addi	a4,a4,-600 # 4da8 <grid>
    2f10:	00150813          	addi	a6,a0,1
    2f14:	00269613          	slli	a2,a3,0x2
    2f18:	00d605b3          	add	a1,a2,a3
    2f1c:	00159593          	slli	a1,a1,0x1
    2f20:	00b705b3          	add	a1,a4,a1
    2f24:	010585b3          	add	a1,a1,a6
    2f28:	0005c583          	lbu	a1,0(a1)
    2f2c:	f20590e3          	bnez	a1,2e4c <collision+0x260>
    2f30:	0487a583          	lw	a1,72(a5)
    2f34:	12058663          	beqz	a1,3060 <collision+0x474>
    2f38:	00d605b3          	add	a1,a2,a3
    2f3c:	00159593          	slli	a1,a1,0x1
    2f40:	00b705b3          	add	a1,a4,a1
    2f44:	00a585b3          	add	a1,a1,a0
    2f48:	0025c583          	lbu	a1,2(a1)
    2f4c:	f00590e3          	bnez	a1,2e4c <collision+0x260>
    2f50:	04c7a783          	lw	a5,76(a5)
    2f54:	1a079063          	bnez	a5,30f4 <collision+0x508>
    2f58:	00100513          	li	a0,1
    2f5c:	00008067          	ret
    2f60:	0147a703          	lw	a4,20(a5)
    2f64:	02070863          	beqz	a4,2f94 <collision+0x3a8>
    2f68:	0087a683          	lw	a3,8(a5)
    2f6c:	01300713          	li	a4,19
    2f70:	00168693          	addi	a3,a3,1
    2f74:	00d74e63          	blt	a4,a3,2f90 <collision+0x3a4>
    2f78:	0047a583          	lw	a1,4(a5)
    2f7c:	00005737          	lui	a4,0x5
    2f80:	da870713          	addi	a4,a4,-600 # 4da8 <grid>
    2f84:	00158513          	addi	a0,a1,1
    2f88:	00269813          	slli	a6,a3,0x2
    2f8c:	cb1ff06f          	j	2c3c <collision+0x50>
    2f90:	00008067          	ret
    2f94:	0187a703          	lw	a4,24(a5)
    2f98:	10071a63          	bnez	a4,30ac <collision+0x4c0>
    2f9c:	01c7a703          	lw	a4,28(a5)
    2fa0:	ce070ee3          	beqz	a4,2c9c <collision+0xb0>
    2fa4:	0087a683          	lw	a3,8(a5)
    2fa8:	01300713          	li	a4,19
    2fac:	00168693          	addi	a3,a3,1
    2fb0:	e8d74ee3          	blt	a4,a3,2e4c <collision+0x260>
    2fb4:	0047a583          	lw	a1,4(a5)
    2fb8:	00005737          	lui	a4,0x5
    2fbc:	da870713          	addi	a4,a4,-600 # 4da8 <grid>
    2fc0:	00358593          	addi	a1,a1,3
    2fc4:	00269813          	slli	a6,a3,0x2
    2fc8:	cbdff06f          	j	2c84 <collision+0x98>
    2fcc:	0247a703          	lw	a4,36(a5)
    2fd0:	e20708e3          	beqz	a4,2e00 <collision+0x214>
    2fd4:	0087a683          	lw	a3,8(a5)
    2fd8:	01300713          	li	a4,19
    2fdc:	00268693          	addi	a3,a3,2
    2fe0:	fad748e3          	blt	a4,a3,2f90 <collision+0x3a4>
    2fe4:	0047a583          	lw	a1,4(a5)
    2fe8:	00005737          	lui	a4,0x5
    2fec:	da870713          	addi	a4,a4,-600 # 4da8 <grid>
    2ff0:	00158513          	addi	a0,a1,1
    2ff4:	00269813          	slli	a6,a3,0x2
    2ff8:	cf1ff06f          	j	2ce8 <collision+0xfc>
    2ffc:	0387a703          	lw	a4,56(a5)
    3000:	ea0700e3          	beqz	a4,2ea0 <collision+0x2b4>
    3004:	0087a683          	lw	a3,8(a5)
    3008:	01300713          	li	a4,19
    300c:	00368693          	addi	a3,a3,3
    3010:	f8d740e3          	blt	a4,a3,2f90 <collision+0x3a4>
    3014:	00005737          	lui	a4,0x5
    3018:	0047a583          	lw	a1,4(a5)
    301c:	da870713          	addi	a4,a4,-600 # 4da8 <grid>
    3020:	00269813          	slli	a6,a3,0x2
    3024:	d61ff06f          	j	2d84 <collision+0x198>
    3028:	0487a703          	lw	a4,72(a5)
    302c:	02070a63          	beqz	a4,3060 <collision+0x474>
    3030:	0087a683          	lw	a3,8(a5)
    3034:	01300713          	li	a4,19
    3038:	00468693          	addi	a3,a3,4
    303c:	f4d74ae3          	blt	a4,a3,2f90 <collision+0x3a4>
    3040:	0047a583          	lw	a1,4(a5)
    3044:	00005737          	lui	a4,0x5
    3048:	da870713          	addi	a4,a4,-600 # 4da8 <grid>
    304c:	00269613          	slli	a2,a3,0x2
    3050:	00058513          	mv	a0,a1
    3054:	ee5ff06f          	j	2f38 <collision+0x34c>
    3058:	0487a503          	lw	a0,72(a5)
    305c:	fe051ae3          	bnez	a0,3050 <collision+0x464>
    3060:	04c7a703          	lw	a4,76(a5)
    3064:	00100513          	li	a0,1
    3068:	f20704e3          	beqz	a4,2f90 <collision+0x3a4>
    306c:	0087a683          	lw	a3,8(a5)
    3070:	01300713          	li	a4,19
    3074:	00468693          	addi	a3,a3,4
    3078:	dcd74ae3          	blt	a4,a3,2e4c <collision+0x260>
    307c:	0047a503          	lw	a0,4(a5)
    3080:	00269613          	slli	a2,a3,0x2
    3084:	00d607b3          	add	a5,a2,a3
    3088:	00005737          	lui	a4,0x5
    308c:	da870713          	addi	a4,a4,-600 # 4da8 <grid>
    3090:	00179793          	slli	a5,a5,0x1
    3094:	00350513          	addi	a0,a0,3
    3098:	00f707b3          	add	a5,a4,a5
    309c:	00a787b3          	add	a5,a5,a0
    30a0:	0007c503          	lbu	a0,0(a5)
    30a4:	00153513          	seqz	a0,a0
    30a8:	00008067          	ret
    30ac:	0087a683          	lw	a3,8(a5)
    30b0:	01300713          	li	a4,19
    30b4:	00168693          	addi	a3,a3,1
    30b8:	ecd74ce3          	blt	a4,a3,2f90 <collision+0x3a4>
    30bc:	00005737          	lui	a4,0x5
    30c0:	0047a583          	lw	a1,4(a5)
    30c4:	da870713          	addi	a4,a4,-600 # 4da8 <grid>
    30c8:	00269813          	slli	a6,a3,0x2
    30cc:	b91ff06f          	j	2c5c <collision+0x70>
    30d0:	0087a683          	lw	a3,8(a5)
    30d4:	01300713          	li	a4,19
    30d8:	00268693          	addi	a3,a3,2
    30dc:	ead74ae3          	blt	a4,a3,2f90 <collision+0x3a4>
    30e0:	00005737          	lui	a4,0x5
    30e4:	0047a583          	lw	a1,4(a5)
    30e8:	da870713          	addi	a4,a4,-600 # 4da8 <grid>
    30ec:	00269813          	slli	a6,a3,0x2
    30f0:	c19ff06f          	j	2d08 <collision+0x11c>
    30f4:	00d607b3          	add	a5,a2,a3
    30f8:	00179793          	slli	a5,a5,0x1
    30fc:	00350513          	addi	a0,a0,3
    3100:	00f707b3          	add	a5,a4,a5
    3104:	00a787b3          	add	a5,a5,a0
    3108:	0007c503          	lbu	a0,0(a5)
    310c:	00153513          	seqz	a0,a0
    3110:	00008067          	ret

00003114 <tick>:
    3114:	040007b7          	lui	a5,0x4000
    3118:	01078793          	addi	a5,a5,16 # 4000010 <_stack_end+0x3ef52ac>
    311c:	0007a783          	lw	a5,0(a5)
    3120:	f9010113          	addi	sp,sp,-112
    3124:	06812423          	sw	s0,104(sp)
    3128:	3ff7f793          	andi	a5,a5,1023
    312c:	02f12623          	sw	a5,44(sp)
    3130:	02c12783          	lw	a5,44(sp)
    3134:	05812423          	sw	s8,72(sp)
    3138:	06112623          	sw	ra,108(sp)
    313c:	06912223          	sw	s1,100(sp)
    3140:	07212023          	sw	s2,96(sp)
    3144:	00050c13          	mv	s8,a0
    3148:	00005437          	lui	s0,0x5
    314c:	60079ce3          	bnez	a5,3f64 <tick+0xe50>
    3150:	000054b7          	lui	s1,0x5
    3154:	da840413          	addi	s0,s0,-600 # 4da8 <grid>
    3158:	e7048493          	addi	s1,s1,-400 # 4e70 <current_piece>
    315c:	00048513          	mv	a0,s1
    3160:	c20fd0ef          	jal	580 <update_shape.constprop.1>
    3164:	0d842703          	lw	a4,216(s0)
    3168:	0d042603          	lw	a2,208(s0)
    316c:	0cc42783          	lw	a5,204(s0)
    3170:	520706e3          	beqz	a4,3e9c <tick+0xd88>
    3174:	00160593          	addi	a1,a2,1
    3178:	01300713          	li	a4,19
    317c:	32b74e63          	blt	a4,a1,34b8 <tick+0x3a4>
    3180:	00259713          	slli	a4,a1,0x2
    3184:	00b706b3          	add	a3,a4,a1
    3188:	00169693          	slli	a3,a3,0x1
    318c:	00d406b3          	add	a3,s0,a3
    3190:	00f686b3          	add	a3,a3,a5
    3194:	0006c683          	lbu	a3,0(a3)
    3198:	32069063          	bnez	a3,34b8 <tick+0x3a4>
    319c:	0dc42683          	lw	a3,220(s0)
    31a0:	00178513          	addi	a0,a5,1
    31a4:	50069ae3          	bnez	a3,3eb8 <tick+0xda4>
    31a8:	0e042683          	lw	a3,224(s0)
    31ac:	2e069863          	bnez	a3,349c <tick+0x388>
    31b0:	0e442683          	lw	a3,228(s0)
    31b4:	02068063          	beqz	a3,31d4 <tick+0xc0>
    31b8:	00b70733          	add	a4,a4,a1
    31bc:	00171713          	slli	a4,a4,0x1
    31c0:	00378693          	addi	a3,a5,3
    31c4:	00e40733          	add	a4,s0,a4
    31c8:	00d70733          	add	a4,a4,a3
    31cc:	00074703          	lbu	a4,0(a4)
    31d0:	2e071463          	bnez	a4,34b8 <tick+0x3a4>
    31d4:	0e842703          	lw	a4,232(s0)
    31d8:	080702e3          	beqz	a4,3a5c <tick+0x948>
    31dc:	00260593          	addi	a1,a2,2
    31e0:	01300713          	li	a4,19
    31e4:	2cb74a63          	blt	a4,a1,34b8 <tick+0x3a4>
    31e8:	00259713          	slli	a4,a1,0x2
    31ec:	00b706b3          	add	a3,a4,a1
    31f0:	00169693          	slli	a3,a3,0x1
    31f4:	00d406b3          	add	a3,s0,a3
    31f8:	00f686b3          	add	a3,a3,a5
    31fc:	0006c683          	lbu	a3,0(a3)
    3200:	2a069c63          	bnez	a3,34b8 <tick+0x3a4>
    3204:	0ec42683          	lw	a3,236(s0)
    3208:	00178513          	addi	a0,a5,1
    320c:	060696e3          	bnez	a3,3a78 <tick+0x964>
    3210:	0f042683          	lw	a3,240(s0)
    3214:	080692e3          	bnez	a3,3a98 <tick+0x984>
    3218:	0f442683          	lw	a3,244(s0)
    321c:	02068063          	beqz	a3,323c <tick+0x128>
    3220:	00b70733          	add	a4,a4,a1
    3224:	00171713          	slli	a4,a4,0x1
    3228:	00378693          	addi	a3,a5,3
    322c:	00e40733          	add	a4,s0,a4
    3230:	00d70733          	add	a4,a4,a3
    3234:	00074703          	lbu	a4,0(a4)
    3238:	28071063          	bnez	a4,34b8 <tick+0x3a4>
    323c:	0f842703          	lw	a4,248(s0)
    3240:	4c070ce3          	beqz	a4,3f18 <tick+0xe04>
    3244:	00360593          	addi	a1,a2,3
    3248:	01300713          	li	a4,19
    324c:	26b74663          	blt	a4,a1,34b8 <tick+0x3a4>
    3250:	00259713          	slli	a4,a1,0x2
    3254:	00b706b3          	add	a3,a4,a1
    3258:	00169693          	slli	a3,a3,0x1
    325c:	00d406b3          	add	a3,s0,a3
    3260:	00f686b3          	add	a3,a3,a5
    3264:	0006c683          	lbu	a3,0(a3)
    3268:	24069863          	bnez	a3,34b8 <tick+0x3a4>
    326c:	0fc42683          	lw	a3,252(s0)
    3270:	00178513          	addi	a0,a5,1
    3274:	50068ee3          	beqz	a3,3f90 <tick+0xe7c>
    3278:	00b706b3          	add	a3,a4,a1
    327c:	00169693          	slli	a3,a3,0x1
    3280:	00d406b3          	add	a3,s0,a3
    3284:	00a686b3          	add	a3,a3,a0
    3288:	0006c683          	lbu	a3,0(a3)
    328c:	22069663          	bnez	a3,34b8 <tick+0x3a4>
    3290:	10042683          	lw	a3,256(s0)
    3294:	6e068663          	beqz	a3,3980 <tick+0x86c>
    3298:	00b706b3          	add	a3,a4,a1
    329c:	00169693          	slli	a3,a3,0x1
    32a0:	00278513          	addi	a0,a5,2
    32a4:	00d406b3          	add	a3,s0,a3
    32a8:	00a686b3          	add	a3,a3,a0
    32ac:	0006c683          	lbu	a3,0(a3)
    32b0:	20069463          	bnez	a3,34b8 <tick+0x3a4>
    32b4:	10442683          	lw	a3,260(s0)
    32b8:	02068063          	beqz	a3,32d8 <tick+0x1c4>
    32bc:	00b70733          	add	a4,a4,a1
    32c0:	00171713          	slli	a4,a4,0x1
    32c4:	00378693          	addi	a3,a5,3
    32c8:	00e40733          	add	a4,s0,a4
    32cc:	00d70733          	add	a4,a4,a3
    32d0:	00074703          	lbu	a4,0(a4)
    32d4:	1e071263          	bnez	a4,34b8 <tick+0x3a4>
    32d8:	10842703          	lw	a4,264(s0)
    32dc:	460700e3          	beqz	a4,3f3c <tick+0xe28>
    32e0:	00460593          	addi	a1,a2,4
    32e4:	01300713          	li	a4,19
    32e8:	1cb74863          	blt	a4,a1,34b8 <tick+0x3a4>
    32ec:	00259713          	slli	a4,a1,0x2
    32f0:	00b706b3          	add	a3,a4,a1
    32f4:	00169693          	slli	a3,a3,0x1
    32f8:	00d406b3          	add	a3,s0,a3
    32fc:	00f686b3          	add	a3,a3,a5
    3300:	0006c683          	lbu	a3,0(a3)
    3304:	1a069a63          	bnez	a3,34b8 <tick+0x3a4>
    3308:	10c42683          	lw	a3,268(s0)
    330c:	00178513          	addi	a0,a5,1
    3310:	4a0682e3          	beqz	a3,3fb4 <tick+0xea0>
    3314:	00b706b3          	add	a3,a4,a1
    3318:	00169693          	slli	a3,a3,0x1
    331c:	00d406b3          	add	a3,s0,a3
    3320:	00a686b3          	add	a3,a3,a0
    3324:	0006c683          	lbu	a3,0(a3)
    3328:	18069863          	bnez	a3,34b8 <tick+0x3a4>
    332c:	11042683          	lw	a3,272(s0)
    3330:	00278513          	addi	a0,a5,2
    3334:	66068463          	beqz	a3,399c <tick+0x888>
    3338:	00b706b3          	add	a3,a4,a1
    333c:	00169693          	slli	a3,a3,0x1
    3340:	00d406b3          	add	a3,s0,a3
    3344:	00a686b3          	add	a3,a3,a0
    3348:	0006c683          	lbu	a3,0(a3)
    334c:	16069663          	bnez	a3,34b8 <tick+0x3a4>
    3350:	11442683          	lw	a3,276(s0)
    3354:	00378793          	addi	a5,a5,3
    3358:	00068e63          	beqz	a3,3374 <tick+0x260>
    335c:	00b70733          	add	a4,a4,a1
    3360:	00171713          	slli	a4,a4,0x1
    3364:	00e40733          	add	a4,s0,a4
    3368:	00f707b3          	add	a5,a4,a5
    336c:	0007c783          	lbu	a5,0(a5)
    3370:	14079463          	bnez	a5,34b8 <tick+0x3a4>
    3374:	00160613          	addi	a2,a2,1
    3378:	0cc42823          	sw	a2,208(s0)
    337c:	00000f13          	li	t5,0
    3380:	00005737          	lui	a4,0x5
    3384:	01200693          	li	a3,18
    3388:	00700e93          	li	t4,7
    338c:	00400f93          	li	t6,4
    3390:	00048e13          	mv	t3,s1
    3394:	00000313          	li	t1,0
    3398:	010e2783          	lw	a5,16(t3)
    339c:	0a078a63          	beqz	a5,3450 <tick+0x33c>
    33a0:	0d042783          	lw	a5,208(s0)
    33a4:	0cc42603          	lw	a2,204(s0)
    33a8:	00ff07b3          	add	a5,t5,a5
    33ac:	0147b593          	sltiu	a1,a5,20
    33b0:	00c30633          	add	a2,t1,a2
    33b4:	08058e63          	beqz	a1,3450 <tick+0x33c>
    33b8:	00a63593          	sltiu	a1,a2,10
    33bc:	08058a63          	beqz	a1,3450 <tick+0x33c>
    33c0:	00578793          	addi	a5,a5,5
    33c4:	00279593          	slli	a1,a5,0x2
    33c8:	00f587b3          	add	a5,a1,a5
    33cc:	00f60613          	addi	a2,a2,15
    33d0:	00679793          	slli	a5,a5,0x6
    33d4:	00c787b3          	add	a5,a5,a2
    33d8:	da472603          	lw	a2,-604(a4) # 4da4 <VGA>
    33dc:	00379793          	slli	a5,a5,0x3
    33e0:	0d444283          	lbu	t0,212(s0)
    33e4:	00f60633          	add	a2,a2,a5
    33e8:	00d60023          	sb	a3,0(a2)
    33ec:	da472603          	lw	a2,-604(a4)
    33f0:	00678893          	addi	a7,a5,6
    33f4:	00000593          	li	a1,0
    33f8:	00f60633          	add	a2,a2,a5
    33fc:	00d600a3          	sb	a3,1(a2)
    3400:	00078613          	mv	a2,a5
    3404:	da472503          	lw	a0,-604(a4)
    3408:	00f50533          	add	a0,a0,a5
    340c:	00d50123          	sb	a3,2(a0)
    3410:	da472503          	lw	a0,-604(a4)
    3414:	00f50533          	add	a0,a0,a5
    3418:	00d501a3          	sb	a3,3(a0)
    341c:	da472503          	lw	a0,-604(a4)
    3420:	00f50533          	add	a0,a0,a5
    3424:	00d50223          	sb	a3,4(a0)
    3428:	da472503          	lw	a0,-604(a4)
    342c:	00f50533          	add	a0,a0,a5
    3430:	00d502a3          	sb	a3,5(a0)
    3434:	da472503          	lw	a0,-604(a4)
    3438:	01150533          	add	a0,a0,a7
    343c:	00d50023          	sb	a3,0(a0)
    3440:	5c058e63          	beqz	a1,3a1c <tick+0x908>
    3444:	da472783          	lw	a5,-604(a4)
    3448:	00c787b3          	add	a5,a5,a2
    344c:	00d783a3          	sb	a3,7(a5)
    3450:	00130313          	addi	t1,t1,1
    3454:	004e0e13          	addi	t3,t3,4
    3458:	f5f310e3          	bne	t1,t6,3398 <tick+0x284>
    345c:	001f0f13          	addi	t5,t5,1
    3460:	01048493          	addi	s1,s1,16
    3464:	f3ff16e3          	bne	t5,t6,3390 <tick+0x27c>
    3468:	06c12083          	lw	ra,108(sp)
    346c:	06812403          	lw	s0,104(sp)
    3470:	06412483          	lw	s1,100(sp)
    3474:	06012903          	lw	s2,96(sp)
    3478:	04812c03          	lw	s8,72(sp)
    347c:	07010113          	addi	sp,sp,112
    3480:	00008067          	ret
    3484:	0e042703          	lw	a4,224(s0)
    3488:	240708e3          	beqz	a4,3ed8 <tick+0xdc4>
    348c:	00160593          	addi	a1,a2,1
    3490:	01300713          	li	a4,19
    3494:	02b74263          	blt	a4,a1,34b8 <tick+0x3a4>
    3498:	00259713          	slli	a4,a1,0x2
    349c:	00b706b3          	add	a3,a4,a1
    34a0:	00169693          	slli	a3,a3,0x1
    34a4:	00278513          	addi	a0,a5,2
    34a8:	00d406b3          	add	a3,s0,a3
    34ac:	00a686b3          	add	a3,a3,a0
    34b0:	0006c683          	lbu	a3,0(a3)
    34b4:	ce068ee3          	beqz	a3,31b0 <tick+0x9c>
    34b8:	05312e23          	sw	s3,92(sp)
    34bc:	05412c23          	sw	s4,88(sp)
    34c0:	05512a23          	sw	s5,84(sp)
    34c4:	05612823          	sw	s6,80(sp)
    34c8:	05712623          	sw	s7,76(sp)
    34cc:	05912223          	sw	s9,68(sp)
    34d0:	05a12023          	sw	s10,64(sp)
    34d4:	03b12e23          	sw	s11,60(sp)
    34d8:	00048293          	mv	t0,s1
    34dc:	00000e93          	li	t4,0
    34e0:	00005737          	lui	a4,0x5
    34e4:	01200693          	li	a3,18
    34e8:	08100e13          	li	t3,129
    34ec:	00800f93          	li	t6,8
    34f0:	00400f13          	li	t5,4
    34f4:	00028313          	mv	t1,t0
    34f8:	00000893          	li	a7,0
    34fc:	01032783          	lw	a5,16(t1)
    3500:	0e078663          	beqz	a5,35ec <tick+0x4d8>
    3504:	0d042603          	lw	a2,208(s0)
    3508:	0cc42583          	lw	a1,204(s0)
    350c:	00ce8633          	add	a2,t4,a2
    3510:	01463793          	sltiu	a5,a2,20
    3514:	00b885b3          	add	a1,a7,a1
    3518:	0c078a63          	beqz	a5,35ec <tick+0x4d8>
    351c:	00a5b793          	sltiu	a5,a1,10
    3520:	0c078663          	beqz	a5,35ec <tick+0x4d8>
    3524:	00560513          	addi	a0,a2,5
    3528:	00251793          	slli	a5,a0,0x2
    352c:	00a787b3          	add	a5,a5,a0
    3530:	00261513          	slli	a0,a2,0x2
    3534:	00c50633          	add	a2,a0,a2
    3538:	0d444383          	lbu	t2,212(s0)
    353c:	00f58513          	addi	a0,a1,15
    3540:	00679793          	slli	a5,a5,0x6
    3544:	00161613          	slli	a2,a2,0x1
    3548:	00a787b3          	add	a5,a5,a0
    354c:	00c40633          	add	a2,s0,a2
    3550:	00379793          	slli	a5,a5,0x3
    3554:	00b60633          	add	a2,a2,a1
    3558:	00678813          	addi	a6,a5,6
    355c:	00760023          	sb	t2,0(a2)
    3560:	00000513          	li	a0,0
    3564:	da472583          	lw	a1,-604(a4) # 4da4 <VGA>
    3568:	00ae5633          	srl	a2,t3,a0
    356c:	00167613          	andi	a2,a2,1
    3570:	00f585b3          	add	a1,a1,a5
    3574:	00d58023          	sb	a3,0(a1)
    3578:	da472583          	lw	a1,-604(a4)
    357c:	00178b13          	addi	s6,a5,1
    3580:	00278a93          	addi	s5,a5,2
    3584:	00378a13          	addi	s4,a5,3
    3588:	00478993          	addi	s3,a5,4
    358c:	00578913          	addi	s2,a5,5
    3590:	54060663          	beqz	a2,3adc <tick+0x9c8>
    3594:	016585b3          	add	a1,a1,s6
    3598:	00d58023          	sb	a3,0(a1)
    359c:	da472603          	lw	a2,-604(a4)
    35a0:	00778b93          	addi	s7,a5,7
    35a4:	01560633          	add	a2,a2,s5
    35a8:	00d60023          	sb	a3,0(a2)
    35ac:	da472603          	lw	a2,-604(a4)
    35b0:	01460633          	add	a2,a2,s4
    35b4:	00d60023          	sb	a3,0(a2)
    35b8:	da472603          	lw	a2,-604(a4)
    35bc:	01360633          	add	a2,a2,s3
    35c0:	00d60023          	sb	a3,0(a2)
    35c4:	da472603          	lw	a2,-604(a4)
    35c8:	01260633          	add	a2,a2,s2
    35cc:	00d60023          	sb	a3,0(a2)
    35d0:	da472603          	lw	a2,-604(a4)
    35d4:	4e050263          	beqz	a0,3ab8 <tick+0x9a4>
    35d8:	01060633          	add	a2,a2,a6
    35dc:	00d60023          	sb	a3,0(a2)
    35e0:	da472603          	lw	a2,-604(a4)
    35e4:	00f607b3          	add	a5,a2,a5
    35e8:	00d783a3          	sb	a3,7(a5)
    35ec:	00188893          	addi	a7,a7,1
    35f0:	00430313          	addi	t1,t1,4
    35f4:	f1e894e3          	bne	a7,t5,34fc <tick+0x3e8>
    35f8:	001e8e93          	addi	t4,t4,1
    35fc:	01028293          	addi	t0,t0,16
    3600:	ef1e9ae3          	bne	t4,a7,34f4 <tick+0x3e0>
    3604:	0000b637          	lui	a2,0xb
    3608:	cd062703          	lw	a4,-816(a2) # acd0 <num_locked>
    360c:	12b00793          	li	a5,299
    3610:	04e7cc63          	blt	a5,a4,3668 <tick+0x554>
    3614:	00271693          	slli	a3,a4,0x2
    3618:	00e686b3          	add	a3,a3,a4
    361c:	000057b7          	lui	a5,0x5
    3620:	00469693          	slli	a3,a3,0x4
    3624:	00170713          	addi	a4,a4,1
    3628:	f1078793          	addi	a5,a5,-240 # 4f10 <locked_pieces>
    362c:	cce62823          	sw	a4,-816(a2)
    3630:	00d787b3          	add	a5,a5,a3
    3634:	00048713          	mv	a4,s1
    3638:	11840693          	addi	a3,s0,280
    363c:	00872603          	lw	a2,8(a4)
    3640:	00072503          	lw	a0,0(a4)
    3644:	00472583          	lw	a1,4(a4)
    3648:	00c7a423          	sw	a2,8(a5)
    364c:	00a7a023          	sw	a0,0(a5)
    3650:	00b7a223          	sw	a1,4(a5)
    3654:	00c72603          	lw	a2,12(a4)
    3658:	01070713          	addi	a4,a4,16
    365c:	01078793          	addi	a5,a5,16
    3660:	fec7ae23          	sw	a2,-4(a5)
    3664:	fcd71ce3          	bne	a4,a3,363c <tick+0x528>
    3668:	00003637          	lui	a2,0x3
    366c:	000035b7          	lui	a1,0x3
    3670:	000037b7          	lui	a5,0x3
    3674:	12840713          	addi	a4,s0,296
    3678:	20060613          	addi	a2,a2,512 # 3200 <tick+0xec>
    367c:	00003bb7          	lui	s7,0x3
    3680:	00003b37          	lui	s6,0x3
    3684:	00003ab7          	lui	s5,0x3
    3688:	00003a37          	lui	s4,0x3
    368c:	000039b7          	lui	s3,0x3
    3690:	00003937          	lui	s2,0x3
    3694:	00003cb7          	lui	s9,0x3
    3698:	00003d37          	lui	s10,0x3
    369c:	00003db7          	lui	s11,0x3
    36a0:	44558593          	addi	a1,a1,1093 # 3445 <tick+0x331>
    36a4:	44678793          	addi	a5,a5,1094 # 3446 <tick+0x332>
    36a8:	40cc0833          	sub	a6,s8,a2
    36ac:	00070693          	mv	a3,a4
    36b0:	304b8b93          	addi	s7,s7,772 # 3304 <tick+0x1f0>
    36b4:	305b0b13          	addi	s6,s6,773 # 3305 <tick+0x1f1>
    36b8:	306a8a93          	addi	s5,s5,774 # 3306 <tick+0x1f2>
    36bc:	307a0a13          	addi	s4,s4,775 # 3307 <tick+0x1f3>
    36c0:	30898993          	addi	s3,s3,776 # 3308 <tick+0x1f4>
    36c4:	30990913          	addi	s2,s2,777 # 3309 <tick+0x1f5>
    36c8:	30ac8c93          	addi	s9,s9,778 # 330a <tick+0x1f6>
    36cc:	30bd0d13          	addi	s10,s10,779 # 330b <tick+0x1f7>
    36d0:	444d8d93          	addi	s11,s11,1092 # 3444 <tick+0x330>
    36d4:	00b12823          	sw	a1,16(sp)
    36d8:	00f12a23          	sw	a5,20(sp)
    36dc:	00e12c23          	sw	a4,24(sp)
    36e0:	00912e23          	sw	s1,28(sp)
    36e4:	00040513          	mv	a0,s0
    36e8:	00003437          	lui	s0,0x3
    36ec:	00003c37          	lui	s8,0x3
    36f0:	000034b7          	lui	s1,0x3
    36f4:	44a40393          	addi	t2,s0,1098 # 344a <tick+0x336>
    36f8:	44b40293          	addi	t0,s0,1099
    36fc:	58440f93          	addi	t6,s0,1412
    3700:	58540f13          	addi	t5,s0,1413
    3704:	58640e93          	addi	t4,s0,1414
    3708:	58740e13          	addi	t3,s0,1415
    370c:	58840313          	addi	t1,s0,1416
    3710:	58940893          	addi	a7,s0,1417
    3714:	447c0c13          	addi	s8,s8,1095 # 3447 <tick+0x333>
    3718:	44848493          	addi	s1,s1,1096 # 3448 <tick+0x334>
    371c:	44940413          	addi	s0,s0,1097
    3720:	ff068713          	addi	a4,a3,-16
    3724:	010607b3          	add	a5,a2,a6
    3728:	00c12623          	sw	a2,12(sp)
    372c:	01072603          	lw	a2,16(a4)
    3730:	40061863          	bnez	a2,3b40 <tick+0xa2c>
    3734:	00470713          	addi	a4,a4,4
    3738:	00878793          	addi	a5,a5,8
    373c:	fee698e3          	bne	a3,a4,372c <tick+0x618>
    3740:	00c12603          	lw	a2,12(sp)
    3744:	000067b7          	lui	a5,0x6
    3748:	a0078793          	addi	a5,a5,-1536 # 5a00 <__global_pointer+0x45c>
    374c:	7ff60613          	addi	a2,a2,2047
    3750:	20160613          	addi	a2,a2,513
    3754:	01068693          	addi	a3,a3,16
    3758:	f8f618e3          	bne	a2,a5,36e8 <tick+0x5d4>
    375c:	01812703          	lw	a4,24(sp)
    3760:	01c12483          	lw	s1,28(sp)
    3764:	11850693          	addi	a3,a0,280
    3768:	00050413          	mv	s0,a0
    376c:	00068793          	mv	a5,a3
    3770:	16850613          	addi	a2,a0,360
    3774:	0087a583          	lw	a1,8(a5)
    3778:	0007a883          	lw	a7,0(a5)
    377c:	0047a503          	lw	a0,4(a5)
    3780:	00b4a423          	sw	a1,8(s1)
    3784:	0114a023          	sw	a7,0(s1)
    3788:	00a4a223          	sw	a0,4(s1)
    378c:	00c7a583          	lw	a1,12(a5)
    3790:	01078793          	addi	a5,a5,16
    3794:	01048493          	addi	s1,s1,16
    3798:	feb4ae23          	sw	a1,-4(s1)
    379c:	fcc79ce3          	bne	a5,a2,3774 <tick+0x660>
    37a0:	0000b8b7          	lui	a7,0xb
    37a4:	cd48a583          	lw	a1,-812(a7) # acd4 <seed>
    37a8:	24925637          	lui	a2,0x24925
    37ac:	92560613          	addi	a2,a2,-1755 # 24924925 <_stack_end+0x24819bc1>
    37b0:	00259793          	slli	a5,a1,0x2
    37b4:	00b787b3          	add	a5,a5,a1
    37b8:	00479513          	slli	a0,a5,0x4
    37bc:	40f50533          	sub	a0,a0,a5
    37c0:	0b350513          	addi	a0,a0,179
    37c4:	03f57513          	andi	a0,a0,63
    37c8:	0ff57593          	zext.b	a1,a0
    37cc:	02c5b633          	mulhu	a2,a1,a2
    37d0:	cca8aa23          	sw	a0,-812(a7)
    37d4:	000057b7          	lui	a5,0x5
    37d8:	b7478793          	addi	a5,a5,-1164 # 4b74 <pieces>
    37dc:	40c58533          	sub	a0,a1,a2
    37e0:	00155513          	srli	a0,a0,0x1
    37e4:	00a60633          	add	a2,a2,a0
    37e8:	00265613          	srli	a2,a2,0x2
    37ec:	00361513          	slli	a0,a2,0x3
    37f0:	40c50633          	sub	a2,a0,a2
    37f4:	40c58633          	sub	a2,a1,a2
    37f8:	0ff67613          	zext.b	a2,a2
    37fc:	00261593          	slli	a1,a2,0x2
    3800:	00c58633          	add	a2,a1,a2
    3804:	00461613          	slli	a2,a2,0x4
    3808:	00c787b3          	add	a5,a5,a2
    380c:	05078613          	addi	a2,a5,80
    3810:	0087a583          	lw	a1,8(a5)
    3814:	0007a883          	lw	a7,0(a5)
    3818:	0047a503          	lw	a0,4(a5)
    381c:	00b6a423          	sw	a1,8(a3)
    3820:	0116a023          	sw	a7,0(a3)
    3824:	00a6a223          	sw	a0,4(a3)
    3828:	00c7a583          	lw	a1,12(a5)
    382c:	01078793          	addi	a5,a5,16
    3830:	01068693          	addi	a3,a3,16
    3834:	feb6ae23          	sw	a1,-4(a3)
    3838:	fcc79ce3          	bne	a5,a2,3810 <tick+0x6fc>
    383c:	00300793          	li	a5,3
    3840:	0cf42623          	sw	a5,204(s0)
    3844:	00003537          	lui	a0,0x3
    3848:	000035b7          	lui	a1,0x3
    384c:	000036b7          	lui	a3,0x3
    3850:	000037b7          	lui	a5,0x3
    3854:	00003637          	lui	a2,0x3
    3858:	00003db7          	lui	s11,0x3
    385c:	00003d37          	lui	s10,0x3
    3860:	00003cb7          	lui	s9,0x3
    3864:	00003c37          	lui	s8,0x3
    3868:	00003bb7          	lui	s7,0x3
    386c:	00003b37          	lui	s6,0x3
    3870:	00003ab7          	lui	s5,0x3
    3874:	30b50513          	addi	a0,a0,779 # 330b <tick+0x1f7>
    3878:	44458593          	addi	a1,a1,1092 # 3444 <tick+0x330>
    387c:	44568693          	addi	a3,a3,1093 # 3445 <tick+0x331>
    3880:	44678793          	addi	a5,a5,1094 # 3446 <tick+0x332>
    3884:	0c042823          	sw	zero,208(s0)
    3888:	20060613          	addi	a2,a2,512 # 3200 <tick+0xec>
    388c:	304d8d93          	addi	s11,s11,772 # 3304 <tick+0x1f0>
    3890:	305d0d13          	addi	s10,s10,773 # 3305 <tick+0x1f1>
    3894:	306c8c93          	addi	s9,s9,774 # 3306 <tick+0x1f2>
    3898:	307c0c13          	addi	s8,s8,775 # 3307 <tick+0x1f3>
    389c:	308b8b93          	addi	s7,s7,776 # 3308 <tick+0x1f4>
    38a0:	309b0b13          	addi	s6,s6,777 # 3309 <tick+0x1f5>
    38a4:	30aa8a93          	addi	s5,s5,778 # 330a <tick+0x1f6>
    38a8:	00a12623          	sw	a0,12(sp)
    38ac:	00b12823          	sw	a1,16(sp)
    38b0:	00d12a23          	sw	a3,20(sp)
    38b4:	00f12c23          	sw	a5,24(sp)
    38b8:	00003937          	lui	s2,0x3
    38bc:	000034b7          	lui	s1,0x3
    38c0:	000033b7          	lui	t2,0x3
    38c4:	000032b7          	lui	t0,0x3
    38c8:	00003fb7          	lui	t6,0x3
    38cc:	00003f37          	lui	t5,0x3
    38d0:	00003eb7          	lui	t4,0x3
    38d4:	00003e37          	lui	t3,0x3
    38d8:	00003337          	lui	t1,0x3
    38dc:	000038b7          	lui	a7,0x3
    38e0:	00003537          	lui	a0,0x3
    38e4:	44790913          	addi	s2,s2,1095 # 3447 <tick+0x333>
    38e8:	44848493          	addi	s1,s1,1096 # 3448 <tick+0x334>
    38ec:	44938393          	addi	t2,t2,1097 # 3449 <tick+0x335>
    38f0:	44a28293          	addi	t0,t0,1098 # 344a <tick+0x336>
    38f4:	44bf8f93          	addi	t6,t6,1099 # 344b <tick+0x337>
    38f8:	584f0f13          	addi	t5,t5,1412 # 3584 <tick+0x470>
    38fc:	585e8e93          	addi	t4,t4,1413 # 3585 <tick+0x471>
    3900:	586e0e13          	addi	t3,t3,1414 # 3586 <tick+0x472>
    3904:	58730313          	addi	t1,t1,1415 # 3587 <tick+0x473>
    3908:	58888893          	addi	a7,a7,1416 # 3588 <tick+0x474>
    390c:	58950513          	addi	a0,a0,1417 # 3589 <tick+0x475>
    3910:	ff070693          	addi	a3,a4,-16
    3914:	010607b3          	add	a5,a2,a6
    3918:	0106a583          	lw	a1,16(a3)
    391c:	6c059263          	bnez	a1,3fe0 <tick+0xecc>
    3920:	00468693          	addi	a3,a3,4
    3924:	00878793          	addi	a5,a5,8
    3928:	fed718e3          	bne	a4,a3,3918 <tick+0x804>
    392c:	7ff60613          	addi	a2,a2,2047
    3930:	000067b7          	lui	a5,0x6
    3934:	20160613          	addi	a2,a2,513
    3938:	a0078793          	addi	a5,a5,-1536 # 5a00 <__global_pointer+0x45c>
    393c:	01070713          	addi	a4,a4,16
    3940:	f6f61ce3          	bne	a2,a5,38b8 <tick+0x7a4>
    3944:	06c12083          	lw	ra,108(sp)
    3948:	06812403          	lw	s0,104(sp)
    394c:	05c12983          	lw	s3,92(sp)
    3950:	05812a03          	lw	s4,88(sp)
    3954:	05412a83          	lw	s5,84(sp)
    3958:	05012b03          	lw	s6,80(sp)
    395c:	04c12b83          	lw	s7,76(sp)
    3960:	04412c83          	lw	s9,68(sp)
    3964:	04012d03          	lw	s10,64(sp)
    3968:	03c12d83          	lw	s11,60(sp)
    396c:	06412483          	lw	s1,100(sp)
    3970:	06012903          	lw	s2,96(sp)
    3974:	04812c03          	lw	s8,72(sp)
    3978:	07010113          	addi	sp,sp,112
    397c:	00008067          	ret
    3980:	10442703          	lw	a4,260(s0)
    3984:	94070ae3          	beqz	a4,32d8 <tick+0x1c4>
    3988:	00360593          	addi	a1,a2,3
    398c:	01300713          	li	a4,19
    3990:	b2b744e3          	blt	a4,a1,34b8 <tick+0x3a4>
    3994:	00259713          	slli	a4,a1,0x2
    3998:	925ff06f          	j	32bc <tick+0x1a8>
    399c:	11442703          	lw	a4,276(s0)
    39a0:	9c070ae3          	beqz	a4,3374 <tick+0x260>
    39a4:	00460593          	addi	a1,a2,4
    39a8:	01300713          	li	a4,19
    39ac:	b0b746e3          	blt	a4,a1,34b8 <tick+0x3a4>
    39b0:	00259713          	slli	a4,a1,0x2
    39b4:	00378793          	addi	a5,a5,3
    39b8:	00b70733          	add	a4,a4,a1
    39bc:	00171713          	slli	a4,a4,0x1
    39c0:	00e40733          	add	a4,s0,a4
    39c4:	00f707b3          	add	a5,a4,a5
    39c8:	0007c783          	lbu	a5,0(a5)
    39cc:	9a0784e3          	beqz	a5,3374 <tick+0x260>
    39d0:	ae9ff06f          	j	34b8 <tick+0x3a4>
    39d4:	00580023          	sb	t0,0(a6)
    39d8:	da472503          	lw	a0,-604(a4)
    39dc:	00078813          	mv	a6,a5
    39e0:	00f50533          	add	a0,a0,a5
    39e4:	14550123          	sb	t0,322(a0)
    39e8:	da472503          	lw	a0,-604(a4)
    39ec:	00f507b3          	add	a5,a0,a5
    39f0:	145781a3          	sb	t0,323(a5)
    39f4:	da472503          	lw	a0,-604(a4)
    39f8:	00060793          	mv	a5,a2
    39fc:	01050633          	add	a2,a0,a6
    3a00:	14560223          	sb	t0,324(a2)
    3a04:	da472603          	lw	a2,-604(a4)
    3a08:	01060633          	add	a2,a2,a6
    3a0c:	145602a3          	sb	t0,325(a2)
    3a10:	da472603          	lw	a2,-604(a4)
    3a14:	01160633          	add	a2,a2,a7
    3a18:	00560023          	sb	t0,0(a2)
    3a1c:	da472503          	lw	a0,-604(a4)
    3a20:	14078613          	addi	a2,a5,320
    3a24:	00158593          	addi	a1,a1,1
    3a28:	00f50533          	add	a0,a0,a5
    3a2c:	00d503a3          	sb	a3,7(a0)
    3a30:	da472803          	lw	a6,-604(a4)
    3a34:	14178513          	addi	a0,a5,321
    3a38:	14088893          	addi	a7,a7,320
    3a3c:	00c80833          	add	a6,a6,a2
    3a40:	00d80023          	sb	a3,0(a6)
    3a44:	da472803          	lw	a6,-604(a4)
    3a48:	00a80833          	add	a6,a6,a0
    3a4c:	f9d594e3          	bne	a1,t4,39d4 <tick+0x8c0>
    3a50:	00d80023          	sb	a3,0(a6)
    3a54:	00060793          	mv	a5,a2
    3a58:	9adff06f          	j	3404 <tick+0x2f0>
    3a5c:	0ec42703          	lw	a4,236(s0)
    3a60:	48070a63          	beqz	a4,3ef4 <tick+0xde0>
    3a64:	00260593          	addi	a1,a2,2
    3a68:	01300713          	li	a4,19
    3a6c:	a4b746e3          	blt	a4,a1,34b8 <tick+0x3a4>
    3a70:	00178513          	addi	a0,a5,1
    3a74:	00259713          	slli	a4,a1,0x2
    3a78:	00b706b3          	add	a3,a4,a1
    3a7c:	00169693          	slli	a3,a3,0x1
    3a80:	00d406b3          	add	a3,s0,a3
    3a84:	00a686b3          	add	a3,a3,a0
    3a88:	0006c683          	lbu	a3,0(a3)
    3a8c:	a20696e3          	bnez	a3,34b8 <tick+0x3a4>
    3a90:	0f042683          	lw	a3,240(s0)
    3a94:	46068463          	beqz	a3,3efc <tick+0xde8>
    3a98:	00b706b3          	add	a3,a4,a1
    3a9c:	00169693          	slli	a3,a3,0x1
    3aa0:	00278513          	addi	a0,a5,2
    3aa4:	00d406b3          	add	a3,s0,a3
    3aa8:	00a686b3          	add	a3,a3,a0
    3aac:	0006c683          	lbu	a3,0(a3)
    3ab0:	f6068463          	beqz	a3,3218 <tick+0x104>
    3ab4:	a05ff06f          	j	34b8 <tick+0x3a4>
    3ab8:	01060633          	add	a2,a2,a6
    3abc:	00d60023          	sb	a3,0(a2)
    3ac0:	da472603          	lw	a2,-604(a4)
    3ac4:	14078793          	addi	a5,a5,320
    3ac8:	14080813          	addi	a6,a6,320
    3acc:	01760633          	add	a2,a2,s7
    3ad0:	00100513          	li	a0,1
    3ad4:	00d60023          	sb	a3,0(a2)
    3ad8:	a8dff06f          	j	3564 <tick+0x450>
    3adc:	00f585b3          	add	a1,a1,a5
    3ae0:	007580a3          	sb	t2,1(a1)
    3ae4:	da472603          	lw	a2,-604(a4)
    3ae8:	00150513          	addi	a0,a0,1
    3aec:	00f60633          	add	a2,a2,a5
    3af0:	00760123          	sb	t2,2(a2)
    3af4:	da472603          	lw	a2,-604(a4)
    3af8:	00f60633          	add	a2,a2,a5
    3afc:	007601a3          	sb	t2,3(a2)
    3b00:	da472603          	lw	a2,-604(a4)
    3b04:	00f60633          	add	a2,a2,a5
    3b08:	00760223          	sb	t2,4(a2)
    3b0c:	da472603          	lw	a2,-604(a4)
    3b10:	00f60633          	add	a2,a2,a5
    3b14:	007602a3          	sb	t2,5(a2)
    3b18:	da472603          	lw	a2,-604(a4)
    3b1c:	01060633          	add	a2,a2,a6
    3b20:	00760023          	sb	t2,0(a2)
    3b24:	da472603          	lw	a2,-604(a4)
    3b28:	14080813          	addi	a6,a6,320
    3b2c:	00f60633          	add	a2,a2,a5
    3b30:	00d603a3          	sb	a3,7(a2)
    3b34:	14078793          	addi	a5,a5,320
    3b38:	a3f516e3          	bne	a0,t6,3564 <tick+0x450>
    3b3c:	ab1ff06f          	j	35ec <tick+0x4d8>
    3b40:	01778633          	add	a2,a5,s7
    3b44:	00060023          	sb	zero,0(a2)
    3b48:	01678633          	add	a2,a5,s6
    3b4c:	00060023          	sb	zero,0(a2)
    3b50:	01578633          	add	a2,a5,s5
    3b54:	00060023          	sb	zero,0(a2)
    3b58:	01478633          	add	a2,a5,s4
    3b5c:	00060023          	sb	zero,0(a2)
    3b60:	01378633          	add	a2,a5,s3
    3b64:	00060023          	sb	zero,0(a2)
    3b68:	01278633          	add	a2,a5,s2
    3b6c:	00060023          	sb	zero,0(a2)
    3b70:	01978633          	add	a2,a5,s9
    3b74:	00060023          	sb	zero,0(a2)
    3b78:	01a78633          	add	a2,a5,s10
    3b7c:	00060023          	sb	zero,0(a2)
    3b80:	01b78633          	add	a2,a5,s11
    3b84:	00060023          	sb	zero,0(a2)
    3b88:	01012603          	lw	a2,16(sp)
    3b8c:	000035b7          	lui	a1,0x3
    3b90:	58a58593          	addi	a1,a1,1418 # 358a <tick+0x476>
    3b94:	00c78633          	add	a2,a5,a2
    3b98:	00060023          	sb	zero,0(a2)
    3b9c:	01412603          	lw	a2,20(sp)
    3ba0:	00b785b3          	add	a1,a5,a1
    3ba4:	00c78633          	add	a2,a5,a2
    3ba8:	00060023          	sb	zero,0(a2)
    3bac:	01878633          	add	a2,a5,s8
    3bb0:	00060023          	sb	zero,0(a2)
    3bb4:	00978633          	add	a2,a5,s1
    3bb8:	00060023          	sb	zero,0(a2)
    3bbc:	00878633          	add	a2,a5,s0
    3bc0:	00060023          	sb	zero,0(a2)
    3bc4:	00778633          	add	a2,a5,t2
    3bc8:	00060023          	sb	zero,0(a2)
    3bcc:	00578633          	add	a2,a5,t0
    3bd0:	00060023          	sb	zero,0(a2)
    3bd4:	01f78633          	add	a2,a5,t6
    3bd8:	00060023          	sb	zero,0(a2)
    3bdc:	01e78633          	add	a2,a5,t5
    3be0:	00060023          	sb	zero,0(a2)
    3be4:	01d78633          	add	a2,a5,t4
    3be8:	00060023          	sb	zero,0(a2)
    3bec:	01c78633          	add	a2,a5,t3
    3bf0:	00060023          	sb	zero,0(a2)
    3bf4:	00678633          	add	a2,a5,t1
    3bf8:	00060023          	sb	zero,0(a2)
    3bfc:	01178633          	add	a2,a5,a7
    3c00:	00060023          	sb	zero,0(a2)
    3c04:	00003637          	lui	a2,0x3
    3c08:	58b60613          	addi	a2,a2,1419 # 358b <tick+0x477>
    3c0c:	00058023          	sb	zero,0(a1)
    3c10:	00c78633          	add	a2,a5,a2
    3c14:	000035b7          	lui	a1,0x3
    3c18:	00060023          	sb	zero,0(a2)
    3c1c:	6c458593          	addi	a1,a1,1732 # 36c4 <tick+0x5b0>
    3c20:	00003637          	lui	a2,0x3
    3c24:	00b785b3          	add	a1,a5,a1
    3c28:	6c560613          	addi	a2,a2,1733 # 36c5 <tick+0x5b1>
    3c2c:	00058023          	sb	zero,0(a1)
    3c30:	00c78633          	add	a2,a5,a2
    3c34:	000035b7          	lui	a1,0x3
    3c38:	00060023          	sb	zero,0(a2)
    3c3c:	6c658593          	addi	a1,a1,1734 # 36c6 <tick+0x5b2>
    3c40:	00003637          	lui	a2,0x3
    3c44:	00b785b3          	add	a1,a5,a1
    3c48:	6c760613          	addi	a2,a2,1735 # 36c7 <tick+0x5b3>
    3c4c:	00058023          	sb	zero,0(a1)
    3c50:	00c78633          	add	a2,a5,a2
    3c54:	000035b7          	lui	a1,0x3
    3c58:	00060023          	sb	zero,0(a2)
    3c5c:	6c858593          	addi	a1,a1,1736 # 36c8 <tick+0x5b4>
    3c60:	00003637          	lui	a2,0x3
    3c64:	00b785b3          	add	a1,a5,a1
    3c68:	6c960613          	addi	a2,a2,1737 # 36c9 <tick+0x5b5>
    3c6c:	00058023          	sb	zero,0(a1)
    3c70:	00c78633          	add	a2,a5,a2
    3c74:	000035b7          	lui	a1,0x3
    3c78:	00060023          	sb	zero,0(a2)
    3c7c:	6ca58593          	addi	a1,a1,1738 # 36ca <tick+0x5b6>
    3c80:	00003637          	lui	a2,0x3
    3c84:	00b785b3          	add	a1,a5,a1
    3c88:	6cb60613          	addi	a2,a2,1739 # 36cb <tick+0x5b7>
    3c8c:	00058023          	sb	zero,0(a1)
    3c90:	00c78633          	add	a2,a5,a2
    3c94:	000045b7          	lui	a1,0x4
    3c98:	00060023          	sb	zero,0(a2)
    3c9c:	80458593          	addi	a1,a1,-2044 # 3804 <tick+0x6f0>
    3ca0:	00004637          	lui	a2,0x4
    3ca4:	00b785b3          	add	a1,a5,a1
    3ca8:	80560613          	addi	a2,a2,-2043 # 3805 <tick+0x6f1>
    3cac:	00058023          	sb	zero,0(a1)
    3cb0:	00c78633          	add	a2,a5,a2
    3cb4:	000045b7          	lui	a1,0x4
    3cb8:	00060023          	sb	zero,0(a2)
    3cbc:	80658593          	addi	a1,a1,-2042 # 3806 <tick+0x6f2>
    3cc0:	00004637          	lui	a2,0x4
    3cc4:	00b785b3          	add	a1,a5,a1
    3cc8:	80760613          	addi	a2,a2,-2041 # 3807 <tick+0x6f3>
    3ccc:	00058023          	sb	zero,0(a1)
    3cd0:	00c78633          	add	a2,a5,a2
    3cd4:	000045b7          	lui	a1,0x4
    3cd8:	00060023          	sb	zero,0(a2)
    3cdc:	80858593          	addi	a1,a1,-2040 # 3808 <tick+0x6f4>
    3ce0:	00004637          	lui	a2,0x4
    3ce4:	00b785b3          	add	a1,a5,a1
    3ce8:	80960613          	addi	a2,a2,-2039 # 3809 <tick+0x6f5>
    3cec:	00058023          	sb	zero,0(a1)
    3cf0:	00c78633          	add	a2,a5,a2
    3cf4:	000045b7          	lui	a1,0x4
    3cf8:	00060023          	sb	zero,0(a2)
    3cfc:	80a58593          	addi	a1,a1,-2038 # 380a <tick+0x6f6>
    3d00:	00004637          	lui	a2,0x4
    3d04:	00b785b3          	add	a1,a5,a1
    3d08:	80b60613          	addi	a2,a2,-2037 # 380b <tick+0x6f7>
    3d0c:	00058023          	sb	zero,0(a1)
    3d10:	00c78633          	add	a2,a5,a2
    3d14:	000045b7          	lui	a1,0x4
    3d18:	00060023          	sb	zero,0(a2)
    3d1c:	94458593          	addi	a1,a1,-1724 # 3944 <tick+0x830>
    3d20:	00004637          	lui	a2,0x4
    3d24:	00b785b3          	add	a1,a5,a1
    3d28:	94560613          	addi	a2,a2,-1723 # 3945 <tick+0x831>
    3d2c:	00058023          	sb	zero,0(a1)
    3d30:	00c78633          	add	a2,a5,a2
    3d34:	000045b7          	lui	a1,0x4
    3d38:	00060023          	sb	zero,0(a2)
    3d3c:	94658593          	addi	a1,a1,-1722 # 3946 <tick+0x832>
    3d40:	00004637          	lui	a2,0x4
    3d44:	00b785b3          	add	a1,a5,a1
    3d48:	94760613          	addi	a2,a2,-1721 # 3947 <tick+0x833>
    3d4c:	00058023          	sb	zero,0(a1)
    3d50:	00c78633          	add	a2,a5,a2
    3d54:	000045b7          	lui	a1,0x4
    3d58:	00060023          	sb	zero,0(a2)
    3d5c:	94858593          	addi	a1,a1,-1720 # 3948 <tick+0x834>
    3d60:	00004637          	lui	a2,0x4
    3d64:	00b785b3          	add	a1,a5,a1
    3d68:	94960613          	addi	a2,a2,-1719 # 3949 <tick+0x835>
    3d6c:	00058023          	sb	zero,0(a1)
    3d70:	00c78633          	add	a2,a5,a2
    3d74:	000045b7          	lui	a1,0x4
    3d78:	00060023          	sb	zero,0(a2)
    3d7c:	94a58593          	addi	a1,a1,-1718 # 394a <tick+0x836>
    3d80:	00004637          	lui	a2,0x4
    3d84:	00b785b3          	add	a1,a5,a1
    3d88:	94b60613          	addi	a2,a2,-1717 # 394b <tick+0x837>
    3d8c:	00058023          	sb	zero,0(a1)
    3d90:	00c78633          	add	a2,a5,a2
    3d94:	000045b7          	lui	a1,0x4
    3d98:	00060023          	sb	zero,0(a2)
    3d9c:	a8458593          	addi	a1,a1,-1404 # 3a84 <tick+0x970>
    3da0:	00004637          	lui	a2,0x4
    3da4:	00b785b3          	add	a1,a5,a1
    3da8:	a8560613          	addi	a2,a2,-1403 # 3a85 <tick+0x971>
    3dac:	00058023          	sb	zero,0(a1)
    3db0:	00c78633          	add	a2,a5,a2
    3db4:	000045b7          	lui	a1,0x4
    3db8:	00060023          	sb	zero,0(a2)
    3dbc:	a8658593          	addi	a1,a1,-1402 # 3a86 <tick+0x972>
    3dc0:	00004637          	lui	a2,0x4
    3dc4:	00b785b3          	add	a1,a5,a1
    3dc8:	a8760613          	addi	a2,a2,-1401 # 3a87 <tick+0x973>
    3dcc:	00058023          	sb	zero,0(a1)
    3dd0:	00c78633          	add	a2,a5,a2
    3dd4:	000045b7          	lui	a1,0x4
    3dd8:	00060023          	sb	zero,0(a2)
    3ddc:	a8858593          	addi	a1,a1,-1400 # 3a88 <tick+0x974>
    3de0:	00004637          	lui	a2,0x4
    3de4:	00b785b3          	add	a1,a5,a1
    3de8:	a8960613          	addi	a2,a2,-1399 # 3a89 <tick+0x975>
    3dec:	00058023          	sb	zero,0(a1)
    3df0:	00c78633          	add	a2,a5,a2
    3df4:	000045b7          	lui	a1,0x4
    3df8:	00060023          	sb	zero,0(a2)
    3dfc:	a8a58593          	addi	a1,a1,-1398 # 3a8a <tick+0x976>
    3e00:	00004637          	lui	a2,0x4
    3e04:	00b785b3          	add	a1,a5,a1
    3e08:	a8b60613          	addi	a2,a2,-1397 # 3a8b <tick+0x977>
    3e0c:	00058023          	sb	zero,0(a1)
    3e10:	00c78633          	add	a2,a5,a2
    3e14:	000045b7          	lui	a1,0x4
    3e18:	00060023          	sb	zero,0(a2)
    3e1c:	bc458593          	addi	a1,a1,-1084 # 3bc4 <tick+0xab0>
    3e20:	00004637          	lui	a2,0x4
    3e24:	00b785b3          	add	a1,a5,a1
    3e28:	bc560613          	addi	a2,a2,-1083 # 3bc5 <tick+0xab1>
    3e2c:	00058023          	sb	zero,0(a1)
    3e30:	00c78633          	add	a2,a5,a2
    3e34:	000045b7          	lui	a1,0x4
    3e38:	00060023          	sb	zero,0(a2)
    3e3c:	bc658593          	addi	a1,a1,-1082 # 3bc6 <tick+0xab2>
    3e40:	00004637          	lui	a2,0x4
    3e44:	00b785b3          	add	a1,a5,a1
    3e48:	bc760613          	addi	a2,a2,-1081 # 3bc7 <tick+0xab3>
    3e4c:	00058023          	sb	zero,0(a1)
    3e50:	00c78633          	add	a2,a5,a2
    3e54:	000045b7          	lui	a1,0x4
    3e58:	00060023          	sb	zero,0(a2)
    3e5c:	bc858593          	addi	a1,a1,-1080 # 3bc8 <tick+0xab4>
    3e60:	00004637          	lui	a2,0x4
    3e64:	00b785b3          	add	a1,a5,a1
    3e68:	bc960613          	addi	a2,a2,-1079 # 3bc9 <tick+0xab5>
    3e6c:	00058023          	sb	zero,0(a1)
    3e70:	00c78633          	add	a2,a5,a2
    3e74:	000045b7          	lui	a1,0x4
    3e78:	00060023          	sb	zero,0(a2)
    3e7c:	bca58593          	addi	a1,a1,-1078 # 3bca <tick+0xab6>
    3e80:	00004637          	lui	a2,0x4
    3e84:	00b785b3          	add	a1,a5,a1
    3e88:	bcb60613          	addi	a2,a2,-1077 # 3bcb <tick+0xab7>
    3e8c:	00058023          	sb	zero,0(a1)
    3e90:	00c78633          	add	a2,a5,a2
    3e94:	00060023          	sb	zero,0(a2)
    3e98:	89dff06f          	j	3734 <tick+0x620>
    3e9c:	0dc42703          	lw	a4,220(s0)
    3ea0:	de070263          	beqz	a4,3484 <tick+0x370>
    3ea4:	00160593          	addi	a1,a2,1
    3ea8:	01300713          	li	a4,19
    3eac:	e0b74663          	blt	a4,a1,34b8 <tick+0x3a4>
    3eb0:	00178513          	addi	a0,a5,1
    3eb4:	00259713          	slli	a4,a1,0x2
    3eb8:	00b706b3          	add	a3,a4,a1
    3ebc:	00169693          	slli	a3,a3,0x1
    3ec0:	00d406b3          	add	a3,s0,a3
    3ec4:	00a686b3          	add	a3,a3,a0
    3ec8:	0006c683          	lbu	a3,0(a3)
    3ecc:	de069663          	bnez	a3,34b8 <tick+0x3a4>
    3ed0:	0e042683          	lw	a3,224(s0)
    3ed4:	dc069463          	bnez	a3,349c <tick+0x388>
    3ed8:	0e442703          	lw	a4,228(s0)
    3edc:	ae070c63          	beqz	a4,31d4 <tick+0xc0>
    3ee0:	00160593          	addi	a1,a2,1
    3ee4:	01300713          	li	a4,19
    3ee8:	dcb74863          	blt	a4,a1,34b8 <tick+0x3a4>
    3eec:	00259713          	slli	a4,a1,0x2
    3ef0:	ac8ff06f          	j	31b8 <tick+0xa4>
    3ef4:	0f042703          	lw	a4,240(s0)
    3ef8:	0c071a63          	bnez	a4,3fcc <tick+0xeb8>
    3efc:	0f442703          	lw	a4,244(s0)
    3f00:	b2070e63          	beqz	a4,323c <tick+0x128>
    3f04:	00260593          	addi	a1,a2,2
    3f08:	01300713          	li	a4,19
    3f0c:	dab74663          	blt	a4,a1,34b8 <tick+0x3a4>
    3f10:	00259713          	slli	a4,a1,0x2
    3f14:	b0cff06f          	j	3220 <tick+0x10c>
    3f18:	0fc42703          	lw	a4,252(s0)
    3f1c:	04071e63          	bnez	a4,3f78 <tick+0xe64>
    3f20:	10042703          	lw	a4,256(s0)
    3f24:	a4070ee3          	beqz	a4,3980 <tick+0x86c>
    3f28:	00360593          	addi	a1,a2,3
    3f2c:	01300713          	li	a4,19
    3f30:	d8b74463          	blt	a4,a1,34b8 <tick+0x3a4>
    3f34:	00259713          	slli	a4,a1,0x2
    3f38:	b60ff06f          	j	3298 <tick+0x184>
    3f3c:	10c42703          	lw	a4,268(s0)
    3f40:	04071e63          	bnez	a4,3f9c <tick+0xe88>
    3f44:	11042703          	lw	a4,272(s0)
    3f48:	a4070ae3          	beqz	a4,399c <tick+0x888>
    3f4c:	00460593          	addi	a1,a2,4
    3f50:	01300713          	li	a4,19
    3f54:	d6b74263          	blt	a4,a1,34b8 <tick+0x3a4>
    3f58:	00259713          	slli	a4,a1,0x2
    3f5c:	00278513          	addi	a0,a5,2
    3f60:	bd8ff06f          	j	3338 <tick+0x224>
    3f64:	da840413          	addi	s0,s0,-600
    3f68:	0c840493          	addi	s1,s0,200
    3f6c:	00048513          	mv	a0,s1
    3f70:	e70fe0ef          	jal	25e0 <move_piece>
    3f74:	9e8ff06f          	j	315c <tick+0x48>
    3f78:	00360593          	addi	a1,a2,3
    3f7c:	01300713          	li	a4,19
    3f80:	d2b74c63          	blt	a4,a1,34b8 <tick+0x3a4>
    3f84:	00178513          	addi	a0,a5,1
    3f88:	00259713          	slli	a4,a1,0x2
    3f8c:	aecff06f          	j	3278 <tick+0x164>
    3f90:	10042683          	lw	a3,256(s0)
    3f94:	b0069263          	bnez	a3,3298 <tick+0x184>
    3f98:	b1cff06f          	j	32b4 <tick+0x1a0>
    3f9c:	00460593          	addi	a1,a2,4
    3fa0:	01300713          	li	a4,19
    3fa4:	d0b74a63          	blt	a4,a1,34b8 <tick+0x3a4>
    3fa8:	00178513          	addi	a0,a5,1
    3fac:	00259713          	slli	a4,a1,0x2
    3fb0:	b64ff06f          	j	3314 <tick+0x200>
    3fb4:	11042683          	lw	a3,272(s0)
    3fb8:	fa0692e3          	bnez	a3,3f5c <tick+0xe48>
    3fbc:	11442683          	lw	a3,276(s0)
    3fc0:	ba068a63          	beqz	a3,3374 <tick+0x260>
    3fc4:	00378793          	addi	a5,a5,3
    3fc8:	9f1ff06f          	j	39b8 <tick+0x8a4>
    3fcc:	00260593          	addi	a1,a2,2
    3fd0:	01300713          	li	a4,19
    3fd4:	ceb74263          	blt	a4,a1,34b8 <tick+0x3a4>
    3fd8:	00259713          	slli	a4,a1,0x2
    3fdc:	abdff06f          	j	3a98 <tick+0x984>
    3fe0:	12444983          	lbu	s3,292(s0)
    3fe4:	01b78a33          	add	s4,a5,s11
    3fe8:	01a785b3          	add	a1,a5,s10
    3fec:	013a0023          	sb	s3,0(s4)
    3ff0:	01358023          	sb	s3,0(a1)
    3ff4:	12444983          	lbu	s3,292(s0)
    3ff8:	01978a33          	add	s4,a5,s9
    3ffc:	018785b3          	add	a1,a5,s8
    4000:	013a0023          	sb	s3,0(s4)
    4004:	01358023          	sb	s3,0(a1)
    4008:	12444983          	lbu	s3,292(s0)
    400c:	01778a33          	add	s4,a5,s7
    4010:	016785b3          	add	a1,a5,s6
    4014:	013a0023          	sb	s3,0(s4)
    4018:	01358023          	sb	s3,0(a1)
    401c:	12444983          	lbu	s3,292(s0)
    4020:	00c12583          	lw	a1,12(sp)
    4024:	01578a33          	add	s4,a5,s5
    4028:	013a0023          	sb	s3,0(s4)
    402c:	00b785b3          	add	a1,a5,a1
    4030:	01358023          	sb	s3,0(a1)
    4034:	01012583          	lw	a1,16(sp)
    4038:	12444983          	lbu	s3,292(s0)
    403c:	00b78a33          	add	s4,a5,a1
    4040:	01412583          	lw	a1,20(sp)
    4044:	013a0023          	sb	s3,0(s4)
    4048:	00b785b3          	add	a1,a5,a1
    404c:	01358023          	sb	s3,0(a1)
    4050:	01812583          	lw	a1,24(sp)
    4054:	12444983          	lbu	s3,292(s0)
    4058:	00b78a33          	add	s4,a5,a1
    405c:	013a0023          	sb	s3,0(s4)
    4060:	012785b3          	add	a1,a5,s2
    4064:	01358023          	sb	s3,0(a1)
    4068:	12444983          	lbu	s3,292(s0)
    406c:	00978a33          	add	s4,a5,s1
    4070:	007785b3          	add	a1,a5,t2
    4074:	013a0023          	sb	s3,0(s4)
    4078:	01358023          	sb	s3,0(a1)
    407c:	12444983          	lbu	s3,292(s0)
    4080:	00578a33          	add	s4,a5,t0
    4084:	01f785b3          	add	a1,a5,t6
    4088:	013a0023          	sb	s3,0(s4)
    408c:	01358023          	sb	s3,0(a1)
    4090:	12444983          	lbu	s3,292(s0)
    4094:	01e78a33          	add	s4,a5,t5
    4098:	01d785b3          	add	a1,a5,t4
    409c:	013a0023          	sb	s3,0(s4)
    40a0:	01358023          	sb	s3,0(a1)
    40a4:	12444983          	lbu	s3,292(s0)
    40a8:	01c78a33          	add	s4,a5,t3
    40ac:	006785b3          	add	a1,a5,t1
    40b0:	013a0023          	sb	s3,0(s4)
    40b4:	01358023          	sb	s3,0(a1)
    40b8:	12444983          	lbu	s3,292(s0)
    40bc:	01178a33          	add	s4,a5,a7
    40c0:	00a785b3          	add	a1,a5,a0
    40c4:	013a0023          	sb	s3,0(s4)
    40c8:	01358023          	sb	s3,0(a1)
    40cc:	12444983          	lbu	s3,292(s0)
    40d0:	000035b7          	lui	a1,0x3
    40d4:	58a58593          	addi	a1,a1,1418 # 358a <tick+0x476>
    40d8:	00b785b3          	add	a1,a5,a1
    40dc:	01358023          	sb	s3,0(a1)
    40e0:	000035b7          	lui	a1,0x3
    40e4:	58b58593          	addi	a1,a1,1419 # 358b <tick+0x477>
    40e8:	00b785b3          	add	a1,a5,a1
    40ec:	01358023          	sb	s3,0(a1)
    40f0:	12444983          	lbu	s3,292(s0)
    40f4:	000035b7          	lui	a1,0x3
    40f8:	6c458593          	addi	a1,a1,1732 # 36c4 <tick+0x5b0>
    40fc:	00b785b3          	add	a1,a5,a1
    4100:	01358023          	sb	s3,0(a1)
    4104:	000035b7          	lui	a1,0x3
    4108:	6c558593          	addi	a1,a1,1733 # 36c5 <tick+0x5b1>
    410c:	00b785b3          	add	a1,a5,a1
    4110:	01358023          	sb	s3,0(a1)
    4114:	12444983          	lbu	s3,292(s0)
    4118:	000035b7          	lui	a1,0x3
    411c:	6c658593          	addi	a1,a1,1734 # 36c6 <tick+0x5b2>
    4120:	00b785b3          	add	a1,a5,a1
    4124:	01358023          	sb	s3,0(a1)
    4128:	000035b7          	lui	a1,0x3
    412c:	6c758593          	addi	a1,a1,1735 # 36c7 <tick+0x5b3>
    4130:	00b785b3          	add	a1,a5,a1
    4134:	01358023          	sb	s3,0(a1)
    4138:	12444983          	lbu	s3,292(s0)
    413c:	000035b7          	lui	a1,0x3
    4140:	6c858593          	addi	a1,a1,1736 # 36c8 <tick+0x5b4>
    4144:	00b785b3          	add	a1,a5,a1
    4148:	01358023          	sb	s3,0(a1)
    414c:	000035b7          	lui	a1,0x3
    4150:	6c958593          	addi	a1,a1,1737 # 36c9 <tick+0x5b5>
    4154:	00b785b3          	add	a1,a5,a1
    4158:	01358023          	sb	s3,0(a1)
    415c:	12444983          	lbu	s3,292(s0)
    4160:	000035b7          	lui	a1,0x3
    4164:	6ca58593          	addi	a1,a1,1738 # 36ca <tick+0x5b6>
    4168:	00b785b3          	add	a1,a5,a1
    416c:	01358023          	sb	s3,0(a1)
    4170:	000035b7          	lui	a1,0x3
    4174:	6cb58593          	addi	a1,a1,1739 # 36cb <tick+0x5b7>
    4178:	00b785b3          	add	a1,a5,a1
    417c:	01358023          	sb	s3,0(a1)
    4180:	12444983          	lbu	s3,292(s0)
    4184:	000045b7          	lui	a1,0x4
    4188:	80458593          	addi	a1,a1,-2044 # 3804 <tick+0x6f0>
    418c:	00b785b3          	add	a1,a5,a1
    4190:	01358023          	sb	s3,0(a1)
    4194:	000045b7          	lui	a1,0x4
    4198:	80558593          	addi	a1,a1,-2043 # 3805 <tick+0x6f1>
    419c:	00b785b3          	add	a1,a5,a1
    41a0:	01358023          	sb	s3,0(a1)
    41a4:	12444983          	lbu	s3,292(s0)
    41a8:	000045b7          	lui	a1,0x4
    41ac:	80658593          	addi	a1,a1,-2042 # 3806 <tick+0x6f2>
    41b0:	00b785b3          	add	a1,a5,a1
    41b4:	01358023          	sb	s3,0(a1)
    41b8:	000045b7          	lui	a1,0x4
    41bc:	80758593          	addi	a1,a1,-2041 # 3807 <tick+0x6f3>
    41c0:	00b785b3          	add	a1,a5,a1
    41c4:	01358023          	sb	s3,0(a1)
    41c8:	12444983          	lbu	s3,292(s0)
    41cc:	000045b7          	lui	a1,0x4
    41d0:	80858593          	addi	a1,a1,-2040 # 3808 <tick+0x6f4>
    41d4:	00b785b3          	add	a1,a5,a1
    41d8:	01358023          	sb	s3,0(a1)
    41dc:	000045b7          	lui	a1,0x4
    41e0:	80958593          	addi	a1,a1,-2039 # 3809 <tick+0x6f5>
    41e4:	00b785b3          	add	a1,a5,a1
    41e8:	01358023          	sb	s3,0(a1)
    41ec:	12444983          	lbu	s3,292(s0)
    41f0:	000045b7          	lui	a1,0x4
    41f4:	80a58593          	addi	a1,a1,-2038 # 380a <tick+0x6f6>
    41f8:	00b785b3          	add	a1,a5,a1
    41fc:	01358023          	sb	s3,0(a1)
    4200:	000045b7          	lui	a1,0x4
    4204:	80b58593          	addi	a1,a1,-2037 # 380b <tick+0x6f7>
    4208:	00b785b3          	add	a1,a5,a1
    420c:	01358023          	sb	s3,0(a1)
    4210:	12444983          	lbu	s3,292(s0)
    4214:	000045b7          	lui	a1,0x4
    4218:	94458593          	addi	a1,a1,-1724 # 3944 <tick+0x830>
    421c:	00b785b3          	add	a1,a5,a1
    4220:	01358023          	sb	s3,0(a1)
    4224:	000045b7          	lui	a1,0x4
    4228:	94558593          	addi	a1,a1,-1723 # 3945 <tick+0x831>
    422c:	00b785b3          	add	a1,a5,a1
    4230:	01358023          	sb	s3,0(a1)
    4234:	12444983          	lbu	s3,292(s0)
    4238:	000045b7          	lui	a1,0x4
    423c:	94658593          	addi	a1,a1,-1722 # 3946 <tick+0x832>
    4240:	00b785b3          	add	a1,a5,a1
    4244:	01358023          	sb	s3,0(a1)
    4248:	000045b7          	lui	a1,0x4
    424c:	94758593          	addi	a1,a1,-1721 # 3947 <tick+0x833>
    4250:	00b785b3          	add	a1,a5,a1
    4254:	01358023          	sb	s3,0(a1)
    4258:	12444983          	lbu	s3,292(s0)
    425c:	000045b7          	lui	a1,0x4
    4260:	94858593          	addi	a1,a1,-1720 # 3948 <tick+0x834>
    4264:	00b785b3          	add	a1,a5,a1
    4268:	01358023          	sb	s3,0(a1)
    426c:	000045b7          	lui	a1,0x4
    4270:	94958593          	addi	a1,a1,-1719 # 3949 <tick+0x835>
    4274:	00b785b3          	add	a1,a5,a1
    4278:	01358023          	sb	s3,0(a1)
    427c:	12444983          	lbu	s3,292(s0)
    4280:	000045b7          	lui	a1,0x4
    4284:	94a58593          	addi	a1,a1,-1718 # 394a <tick+0x836>
    4288:	00b785b3          	add	a1,a5,a1
    428c:	01358023          	sb	s3,0(a1)
    4290:	000045b7          	lui	a1,0x4
    4294:	94b58593          	addi	a1,a1,-1717 # 394b <tick+0x837>
    4298:	00b785b3          	add	a1,a5,a1
    429c:	01358023          	sb	s3,0(a1)
    42a0:	12444983          	lbu	s3,292(s0)
    42a4:	000045b7          	lui	a1,0x4
    42a8:	a8458593          	addi	a1,a1,-1404 # 3a84 <tick+0x970>
    42ac:	00b785b3          	add	a1,a5,a1
    42b0:	01358023          	sb	s3,0(a1)
    42b4:	000045b7          	lui	a1,0x4
    42b8:	a8558593          	addi	a1,a1,-1403 # 3a85 <tick+0x971>
    42bc:	00b785b3          	add	a1,a5,a1
    42c0:	01358023          	sb	s3,0(a1)
    42c4:	12444983          	lbu	s3,292(s0)
    42c8:	000045b7          	lui	a1,0x4
    42cc:	a8658593          	addi	a1,a1,-1402 # 3a86 <tick+0x972>
    42d0:	00b785b3          	add	a1,a5,a1
    42d4:	01358023          	sb	s3,0(a1)
    42d8:	000045b7          	lui	a1,0x4
    42dc:	a8758593          	addi	a1,a1,-1401 # 3a87 <tick+0x973>
    42e0:	00b785b3          	add	a1,a5,a1
    42e4:	01358023          	sb	s3,0(a1)
    42e8:	12444983          	lbu	s3,292(s0)
    42ec:	000045b7          	lui	a1,0x4
    42f0:	a8858593          	addi	a1,a1,-1400 # 3a88 <tick+0x974>
    42f4:	00b785b3          	add	a1,a5,a1
    42f8:	01358023          	sb	s3,0(a1)
    42fc:	000045b7          	lui	a1,0x4
    4300:	a8958593          	addi	a1,a1,-1399 # 3a89 <tick+0x975>
    4304:	00b785b3          	add	a1,a5,a1
    4308:	01358023          	sb	s3,0(a1)
    430c:	12444983          	lbu	s3,292(s0)
    4310:	000045b7          	lui	a1,0x4
    4314:	a8a58593          	addi	a1,a1,-1398 # 3a8a <tick+0x976>
    4318:	00b785b3          	add	a1,a5,a1
    431c:	01358023          	sb	s3,0(a1)
    4320:	000045b7          	lui	a1,0x4
    4324:	a8b58593          	addi	a1,a1,-1397 # 3a8b <tick+0x977>
    4328:	00b785b3          	add	a1,a5,a1
    432c:	01358023          	sb	s3,0(a1)
    4330:	12444983          	lbu	s3,292(s0)
    4334:	000045b7          	lui	a1,0x4
    4338:	bc458593          	addi	a1,a1,-1084 # 3bc4 <tick+0xab0>
    433c:	00b785b3          	add	a1,a5,a1
    4340:	01358023          	sb	s3,0(a1)
    4344:	000045b7          	lui	a1,0x4
    4348:	bc558593          	addi	a1,a1,-1083 # 3bc5 <tick+0xab1>
    434c:	00b785b3          	add	a1,a5,a1
    4350:	01358023          	sb	s3,0(a1)
    4354:	12444983          	lbu	s3,292(s0)
    4358:	000045b7          	lui	a1,0x4
    435c:	bc658593          	addi	a1,a1,-1082 # 3bc6 <tick+0xab2>
    4360:	00b785b3          	add	a1,a5,a1
    4364:	01358023          	sb	s3,0(a1)
    4368:	000045b7          	lui	a1,0x4
    436c:	bc758593          	addi	a1,a1,-1081 # 3bc7 <tick+0xab3>
    4370:	00b785b3          	add	a1,a5,a1
    4374:	01358023          	sb	s3,0(a1)
    4378:	12444983          	lbu	s3,292(s0)
    437c:	000045b7          	lui	a1,0x4
    4380:	bc858593          	addi	a1,a1,-1080 # 3bc8 <tick+0xab4>
    4384:	00b785b3          	add	a1,a5,a1
    4388:	01358023          	sb	s3,0(a1)
    438c:	000045b7          	lui	a1,0x4
    4390:	bc958593          	addi	a1,a1,-1079 # 3bc9 <tick+0xab5>
    4394:	00b785b3          	add	a1,a5,a1
    4398:	01358023          	sb	s3,0(a1)
    439c:	12444983          	lbu	s3,292(s0)
    43a0:	000045b7          	lui	a1,0x4
    43a4:	bca58593          	addi	a1,a1,-1078 # 3bca <tick+0xab6>
    43a8:	00b785b3          	add	a1,a5,a1
    43ac:	01358023          	sb	s3,0(a1)
    43b0:	000045b7          	lui	a1,0x4
    43b4:	bcb58593          	addi	a1,a1,-1077 # 3bcb <tick+0xab7>
    43b8:	00b785b3          	add	a1,a5,a1
    43bc:	01358023          	sb	s3,0(a1)
    43c0:	d60ff06f          	j	3920 <tick+0x80c>

000043c4 <handle_interrupt>:
    43c4:	01000793          	li	a5,16
    43c8:	00f50463          	beq	a0,a5,43d0 <handle_interrupt+0xc>
    43cc:	00008067          	ret
    43d0:	040007b7          	lui	a5,0x4000
    43d4:	0000b737          	lui	a4,0xb
    43d8:	02079023          	sh	zero,32(a5) # 4000020 <_stack_end+0x3ef52bc>
    43dc:	cd872783          	lw	a5,-808(a4) # acd8 <timeoutcount>
    43e0:	00800693          	li	a3,8
    43e4:	00178793          	addi	a5,a5,1
    43e8:	00d78663          	beq	a5,a3,43f4 <handle_interrupt+0x30>
    43ec:	ccf72c23          	sw	a5,-808(a4)
    43f0:	00008067          	ret
    43f4:	000057b7          	lui	a5,0x5
    43f8:	da47a503          	lw	a0,-604(a5) # 4da4 <VGA>
    43fc:	cc072c23          	sw	zero,-808(a4)
    4400:	d15fe06f          	j	3114 <tick>

00004404 <main>:
    4404:	f4010113          	addi	sp,sp,-192
    4408:	0b412423          	sw	s4,168(sp)
    440c:	00005a37          	lui	s4,0x5
    4410:	da8a0a13          	addi	s4,s4,-600 # 4da8 <grid>
    4414:	0a112e23          	sw	ra,188(sp)
    4418:	0a812c23          	sw	s0,184(sp)
    441c:	0a912a23          	sw	s1,180(sp)
    4420:	0b212823          	sw	s2,176(sp)
    4424:	0b312623          	sw	s3,172(sp)
    4428:	0b512223          	sw	s5,164(sp)
    442c:	0b612023          	sw	s6,160(sp)
    4430:	09712e23          	sw	s7,156(sp)
    4434:	09812c23          	sw	s8,152(sp)
    4438:	09912a23          	sw	s9,148(sp)
    443c:	09a12823          	sw	s10,144(sp)
    4440:	09b12623          	sw	s11,140(sp)
    4444:	000a2023          	sw	zero,0(s4)
    4448:	000a2223          	sw	zero,4(s4)
    444c:	000a2423          	sw	zero,8(s4)
    4450:	000a2623          	sw	zero,12(s4)
    4454:	000a2823          	sw	zero,16(s4)
    4458:	000a2a23          	sw	zero,20(s4)
    445c:	000a2c23          	sw	zero,24(s4)
    4460:	000a2e23          	sw	zero,28(s4)
    4464:	020a2023          	sw	zero,32(s4)
    4468:	020a2223          	sw	zero,36(s4)
    446c:	020a2423          	sw	zero,40(s4)
    4470:	020a2623          	sw	zero,44(s4)
    4474:	020a2823          	sw	zero,48(s4)
    4478:	020a2a23          	sw	zero,52(s4)
    447c:	020a2c23          	sw	zero,56(s4)
    4480:	020a2e23          	sw	zero,60(s4)
    4484:	040a2023          	sw	zero,64(s4)
    4488:	040a2223          	sw	zero,68(s4)
    448c:	00005437          	lui	s0,0x5
    4490:	040a2423          	sw	zero,72(s4)
    4494:	da442503          	lw	a0,-604(s0) # 4da4 <VGA>
    4498:	040a2623          	sw	zero,76(s4)
    449c:	040a2823          	sw	zero,80(s4)
    44a0:	040a2a23          	sw	zero,84(s4)
    44a4:	040a2c23          	sw	zero,88(s4)
    44a8:	040a2e23          	sw	zero,92(s4)
    44ac:	060a2023          	sw	zero,96(s4)
    44b0:	060a2223          	sw	zero,100(s4)
    44b4:	060a2423          	sw	zero,104(s4)
    44b8:	060a2623          	sw	zero,108(s4)
    44bc:	060a2823          	sw	zero,112(s4)
    44c0:	060a2a23          	sw	zero,116(s4)
    44c4:	060a2c23          	sw	zero,120(s4)
    44c8:	060a2e23          	sw	zero,124(s4)
    44cc:	080a2023          	sw	zero,128(s4)
    44d0:	080a2223          	sw	zero,132(s4)
    44d4:	080a2423          	sw	zero,136(s4)
    44d8:	080a2623          	sw	zero,140(s4)
    44dc:	080a2823          	sw	zero,144(s4)
    44e0:	080a2a23          	sw	zero,148(s4)
    44e4:	080a2c23          	sw	zero,152(s4)
    44e8:	080a2e23          	sw	zero,156(s4)
    44ec:	0a0a2023          	sw	zero,160(s4)
    44f0:	0a0a2223          	sw	zero,164(s4)
    44f4:	0a0a2423          	sw	zero,168(s4)
    44f8:	0a0a2623          	sw	zero,172(s4)
    44fc:	0a0a2823          	sw	zero,176(s4)
    4500:	0a0a2a23          	sw	zero,180(s4)
    4504:	0a0a2c23          	sw	zero,184(s4)
    4508:	0a0a2e23          	sw	zero,188(s4)
    450c:	0c0a2023          	sw	zero,192(s4)
    4510:	0c0a2223          	sw	zero,196(s4)
    4514:	d8cfc0ef          	jal	aa0 <draw_grid>
    4518:	ffffc737          	lui	a4,0xffffc
    451c:	040007b7          	lui	a5,0x4000
    4520:	6bf70713          	addi	a4,a4,1727 # ffffc6bf <_stack_end+0xffef195b>
    4524:	02e79423          	sh	a4,40(a5) # 4000028 <_stack_end+0x3ef52c4>
    4528:	040007b7          	lui	a5,0x4000
    452c:	02d00713          	li	a4,45
    4530:	02e79623          	sh	a4,44(a5) # 400002c <_stack_end+0x3ef52c8>
    4534:	040007b7          	lui	a5,0x4000
    4538:	00700713          	li	a4,7
    453c:	02e79223          	sh	a4,36(a5) # 4000024 <_stack_end+0x3ef52c0>
    4540:	00100713          	li	a4,1
    4544:	040007b7          	lui	a5,0x4000
    4548:	0ce7ac23          	sw	a4,216(a5) # 40000d8 <_stack_end+0x3ef5374>
    454c:	040007b7          	lui	a5,0x4000
    4550:	0ce7ae23          	sw	a4,220(a5) # 40000dc <_stack_end+0x3ef5378>
    4554:	c21fb0ef          	jal	174 <enable_interrupt>
    4558:	040007b7          	lui	a5,0x4000
    455c:	0107a683          	lw	a3,16(a5) # 4000010 <_stack_end+0x3ef52ac>
    4560:	24925737          	lui	a4,0x24925
    4564:	92570713          	addi	a4,a4,-1755 # 24924925 <_stack_end+0x24819bc1>
    4568:	0ff6f693          	zext.b	a3,a3
    456c:	00269793          	slli	a5,a3,0x2
    4570:	00d787b3          	add	a5,a5,a3
    4574:	00479613          	slli	a2,a5,0x4
    4578:	40f60633          	sub	a2,a2,a5
    457c:	0b360613          	addi	a2,a2,179
    4580:	03f67613          	andi	a2,a2,63
    4584:	0ff67693          	zext.b	a3,a2
    4588:	02e6b733          	mulhu	a4,a3,a4
    458c:	0000b5b7          	lui	a1,0xb
    4590:	ccc5aa23          	sw	a2,-812(a1) # acd4 <seed>
    4594:	000057b7          	lui	a5,0x5
    4598:	b7478793          	addi	a5,a5,-1164 # 4b74 <pieces>
    459c:	118a0493          	addi	s1,s4,280
    45a0:	00048613          	mv	a2,s1
    45a4:	40e685b3          	sub	a1,a3,a4
    45a8:	0015d593          	srli	a1,a1,0x1
    45ac:	00b70733          	add	a4,a4,a1
    45b0:	00275713          	srli	a4,a4,0x2
    45b4:	00371593          	slli	a1,a4,0x3
    45b8:	40e58733          	sub	a4,a1,a4
    45bc:	40e68733          	sub	a4,a3,a4
    45c0:	0ff77713          	zext.b	a4,a4
    45c4:	00271693          	slli	a3,a4,0x2
    45c8:	00e68733          	add	a4,a3,a4
    45cc:	00471713          	slli	a4,a4,0x4
    45d0:	00e787b3          	add	a5,a5,a4
    45d4:	05078713          	addi	a4,a5,80
    45d8:	0087a683          	lw	a3,8(a5)
    45dc:	0007a503          	lw	a0,0(a5)
    45e0:	0047a583          	lw	a1,4(a5)
    45e4:	00d62423          	sw	a3,8(a2)
    45e8:	00a62023          	sw	a0,0(a2)
    45ec:	00b62223          	sw	a1,4(a2)
    45f0:	00c7a683          	lw	a3,12(a5)
    45f4:	01078793          	addi	a5,a5,16
    45f8:	01060613          	addi	a2,a2,16
    45fc:	fed62e23          	sw	a3,-4(a2)
    4600:	fce79ce3          	bne	a5,a4,45d8 <main+0x1d4>
    4604:	b5cfc0ef          	jal	960 <spawn_next>
    4608:	da442503          	lw	a0,-604(s0)
    460c:	000057b7          	lui	a5,0x5
    4610:	e7078593          	addi	a1,a5,-400 # 4e70 <current_piece>
    4614:	dacfc0ef          	jal	bc0 <draw_shape>
    4618:	da442503          	lw	a0,-604(s0)
    461c:	00048593          	mv	a1,s1
    4620:	00800a93          	li	s5,8
    4624:	99dfc0ef          	jal	fc0 <draw_next_piece>
    4628:	0cca2683          	lw	a3,204(s4)
    462c:	0d0a2783          	lw	a5,208(s4)
    4630:	00000713          	li	a4,0
    4634:	00268613          	addi	a2,a3,2
    4638:	00a6b393          	sltiu	t2,a3,10
    463c:	00168513          	addi	a0,a3,1
    4640:	00368693          	addi	a3,a3,3
    4644:	00c12423          	sw	a2,8(sp)
    4648:	00d12623          	sw	a3,12(sp)
    464c:	01200493          	li	s1,18
    4650:	040006b7          	lui	a3,0x4000
    4654:	0d068693          	addi	a3,a3,208 # 40000d0 <_stack_end+0x3ef536c>
    4658:	0006a603          	lw	a2,0(a3)
    465c:	00174913          	xori	s2,a4,1
    4660:	00167713          	andi	a4,a2,1
    4664:	00e97933          	and	s2,s2,a4
    4668:	fe0908e3          	beqz	s2,4658 <main+0x254>
    466c:	0006a703          	lw	a4,0(a3)
    4670:	00177713          	andi	a4,a4,1
    4674:	02e12e23          	sw	a4,60(sp)
    4678:	03c12703          	lw	a4,60(sp)
    467c:	3c071863          	bnez	a4,4a4c <main+0x648>
    4680:	04012e03          	lw	t3,64(sp)
    4684:	04412303          	lw	t1,68(sp)
    4688:	04812883          	lw	a7,72(sp)
    468c:	04c12803          	lw	a6,76(sp)
    4690:	000e0293          	mv	t0,t3
    4694:	00030f93          	mv	t6,t1
    4698:	00088f13          	mv	t5,a7
    469c:	00080e93          	mv	t4,a6
    46a0:	00812703          	lw	a4,8(sp)
    46a4:	00038593          	mv	a1,t2
    46a8:	00a53613          	sltiu	a2,a0,10
    46ac:	00a73693          	sltiu	a3,a4,10
    46b0:	00c12703          	lw	a4,12(sp)
    46b4:	00090993          	mv	s3,s2
    46b8:	00a73713          	sltiu	a4,a4,10
    46bc:	000e0663          	beqz	t3,46c8 <main+0x2c4>
    46c0:	0147a993          	slti	s3,a5,20
    46c4:	0133f9b3          	and	s3,t2,s3
    46c8:	00030863          	beqz	t1,46d8 <main+0x2d4>
    46cc:	0147a313          	slti	t1,a5,20
    46d0:	00667333          	and	t1,a2,t1
    46d4:	0069f9b3          	and	s3,s3,t1
    46d8:	00088863          	beqz	a7,46e8 <main+0x2e4>
    46dc:	0147a893          	slti	a7,a5,20
    46e0:	0116f8b3          	and	a7,a3,a7
    46e4:	0119f9b3          	and	s3,s3,a7
    46e8:	00080863          	beqz	a6,46f8 <main+0x2f4>
    46ec:	0147a813          	slti	a6,a5,20
    46f0:	01077833          	and	a6,a4,a6
    46f4:	0109f9b3          	and	s3,s3,a6
    46f8:	05012e03          	lw	t3,80(sp)
    46fc:	000e0863          	beqz	t3,470c <main+0x308>
    4700:	0137a813          	slti	a6,a5,19
    4704:	0105f833          	and	a6,a1,a6
    4708:	0109f9b3          	and	s3,s3,a6
    470c:	05412303          	lw	t1,84(sp)
    4710:	00030863          	beqz	t1,4720 <main+0x31c>
    4714:	0137a813          	slti	a6,a5,19
    4718:	01067833          	and	a6,a2,a6
    471c:	0109f9b3          	and	s3,s3,a6
    4720:	05812883          	lw	a7,88(sp)
    4724:	00088863          	beqz	a7,4734 <main+0x330>
    4728:	0137a813          	slti	a6,a5,19
    472c:	0106f833          	and	a6,a3,a6
    4730:	0109f9b3          	and	s3,s3,a6
    4734:	05c12803          	lw	a6,92(sp)
    4738:	00080863          	beqz	a6,4748 <main+0x344>
    473c:	0137ab13          	slti	s6,a5,19
    4740:	01677b33          	and	s6,a4,s6
    4744:	0169f9b3          	and	s3,s3,s6
    4748:	06012d83          	lw	s11,96(sp)
    474c:	000d8863          	beqz	s11,475c <main+0x358>
    4750:	0127ab13          	slti	s6,a5,18
    4754:	0165fb33          	and	s6,a1,s6
    4758:	0169f9b3          	and	s3,s3,s6
    475c:	06412d03          	lw	s10,100(sp)
    4760:	000d0863          	beqz	s10,4770 <main+0x36c>
    4764:	0127ab13          	slti	s6,a5,18
    4768:	01667b33          	and	s6,a2,s6
    476c:	0169f9b3          	and	s3,s3,s6
    4770:	06812c83          	lw	s9,104(sp)
    4774:	000c8863          	beqz	s9,4784 <main+0x380>
    4778:	0127ab13          	slti	s6,a5,18
    477c:	0166fb33          	and	s6,a3,s6
    4780:	0169f9b3          	and	s3,s3,s6
    4784:	06c12c03          	lw	s8,108(sp)
    4788:	000c0863          	beqz	s8,4798 <main+0x394>
    478c:	0127ab13          	slti	s6,a5,18
    4790:	01677b33          	and	s6,a4,s6
    4794:	0169f9b3          	and	s3,s3,s6
    4798:	07012b83          	lw	s7,112(sp)
    479c:	000b8863          	beqz	s7,47ac <main+0x3a8>
    47a0:	0117ab13          	slti	s6,a5,17
    47a4:	0165f5b3          	and	a1,a1,s6
    47a8:	00b9f9b3          	and	s3,s3,a1
    47ac:	07412b03          	lw	s6,116(sp)
    47b0:	000b0863          	beqz	s6,47c0 <main+0x3bc>
    47b4:	0117a593          	slti	a1,a5,17
    47b8:	00b67633          	and	a2,a2,a1
    47bc:	00c9f9b3          	and	s3,s3,a2
    47c0:	07812603          	lw	a2,120(sp)
    47c4:	00060863          	beqz	a2,47d4 <main+0x3d0>
    47c8:	0117a593          	slti	a1,a5,17
    47cc:	00b6f6b3          	and	a3,a3,a1
    47d0:	00d9f9b3          	and	s3,s3,a3
    47d4:	07c12683          	lw	a3,124(sp)
    47d8:	00068863          	beqz	a3,47e8 <main+0x3e4>
    47dc:	0117a593          	slti	a1,a5,17
    47e0:	00b77733          	and	a4,a4,a1
    47e4:	00e9f9b3          	and	s3,s3,a4
    47e8:	00099663          	bnez	s3,47f4 <main+0x3f0>
    47ec:	00090713          	mv	a4,s2
    47f0:	e61ff06f          	j	4650 <main+0x24c>
    47f4:	000057b7          	lui	a5,0x5
    47f8:	e7078513          	addi	a0,a5,-400 # 4e70 <current_piece>
    47fc:	02612623          	sw	t1,44(sp)
    4800:	03c12423          	sw	t3,40(sp)
    4804:	02c12223          	sw	a2,36(sp)
    4808:	03d12023          	sw	t4,32(sp)
    480c:	01e12e23          	sw	t5,28(sp)
    4810:	01f12c23          	sw	t6,24(sp)
    4814:	00d12a23          	sw	a3,20(sp)
    4818:	00512823          	sw	t0,16(sp)
    481c:	01012623          	sw	a6,12(sp)
    4820:	01112423          	sw	a7,8(sp)
    4824:	d5dfb0ef          	jal	580 <update_shape.constprop.1>
    4828:	02012e83          	lw	t4,32(sp)
    482c:	02812e03          	lw	t3,40(sp)
    4830:	02c12303          	lw	t1,44(sp)
    4834:	00812883          	lw	a7,8(sp)
    4838:	01012283          	lw	t0,16(sp)
    483c:	01812f83          	lw	t6,24(sp)
    4840:	01c12f03          	lw	t5,28(sp)
    4844:	00c12803          	lw	a6,12(sp)
    4848:	02412603          	lw	a2,36(sp)
    484c:	01412683          	lw	a3,20(sp)
    4850:	000057b7          	lui	a5,0x5
    4854:	0fda2223          	sw	t4,228(s4)
    4858:	0fca2423          	sw	t3,232(s4)
    485c:	0e6a2623          	sw	t1,236(s4)
    4860:	0f1a2823          	sw	a7,240(s4)
    4864:	0c5a2c23          	sw	t0,216(s4)
    4868:	0dfa2e23          	sw	t6,220(s4)
    486c:	0fea2023          	sw	t5,224(s4)
    4870:	0f0a2a23          	sw	a6,244(s4)
    4874:	0fba2c23          	sw	s11,248(s4)
    4878:	0faa2e23          	sw	s10,252(s4)
    487c:	119a2023          	sw	s9,256(s4)
    4880:	118a2223          	sw	s8,260(s4)
    4884:	117a2423          	sw	s7,264(s4)
    4888:	116a2623          	sw	s6,268(s4)
    488c:	10ca2823          	sw	a2,272(s4)
    4890:	10da2a23          	sw	a3,276(s4)
    4894:	e7078e93          	addi	t4,a5,-400 # 4e70 <current_piece>
    4898:	00000313          	li	t1,0
    489c:	08100893          	li	a7,129
    48a0:	00400e13          	li	t3,4
    48a4:	000e8813          	mv	a6,t4
    48a8:	00000513          	li	a0,0
    48ac:	01082783          	lw	a5,16(a6)
    48b0:	0c078a63          	beqz	a5,4984 <main+0x580>
    48b4:	0d0a2783          	lw	a5,208(s4)
    48b8:	0cca2703          	lw	a4,204(s4)
    48bc:	00f307b3          	add	a5,t1,a5
    48c0:	0147b693          	sltiu	a3,a5,20
    48c4:	00e50733          	add	a4,a0,a4
    48c8:	0a068e63          	beqz	a3,4984 <main+0x580>
    48cc:	00a73693          	sltiu	a3,a4,10
    48d0:	0a068a63          	beqz	a3,4984 <main+0x580>
    48d4:	00578793          	addi	a5,a5,5
    48d8:	00279693          	slli	a3,a5,0x2
    48dc:	00f687b3          	add	a5,a3,a5
    48e0:	00f70713          	addi	a4,a4,15
    48e4:	00679793          	slli	a5,a5,0x6
    48e8:	00e787b3          	add	a5,a5,a4
    48ec:	0d4a4f03          	lbu	t5,212(s4)
    48f0:	00379793          	slli	a5,a5,0x3
    48f4:	00678593          	addi	a1,a5,6
    48f8:	00000613          	li	a2,0
    48fc:	da442683          	lw	a3,-604(s0)
    4900:	00c8d733          	srl	a4,a7,a2
    4904:	00177713          	andi	a4,a4,1
    4908:	00f686b3          	add	a3,a3,a5
    490c:	00968023          	sb	s1,0(a3)
    4910:	da442683          	lw	a3,-604(s0)
    4914:	00178b93          	addi	s7,a5,1
    4918:	00278b13          	addi	s6,a5,2
    491c:	00378393          	addi	t2,a5,3
    4920:	00478293          	addi	t0,a5,4
    4924:	00578f93          	addi	t6,a5,5
    4928:	0c070063          	beqz	a4,49e8 <main+0x5e4>
    492c:	017686b3          	add	a3,a3,s7
    4930:	00968023          	sb	s1,0(a3)
    4934:	da442703          	lw	a4,-604(s0)
    4938:	00778c13          	addi	s8,a5,7
    493c:	01670733          	add	a4,a4,s6
    4940:	00970023          	sb	s1,0(a4)
    4944:	da442703          	lw	a4,-604(s0)
    4948:	00770733          	add	a4,a4,t2
    494c:	00970023          	sb	s1,0(a4)
    4950:	da442703          	lw	a4,-604(s0)
    4954:	00570733          	add	a4,a4,t0
    4958:	00970023          	sb	s1,0(a4)
    495c:	da442703          	lw	a4,-604(s0)
    4960:	01f70733          	add	a4,a4,t6
    4964:	00970023          	sb	s1,0(a4)
    4968:	da442703          	lw	a4,-604(s0)
    496c:	04060c63          	beqz	a2,49c4 <main+0x5c0>
    4970:	00b70733          	add	a4,a4,a1
    4974:	00970023          	sb	s1,0(a4)
    4978:	da442703          	lw	a4,-604(s0)
    497c:	00f707b3          	add	a5,a4,a5
    4980:	009783a3          	sb	s1,7(a5)
    4984:	00150513          	addi	a0,a0,1
    4988:	00480813          	addi	a6,a6,4
    498c:	f3c510e3          	bne	a0,t3,48ac <main+0x4a8>
    4990:	00130313          	addi	t1,t1,1
    4994:	010e8e93          	addi	t4,t4,16
    4998:	f0a316e3          	bne	t1,a0,48a4 <main+0x4a0>
    499c:	0cca2703          	lw	a4,204(s4)
    49a0:	0d0a2783          	lw	a5,208(s4)
    49a4:	00270693          	addi	a3,a4,2
    49a8:	00a73393          	sltiu	t2,a4,10
    49ac:	00170513          	addi	a0,a4,1
    49b0:	00370713          	addi	a4,a4,3
    49b4:	00e12623          	sw	a4,12(sp)
    49b8:	00d12423          	sw	a3,8(sp)
    49bc:	00090713          	mv	a4,s2
    49c0:	c91ff06f          	j	4650 <main+0x24c>
    49c4:	00b70733          	add	a4,a4,a1
    49c8:	00970023          	sb	s1,0(a4)
    49cc:	da442703          	lw	a4,-604(s0)
    49d0:	14078793          	addi	a5,a5,320
    49d4:	14058593          	addi	a1,a1,320
    49d8:	01870733          	add	a4,a4,s8
    49dc:	00098613          	mv	a2,s3
    49e0:	00970023          	sb	s1,0(a4)
    49e4:	f19ff06f          	j	48fc <main+0x4f8>
    49e8:	00f686b3          	add	a3,a3,a5
    49ec:	01e680a3          	sb	t5,1(a3)
    49f0:	da442703          	lw	a4,-604(s0)
    49f4:	00160613          	addi	a2,a2,1
    49f8:	00f70733          	add	a4,a4,a5
    49fc:	01e70123          	sb	t5,2(a4)
    4a00:	da442703          	lw	a4,-604(s0)
    4a04:	00f70733          	add	a4,a4,a5
    4a08:	01e701a3          	sb	t5,3(a4)
    4a0c:	da442703          	lw	a4,-604(s0)
    4a10:	00f70733          	add	a4,a4,a5
    4a14:	01e70223          	sb	t5,4(a4)
    4a18:	da442703          	lw	a4,-604(s0)
    4a1c:	00f70733          	add	a4,a4,a5
    4a20:	01e702a3          	sb	t5,5(a4)
    4a24:	da442703          	lw	a4,-604(s0)
    4a28:	00b70733          	add	a4,a4,a1
    4a2c:	01e70023          	sb	t5,0(a4)
    4a30:	da442703          	lw	a4,-604(s0)
    4a34:	14058593          	addi	a1,a1,320
    4a38:	00f70733          	add	a4,a4,a5
    4a3c:	009703a3          	sb	s1,7(a4)
    4a40:	14078793          	addi	a5,a5,320
    4a44:	eb561ce3          	bne	a2,s5,48fc <main+0x4f8>
    4a48:	f3dff06f          	j	4984 <main+0x580>
    4a4c:	0dca2603          	lw	a2,220(s4)
    4a50:	0e0a2683          	lw	a3,224(s4)
    4a54:	0e4a2703          	lw	a4,228(s4)
    4a58:	04c12e23          	sw	a2,92(sp)
    4a5c:	06d12623          	sw	a3,108(sp)
    4a60:	0eca2603          	lw	a2,236(s4)
    4a64:	0f0a2683          	lw	a3,240(s4)
    4a68:	06e12e23          	sw	a4,124(sp)
    4a6c:	0f4a2703          	lw	a4,244(s4)
    4a70:	0d8a2e83          	lw	t4,216(s4)
    4a74:	0e8a2f03          	lw	t5,232(s4)
    4a78:	0f8a2f83          	lw	t6,248(s4)
    4a7c:	100a2e03          	lw	t3,256(s4)
    4a80:	108a2283          	lw	t0,264(s4)
    4a84:	0fca2983          	lw	s3,252(s4)
    4a88:	104a2583          	lw	a1,260(s4)
    4a8c:	04c12c23          	sw	a2,88(sp)
    4a90:	06d12423          	sw	a3,104(sp)
    4a94:	10ca2603          	lw	a2,268(s4)
    4a98:	110a2683          	lw	a3,272(s4)
    4a9c:	06e12c23          	sw	a4,120(sp)
    4aa0:	114a2703          	lw	a4,276(s4)
    4aa4:	07c12223          	sw	t3,100(sp)
    4aa8:	05d12623          	sw	t4,76(sp)
    4aac:	000e8813          	mv	a6,t4
    4ab0:	05e12423          	sw	t5,72(sp)
    4ab4:	000f0893          	mv	a7,t5
    4ab8:	05f12223          	sw	t6,68(sp)
    4abc:	000f8313          	mv	t1,t6
    4ac0:	05312a23          	sw	s3,84(sp)
    4ac4:	06b12a23          	sw	a1,116(sp)
    4ac8:	04512023          	sw	t0,64(sp)
    4acc:	00028e13          	mv	t3,t0
    4ad0:	04c12823          	sw	a2,80(sp)
    4ad4:	06d12023          	sw	a3,96(sp)
    4ad8:	06e12823          	sw	a4,112(sp)
    4adc:	bc5ff06f          	j	46a0 <main+0x29c>

Disassembly of section .data:

00004ae0 <welcome_msg>:
    4ae0:	3d3d                	.insn	2, 0x3d3d
    4ae2:	3d3d                	.insn	2, 0x3d3d
    4ae4:	3d3d                	.insn	2, 0x3d3d
    4ae6:	3d3d                	.insn	2, 0x3d3d
    4ae8:	3d3d                	.insn	2, 0x3d3d
    4aea:	3d3d                	.insn	2, 0x3d3d
    4aec:	3d3d                	.insn	2, 0x3d3d
    4aee:	3d3d                	.insn	2, 0x3d3d
    4af0:	3d3d                	.insn	2, 0x3d3d
    4af2:	3d3d                	.insn	2, 0x3d3d
    4af4:	3d3d                	.insn	2, 0x3d3d
    4af6:	3d3d                	.insn	2, 0x3d3d
    4af8:	3d3d                	.insn	2, 0x3d3d
    4afa:	3d3d                	.insn	2, 0x3d3d
    4afc:	3d3d                	.insn	2, 0x3d3d
    4afe:	3d3d                	.insn	2, 0x3d3d
    4b00:	3d3d                	.insn	2, 0x3d3d
    4b02:	3d3d                	.insn	2, 0x3d3d
    4b04:	3d3d                	.insn	2, 0x3d3d
    4b06:	3d3d                	.insn	2, 0x3d3d
    4b08:	3d3d                	.insn	2, 0x3d3d
    4b0a:	3d3d                	.insn	2, 0x3d3d
    4b0c:	3d3d                	.insn	2, 0x3d3d
    4b0e:	3d3d                	.insn	2, 0x3d3d
    4b10:	3d0a                	.insn	2, 0x3d0a
    4b12:	3d3d                	.insn	2, 0x3d3d
    4b14:	3d3d                	.insn	2, 0x3d3d
    4b16:	5220                	.insn	2, 0x5220
    4b18:	5349                	.insn	2, 0x5349
    4b1a:	20562d43          	.insn	4, 0x20562d43
    4b1e:	6f42                	.insn	2, 0x6f42
    4b20:	552d746f          	jal	s0,dc072 <timeoutcount+0xd139a>
    4b24:	2070                	.insn	2, 0x2070
    4b26:	7250                	.insn	2, 0x7250
    4b28:	7365636f          	jal	t1,5b25e <timeoutcount+0x50586>
    4b2c:	6f4e2073          	csrs	0x6f4,t3
    4b30:	6f432077          	.insn	4, 0x6f432077
    4b34:	706d                	.insn	2, 0x706d
    4b36:	656c                	.insn	2, 0x656c
    4b38:	6574                	.insn	2, 0x6574
    4b3a:	3d20                	.insn	2, 0x3d20
    4b3c:	3d3d                	.insn	2, 0x3d3d
    4b3e:	3d3d                	.insn	2, 0x3d3d
    4b40:	0a3d                	.insn	2, 0x0a3d
    4b42:	3d3d                	.insn	2, 0x3d3d
    4b44:	3d3d                	.insn	2, 0x3d3d
    4b46:	3d3d                	.insn	2, 0x3d3d
    4b48:	3d3d                	.insn	2, 0x3d3d
    4b4a:	3d3d                	.insn	2, 0x3d3d
    4b4c:	3d3d                	.insn	2, 0x3d3d
    4b4e:	3d3d                	.insn	2, 0x3d3d
    4b50:	3d3d                	.insn	2, 0x3d3d
    4b52:	3d3d                	.insn	2, 0x3d3d
    4b54:	3d3d                	.insn	2, 0x3d3d
    4b56:	3d3d                	.insn	2, 0x3d3d
    4b58:	3d3d                	.insn	2, 0x3d3d
    4b5a:	3d3d                	.insn	2, 0x3d3d
    4b5c:	3d3d                	.insn	2, 0x3d3d
    4b5e:	3d3d                	.insn	2, 0x3d3d
    4b60:	3d3d                	.insn	2, 0x3d3d
    4b62:	3d3d                	.insn	2, 0x3d3d
    4b64:	3d3d                	.insn	2, 0x3d3d
    4b66:	3d3d                	.insn	2, 0x3d3d
    4b68:	3d3d                	.insn	2, 0x3d3d
    4b6a:	3d3d                	.insn	2, 0x3d3d
    4b6c:	3d3d                	.insn	2, 0x3d3d
    4b6e:	3d3d                	.insn	2, 0x3d3d
    4b70:	3d3d                	.insn	2, 0x3d3d
    4b72:	000a                	.insn	2, 0x000a

00004b74 <pieces>:
	...
    4b80:	001f 0000 0001      	.insn	6, 0x00010000001f
	...
    4b92:	0000                	.insn	2, 0x0000
    4b94:	0001                	.insn	2, 0x0001
	...
    4ba2:	0000                	.insn	2, 0x0000
    4ba4:	0001                	.insn	2, 0x0001
	...
    4bb2:	0000                	.insn	2, 0x0000
    4bb4:	0001                	.insn	2, 0x0001
	...
    4bc2:	0000                	.insn	2, 0x0000
    4bc4:	0001                	.insn	2, 0x0001
	...
    4bce:	0000                	.insn	2, 0x0000
    4bd0:	00000003          	lb	zero,0(zero) # 0 <_isr_handler>
    4bd4:	0000                	.insn	2, 0x0000
    4bd6:	0000                	.insn	2, 0x0000
    4bd8:	0001                	.insn	2, 0x0001
	...
    4be6:	0000                	.insn	2, 0x0000
    4be8:	0001                	.insn	2, 0x0001
	...
    4bf2:	0000                	.insn	2, 0x0000
    4bf4:	0001                	.insn	2, 0x0001
    4bf6:	0000                	.insn	2, 0x0000
    4bf8:	0001                	.insn	2, 0x0001
	...
    4c12:	0000                	.insn	2, 0x0000
    4c14:	0002                	.insn	2, 0x0002
	...
    4c1e:	0000                	.insn	2, 0x0000
    4c20:	00ec                	.insn	2, 0x00ec
    4c22:	0000                	.insn	2, 0x0000
    4c24:	0001                	.insn	2, 0x0001
	...
    4c32:	0000                	.insn	2, 0x0000
    4c34:	0001                	.insn	2, 0x0001
	...
    4c42:	0000                	.insn	2, 0x0000
    4c44:	0001                	.insn	2, 0x0001
    4c46:	0000                	.insn	2, 0x0000
    4c48:	0001                	.insn	2, 0x0001
	...
    4c62:	0000                	.insn	2, 0x0000
    4c64:	00000003          	lb	zero,0(zero) # 0 <_isr_handler>
	...
    4c70:	00fc                	.insn	2, 0x00fc
    4c72:	0000                	.insn	2, 0x0000
    4c74:	0001                	.insn	2, 0x0001
    4c76:	0000                	.insn	2, 0x0000
    4c78:	0001                	.insn	2, 0x0001
	...
    4c82:	0000                	.insn	2, 0x0000
    4c84:	0001                	.insn	2, 0x0001
    4c86:	0000                	.insn	2, 0x0000
    4c88:	0001                	.insn	2, 0x0001
	...
    4cb2:	0000                	.insn	2, 0x0000
    4cb4:	0004                	.insn	2, 0x0004
	...
    4cbe:	0000                	.insn	2, 0x0000
    4cc0:	001c                	.insn	2, 0x001c
    4cc2:	0000                	.insn	2, 0x0000
    4cc4:	0001                	.insn	2, 0x0001
	...
    4cd2:	0000                	.insn	2, 0x0000
    4cd4:	0001                	.insn	2, 0x0001
    4cd6:	0000                	.insn	2, 0x0000
    4cd8:	0001                	.insn	2, 0x0001
	...
    4ce6:	0000                	.insn	2, 0x0000
    4ce8:	0001                	.insn	2, 0x0001
	...
    4d02:	0000                	.insn	2, 0x0000
    4d04:	0005                	.insn	2, 0x0005
	...
    4d0e:	0000                	.insn	2, 0x0000
    4d10:	00000063          	beqz	zero,4d10 <pieces+0x19c>
    4d14:	0000                	.insn	2, 0x0000
    4d16:	0000                	.insn	2, 0x0000
    4d18:	0001                	.insn	2, 0x0001
	...
    4d22:	0000                	.insn	2, 0x0000
    4d24:	0001                	.insn	2, 0x0001
    4d26:	0000                	.insn	2, 0x0000
    4d28:	0001                	.insn	2, 0x0001
    4d2a:	0000                	.insn	2, 0x0000
    4d2c:	0001                	.insn	2, 0x0001
	...
    4d52:	0000                	.insn	2, 0x0000
    4d54:	0006                	.insn	2, 0x0006
	...
    4d5e:	0000                	.insn	2, 0x0000
    4d60:	00e0                	.insn	2, 0x00e0
    4d62:	0000                	.insn	2, 0x0000
    4d64:	0001                	.insn	2, 0x0001
    4d66:	0000                	.insn	2, 0x0000
    4d68:	0001                	.insn	2, 0x0001
	...
    4d76:	0000                	.insn	2, 0x0000
    4d78:	0001                	.insn	2, 0x0001
    4d7a:	0000                	.insn	2, 0x0000
    4d7c:	0001                	.insn	2, 0x0001
	...

00004da4 <VGA>:
    4da4:	0000                	.insn	2, 0x0000
    4da6:	0800                	.insn	2, 0x0800

Disassembly of section .rodata.str1.4:

0000acdc <.rodata.str1.4>:
    acdc:	5b0a                	.insn	2, 0x5b0a
    acde:	5845                	.insn	2, 0x5845
    ace0:	54504543          	.insn	4, 0x54504543
    ace4:	4f49                	.insn	2, 0x4f49
    ace6:	5d4e                	.insn	2, 0x5d4e
    ace8:	4920                	.insn	2, 0x4920
    acea:	736e                	.insn	2, 0x736e
    acec:	7274                	.insn	2, 0x7274
    acee:	6375                	.insn	2, 0x6375
    acf0:	6974                	.insn	2, 0x6974
    acf2:	61206e6f          	jal	t3,11304 <timeoutcount+0x662c>
    acf6:	6464                	.insn	2, 0x6464
    acf8:	6572                	.insn	2, 0x6572
    acfa:	6d207373          	csrrci	t1,0x6d2,0
    acfe:	7369                	.insn	2, 0x7369
    ad00:	6c61                	.insn	2, 0x6c61
    ad02:	6769                	.insn	2, 0x6769
    ad04:	6d6e                	.insn	2, 0x6d6e
    ad06:	6e65                	.insn	2, 0x6e65
    ad08:	2e74                	.insn	2, 0x2e74
    ad0a:	0020                	.insn	2, 0x0020
    ad0c:	5b0a                	.insn	2, 0x5b0a
    ad0e:	5845                	.insn	2, 0x5845
    ad10:	54504543          	.insn	4, 0x54504543
    ad14:	4f49                	.insn	2, 0x4f49
    ad16:	5d4e                	.insn	2, 0x5d4e
    ad18:	4920                	.insn	2, 0x4920
    ad1a:	6c6c                	.insn	2, 0x6c6c
    ad1c:	6765                	.insn	2, 0x6765
    ad1e:	6c61                	.insn	2, 0x6c61
    ad20:	6920                	.insn	2, 0x6920
    ad22:	736e                	.insn	2, 0x736e
    ad24:	7274                	.insn	2, 0x7274
    ad26:	6375                	.insn	2, 0x6375
    ad28:	6974                	.insn	2, 0x6974
    ad2a:	202e6e6f          	jal	t3,f0f2c <timeoutcount+0xe6254>
    ad2e:	0000                	.insn	2, 0x0000
    ad30:	5b0a                	.insn	2, 0x5b0a
    ad32:	5845                	.insn	2, 0x5845
    ad34:	54504543          	.insn	4, 0x54504543
    ad38:	4f49                	.insn	2, 0x4f49
    ad3a:	5d4e                	.insn	2, 0x5d4e
    ad3c:	5520                	.insn	2, 0x5520
    ad3e:	6b6e                	.insn	2, 0x6b6e
    ad40:	6f6e                	.insn	2, 0x6f6e
    ad42:	65206e77          	.insn	4, 0x65206e77
    ad46:	7272                	.insn	2, 0x7272
    ad48:	202e726f          	jal	tp,f1f4a <timeoutcount+0xe7272>
    ad4c:	0000                	.insn	2, 0x0000
    ad4e:	0000                	.insn	2, 0x0000
    ad50:	7845                	.insn	2, 0x7845
    ad52:	74706563          	bltu	zero,t2,b49c <timeoutcount+0x7c4>
    ad56:	6f69                	.insn	2, 0x6f69
    ad58:	206e                	.insn	2, 0x206e
    ad5a:	6441                	.insn	2, 0x6441
    ad5c:	7264                	.insn	2, 0x7264
    ad5e:	7365                	.insn	2, 0x7365
    ad60:	00203a73          	csrrc	s4,frm,zero

Disassembly of section .comment:

00000000 <.comment>:
   0:	3a434347          	.insn	4, 0x3a434347
   4:	2820                	.insn	2, 0x2820
   6:	2029                	.insn	2, 0x2029
   8:	3531                	.insn	2, 0x3531
   a:	312e                	.insn	2, 0x312e
   c:	302e                	.insn	2, 0x302e
	...

Disassembly of section .riscv.attributes:

00000000 <.riscv.attributes>:
   0:	3641                	.insn	2, 0x3641
   2:	0000                	.insn	2, 0x0000
   4:	7200                	.insn	2, 0x7200
   6:	7369                	.insn	2, 0x7369
   8:	01007663          	bgeu	zero,a6,14 <_isr_routine+0xc>
   c:	002c                	.insn	2, 0x002c
   e:	0000                	.insn	2, 0x0000
  10:	1004                	.insn	2, 0x1004
  12:	7205                	.insn	2, 0x7205
  14:	3376                	.insn	2, 0x3376
  16:	6932                	.insn	2, 0x6932
  18:	7032                	.insn	2, 0x7032
  1a:	5f31                	.insn	2, 0x5f31
  1c:	326d                	.insn	2, 0x326d
  1e:	3070                	.insn	2, 0x3070
  20:	7a5f 6369 7273      	.insn	6, 0x727363697a5f
  26:	7032                	.insn	2, 0x7032
  28:	5f30                	.insn	2, 0x5f30
  2a:	6d7a                	.insn	2, 0x6d7a
  2c:	756d                	.insn	2, 0x756d
  2e:	316c                	.insn	2, 0x316c
  30:	3070                	.insn	2, 0x3070
  32:	0800                	.insn	2, 0x0800
  34:	0a01                	.insn	2, 0x0a01
  36:	0b                	.byte	0x0b
